

---GAME START @ 2015-5-13-10-47-15---
reg: 4444 simplebot 
reg: 6666 simplebot 
reg: 2222 randombot 
reg: 3333 callbot 
reg: 1111 randombot 
reg: 5555 raisecallbot 
reg: 7777 cleverbot 
reg: 8888 callbot 

-----1 Hand-----

----- clean player data in socket -----
seat/ 
button: 4444 2000 8000 
small blind: 7777 2000 8000 
big blind: 6666 2000 8000 
3333 2000 8000 
8888 2000 8000 
2222 2000 8000 
1111 2000 8000 
5555 2000 8000 
/seat 
blind/ 
7777: 50 
6666: 100 
/blind 
player 7777:hold/ 
SPADES 7 
CLUBS 10 
/hold 
player 6666:hold/ 
DIAMONDS J 
SPADES J 
/hold 
player 3333:hold/ 
HEARTS A 
HEARTS 9 
/hold 
player 8888:hold/ 
CLUBS A 
HEARTS 8 
/hold 
player 2222:hold/ 
SPADES 5 
DIAMONDS 6 
/hold 
player 1111:hold/ 
CLUBS 6 
SPADES 10 
/hold 
player 5555:hold/ 
DIAMONDS Q 
CLUBS 8 
/hold 
player 4444:hold/ 
SPADES 6 
CLUBS 5 
/hold 

---pre flop round bet---
valid player: 8, all in player: 0, fold player: 0
send inquire msg to player 3333 
inquire/ 
6666 1900 8000 100 blind 
7777 1950 8000 50 blind 
total pot: 150 
/inquire 
recv from player 3333: check
send inquire msg to player 8888 
inquire/ 
3333 1900 8000 100 call 
6666 1900 8000 100 blind 
7777 1950 8000 50 blind 
total pot: 250 
/inquire 
recv from player 8888: check
send inquire msg to player 2222 
inquire/ 
8888 1900 8000 100 call 
3333 1900 8000 100 call 
6666 1900 8000 100 blind 
7777 1950 8000 50 blind 
total pot: 350 
/inquire 
recv from player 2222: fold
send inquire msg to player 1111 
inquire/ 
2222 2000 8000 0 fold 
8888 1900 8000 100 call 
3333 1900 8000 100 call 
6666 1900 8000 100 blind 
7777 1950 8000 50 blind 
total pot: 350 
/inquire 
recv from player 1111: fold
send inquire msg to player 5555 
inquire/ 
1111 2000 8000 0 fold 
2222 2000 8000 0 fold 
8888 1900 8000 100 call 
3333 1900 8000 100 call 
6666 1900 8000 100 blind 
7777 1950 8000 50 blind 
total pot: 350 
/inquire 
recv from player 5555: raise 0
send inquire msg to player 4444 
inquire/ 
5555 1800 8000 200 raise 
1111 2000 8000 0 fold 
2222 2000 8000 0 fold 
8888 1900 8000 100 call 
3333 1900 8000 100 call 
6666 1900 8000 100 blind 
7777 1950 8000 50 blind 
total pot: 550 
/inquire 
recv from player 4444: fold
send inquire msg to player 7777 
inquire/ 
4444 2000 8000 0 fold 
5555 1800 8000 200 raise 
1111 2000 8000 0 fold 
2222 2000 8000 0 fold 
8888 1900 8000 100 call 
3333 1900 8000 100 call 
6666 1900 8000 100 blind 
7777 1950 8000 50 blind 
total pot: 550 
/inquire 
recv from player 7777: check
send inquire msg to player 6666 
inquire/ 
7777 1800 8000 200 call 
4444 2000 8000 0 fold 
5555 1800 8000 200 raise 
1111 2000 8000 0 fold 
2222 2000 8000 0 fold 
8888 1900 8000 100 call 
3333 1900 8000 100 call 
6666 1900 8000 100 blind 
total pot: 700 
/inquire 
recv from player 6666: raise 283
send inquire msg to player 3333 
inquire/ 
6666 1517 8000 483 raise 
7777 1800 8000 200 call 
4444 2000 8000 0 fold 
5555 1800 8000 200 raise 
1111 2000 8000 0 fold 
2222 2000 8000 0 fold 
8888 1900 8000 100 call 
3333 1900 8000 100 call 
total pot: 1083 
/inquire 
recv from player 3333: check
send inquire msg to player 8888 
inquire/ 
3333 1517 8000 483 call 
6666 1517 8000 483 raise 
7777 1800 8000 200 call 
4444 2000 8000 0 fold 
5555 1800 8000 200 raise 
1111 2000 8000 0 fold 
2222 2000 8000 0 fold 
8888 1900 8000 100 call 
total pot: 1466 
/inquire 
recv from player 8888: check
send inquire msg to player 2222 
inquire/ 
8888 1517 8000 483 call 
3333 1517 8000 483 call 
6666 1517 8000 483 raise 
7777 1800 8000 200 call 
4444 2000 8000 0 fold 
5555 1800 8000 200 raise 
1111 2000 8000 0 fold 
2222 2000 8000 0 fold 
total pot: 1849 
/inquire 
send inquire msg to player 1111 
inquire/ 
2222 2000 8000 0 fold 
8888 1517 8000 483 call 
3333 1517 8000 483 call 
6666 1517 8000 483 raise 
7777 1800 8000 200 call 
4444 2000 8000 0 fold 
5555 1800 8000 200 raise 
1111 2000 8000 0 fold 
total pot: 1849 
/inquire 
send inquire msg to player 5555 
inquire/ 
1111 2000 8000 0 fold 
2222 2000 8000 0 fold 
8888 1517 8000 483 call 
3333 1517 8000 483 call 
6666 1517 8000 483 raise 
7777 1800 8000 200 call 
4444 2000 8000 0 fold 
5555 1800 8000 200 raise 
total pot: 1849 
/inquire 
recv from player 5555: raise 0
send inquire msg to player 4444 
inquire/ 
5555 1234 8000 766 raise 
1111 2000 8000 0 fold 
2222 2000 8000 0 fold 
8888 1517 8000 483 call 
3333 1517 8000 483 call 
6666 1517 8000 483 raise 
7777 1800 8000 200 call 
4444 2000 8000 0 fold 
total pot: 2415 
/inquire 
send inquire msg to player 7777 
inquire/ 
4444 2000 8000 0 fold 
5555 1234 8000 766 raise 
1111 2000 8000 0 fold 
2222 2000 8000 0 fold 
8888 1517 8000 483 call 
3333 1517 8000 483 call 
6666 1517 8000 483 raise 
7777 1800 8000 200 call 
total pot: 2415 
/inquire 
recv from player 7777: fold
send inquire msg to player 6666 
inquire/ 
7777 1800 8000 200 fold 
4444 2000 8000 0 fold 
5555 1234 8000 766 raise 
1111 2000 8000 0 fold 
2222 2000 8000 0 fold 
8888 1517 8000 483 call 
3333 1517 8000 483 call 
6666 1517 8000 483 raise 
total pot: 2415 
/inquire 
recv from player 6666: check
send inquire msg to player 3333 
inquire/ 
6666 1234 8000 766 call 
7777 1800 8000 200 fold 
4444 2000 8000 0 fold 
5555 1234 8000 766 raise 
1111 2000 8000 0 fold 
2222 2000 8000 0 fold 
8888 1517 8000 483 call 
3333 1517 8000 483 call 
total pot: 2698 
/inquire 
recv from player 3333: check
send inquire msg to player 8888 
inquire/ 
3333 1234 8000 766 call 
6666 1234 8000 766 call 
7777 1800 8000 200 fold 
4444 2000 8000 0 fold 
5555 1234 8000 766 raise 
1111 2000 8000 0 fold 
2222 2000 8000 0 fold 
8888 1517 8000 483 call 
total pot: 2981 
/inquire 
recv from player 8888: check
flop/ 
HEARTS Q 
SPADES 2 
DIAMONDS 3 
/flop 

---flop round bet---
valid player: 8, all in player: 0, fold player: 4
send inquire msg to player 7777 
inquire/ 
4444 2000 8000 0 fold 
5555 1234 8000 766 raise 
1111 2000 8000 0 fold 
2222 2000 8000 0 fold 
8888 1234 8000 766 call 
3333 1234 8000 766 call 
6666 1234 8000 766 call 
7777 1800 8000 200 fold 
total pot: 3264 
/inquire 
send inquire msg to player 6666 
inquire/ 
7777 1800 8000 200 fold 
4444 2000 8000 0 fold 
5555 1234 8000 766 raise 
1111 2000 8000 0 fold 
2222 2000 8000 0 fold 
8888 1234 8000 766 call 
3333 1234 8000 766 call 
6666 1234 8000 766 call 
total pot: 3264 
/inquire 
recv from player 6666: check
send inquire msg to player 3333 
inquire/ 
6666 1234 8000 766 check 
7777 1800 8000 200 fold 
4444 2000 8000 0 fold 
5555 1234 8000 766 raise 
1111 2000 8000 0 fold 
2222 2000 8000 0 fold 
8888 1234 8000 766 call 
3333 1234 8000 766 call 
total pot: 3264 
/inquire 
recv from player 3333: check
send inquire msg to player 8888 
inquire/ 
3333 1234 8000 766 check 
6666 1234 8000 766 check 
7777 1800 8000 200 fold 
4444 2000 8000 0 fold 
5555 1234 8000 766 raise 
1111 2000 8000 0 fold 
2222 2000 8000 0 fold 
8888 1234 8000 766 call 
total pot: 3264 
/inquire 
recv from player 8888: check
send inquire msg to player 2222 
inquire/ 
8888 1234 8000 766 check 
3333 1234 8000 766 check 
6666 1234 8000 766 check 
7777 1800 8000 200 fold 
4444 2000 8000 0 fold 
5555 1234 8000 766 raise 
1111 2000 8000 0 fold 
2222 2000 8000 0 fold 
total pot: 3264 
/inquire 
send inquire msg to player 1111 
inquire/ 
2222 2000 8000 0 fold 
8888 1234 8000 766 check 
3333 1234 8000 766 check 
6666 1234 8000 766 check 
7777 1800 8000 200 fold 
4444 2000 8000 0 fold 
5555 1234 8000 766 raise 
1111 2000 8000 0 fold 
total pot: 3264 
/inquire 
send inquire msg to player 5555 
inquire/ 
1111 2000 8000 0 fold 
2222 2000 8000 0 fold 
8888 1234 8000 766 check 
3333 1234 8000 766 check 
6666 1234 8000 766 check 
7777 1800 8000 200 fold 
4444 2000 8000 0 fold 
5555 1234 8000 766 raise 
total pot: 3264 
/inquire 
recv from player 5555: check
turn/ 
DIAMONDS 8 
/turn 

---turn round bet---
valid player: 8, all in player: 0, fold player: 4
send inquire msg to player 7777 
inquire/ 
4444 2000 8000 0 fold 
5555 1234 8000 766 check 
1111 2000 8000 0 fold 
2222 2000 8000 0 fold 
8888 1234 8000 766 check 
3333 1234 8000 766 check 
6666 1234 8000 766 check 
7777 1800 8000 200 fold 
total pot: 3264 
/inquire 
send inquire msg to player 6666 
inquire/ 
7777 1800 8000 200 fold 
4444 2000 8000 0 fold 
5555 1234 8000 766 check 
1111 2000 8000 0 fold 
2222 2000 8000 0 fold 
8888 1234 8000 766 check 
3333 1234 8000 766 check 
6666 1234 8000 766 check 
total pot: 3264 
/inquire 
recv from player 6666: check
send inquire msg to player 3333 
inquire/ 
6666 1234 8000 766 check 
7777 1800 8000 200 fold 
4444 2000 8000 0 fold 
5555 1234 8000 766 check 
1111 2000 8000 0 fold 
2222 2000 8000 0 fold 
8888 1234 8000 766 check 
3333 1234 8000 766 check 
total pot: 3264 
/inquire 
recv from player 3333: check
send inquire msg to player 8888 
inquire/ 
3333 1234 8000 766 check 
6666 1234 8000 766 check 
7777 1800 8000 200 fold 
4444 2000 8000 0 fold 
5555 1234 8000 766 check 
1111 2000 8000 0 fold 
2222 2000 8000 0 fold 
8888 1234 8000 766 check 
total pot: 3264 
/inquire 
recv from player 8888: check
send inquire msg to player 2222 
inquire/ 
8888 1234 8000 766 check 
3333 1234 8000 766 check 
6666 1234 8000 766 check 
7777 1800 8000 200 fold 
4444 2000 8000 0 fold 
5555 1234 8000 766 check 
1111 2000 8000 0 fold 
2222 2000 8000 0 fold 
total pot: 3264 
/inquire 
send inquire msg to player 1111 
inquire/ 
2222 2000 8000 0 fold 
8888 1234 8000 766 check 
3333 1234 8000 766 check 
6666 1234 8000 766 check 
7777 1800 8000 200 fold 
4444 2000 8000 0 fold 
5555 1234 8000 766 check 
1111 2000 8000 0 fold 
total pot: 3264 
/inquire 
send inquire msg to player 5555 
inquire/ 
1111 2000 8000 0 fold 
2222 2000 8000 0 fold 
8888 1234 8000 766 check 
3333 1234 8000 766 check 
6666 1234 8000 766 check 
7777 1800 8000 200 fold 
4444 2000 8000 0 fold 
5555 1234 8000 766 check 
total pot: 3264 
/inquire 
recv from player 5555: raise 0
send inquire msg to player 4444 
inquire/ 
5555 1134 8000 866 raise 
1111 2000 8000 0 fold 
2222 2000 8000 0 fold 
8888 1234 8000 766 check 
3333 1234 8000 766 check 
6666 1234 8000 766 check 
7777 1800 8000 200 fold 
4444 2000 8000 0 fold 
total pot: 3364 
/inquire 
send inquire msg to player 7777 
inquire/ 
4444 2000 8000 0 fold 
5555 1134 8000 866 raise 
1111 2000 8000 0 fold 
2222 2000 8000 0 fold 
8888 1234 8000 766 check 
3333 1234 8000 766 check 
6666 1234 8000 766 check 
7777 1800 8000 200 fold 
total pot: 3364 
/inquire 
send inquire msg to player 6666 
inquire/ 
7777 1800 8000 200 fold 
4444 2000 8000 0 fold 
5555 1134 8000 866 raise 
1111 2000 8000 0 fold 
2222 2000 8000 0 fold 
8888 1234 8000 766 check 
3333 1234 8000 766 check 
6666 1234 8000 766 check 
total pot: 3364 
/inquire 
recv from player 6666: check
send inquire msg to player 3333 
inquire/ 
6666 1134 8000 866 call 
7777 1800 8000 200 fold 
4444 2000 8000 0 fold 
5555 1134 8000 866 raise 
1111 2000 8000 0 fold 
2222 2000 8000 0 fold 
8888 1234 8000 766 check 
3333 1234 8000 766 check 
total pot: 3464 
/inquire 
recv from player 3333: check
send inquire msg to player 8888 
inquire/ 
3333 1134 8000 866 call 
6666 1134 8000 866 call 
7777 1800 8000 200 fold 
4444 2000 8000 0 fold 
5555 1134 8000 866 raise 
1111 2000 8000 0 fold 
2222 2000 8000 0 fold 
8888 1234 8000 766 check 
total pot: 3564 
/inquire 
recv from player 8888: check
river/ 
HEARTS 4 
/river 

---river round bet---
valid player: 8, all in player: 0, fold player: 4
send inquire msg to player 7777 
inquire/ 
4444 2000 8000 0 fold 
5555 1134 8000 866 raise 
1111 2000 8000 0 fold 
2222 2000 8000 0 fold 
8888 1134 8000 866 call 
3333 1134 8000 866 call 
6666 1134 8000 866 call 
7777 1800 8000 200 fold 
total pot: 3664 
/inquire 
send inquire msg to player 6666 
inquire/ 
7777 1800 8000 200 fold 
4444 2000 8000 0 fold 
5555 1134 8000 866 raise 
1111 2000 8000 0 fold 
2222 2000 8000 0 fold 
8888 1134 8000 866 call 
3333 1134 8000 866 call 
6666 1134 8000 866 call 
total pot: 3664 
/inquire 
recv from player 6666: check
send inquire msg to player 3333 
inquire/ 
6666 1134 8000 866 check 
7777 1800 8000 200 fold 
4444 2000 8000 0 fold 
5555 1134 8000 866 raise 
1111 2000 8000 0 fold 
2222 2000 8000 0 fold 
8888 1134 8000 866 call 
3333 1134 8000 866 call 
total pot: 3664 
/inquire 
recv from player 3333: check
send inquire msg to player 8888 
inquire/ 
3333 1134 8000 866 check 
6666 1134 8000 866 check 
7777 1800 8000 200 fold 
4444 2000 8000 0 fold 
5555 1134 8000 866 raise 
1111 2000 8000 0 fold 
2222 2000 8000 0 fold 
8888 1134 8000 866 call 
total pot: 3664 
/inquire 
recv from player 8888: check
send inquire msg to player 2222 
inquire/ 
8888 1134 8000 866 check 
3333 1134 8000 866 check 
6666 1134 8000 866 check 
7777 1800 8000 200 fold 
4444 2000 8000 0 fold 
5555 1134 8000 866 raise 
1111 2000 8000 0 fold 
2222 2000 8000 0 fold 
total pot: 3664 
/inquire 
send inquire msg to player 1111 
inquire/ 
2222 2000 8000 0 fold 
8888 1134 8000 866 check 
3333 1134 8000 866 check 
6666 1134 8000 866 check 
7777 1800 8000 200 fold 
4444 2000 8000 0 fold 
5555 1134 8000 866 raise 
1111 2000 8000 0 fold 
total pot: 3664 
/inquire 
send inquire msg to player 5555 
inquire/ 
1111 2000 8000 0 fold 
2222 2000 8000 0 fold 
8888 1134 8000 866 check 
3333 1134 8000 866 check 
6666 1134 8000 866 check 
7777 1800 8000 200 fold 
4444 2000 8000 0 fold 
5555 1134 8000 866 raise 
total pot: 3664 
/inquire 
recv from player 5555: raise 0
send inquire msg to player 4444 
inquire/ 
5555 1034 8000 966 raise 
1111 2000 8000 0 fold 
2222 2000 8000 0 fold 
8888 1134 8000 866 check 
3333 1134 8000 866 check 
6666 1134 8000 866 check 
7777 1800 8000 200 fold 
4444 2000 8000 0 fold 
total pot: 3764 
/inquire 
send inquire msg to player 7777 
inquire/ 
4444 2000 8000 0 fold 
5555 1034 8000 966 raise 
1111 2000 8000 0 fold 
2222 2000 8000 0 fold 
8888 1134 8000 866 check 
3333 1134 8000 866 check 
6666 1134 8000 866 check 
7777 1800 8000 200 fold 
total pot: 3764 
/inquire 
send inquire msg to player 6666 
inquire/ 
7777 1800 8000 200 fold 
4444 2000 8000 0 fold 
5555 1034 8000 966 raise 
1111 2000 8000 0 fold 
2222 2000 8000 0 fold 
8888 1134 8000 866 check 
3333 1134 8000 866 check 
6666 1134 8000 866 check 
total pot: 3764 
/inquire 
recv from player 6666: check
send inquire msg to player 3333 
inquire/ 
6666 1034 8000 966 call 
7777 1800 8000 200 fold 
4444 2000 8000 0 fold 
5555 1034 8000 966 raise 
1111 2000 8000 0 fold 
2222 2000 8000 0 fold 
8888 1134 8000 866 check 
3333 1134 8000 866 check 
total pot: 3864 
/inquire 
recv from player 3333: check
send inquire msg to player 8888 
inquire/ 
3333 1034 8000 966 call 
6666 1034 8000 966 call 
7777 1800 8000 200 fold 
4444 2000 8000 0 fold 
5555 1034 8000 966 raise 
1111 2000 8000 0 fold 
2222 2000 8000 0 fold 
8888 1134 8000 866 check 
total pot: 3964 
/inquire 
recv from player 8888: check

---show down---
showdown/ 
common/ 
HEARTS Q 
SPADES 2 
DIAMONDS 3 
DIAMONDS 8 
HEARTS 4 
/common 
2: 6666 DIAMONDS J SPADES J ONE_PAIR 
4: 3333 HEARTS A HEARTS 9 HIGH_CARD 
3: 8888 CLUBS A HEARTS 8 ONE_PAIR 
1: 5555 DIAMONDS Q CLUBS 8 TWO_PAIR 
/showdown 

---Allocate pot---
pot-win/ 
5555: 4064 
/pot-win 
it is player 7777's turn to be button

-----2 Hand-----

----- clean player data in socket -----
seat/ 
button: 7777 1800 8000 
small blind: 6666 1034 8000 
big blind: 3333 1034 8000 
8888 1034 8000 
2222 2000 8000 
1111 2000 8000 
5555 5098 8000 
4444 2000 8000 
/seat 
blind/ 
6666: 50 
3333: 100 
/blind 
player 6666:hold/ 
CLUBS K 
DIAMONDS 6 
/hold 
player 3333:hold/ 
CLUBS A 
CLUBS 10 
/hold 
player 8888:hold/ 
HEARTS A 
CLUBS J 
/hold 
player 2222:hold/ 
HEARTS 3 
SPADES 7 
/hold 
player 1111:hold/ 
CLUBS 3 
CLUBS 2 
/hold 
player 5555:hold/ 
HEARTS 4 
SPADES 9 
/hold 
player 4444:hold/ 
SPADES 3 
HEARTS 7 
/hold 
player 7777:hold/ 
HEARTS 5 
HEARTS 6 
/hold 

---pre flop round bet---
valid player: 8, all in player: 0, fold player: 0
send inquire msg to player 8888 
inquire/ 
3333 934 8000 100 blind 
6666 984 8000 50 blind 
total pot: 150 
/inquire 
recv from player 8888: check
send inquire msg to player 2222 
inquire/ 
8888 934 8000 100 call 
3333 934 8000 100 blind 
6666 984 8000 50 blind 
total pot: 250 
/inquire 
recv from player 2222: fold
send inquire msg to player 1111 
inquire/ 
2222 2000 8000 0 fold 
8888 934 8000 100 call 
3333 934 8000 100 blind 
6666 984 8000 50 blind 
total pot: 250 
/inquire 
recv from player 1111: fold
send inquire msg to player 5555 
inquire/ 
1111 2000 8000 0 fold 
2222 2000 8000 0 fold 
8888 934 8000 100 call 
3333 934 8000 100 blind 
6666 984 8000 50 blind 
total pot: 250 
/inquire 
recv from player 5555: check
send inquire msg to player 4444 
inquire/ 
5555 4998 8000 100 call 
1111 2000 8000 0 fold 
2222 2000 8000 0 fold 
8888 934 8000 100 call 
3333 934 8000 100 blind 
6666 984 8000 50 blind 
total pot: 350 
/inquire 
recv from player 4444: fold
send inquire msg to player 7777 
inquire/ 
4444 2000 8000 0 fold 
5555 4998 8000 100 call 
1111 2000 8000 0 fold 
2222 2000 8000 0 fold 
8888 934 8000 100 call 
3333 934 8000 100 blind 
6666 984 8000 50 blind 
total pot: 350 
/inquire 
recv from player 7777: check
send inquire msg to player 6666 
inquire/ 
7777 1700 8000 100 call 
4444 2000 8000 0 fold 
5555 4998 8000 100 call 
1111 2000 8000 0 fold 
2222 2000 8000 0 fold 
8888 934 8000 100 call 
3333 934 8000 100 blind 
6666 984 8000 50 blind 
total pot: 450 
/inquire 
recv from player 6666: check
send inquire msg to player 3333 
inquire/ 
6666 934 8000 100 call 
7777 1700 8000 100 call 
4444 2000 8000 0 fold 
5555 4998 8000 100 call 
1111 2000 8000 0 fold 
2222 2000 8000 0 fold 
8888 934 8000 100 call 
3333 934 8000 100 blind 
total pot: 500 
/inquire 
recv from player 3333: check
flop/ 
CLUBS 7 
DIAMONDS K 
CLUBS 4 
/flop 

---flop round bet---
valid player: 8, all in player: 0, fold player: 3
send inquire msg to player 6666 
inquire/ 
7777 1700 8000 100 call 
4444 2000 8000 0 fold 
5555 4998 8000 100 call 
1111 2000 8000 0 fold 
2222 2000 8000 0 fold 
8888 934 8000 100 call 
3333 934 8000 100 check 
6666 934 8000 100 call 
total pot: 500 
/inquire 
recv from player 6666: raise 112
send inquire msg to player 3333 
inquire/ 
6666 822 8000 212 raise 
7777 1700 8000 100 call 
4444 2000 8000 0 fold 
5555 4998 8000 100 call 
1111 2000 8000 0 fold 
2222 2000 8000 0 fold 
8888 934 8000 100 call 
3333 934 8000 100 check 
total pot: 612 
/inquire 
recv from player 3333: check
send inquire msg to player 8888 
inquire/ 
3333 822 8000 212 call 
6666 822 8000 212 raise 
7777 1700 8000 100 call 
4444 2000 8000 0 fold 
5555 4998 8000 100 call 
1111 2000 8000 0 fold 
2222 2000 8000 0 fold 
8888 934 8000 100 call 
total pot: 724 
/inquire 
recv from player 8888: check
send inquire msg to player 2222 
inquire/ 
8888 822 8000 212 call 
3333 822 8000 212 call 
6666 822 8000 212 raise 
7777 1700 8000 100 call 
4444 2000 8000 0 fold 
5555 4998 8000 100 call 
1111 2000 8000 0 fold 
2222 2000 8000 0 fold 
total pot: 836 
/inquire 
send inquire msg to player 1111 
inquire/ 
2222 2000 8000 0 fold 
8888 822 8000 212 call 
3333 822 8000 212 call 
6666 822 8000 212 raise 
7777 1700 8000 100 call 
4444 2000 8000 0 fold 
5555 4998 8000 100 call 
1111 2000 8000 0 fold 
total pot: 836 
/inquire 
send inquire msg to player 5555 
inquire/ 
1111 2000 8000 0 fold 
2222 2000 8000 0 fold 
8888 822 8000 212 call 
3333 822 8000 212 call 
6666 822 8000 212 raise 
7777 1700 8000 100 call 
4444 2000 8000 0 fold 
5555 4998 8000 100 call 
total pot: 836 
/inquire 
recv from player 5555: raise 0
send inquire msg to player 4444 
inquire/ 
5555 4774 8000 324 raise 
1111 2000 8000 0 fold 
2222 2000 8000 0 fold 
8888 822 8000 212 call 
3333 822 8000 212 call 
6666 822 8000 212 raise 
7777 1700 8000 100 call 
4444 2000 8000 0 fold 
total pot: 1060 
/inquire 
send inquire msg to player 7777 
inquire/ 
4444 2000 8000 0 fold 
5555 4774 8000 324 raise 
1111 2000 8000 0 fold 
2222 2000 8000 0 fold 
8888 822 8000 212 call 
3333 822 8000 212 call 
6666 822 8000 212 raise 
7777 1700 8000 100 call 
total pot: 1060 
/inquire 
recv from player 7777: check
send inquire msg to player 6666 
inquire/ 
7777 1476 8000 324 call 
4444 2000 8000 0 fold 
5555 4774 8000 324 raise 
1111 2000 8000 0 fold 
2222 2000 8000 0 fold 
8888 822 8000 212 call 
3333 822 8000 212 call 
6666 822 8000 212 raise 
total pot: 1284 
/inquire 
recv from player 6666: check
send inquire msg to player 3333 
inquire/ 
6666 710 8000 324 call 
7777 1476 8000 324 call 
4444 2000 8000 0 fold 
5555 4774 8000 324 raise 
1111 2000 8000 0 fold 
2222 2000 8000 0 fold 
8888 822 8000 212 call 
3333 822 8000 212 call 
total pot: 1396 
/inquire 
recv from player 3333: check
send inquire msg to player 8888 
inquire/ 
3333 710 8000 324 call 
6666 710 8000 324 call 
7777 1476 8000 324 call 
4444 2000 8000 0 fold 
5555 4774 8000 324 raise 
1111 2000 8000 0 fold 
2222 2000 8000 0 fold 
8888 822 8000 212 call 
total pot: 1508 
/inquire 
recv from player 8888: check
turn/ 
SPADES 10 
/turn 

---turn round bet---
valid player: 8, all in player: 0, fold player: 3
send inquire msg to player 6666 
inquire/ 
7777 1476 8000 324 call 
4444 2000 8000 0 fold 
5555 4774 8000 324 raise 
1111 2000 8000 0 fold 
2222 2000 8000 0 fold 
8888 710 8000 324 call 
3333 710 8000 324 call 
6666 710 8000 324 call 
total pot: 1620 
/inquire 
recv from player 6666: check
send inquire msg to player 3333 
inquire/ 
6666 710 8000 324 check 
7777 1476 8000 324 call 
4444 2000 8000 0 fold 
5555 4774 8000 324 raise 
1111 2000 8000 0 fold 
2222 2000 8000 0 fold 
8888 710 8000 324 call 
3333 710 8000 324 call 
total pot: 1620 
/inquire 
recv from player 3333: check
send inquire msg to player 8888 
inquire/ 
3333 710 8000 324 check 
6666 710 8000 324 check 
7777 1476 8000 324 call 
4444 2000 8000 0 fold 
5555 4774 8000 324 raise 
1111 2000 8000 0 fold 
2222 2000 8000 0 fold 
8888 710 8000 324 call 
total pot: 1620 
/inquire 
recv from player 8888: check
send inquire msg to player 2222 
inquire/ 
8888 710 8000 324 check 
3333 710 8000 324 check 
6666 710 8000 324 check 
7777 1476 8000 324 call 
4444 2000 8000 0 fold 
5555 4774 8000 324 raise 
1111 2000 8000 0 fold 
2222 2000 8000 0 fold 
total pot: 1620 
/inquire 
send inquire msg to player 1111 
inquire/ 
2222 2000 8000 0 fold 
8888 710 8000 324 check 
3333 710 8000 324 check 
6666 710 8000 324 check 
7777 1476 8000 324 call 
4444 2000 8000 0 fold 
5555 4774 8000 324 raise 
1111 2000 8000 0 fold 
total pot: 1620 
/inquire 
send inquire msg to player 5555 
inquire/ 
1111 2000 8000 0 fold 
2222 2000 8000 0 fold 
8888 710 8000 324 check 
3333 710 8000 324 check 
6666 710 8000 324 check 
7777 1476 8000 324 call 
4444 2000 8000 0 fold 
5555 4774 8000 324 raise 
total pot: 1620 
/inquire 
recv from player 5555: check
send inquire msg to player 4444 
inquire/ 
5555 4774 8000 324 check 
1111 2000 8000 0 fold 
2222 2000 8000 0 fold 
8888 710 8000 324 check 
3333 710 8000 324 check 
6666 710 8000 324 check 
7777 1476 8000 324 call 
4444 2000 8000 0 fold 
total pot: 1620 
/inquire 
send inquire msg to player 7777 
inquire/ 
4444 2000 8000 0 fold 
5555 4774 8000 324 check 
1111 2000 8000 0 fold 
2222 2000 8000 0 fold 
8888 710 8000 324 check 
3333 710 8000 324 check 
6666 710 8000 324 check 
7777 1476 8000 324 call 
total pot: 1620 
/inquire 
recv from player 7777: check
river/ 
SPADES J 
/river 

---river round bet---
valid player: 8, all in player: 0, fold player: 3
send inquire msg to player 6666 
inquire/ 
7777 1476 8000 324 check 
4444 2000 8000 0 fold 
5555 4774 8000 324 check 
1111 2000 8000 0 fold 
2222 2000 8000 0 fold 
8888 710 8000 324 check 
3333 710 8000 324 check 
6666 710 8000 324 check 
total pot: 1620 
/inquire 
recv from player 6666: check
send inquire msg to player 3333 
inquire/ 
6666 710 8000 324 check 
7777 1476 8000 324 check 
4444 2000 8000 0 fold 
5555 4774 8000 324 check 
1111 2000 8000 0 fold 
2222 2000 8000 0 fold 
8888 710 8000 324 check 
3333 710 8000 324 check 
total pot: 1620 
/inquire 
recv from player 3333: check
send inquire msg to player 8888 
inquire/ 
3333 710 8000 324 check 
6666 710 8000 324 check 
7777 1476 8000 324 check 
4444 2000 8000 0 fold 
5555 4774 8000 324 check 
1111 2000 8000 0 fold 
2222 2000 8000 0 fold 
8888 710 8000 324 check 
total pot: 1620 
/inquire 
recv from player 8888: check
send inquire msg to player 2222 
inquire/ 
8888 710 8000 324 check 
3333 710 8000 324 check 
6666 710 8000 324 check 
7777 1476 8000 324 check 
4444 2000 8000 0 fold 
5555 4774 8000 324 check 
1111 2000 8000 0 fold 
2222 2000 8000 0 fold 
total pot: 1620 
/inquire 
send inquire msg to player 1111 
inquire/ 
2222 2000 8000 0 fold 
8888 710 8000 324 check 
3333 710 8000 324 check 
6666 710 8000 324 check 
7777 1476 8000 324 check 
4444 2000 8000 0 fold 
5555 4774 8000 324 check 
1111 2000 8000 0 fold 
total pot: 1620 
/inquire 
send inquire msg to player 5555 
inquire/ 
1111 2000 8000 0 fold 
2222 2000 8000 0 fold 
8888 710 8000 324 check 
3333 710 8000 324 check 
6666 710 8000 324 check 
7777 1476 8000 324 check 
4444 2000 8000 0 fold 
5555 4774 8000 324 check 
total pot: 1620 
/inquire 
recv from player 5555: check
send inquire msg to player 4444 
inquire/ 
5555 4774 8000 324 check 
1111 2000 8000 0 fold 
2222 2000 8000 0 fold 
8888 710 8000 324 check 
3333 710 8000 324 check 
6666 710 8000 324 check 
7777 1476 8000 324 check 
4444 2000 8000 0 fold 
total pot: 1620 
/inquire 
send inquire msg to player 7777 
inquire/ 
4444 2000 8000 0 fold 
5555 4774 8000 324 check 
1111 2000 8000 0 fold 
2222 2000 8000 0 fold 
8888 710 8000 324 check 
3333 710 8000 324 check 
6666 710 8000 324 check 
7777 1476 8000 324 check 
total pot: 1620 
/inquire 
recv from player 7777: check

---show down---
showdown/ 
common/ 
CLUBS 7 
DIAMONDS K 
CLUBS 4 
SPADES 10 
SPADES J 
/common 
1: 6666 CLUBS K DIAMONDS 6 ONE_PAIR 
3: 3333 CLUBS A CLUBS 10 ONE_PAIR 
2: 8888 HEARTS A CLUBS J ONE_PAIR 
4: 5555 HEARTS 4 SPADES 9 ONE_PAIR 
5: 7777 HEARTS 5 HEARTS 6 HIGH_CARD 
/showdown 

---Allocate pot---
pot-win/ 
6666: 1620 
/pot-win 
it is player 6666's turn to be button

-----3 Hand-----

----- clean player data in socket -----
seat/ 
button: 6666 2330 8000 
small blind: 3333 710 8000 
big blind: 8888 710 8000 
2222 2000 8000 
1111 2000 8000 
5555 4774 8000 
4444 2000 8000 
7777 1476 8000 
/seat 
blind/ 
3333: 50 
8888: 100 
/blind 
player 3333:hold/ 
HEARTS 9 
SPADES 3 
/hold 
player 8888:hold/ 
SPADES Q 
HEARTS 2 
/hold 
player 2222:hold/ 
SPADES J 
SPADES 2 
/hold 
player 1111:hold/ 
SPADES 6 
DIAMONDS K 
/hold 
player 5555:hold/ 
DIAMONDS 6 
SPADES A 
/hold 
player 4444:hold/ 
HEARTS 5 
CLUBS 10 
/hold 
player 7777:hold/ 
CLUBS Q 
CLUBS 2 
/hold 
player 6666:hold/ 
HEARTS 10 
CLUBS 4 
/hold 

---pre flop round bet---
valid player: 8, all in player: 0, fold player: 0
send inquire msg to player 2222 
inquire/ 
8888 610 8000 100 blind 
3333 660 8000 50 blind 
total pot: 150 
/inquire 
recv from player 2222: fold
send inquire msg to player 1111 
inquire/ 
2222 2000 8000 0 fold 
8888 610 8000 100 blind 
3333 660 8000 50 blind 
total pot: 150 
/inquire 
recv from player 1111: fold
send inquire msg to player 5555 
inquire/ 
1111 2000 8000 0 fold 
2222 2000 8000 0 fold 
8888 610 8000 100 blind 
3333 660 8000 50 blind 
total pot: 150 
/inquire 
recv from player 5555: check
send inquire msg to player 4444 
inquire/ 
5555 4674 8000 100 call 
1111 2000 8000 0 fold 
2222 2000 8000 0 fold 
8888 610 8000 100 blind 
3333 660 8000 50 blind 
total pot: 250 
/inquire 
recv from player 4444: fold
send inquire msg to player 7777 
inquire/ 
4444 2000 8000 0 fold 
5555 4674 8000 100 call 
1111 2000 8000 0 fold 
2222 2000 8000 0 fold 
8888 610 8000 100 blind 
3333 660 8000 50 blind 
total pot: 250 
/inquire 
recv from player 7777: check
send inquire msg to player 6666 
inquire/ 
7777 1376 8000 100 call 
4444 2000 8000 0 fold 
5555 4674 8000 100 call 
1111 2000 8000 0 fold 
2222 2000 8000 0 fold 
8888 610 8000 100 blind 
3333 660 8000 50 blind 
total pot: 350 
/inquire 
recv from player 6666: fold
send inquire msg to player 3333 
inquire/ 
6666 2330 8000 0 fold 
7777 1376 8000 100 call 
4444 2000 8000 0 fold 
5555 4674 8000 100 call 
1111 2000 8000 0 fold 
2222 2000 8000 0 fold 
8888 610 8000 100 blind 
3333 660 8000 50 blind 
total pot: 350 
/inquire 
recv from player 3333: check
send inquire msg to player 8888 
inquire/ 
3333 610 8000 100 call 
6666 2330 8000 0 fold 
7777 1376 8000 100 call 
4444 2000 8000 0 fold 
5555 4674 8000 100 call 
1111 2000 8000 0 fold 
2222 2000 8000 0 fold 
8888 610 8000 100 blind 
total pot: 400 
/inquire 
recv from player 8888: check
flop/ 
DIAMONDS 8 
CLUBS 7 
CLUBS 8 
/flop 

---flop round bet---
valid player: 8, all in player: 0, fold player: 4
send inquire msg to player 3333 
inquire/ 
6666 2330 8000 0 fold 
7777 1376 8000 100 call 
4444 2000 8000 0 fold 
5555 4674 8000 100 call 
1111 2000 8000 0 fold 
2222 2000 8000 0 fold 
8888 610 8000 100 check 
3333 610 8000 100 call 
total pot: 400 
/inquire 
recv from player 3333: check
send inquire msg to player 8888 
inquire/ 
3333 610 8000 100 check 
6666 2330 8000 0 fold 
7777 1376 8000 100 call 
4444 2000 8000 0 fold 
5555 4674 8000 100 call 
1111 2000 8000 0 fold 
2222 2000 8000 0 fold 
8888 610 8000 100 check 
total pot: 400 
/inquire 
recv from player 8888: check
send inquire msg to player 2222 
inquire/ 
8888 610 8000 100 check 
3333 610 8000 100 check 
6666 2330 8000 0 fold 
7777 1376 8000 100 call 
4444 2000 8000 0 fold 
5555 4674 8000 100 call 
1111 2000 8000 0 fold 
2222 2000 8000 0 fold 
total pot: 400 
/inquire 
send inquire msg to player 1111 
inquire/ 
2222 2000 8000 0 fold 
8888 610 8000 100 check 
3333 610 8000 100 check 
6666 2330 8000 0 fold 
7777 1376 8000 100 call 
4444 2000 8000 0 fold 
5555 4674 8000 100 call 
1111 2000 8000 0 fold 
total pot: 400 
/inquire 
send inquire msg to player 5555 
inquire/ 
1111 2000 8000 0 fold 
2222 2000 8000 0 fold 
8888 610 8000 100 check 
3333 610 8000 100 check 
6666 2330 8000 0 fold 
7777 1376 8000 100 call 
4444 2000 8000 0 fold 
5555 4674 8000 100 call 
total pot: 400 
/inquire 
recv from player 5555: check
send inquire msg to player 4444 
inquire/ 
5555 4674 8000 100 check 
1111 2000 8000 0 fold 
2222 2000 8000 0 fold 
8888 610 8000 100 check 
3333 610 8000 100 check 
6666 2330 8000 0 fold 
7777 1376 8000 100 call 
4444 2000 8000 0 fold 
total pot: 400 
/inquire 
send inquire msg to player 7777 
inquire/ 
4444 2000 8000 0 fold 
5555 4674 8000 100 check 
1111 2000 8000 0 fold 
2222 2000 8000 0 fold 
8888 610 8000 100 check 
3333 610 8000 100 check 
6666 2330 8000 0 fold 
7777 1376 8000 100 call 
total pot: 400 
/inquire 
recv from player 7777: check
turn/ 
DIAMONDS 9 
/turn 

---turn round bet---
valid player: 8, all in player: 0, fold player: 4
send inquire msg to player 3333 
inquire/ 
6666 2330 8000 0 fold 
7777 1376 8000 100 check 
4444 2000 8000 0 fold 
5555 4674 8000 100 check 
1111 2000 8000 0 fold 
2222 2000 8000 0 fold 
8888 610 8000 100 check 
3333 610 8000 100 check 
total pot: 400 
/inquire 
recv from player 3333: check
send inquire msg to player 8888 
inquire/ 
3333 610 8000 100 check 
6666 2330 8000 0 fold 
7777 1376 8000 100 check 
4444 2000 8000 0 fold 
5555 4674 8000 100 check 
1111 2000 8000 0 fold 
2222 2000 8000 0 fold 
8888 610 8000 100 check 
total pot: 400 
/inquire 
recv from player 8888: check
send inquire msg to player 2222 
inquire/ 
8888 610 8000 100 check 
3333 610 8000 100 check 
6666 2330 8000 0 fold 
7777 1376 8000 100 check 
4444 2000 8000 0 fold 
5555 4674 8000 100 check 
1111 2000 8000 0 fold 
2222 2000 8000 0 fold 
total pot: 400 
/inquire 
send inquire msg to player 1111 
inquire/ 
2222 2000 8000 0 fold 
8888 610 8000 100 check 
3333 610 8000 100 check 
6666 2330 8000 0 fold 
7777 1376 8000 100 check 
4444 2000 8000 0 fold 
5555 4674 8000 100 check 
1111 2000 8000 0 fold 
total pot: 400 
/inquire 
send inquire msg to player 5555 
inquire/ 
1111 2000 8000 0 fold 
2222 2000 8000 0 fold 
8888 610 8000 100 check 
3333 610 8000 100 check 
6666 2330 8000 0 fold 
7777 1376 8000 100 check 
4444 2000 8000 0 fold 
5555 4674 8000 100 check 
total pot: 400 
/inquire 
recv from player 5555: check
send inquire msg to player 4444 
inquire/ 
5555 4674 8000 100 check 
1111 2000 8000 0 fold 
2222 2000 8000 0 fold 
8888 610 8000 100 check 
3333 610 8000 100 check 
6666 2330 8000 0 fold 
7777 1376 8000 100 check 
4444 2000 8000 0 fold 
total pot: 400 
/inquire 
send inquire msg to player 7777 
inquire/ 
4444 2000 8000 0 fold 
5555 4674 8000 100 check 
1111 2000 8000 0 fold 
2222 2000 8000 0 fold 
8888 610 8000 100 check 
3333 610 8000 100 check 
6666 2330 8000 0 fold 
7777 1376 8000 100 check 
total pot: 400 
/inquire 
recv from player 7777: check
river/ 
CLUBS A 
/river 

---river round bet---
valid player: 8, all in player: 0, fold player: 4
send inquire msg to player 3333 
inquire/ 
6666 2330 8000 0 fold 
7777 1376 8000 100 check 
4444 2000 8000 0 fold 
5555 4674 8000 100 check 
1111 2000 8000 0 fold 
2222 2000 8000 0 fold 
8888 610 8000 100 check 
3333 610 8000 100 check 
total pot: 400 
/inquire 
recv from player 3333: check
send inquire msg to player 8888 
inquire/ 
3333 610 8000 100 check 
6666 2330 8000 0 fold 
7777 1376 8000 100 check 
4444 2000 8000 0 fold 
5555 4674 8000 100 check 
1111 2000 8000 0 fold 
2222 2000 8000 0 fold 
8888 610 8000 100 check 
total pot: 400 
/inquire 
recv from player 8888: check
send inquire msg to player 2222 
inquire/ 
8888 610 8000 100 check 
3333 610 8000 100 check 
6666 2330 8000 0 fold 
7777 1376 8000 100 check 
4444 2000 8000 0 fold 
5555 4674 8000 100 check 
1111 2000 8000 0 fold 
2222 2000 8000 0 fold 
total pot: 400 
/inquire 
send inquire msg to player 1111 
inquire/ 
2222 2000 8000 0 fold 
8888 610 8000 100 check 
3333 610 8000 100 check 
6666 2330 8000 0 fold 
7777 1376 8000 100 check 
4444 2000 8000 0 fold 
5555 4674 8000 100 check 
1111 2000 8000 0 fold 
total pot: 400 
/inquire 
send inquire msg to player 5555 
inquire/ 
1111 2000 8000 0 fold 
2222 2000 8000 0 fold 
8888 610 8000 100 check 
3333 610 8000 100 check 
6666 2330 8000 0 fold 
7777 1376 8000 100 check 
4444 2000 8000 0 fold 
5555 4674 8000 100 check 
total pot: 400 
/inquire 
recv from player 5555: check
send inquire msg to player 4444 
inquire/ 
5555 4674 8000 100 check 
1111 2000 8000 0 fold 
2222 2000 8000 0 fold 
8888 610 8000 100 check 
3333 610 8000 100 check 
6666 2330 8000 0 fold 
7777 1376 8000 100 check 
4444 2000 8000 0 fold 
total pot: 400 
/inquire 
send inquire msg to player 7777 
inquire/ 
4444 2000 8000 0 fold 
5555 4674 8000 100 check 
1111 2000 8000 0 fold 
2222 2000 8000 0 fold 
8888 610 8000 100 check 
3333 610 8000 100 check 
6666 2330 8000 0 fold 
7777 1376 8000 100 check 
total pot: 400 
/inquire 
recv from player 7777: check

---show down---
showdown/ 
common/ 
DIAMONDS 8 
CLUBS 7 
CLUBS 8 
DIAMONDS 9 
CLUBS A 
/common 
3: 3333 HEARTS 9 SPADES 3 TWO_PAIR 
4: 8888 SPADES Q HEARTS 2 ONE_PAIR 
2: 5555 DIAMONDS 6 SPADES A TWO_PAIR 
1: 7777 CLUBS Q CLUBS 2 FLUSH 
/showdown 

---Allocate pot---
pot-win/ 
7777: 400 
/pot-win 
it is player 3333's turn to be button

-----4 Hand-----

----- clean player data in socket -----
seat/ 
button: 3333 610 8000 
small blind: 8888 610 8000 
big blind: 2222 2000 8000 
1111 2000 8000 
5555 4674 8000 
4444 2000 8000 
7777 1776 8000 
6666 2330 8000 
/seat 
blind/ 
8888: 50 
2222: 100 
/blind 
player 8888:hold/ 
SPADES Q 
CLUBS Q 
/hold 
player 2222:hold/ 
HEARTS K 
CLUBS 10 
/hold 
player 1111:hold/ 
HEARTS 5 
SPADES K 
/hold 
player 5555:hold/ 
CLUBS 6 
CLUBS 2 
/hold 
player 4444:hold/ 
CLUBS 7 
DIAMONDS 3 
/hold 
player 7777:hold/ 
DIAMONDS J 
CLUBS A 
/hold 
player 6666:hold/ 
SPADES 3 
HEARTS Q 
/hold 
player 3333:hold/ 
CLUBS J 
SPADES 8 
/hold 

---pre flop round bet---
valid player: 8, all in player: 0, fold player: 0
send inquire msg to player 1111 
inquire/ 
2222 1900 8000 100 blind 
8888 560 8000 50 blind 
total pot: 150 
/inquire 
recv from player 1111: fold
send inquire msg to player 5555 
inquire/ 
1111 2000 8000 0 fold 
2222 1900 8000 100 blind 
8888 560 8000 50 blind 
total pot: 150 
/inquire 
recv from player 5555: check
send inquire msg to player 4444 
inquire/ 
5555 4574 8000 100 call 
1111 2000 8000 0 fold 
2222 1900 8000 100 blind 
8888 560 8000 50 blind 
total pot: 250 
/inquire 
recv from player 4444: fold
send inquire msg to player 7777 
inquire/ 
4444 2000 8000 0 fold 
5555 4574 8000 100 call 
1111 2000 8000 0 fold 
2222 1900 8000 100 blind 
8888 560 8000 50 blind 
total pot: 250 
/inquire 
recv from player 7777: fold
send inquire msg to player 6666 
inquire/ 
7777 1776 8000 0 fold 
4444 2000 8000 0 fold 
5555 4574 8000 100 call 
1111 2000 8000 0 fold 
2222 1900 8000 100 blind 
8888 560 8000 50 blind 
total pot: 250 
/inquire 
recv from player 6666: fold
send inquire msg to player 3333 
inquire/ 
6666 2330 8000 0 fold 
7777 1776 8000 0 fold 
4444 2000 8000 0 fold 
5555 4574 8000 100 call 
1111 2000 8000 0 fold 
2222 1900 8000 100 blind 
8888 560 8000 50 blind 
total pot: 250 
/inquire 
recv from player 3333: check
send inquire msg to player 8888 
inquire/ 
3333 510 8000 100 call 
6666 2330 8000 0 fold 
7777 1776 8000 0 fold 
4444 2000 8000 0 fold 
5555 4574 8000 100 call 
1111 2000 8000 0 fold 
2222 1900 8000 100 blind 
8888 560 8000 50 blind 
total pot: 350 
/inquire 
recv from player 8888: check
send inquire msg to player 2222 
inquire/ 
8888 510 8000 100 call 
3333 510 8000 100 call 
6666 2330 8000 0 fold 
7777 1776 8000 0 fold 
4444 2000 8000 0 fold 
5555 4574 8000 100 call 
1111 2000 8000 0 fold 
2222 1900 8000 100 blind 
total pot: 400 
/inquire 
recv from player 2222: fold
flop/ 
CLUBS 3 
SPADES 6 
SPADES 2 
/flop 

---flop round bet---
valid player: 8, all in player: 0, fold player: 5
send inquire msg to player 8888 
inquire/ 
3333 510 8000 100 call 
6666 2330 8000 0 fold 
7777 1776 8000 0 fold 
4444 2000 8000 0 fold 
5555 4574 8000 100 call 
1111 2000 8000 0 fold 
2222 1900 8000 100 fold 
8888 510 8000 100 call 
total pot: 400 
/inquire 
recv from player 8888: check
send inquire msg to player 2222 
inquire/ 
8888 510 8000 100 check 
3333 510 8000 100 call 
6666 2330 8000 0 fold 
7777 1776 8000 0 fold 
4444 2000 8000 0 fold 
5555 4574 8000 100 call 
1111 2000 8000 0 fold 
2222 1900 8000 100 fold 
total pot: 400 
/inquire 
send inquire msg to player 1111 
inquire/ 
2222 1900 8000 100 fold 
8888 510 8000 100 check 
3333 510 8000 100 call 
6666 2330 8000 0 fold 
7777 1776 8000 0 fold 
4444 2000 8000 0 fold 
5555 4574 8000 100 call 
1111 2000 8000 0 fold 
total pot: 400 
/inquire 
send inquire msg to player 5555 
inquire/ 
1111 2000 8000 0 fold 
2222 1900 8000 100 fold 
8888 510 8000 100 check 
3333 510 8000 100 call 
6666 2330 8000 0 fold 
7777 1776 8000 0 fold 
4444 2000 8000 0 fold 
5555 4574 8000 100 call 
total pot: 400 
/inquire 
recv from player 5555: check
send inquire msg to player 4444 
inquire/ 
5555 4574 8000 100 check 
1111 2000 8000 0 fold 
2222 1900 8000 100 fold 
8888 510 8000 100 check 
3333 510 8000 100 call 
6666 2330 8000 0 fold 
7777 1776 8000 0 fold 
4444 2000 8000 0 fold 
total pot: 400 
/inquire 
send inquire msg to player 7777 
inquire/ 
4444 2000 8000 0 fold 
5555 4574 8000 100 check 
1111 2000 8000 0 fold 
2222 1900 8000 100 fold 
8888 510 8000 100 check 
3333 510 8000 100 call 
6666 2330 8000 0 fold 
7777 1776 8000 0 fold 
total pot: 400 
/inquire 
send inquire msg to player 6666 
inquire/ 
7777 1776 8000 0 fold 
4444 2000 8000 0 fold 
5555 4574 8000 100 check 
1111 2000 8000 0 fold 
2222 1900 8000 100 fold 
8888 510 8000 100 check 
3333 510 8000 100 call 
6666 2330 8000 0 fold 
total pot: 400 
/inquire 
send inquire msg to player 3333 
inquire/ 
6666 2330 8000 0 fold 
7777 1776 8000 0 fold 
4444 2000 8000 0 fold 
5555 4574 8000 100 check 
1111 2000 8000 0 fold 
2222 1900 8000 100 fold 
8888 510 8000 100 check 
3333 510 8000 100 call 
total pot: 400 
/inquire 
recv from player 3333: check
turn/ 
DIAMONDS Q 
/turn 

---turn round bet---
valid player: 8, all in player: 0, fold player: 5
send inquire msg to player 8888 
inquire/ 
3333 510 8000 100 check 
6666 2330 8000 0 fold 
7777 1776 8000 0 fold 
4444 2000 8000 0 fold 
5555 4574 8000 100 check 
1111 2000 8000 0 fold 
2222 1900 8000 100 fold 
8888 510 8000 100 check 
total pot: 400 
/inquire 
recv from player 8888: check
send inquire msg to player 2222 
inquire/ 
8888 510 8000 100 check 
3333 510 8000 100 check 
6666 2330 8000 0 fold 
7777 1776 8000 0 fold 
4444 2000 8000 0 fold 
5555 4574 8000 100 check 
1111 2000 8000 0 fold 
2222 1900 8000 100 fold 
total pot: 400 
/inquire 
send inquire msg to player 1111 
inquire/ 
2222 1900 8000 100 fold 
8888 510 8000 100 check 
3333 510 8000 100 check 
6666 2330 8000 0 fold 
7777 1776 8000 0 fold 
4444 2000 8000 0 fold 
5555 4574 8000 100 check 
1111 2000 8000 0 fold 
total pot: 400 
/inquire 
send inquire msg to player 5555 
inquire/ 
1111 2000 8000 0 fold 
2222 1900 8000 100 fold 
8888 510 8000 100 check 
3333 510 8000 100 check 
6666 2330 8000 0 fold 
7777 1776 8000 0 fold 
4444 2000 8000 0 fold 
5555 4574 8000 100 check 
total pot: 400 
/inquire 
recv from player 5555: check
send inquire msg to player 4444 
inquire/ 
5555 4574 8000 100 check 
1111 2000 8000 0 fold 
2222 1900 8000 100 fold 
8888 510 8000 100 check 
3333 510 8000 100 check 
6666 2330 8000 0 fold 
7777 1776 8000 0 fold 
4444 2000 8000 0 fold 
total pot: 400 
/inquire 
send inquire msg to player 7777 
inquire/ 
4444 2000 8000 0 fold 
5555 4574 8000 100 check 
1111 2000 8000 0 fold 
2222 1900 8000 100 fold 
8888 510 8000 100 check 
3333 510 8000 100 check 
6666 2330 8000 0 fold 
7777 1776 8000 0 fold 
total pot: 400 
/inquire 
send inquire msg to player 6666 
inquire/ 
7777 1776 8000 0 fold 
4444 2000 8000 0 fold 
5555 4574 8000 100 check 
1111 2000 8000 0 fold 
2222 1900 8000 100 fold 
8888 510 8000 100 check 
3333 510 8000 100 check 
6666 2330 8000 0 fold 
total pot: 400 
/inquire 
send inquire msg to player 3333 
inquire/ 
6666 2330 8000 0 fold 
7777 1776 8000 0 fold 
4444 2000 8000 0 fold 
5555 4574 8000 100 check 
1111 2000 8000 0 fold 
2222 1900 8000 100 fold 
8888 510 8000 100 check 
3333 510 8000 100 check 
total pot: 400 
/inquire 
recv from player 3333: check
river/ 
HEARTS 8 
/river 

---river round bet---
valid player: 8, all in player: 0, fold player: 5
send inquire msg to player 8888 
inquire/ 
3333 510 8000 100 check 
6666 2330 8000 0 fold 
7777 1776 8000 0 fold 
4444 2000 8000 0 fold 
5555 4574 8000 100 check 
1111 2000 8000 0 fold 
2222 1900 8000 100 fold 
8888 510 8000 100 check 
total pot: 400 
/inquire 
recv from player 8888: check
send inquire msg to player 2222 
inquire/ 
8888 510 8000 100 check 
3333 510 8000 100 check 
6666 2330 8000 0 fold 
7777 1776 8000 0 fold 
4444 2000 8000 0 fold 
5555 4574 8000 100 check 
1111 2000 8000 0 fold 
2222 1900 8000 100 fold 
total pot: 400 
/inquire 
send inquire msg to player 1111 
inquire/ 
2222 1900 8000 100 fold 
8888 510 8000 100 check 
3333 510 8000 100 check 
6666 2330 8000 0 fold 
7777 1776 8000 0 fold 
4444 2000 8000 0 fold 
5555 4574 8000 100 check 
1111 2000 8000 0 fold 
total pot: 400 
/inquire 
send inquire msg to player 5555 
inquire/ 
1111 2000 8000 0 fold 
2222 1900 8000 100 fold 
8888 510 8000 100 check 
3333 510 8000 100 check 
6666 2330 8000 0 fold 
7777 1776 8000 0 fold 
4444 2000 8000 0 fold 
5555 4574 8000 100 check 
total pot: 400 
/inquire 
recv from player 5555: check
send inquire msg to player 4444 
inquire/ 
5555 4574 8000 100 check 
1111 2000 8000 0 fold 
2222 1900 8000 100 fold 
8888 510 8000 100 check 
3333 510 8000 100 check 
6666 2330 8000 0 fold 
7777 1776 8000 0 fold 
4444 2000 8000 0 fold 
total pot: 400 
/inquire 
send inquire msg to player 7777 
inquire/ 
4444 2000 8000 0 fold 
5555 4574 8000 100 check 
1111 2000 8000 0 fold 
2222 1900 8000 100 fold 
8888 510 8000 100 check 
3333 510 8000 100 check 
6666 2330 8000 0 fold 
7777 1776 8000 0 fold 
total pot: 400 
/inquire 
send inquire msg to player 6666 
inquire/ 
7777 1776 8000 0 fold 
4444 2000 8000 0 fold 
5555 4574 8000 100 check 
1111 2000 8000 0 fold 
2222 1900 8000 100 fold 
8888 510 8000 100 check 
3333 510 8000 100 check 
6666 2330 8000 0 fold 
total pot: 400 
/inquire 
send inquire msg to player 3333 
inquire/ 
6666 2330 8000 0 fold 
7777 1776 8000 0 fold 
4444 2000 8000 0 fold 
5555 4574 8000 100 check 
1111 2000 8000 0 fold 
2222 1900 8000 100 fold 
8888 510 8000 100 check 
3333 510 8000 100 check 
total pot: 400 
/inquire 
recv from player 3333: check

---show down---
showdown/ 
common/ 
CLUBS 3 
SPADES 6 
SPADES 2 
DIAMONDS Q 
HEARTS 8 
/common 
1: 8888 SPADES Q CLUBS Q THREE_OF_A_KIND 
2: 5555 CLUBS 6 CLUBS 2 TWO_PAIR 
3: 3333 CLUBS J SPADES 8 ONE_PAIR 
/showdown 

---Allocate pot---
pot-win/ 
8888: 400 
/pot-win 
it is player 8888's turn to be button

-----5 Hand-----

----- clean player data in socket -----
seat/ 
button: 8888 910 8000 
small blind: 2222 1900 8000 
big blind: 1111 2000 8000 
5555 4574 8000 
4444 2000 8000 
7777 1776 8000 
6666 2330 8000 
3333 510 8000 
/seat 
blind/ 
2222: 50 
1111: 100 
/blind 
player 2222:hold/ 
SPADES A 
SPADES 7 
/hold 
player 1111:hold/ 
DIAMONDS 3 
CLUBS Q 
/hold 
player 5555:hold/ 
DIAMONDS 8 
CLUBS 2 
/hold 
player 4444:hold/ 
SPADES 6 
DIAMONDS A 
/hold 
player 7777:hold/ 
HEARTS 9 
SPADES 2 
/hold 
player 6666:hold/ 
DIAMONDS 10 
DIAMONDS 4 
/hold 
player 3333:hold/ 
SPADES 10 
HEARTS 7 
/hold 
player 8888:hold/ 
CLUBS 3 
SPADES 4 
/hold 

---pre flop round bet---
valid player: 8, all in player: 0, fold player: 0
send inquire msg to player 5555 
inquire/ 
1111 1900 8000 100 blind 
2222 1850 8000 50 blind 
total pot: 150 
/inquire 
recv from player 5555: raise 0
send inquire msg to player 4444 
inquire/ 
5555 4374 8000 200 raise 
1111 1900 8000 100 blind 
2222 1850 8000 50 blind 
total pot: 350 
/inquire 
recv from player 4444: check
send inquire msg to player 7777 
inquire/ 
4444 1800 8000 200 call 
5555 4374 8000 200 raise 
1111 1900 8000 100 blind 
2222 1850 8000 50 blind 
total pot: 550 
/inquire 
recv from player 7777: fold
send inquire msg to player 6666 
inquire/ 
7777 1776 8000 0 fold 
4444 1800 8000 200 call 
5555 4374 8000 200 raise 
1111 1900 8000 100 blind 
2222 1850 8000 50 blind 
total pot: 550 
/inquire 
recv from player 6666: check
send inquire msg to player 3333 
inquire/ 
6666 2130 8000 200 call 
7777 1776 8000 0 fold 
4444 1800 8000 200 call 
5555 4374 8000 200 raise 
1111 1900 8000 100 blind 
2222 1850 8000 50 blind 
total pot: 750 
/inquire 
recv from player 3333: check
send inquire msg to player 8888 
inquire/ 
3333 310 8000 200 call 
6666 2130 8000 200 call 
7777 1776 8000 0 fold 
4444 1800 8000 200 call 
5555 4374 8000 200 raise 
1111 1900 8000 100 blind 
2222 1850 8000 50 blind 
total pot: 950 
/inquire 
recv from player 8888: check
send inquire msg to player 2222 
inquire/ 
8888 710 8000 200 call 
3333 310 8000 200 call 
6666 2130 8000 200 call 
7777 1776 8000 0 fold 
4444 1800 8000 200 call 
5555 4374 8000 200 raise 
1111 1900 8000 100 blind 
2222 1850 8000 50 blind 
total pot: 1150 
/inquire 
recv from player 2222: fold
send inquire msg to player 1111 
inquire/ 
2222 1850 8000 50 fold 
8888 710 8000 200 call 
3333 310 8000 200 call 
6666 2130 8000 200 call 
7777 1776 8000 0 fold 
4444 1800 8000 200 call 
5555 4374 8000 200 raise 
1111 1900 8000 100 blind 
total pot: 1150 
/inquire 
recv from player 1111: fold
flop/ 
DIAMONDS Q 
CLUBS A 
DIAMONDS 7 
/flop 

---flop round bet---
valid player: 8, all in player: 0, fold player: 3
send inquire msg to player 2222 
inquire/ 
8888 710 8000 200 call 
3333 310 8000 200 call 
6666 2130 8000 200 call 
7777 1776 8000 0 fold 
4444 1800 8000 200 call 
5555 4374 8000 200 raise 
1111 1900 8000 100 fold 
2222 1850 8000 50 fold 
total pot: 1150 
/inquire 
send inquire msg to player 1111 
inquire/ 
2222 1850 8000 50 fold 
8888 710 8000 200 call 
3333 310 8000 200 call 
6666 2130 8000 200 call 
7777 1776 8000 0 fold 
4444 1800 8000 200 call 
5555 4374 8000 200 raise 
1111 1900 8000 100 fold 
total pot: 1150 
/inquire 
send inquire msg to player 5555 
inquire/ 
1111 1900 8000 100 fold 
2222 1850 8000 50 fold 
8888 710 8000 200 call 
3333 310 8000 200 call 
6666 2130 8000 200 call 
7777 1776 8000 0 fold 
4444 1800 8000 200 call 
5555 4374 8000 200 raise 
total pot: 1150 
/inquire 
recv from player 5555: raise 0
send inquire msg to player 4444 
inquire/ 
5555 4274 8000 300 raise 
1111 1900 8000 100 fold 
2222 1850 8000 50 fold 
8888 710 8000 200 call 
3333 310 8000 200 call 
6666 2130 8000 200 call 
7777 1776 8000 0 fold 
4444 1800 8000 200 call 
total pot: 1250 
/inquire 
recv from player 4444: raise 267
send inquire msg to player 7777 
inquire/ 
4444 1433 8000 567 raise 
5555 4274 8000 300 raise 
1111 1900 8000 100 fold 
2222 1850 8000 50 fold 
8888 710 8000 200 call 
3333 310 8000 200 call 
6666 2130 8000 200 call 
7777 1776 8000 0 fold 
total pot: 1617 
/inquire 
send inquire msg to player 6666 
inquire/ 
7777 1776 8000 0 fold 
4444 1433 8000 567 raise 
5555 4274 8000 300 raise 
1111 1900 8000 100 fold 
2222 1850 8000 50 fold 
8888 710 8000 200 call 
3333 310 8000 200 call 
6666 2130 8000 200 call 
total pot: 1617 
/inquire 
recv from player 6666: check
send inquire msg to player 3333 
inquire/ 
6666 1763 8000 567 call 
7777 1776 8000 0 fold 
4444 1433 8000 567 raise 
5555 4274 8000 300 raise 
1111 1900 8000 100 fold 
2222 1850 8000 50 fold 
8888 710 8000 200 call 
3333 310 8000 200 call 
total pot: 1984 
/inquire 
recv from player 3333: check
send inquire msg to player 8888 
inquire/ 
3333 0 8000 510 all_in 
6666 1763 8000 567 call 
7777 1776 8000 0 fold 
4444 1433 8000 567 raise 
5555 4274 8000 300 raise 
1111 1900 8000 100 fold 
2222 1850 8000 50 fold 
8888 710 8000 200 call 
total pot: 2294 
/inquire 
recv from player 8888: check
send inquire msg to player 2222 
inquire/ 
8888 343 8000 567 call 
3333 0 8000 510 all_in 
6666 1763 8000 567 call 
7777 1776 8000 0 fold 
4444 1433 8000 567 raise 
5555 4274 8000 300 raise 
1111 1900 8000 100 fold 
2222 1850 8000 50 fold 
total pot: 2661 
/inquire 
send inquire msg to player 1111 
inquire/ 
2222 1850 8000 50 fold 
8888 343 8000 567 call 
3333 0 8000 510 all_in 
6666 1763 8000 567 call 
7777 1776 8000 0 fold 
4444 1433 8000 567 raise 
5555 4274 8000 300 raise 
1111 1900 8000 100 fold 
total pot: 2661 
/inquire 
send inquire msg to player 5555 
inquire/ 
1111 1900 8000 100 fold 
2222 1850 8000 50 fold 
8888 343 8000 567 call 
3333 0 8000 510 all_in 
6666 1763 8000 567 call 
7777 1776 8000 0 fold 
4444 1433 8000 567 raise 
5555 4274 8000 300 raise 
total pot: 2661 
/inquire 
recv from player 5555: raise 0
send inquire msg to player 4444 
inquire/ 
5555 3740 8000 834 raise 
1111 1900 8000 100 fold 
2222 1850 8000 50 fold 
8888 343 8000 567 call 
3333 0 8000 510 all_in 
6666 1763 8000 567 call 
7777 1776 8000 0 fold 
4444 1433 8000 567 raise 
total pot: 3195 
/inquire 
recv from player 4444: check
send inquire msg to player 7777 
inquire/ 
4444 1166 8000 834 call 
5555 3740 8000 834 raise 
1111 1900 8000 100 fold 
2222 1850 8000 50 fold 
8888 343 8000 567 call 
3333 0 8000 510 all_in 
6666 1763 8000 567 call 
7777 1776 8000 0 fold 
total pot: 3462 
/inquire 
send inquire msg to player 6666 
inquire/ 
7777 1776 8000 0 fold 
4444 1166 8000 834 call 
5555 3740 8000 834 raise 
1111 1900 8000 100 fold 
2222 1850 8000 50 fold 
8888 343 8000 567 call 
3333 0 8000 510 all_in 
6666 1763 8000 567 call 
total pot: 3462 
/inquire 
recv from player 6666: check
send inquire msg to player 3333 
inquire/ 
6666 1496 8000 834 call 
7777 1776 8000 0 fold 
4444 1166 8000 834 call 
5555 3740 8000 834 raise 
1111 1900 8000 100 fold 
2222 1850 8000 50 fold 
8888 343 8000 567 call 
3333 0 8000 510 all_in 
total pot: 3729 
/inquire 
send inquire msg to player 8888 
inquire/ 
3333 0 8000 510 all_in 
6666 1496 8000 834 call 
7777 1776 8000 0 fold 
4444 1166 8000 834 call 
5555 3740 8000 834 raise 
1111 1900 8000 100 fold 
2222 1850 8000 50 fold 
8888 343 8000 567 call 
total pot: 3729 
/inquire 
recv from player 8888: check
turn/ 
CLUBS K 
/turn 

---turn round bet---
valid player: 8, all in player: 1, fold player: 3
send inquire msg to player 2222 
inquire/ 
8888 76 8000 834 call 
3333 0 8000 510 all_in 
6666 1496 8000 834 call 
7777 1776 8000 0 fold 
4444 1166 8000 834 call 
5555 3740 8000 834 raise 
1111 1900 8000 100 fold 
2222 1850 8000 50 fold 
total pot: 3996 
/inquire 
send inquire msg to player 1111 
inquire/ 
2222 1850 8000 50 fold 
8888 76 8000 834 call 
3333 0 8000 510 all_in 
6666 1496 8000 834 call 
7777 1776 8000 0 fold 
4444 1166 8000 834 call 
5555 3740 8000 834 raise 
1111 1900 8000 100 fold 
total pot: 3996 
/inquire 
send inquire msg to player 5555 
inquire/ 
1111 1900 8000 100 fold 
2222 1850 8000 50 fold 
8888 76 8000 834 call 
3333 0 8000 510 all_in 
6666 1496 8000 834 call 
7777 1776 8000 0 fold 
4444 1166 8000 834 call 
5555 3740 8000 834 raise 
total pot: 3996 
/inquire 
recv from player 5555: raise 0
send inquire msg to player 4444 
inquire/ 
5555 3640 8000 934 raise 
1111 1900 8000 100 fold 
2222 1850 8000 50 fold 
8888 76 8000 834 call 
3333 0 8000 510 all_in 
6666 1496 8000 834 call 
7777 1776 8000 0 fold 
4444 1166 8000 834 call 
total pot: 4096 
/inquire 
recv from player 4444: check
send inquire msg to player 7777 
inquire/ 
4444 1066 8000 934 call 
5555 3640 8000 934 raise 
1111 1900 8000 100 fold 
2222 1850 8000 50 fold 
8888 76 8000 834 call 
3333 0 8000 510 all_in 
6666 1496 8000 834 call 
7777 1776 8000 0 fold 
total pot: 4196 
/inquire 
send inquire msg to player 6666 
inquire/ 
7777 1776 8000 0 fold 
4444 1066 8000 934 call 
5555 3640 8000 934 raise 
1111 1900 8000 100 fold 
2222 1850 8000 50 fold 
8888 76 8000 834 call 
3333 0 8000 510 all_in 
6666 1496 8000 834 call 
total pot: 4196 
/inquire 
recv from player 6666: check
send inquire msg to player 3333 
inquire/ 
6666 1396 8000 934 call 
7777 1776 8000 0 fold 
4444 1066 8000 934 call 
5555 3640 8000 934 raise 
1111 1900 8000 100 fold 
2222 1850 8000 50 fold 
8888 76 8000 834 call 
3333 0 8000 510 all_in 
total pot: 4296 
/inquire 
send inquire msg to player 8888 
inquire/ 
3333 0 8000 510 all_in 
6666 1396 8000 934 call 
7777 1776 8000 0 fold 
4444 1066 8000 934 call 
5555 3640 8000 934 raise 
1111 1900 8000 100 fold 
2222 1850 8000 50 fold 
8888 76 8000 834 call 
total pot: 4296 
/inquire 
recv from player 8888: check
river/ 
HEARTS Q 
/river 

---river round bet---
valid player: 8, all in player: 2, fold player: 3
send inquire msg to player 2222 
inquire/ 
8888 0 8000 910 all_in 
3333 0 8000 510 all_in 
6666 1396 8000 934 call 
7777 1776 8000 0 fold 
4444 1066 8000 934 call 
5555 3640 8000 934 raise 
1111 1900 8000 100 fold 
2222 1850 8000 50 fold 
total pot: 4372 
/inquire 
send inquire msg to player 1111 
inquire/ 
2222 1850 8000 50 fold 
8888 0 8000 910 all_in 
3333 0 8000 510 all_in 
6666 1396 8000 934 call 
7777 1776 8000 0 fold 
4444 1066 8000 934 call 
5555 3640 8000 934 raise 
1111 1900 8000 100 fold 
total pot: 4372 
/inquire 
send inquire msg to player 5555 
inquire/ 
1111 1900 8000 100 fold 
2222 1850 8000 50 fold 
8888 0 8000 910 all_in 
3333 0 8000 510 all_in 
6666 1396 8000 934 call 
7777 1776 8000 0 fold 
4444 1066 8000 934 call 
5555 3640 8000 934 raise 
total pot: 4372 
/inquire 
recv from player 5555: check
send inquire msg to player 4444 
inquire/ 
5555 3640 8000 934 check 
1111 1900 8000 100 fold 
2222 1850 8000 50 fold 
8888 0 8000 910 all_in 
3333 0 8000 510 all_in 
6666 1396 8000 934 call 
7777 1776 8000 0 fold 
4444 1066 8000 934 call 
total pot: 4372 
/inquire 
recv from player 4444: check
send inquire msg to player 7777 
inquire/ 
4444 1066 8000 934 check 
5555 3640 8000 934 check 
1111 1900 8000 100 fold 
2222 1850 8000 50 fold 
8888 0 8000 910 all_in 
3333 0 8000 510 all_in 
6666 1396 8000 934 call 
7777 1776 8000 0 fold 
total pot: 4372 
/inquire 
send inquire msg to player 6666 
inquire/ 
7777 1776 8000 0 fold 
4444 1066 8000 934 check 
5555 3640 8000 934 check 
1111 1900 8000 100 fold 
2222 1850 8000 50 fold 
8888 0 8000 910 all_in 
3333 0 8000 510 all_in 
6666 1396 8000 934 call 
total pot: 4372 
/inquire 
recv from player 6666: check

---show down---
showdown/ 
common/ 
DIAMONDS Q 
CLUBS A 
DIAMONDS 7 
CLUBS K 
HEARTS Q 
/common 
4: 5555 DIAMONDS 8 CLUBS 2 ONE_PAIR 
1: 4444 SPADES 6 DIAMONDS A TWO_PAIR 
3: 6666 DIAMONDS 10 DIAMONDS 4 ONE_PAIR 
2: 3333 SPADES 10 HEARTS 7 TWO_PAIR 
5: 8888 CLUBS 3 SPADES 4 ONE_PAIR 
/showdown 

---Allocate pot---
pot-win/ 
4444: 4372 
/pot-win 
it is player 2222's turn to be button

-----6 Hand-----

----- clean player data in socket -----
seat/ 
button: 2222 1850 8000 
small blind: 1111 1900 8000 
big blind: 5555 3640 8000 
4444 5438 8000 
7777 1776 8000 
6666 1396 8000 
3333 2000 6000 
8888 2000 6000 
/seat 
blind/ 
1111: 50 
5555: 100 
/blind 
player 1111:hold/ 
DIAMONDS 7 
DIAMONDS K 
/hold 
player 5555:hold/ 
CLUBS 2 
SPADES 3 
/hold 
player 4444:hold/ 
CLUBS Q 
CLUBS 3 
/hold 
player 7777:hold/ 
SPADES 9 
SPADES A 
/hold 
player 6666:hold/ 
DIAMONDS 6 
DIAMONDS 2 
/hold 
player 3333:hold/ 
HEARTS 5 
CLUBS 8 
/hold 
player 8888:hold/ 
SPADES 8 
DIAMONDS 4 
/hold 
player 2222:hold/ 
DIAMONDS Q 
CLUBS 10 
/hold 

---pre flop round bet---
valid player: 8, all in player: 0, fold player: 0
send inquire msg to player 4444 
inquire/ 
5555 3540 8000 100 blind 
1111 1850 8000 50 blind 
total pot: 150 
/inquire 
recv from player 4444: raise 394
send inquire msg to player 7777 
inquire/ 
4444 4944 8000 494 raise 
5555 3540 8000 100 blind 
1111 1850 8000 50 blind 
total pot: 644 
/inquire 
recv from player 7777: check
send inquire msg to player 6666 
inquire/ 
7777 1282 8000 494 call 
4444 4944 8000 494 raise 
5555 3540 8000 100 blind 
1111 1850 8000 50 blind 
total pot: 1138 
/inquire 
recv from player 6666: fold
send inquire msg to player 3333 
inquire/ 
6666 1396 8000 0 fold 
7777 1282 8000 494 call 
4444 4944 8000 494 raise 
5555 3540 8000 100 blind 
1111 1850 8000 50 blind 
total pot: 1138 
/inquire 
recv from player 3333: check
send inquire msg to player 8888 
inquire/ 
3333 1506 6000 494 call 
6666 1396 8000 0 fold 
7777 1282 8000 494 call 
4444 4944 8000 494 raise 
5555 3540 8000 100 blind 
1111 1850 8000 50 blind 
total pot: 1632 
/inquire 
recv from player 8888: check
send inquire msg to player 2222 
inquire/ 
8888 1506 6000 494 call 
3333 1506 6000 494 call 
6666 1396 8000 0 fold 
7777 1282 8000 494 call 
4444 4944 8000 494 raise 
5555 3540 8000 100 blind 
1111 1850 8000 50 blind 
total pot: 2126 
/inquire 
recv from player 2222: fold
send inquire msg to player 1111 
inquire/ 
2222 1850 8000 0 fold 
8888 1506 6000 494 call 
3333 1506 6000 494 call 
6666 1396 8000 0 fold 
7777 1282 8000 494 call 
4444 4944 8000 494 raise 
5555 3540 8000 100 blind 
1111 1850 8000 50 blind 
total pot: 2126 
/inquire 
recv from player 1111: check
send inquire msg to player 5555 
inquire/ 
1111 1406 8000 494 call 
2222 1850 8000 0 fold 
8888 1506 6000 494 call 
3333 1506 6000 494 call 
6666 1396 8000 0 fold 
7777 1282 8000 494 call 
4444 4944 8000 494 raise 
5555 3540 8000 100 blind 
total pot: 2570 
/inquire 
recv from player 5555: check
flop/ 
CLUBS 7 
HEARTS 3 
HEARTS 4 
/flop 

---flop round bet---
valid player: 8, all in player: 0, fold player: 2
send inquire msg to player 1111 
inquire/ 
2222 1850 8000 0 fold 
8888 1506 6000 494 call 
3333 1506 6000 494 call 
6666 1396 8000 0 fold 
7777 1282 8000 494 call 
4444 4944 8000 494 raise 
5555 3146 8000 494 call 
1111 1406 8000 494 call 
total pot: 2964 
/inquire 
recv from player 1111: check
send inquire msg to player 5555 
inquire/ 
1111 1406 8000 494 check 
2222 1850 8000 0 fold 
8888 1506 6000 494 call 
3333 1506 6000 494 call 
6666 1396 8000 0 fold 
7777 1282 8000 494 call 
4444 4944 8000 494 raise 
5555 3146 8000 494 call 
total pot: 2964 
/inquire 
recv from player 5555: check
send inquire msg to player 4444 
inquire/ 
5555 3146 8000 494 check 
1111 1406 8000 494 check 
2222 1850 8000 0 fold 
8888 1506 6000 494 call 
3333 1506 6000 494 call 
6666 1396 8000 0 fold 
7777 1282 8000 494 call 
4444 4944 8000 494 raise 
total pot: 2964 
/inquire 
recv from player 4444: check
send inquire msg to player 7777 
inquire/ 
4444 4944 8000 494 check 
5555 3146 8000 494 check 
1111 1406 8000 494 check 
2222 1850 8000 0 fold 
8888 1506 6000 494 call 
3333 1506 6000 494 call 
6666 1396 8000 0 fold 
7777 1282 8000 494 call 
total pot: 2964 
/inquire 
recv from player 7777: check
send inquire msg to player 6666 
inquire/ 
7777 1282 8000 494 check 
4444 4944 8000 494 check 
5555 3146 8000 494 check 
1111 1406 8000 494 check 
2222 1850 8000 0 fold 
8888 1506 6000 494 call 
3333 1506 6000 494 call 
6666 1396 8000 0 fold 
total pot: 2964 
/inquire 
send inquire msg to player 3333 
inquire/ 
6666 1396 8000 0 fold 
7777 1282 8000 494 check 
4444 4944 8000 494 check 
5555 3146 8000 494 check 
1111 1406 8000 494 check 
2222 1850 8000 0 fold 
8888 1506 6000 494 call 
3333 1506 6000 494 call 
total pot: 2964 
/inquire 
recv from player 3333: check
send inquire msg to player 8888 
inquire/ 
3333 1506 6000 494 check 
6666 1396 8000 0 fold 
7777 1282 8000 494 check 
4444 4944 8000 494 check 
5555 3146 8000 494 check 
1111 1406 8000 494 check 
2222 1850 8000 0 fold 
8888 1506 6000 494 call 
total pot: 2964 
/inquire 
recv from player 8888: check
turn/ 
HEARTS K 
/turn 

---turn round bet---
valid player: 8, all in player: 0, fold player: 2
send inquire msg to player 1111 
inquire/ 
2222 1850 8000 0 fold 
8888 1506 6000 494 check 
3333 1506 6000 494 check 
6666 1396 8000 0 fold 
7777 1282 8000 494 check 
4444 4944 8000 494 check 
5555 3146 8000 494 check 
1111 1406 8000 494 check 
total pot: 2964 
/inquire 
recv from player 1111: fold
send inquire msg to player 5555 
inquire/ 
1111 1406 8000 494 fold 
2222 1850 8000 0 fold 
8888 1506 6000 494 check 
3333 1506 6000 494 check 
6666 1396 8000 0 fold 
7777 1282 8000 494 check 
4444 4944 8000 494 check 
5555 3146 8000 494 check 
total pot: 2964 
/inquire 
recv from player 5555: check
send inquire msg to player 4444 
inquire/ 
5555 3146 8000 494 check 
1111 1406 8000 494 fold 
2222 1850 8000 0 fold 
8888 1506 6000 494 check 
3333 1506 6000 494 check 
6666 1396 8000 0 fold 
7777 1282 8000 494 check 
4444 4944 8000 494 check 
total pot: 2964 
/inquire 
recv from player 4444: check
send inquire msg to player 7777 
inquire/ 
4444 4944 8000 494 check 
5555 3146 8000 494 check 
1111 1406 8000 494 fold 
2222 1850 8000 0 fold 
8888 1506 6000 494 check 
3333 1506 6000 494 check 
6666 1396 8000 0 fold 
7777 1282 8000 494 check 
total pot: 2964 
/inquire 
recv from player 7777: check
send inquire msg to player 6666 
inquire/ 
7777 1282 8000 494 check 
4444 4944 8000 494 check 
5555 3146 8000 494 check 
1111 1406 8000 494 fold 
2222 1850 8000 0 fold 
8888 1506 6000 494 check 
3333 1506 6000 494 check 
6666 1396 8000 0 fold 
total pot: 2964 
/inquire 
send inquire msg to player 3333 
inquire/ 
6666 1396 8000 0 fold 
7777 1282 8000 494 check 
4444 4944 8000 494 check 
5555 3146 8000 494 check 
1111 1406 8000 494 fold 
2222 1850 8000 0 fold 
8888 1506 6000 494 check 
3333 1506 6000 494 check 
total pot: 2964 
/inquire 
recv from player 3333: check
send inquire msg to player 8888 
inquire/ 
3333 1506 6000 494 check 
6666 1396 8000 0 fold 
7777 1282 8000 494 check 
4444 4944 8000 494 check 
5555 3146 8000 494 check 
1111 1406 8000 494 fold 
2222 1850 8000 0 fold 
8888 1506 6000 494 check 
total pot: 2964 
/inquire 
recv from player 8888: check
river/ 
CLUBS K 
/river 

---river round bet---
valid player: 8, all in player: 0, fold player: 3
send inquire msg to player 1111 
inquire/ 
2222 1850 8000 0 fold 
8888 1506 6000 494 check 
3333 1506 6000 494 check 
6666 1396 8000 0 fold 
7777 1282 8000 494 check 
4444 4944 8000 494 check 
5555 3146 8000 494 check 
1111 1406 8000 494 fold 
total pot: 2964 
/inquire 
send inquire msg to player 5555 
inquire/ 
1111 1406 8000 494 fold 
2222 1850 8000 0 fold 
8888 1506 6000 494 check 
3333 1506 6000 494 check 
6666 1396 8000 0 fold 
7777 1282 8000 494 check 
4444 4944 8000 494 check 
5555 3146 8000 494 check 
total pot: 2964 
/inquire 
recv from player 5555: raise 0
send inquire msg to player 4444 
inquire/ 
5555 3046 8000 594 raise 
1111 1406 8000 494 fold 
2222 1850 8000 0 fold 
8888 1506 6000 494 check 
3333 1506 6000 494 check 
6666 1396 8000 0 fold 
7777 1282 8000 494 check 
4444 4944 8000 494 check 
total pot: 3064 
/inquire 
recv from player 4444: check
send inquire msg to player 7777 
inquire/ 
4444 4844 8000 594 call 
5555 3046 8000 594 raise 
1111 1406 8000 494 fold 
2222 1850 8000 0 fold 
8888 1506 6000 494 check 
3333 1506 6000 494 check 
6666 1396 8000 0 fold 
7777 1282 8000 494 check 
total pot: 3164 
/inquire 
recv from player 7777: fold
send inquire msg to player 6666 
inquire/ 
7777 1282 8000 494 fold 
4444 4844 8000 594 call 
5555 3046 8000 594 raise 
1111 1406 8000 494 fold 
2222 1850 8000 0 fold 
8888 1506 6000 494 check 
3333 1506 6000 494 check 
6666 1396 8000 0 fold 
total pot: 3164 
/inquire 
send inquire msg to player 3333 
inquire/ 
6666 1396 8000 0 fold 
7777 1282 8000 494 fold 
4444 4844 8000 594 call 
5555 3046 8000 594 raise 
1111 1406 8000 494 fold 
2222 1850 8000 0 fold 
8888 1506 6000 494 check 
3333 1506 6000 494 check 
total pot: 3164 
/inquire 
recv from player 3333: check
send inquire msg to player 8888 
inquire/ 
3333 1406 6000 594 call 
6666 1396 8000 0 fold 
7777 1282 8000 494 fold 
4444 4844 8000 594 call 
5555 3046 8000 594 raise 
1111 1406 8000 494 fold 
2222 1850 8000 0 fold 
8888 1506 6000 494 check 
total pot: 3264 
/inquire 
recv from player 8888: check

---show down---
showdown/ 
common/ 
CLUBS 7 
HEARTS 3 
HEARTS 4 
HEARTS K 
CLUBS K 
/common 
3: 5555 CLUBS 2 SPADES 3 TWO_PAIR 
2: 4444 CLUBS Q CLUBS 3 TWO_PAIR 
4: 3333 HEARTS 5 CLUBS 8 ONE_PAIR 
1: 8888 SPADES 8 DIAMONDS 4 TWO_PAIR 
/showdown 

---Allocate pot---
pot-win/ 
8888: 3364 
/pot-win 
it is player 1111's turn to be button

-----7 Hand-----

----- clean player data in socket -----
seat/ 
button: 1111 1406 8000 
small blind: 5555 3046 8000 
big blind: 4444 4844 8000 
7777 1282 8000 
6666 1396 8000 
3333 1406 6000 
8888 4770 6000 
2222 1850 8000 
/seat 
blind/ 
5555: 50 
4444: 100 
/blind 
player 5555:hold/ 
HEARTS 7 
CLUBS 2 
/hold 
player 4444:hold/ 
CLUBS 9 
SPADES J 
/hold 
player 7777:hold/ 
DIAMONDS 3 
DIAMONDS 5 
/hold 
player 6666:hold/ 
CLUBS 6 
HEARTS 6 
/hold 
player 3333:hold/ 
CLUBS K 
SPADES Q 
/hold 
player 8888:hold/ 
HEARTS 3 
SPADES 8 
/hold 
player 2222:hold/ 
SPADES 9 
HEARTS 4 
/hold 
player 1111:hold/ 
HEARTS 5 
DIAMONDS 7 
/hold 

---pre flop round bet---
valid player: 8, all in player: 0, fold player: 0
send inquire msg to player 7777 
inquire/ 
4444 4744 8000 100 blind 
5555 2996 8000 50 blind 
total pot: 150 
/inquire 
recv from player 7777: check
send inquire msg to player 6666 
inquire/ 
7777 1182 8000 100 call 
4444 4744 8000 100 blind 
5555 2996 8000 50 blind 
total pot: 250 
/inquire 
recv from player 6666: raise 129
send inquire msg to player 3333 
inquire/ 
6666 1167 8000 229 raise 
7777 1182 8000 100 call 
4444 4744 8000 100 blind 
5555 2996 8000 50 blind 
total pot: 479 
/inquire 
recv from player 3333: check
send inquire msg to player 8888 
inquire/ 
3333 1177 6000 229 call 
6666 1167 8000 229 raise 
7777 1182 8000 100 call 
4444 4744 8000 100 blind 
5555 2996 8000 50 blind 
total pot: 708 
/inquire 
recv from player 8888: check
send inquire msg to player 2222 
inquire/ 
8888 4541 6000 229 call 
3333 1177 6000 229 call 
6666 1167 8000 229 raise 
7777 1182 8000 100 call 
4444 4744 8000 100 blind 
5555 2996 8000 50 blind 
total pot: 937 
/inquire 
recv from player 2222: fold
send inquire msg to player 1111 
inquire/ 
2222 1850 8000 0 fold 
8888 4541 6000 229 call 
3333 1177 6000 229 call 
6666 1167 8000 229 raise 
7777 1182 8000 100 call 
4444 4744 8000 100 blind 
5555 2996 8000 50 blind 
total pot: 937 
/inquire 
recv from player 1111: check
send inquire msg to player 5555 
inquire/ 
1111 1177 8000 229 call 
2222 1850 8000 0 fold 
8888 4541 6000 229 call 
3333 1177 6000 229 call 
6666 1167 8000 229 raise 
7777 1182 8000 100 call 
4444 4744 8000 100 blind 
5555 2996 8000 50 blind 
total pot: 1166 
/inquire 
recv from player 5555: check
send inquire msg to player 4444 
inquire/ 
5555 2817 8000 229 call 
1111 1177 8000 229 call 
2222 1850 8000 0 fold 
8888 4541 6000 229 call 
3333 1177 6000 229 call 
6666 1167 8000 229 raise 
7777 1182 8000 100 call 
4444 4744 8000 100 blind 
total pot: 1345 
/inquire 
recv from player 4444: raise 239
send inquire msg to player 7777 
inquire/ 
4444 4376 8000 468 raise 
5555 2817 8000 229 call 
1111 1177 8000 229 call 
2222 1850 8000 0 fold 
8888 4541 6000 229 call 
3333 1177 6000 229 call 
6666 1167 8000 229 raise 
7777 1182 8000 100 call 
total pot: 1713 
/inquire 
recv from player 7777: fold
send inquire msg to player 6666 
inquire/ 
7777 1182 8000 100 fold 
4444 4376 8000 468 raise 
5555 2817 8000 229 call 
1111 1177 8000 229 call 
2222 1850 8000 0 fold 
8888 4541 6000 229 call 
3333 1177 6000 229 call 
6666 1167 8000 229 raise 
total pot: 1713 
/inquire 
recv from player 6666: check
send inquire msg to player 3333 
inquire/ 
6666 928 8000 468 call 
7777 1182 8000 100 fold 
4444 4376 8000 468 raise 
5555 2817 8000 229 call 
1111 1177 8000 229 call 
2222 1850 8000 0 fold 
8888 4541 6000 229 call 
3333 1177 6000 229 call 
total pot: 1952 
/inquire 
recv from player 3333: check
send inquire msg to player 8888 
inquire/ 
3333 938 6000 468 call 
6666 928 8000 468 call 
7777 1182 8000 100 fold 
4444 4376 8000 468 raise 
5555 2817 8000 229 call 
1111 1177 8000 229 call 
2222 1850 8000 0 fold 
8888 4541 6000 229 call 
total pot: 2191 
/inquire 
recv from player 8888: check
send inquire msg to player 2222 
inquire/ 
8888 4302 6000 468 call 
3333 938 6000 468 call 
6666 928 8000 468 call 
7777 1182 8000 100 fold 
4444 4376 8000 468 raise 
5555 2817 8000 229 call 
1111 1177 8000 229 call 
2222 1850 8000 0 fold 
total pot: 2430 
/inquire 
send inquire msg to player 1111 
inquire/ 
2222 1850 8000 0 fold 
8888 4302 6000 468 call 
3333 938 6000 468 call 
6666 928 8000 468 call 
7777 1182 8000 100 fold 
4444 4376 8000 468 raise 
5555 2817 8000 229 call 
1111 1177 8000 229 call 
total pot: 2430 
/inquire 
recv from player 1111: fold
send inquire msg to player 5555 
inquire/ 
1111 1177 8000 229 fold 
2222 1850 8000 0 fold 
8888 4302 6000 468 call 
3333 938 6000 468 call 
6666 928 8000 468 call 
7777 1182 8000 100 fold 
4444 4376 8000 468 raise 
5555 2817 8000 229 call 
total pot: 2430 
/inquire 
recv from player 5555: check
flop/ 
DIAMONDS 4 
CLUBS 7 
HEARTS 8 
/flop 

---flop round bet---
valid player: 8, all in player: 0, fold player: 3
send inquire msg to player 5555 
inquire/ 
1111 1177 8000 229 fold 
2222 1850 8000 0 fold 
8888 4302 6000 468 call 
3333 938 6000 468 call 
6666 928 8000 468 call 
7777 1182 8000 100 fold 
4444 4376 8000 468 raise 
5555 2578 8000 468 call 
total pot: 2669 
/inquire 
recv from player 5555: raise 0
send inquire msg to player 4444 
inquire/ 
5555 2478 8000 568 raise 
1111 1177 8000 229 fold 
2222 1850 8000 0 fold 
8888 4302 6000 468 call 
3333 938 6000 468 call 
6666 928 8000 468 call 
7777 1182 8000 100 fold 
4444 4376 8000 468 raise 
total pot: 2769 
/inquire 
recv from player 4444: check
send inquire msg to player 7777 
inquire/ 
4444 4276 8000 568 call 
5555 2478 8000 568 raise 
1111 1177 8000 229 fold 
2222 1850 8000 0 fold 
8888 4302 6000 468 call 
3333 938 6000 468 call 
6666 928 8000 468 call 
7777 1182 8000 100 fold 
total pot: 2869 
/inquire 
send inquire msg to player 6666 
inquire/ 
7777 1182 8000 100 fold 
4444 4276 8000 568 call 
5555 2478 8000 568 raise 
1111 1177 8000 229 fold 
2222 1850 8000 0 fold 
8888 4302 6000 468 call 
3333 938 6000 468 call 
6666 928 8000 468 call 
total pot: 2869 
/inquire 
recv from player 6666: check
send inquire msg to player 3333 
inquire/ 
6666 828 8000 568 call 
7777 1182 8000 100 fold 
4444 4276 8000 568 call 
5555 2478 8000 568 raise 
1111 1177 8000 229 fold 
2222 1850 8000 0 fold 
8888 4302 6000 468 call 
3333 938 6000 468 call 
total pot: 2969 
/inquire 
recv from player 3333: check
send inquire msg to player 8888 
inquire/ 
3333 838 6000 568 call 
6666 828 8000 568 call 
7777 1182 8000 100 fold 
4444 4276 8000 568 call 
5555 2478 8000 568 raise 
1111 1177 8000 229 fold 
2222 1850 8000 0 fold 
8888 4302 6000 468 call 
total pot: 3069 
/inquire 
recv from player 8888: check
turn/ 
SPADES 7 
/turn 

---turn round bet---
valid player: 8, all in player: 0, fold player: 3
send inquire msg to player 5555 
inquire/ 
1111 1177 8000 229 fold 
2222 1850 8000 0 fold 
8888 4202 6000 568 call 
3333 838 6000 568 call 
6666 828 8000 568 call 
7777 1182 8000 100 fold 
4444 4276 8000 568 call 
5555 2478 8000 568 raise 
total pot: 3169 
/inquire 
recv from player 5555: raise 0
send inquire msg to player 4444 
inquire/ 
5555 2378 8000 668 raise 
1111 1177 8000 229 fold 
2222 1850 8000 0 fold 
8888 4202 6000 568 call 
3333 838 6000 568 call 
6666 828 8000 568 call 
7777 1182 8000 100 fold 
4444 4276 8000 568 call 
total pot: 3269 
/inquire 
recv from player 4444: check
send inquire msg to player 7777 
inquire/ 
4444 4176 8000 668 call 
5555 2378 8000 668 raise 
1111 1177 8000 229 fold 
2222 1850 8000 0 fold 
8888 4202 6000 568 call 
3333 838 6000 568 call 
6666 828 8000 568 call 
7777 1182 8000 100 fold 
total pot: 3369 
/inquire 
send inquire msg to player 6666 
inquire/ 
7777 1182 8000 100 fold 
4444 4176 8000 668 call 
5555 2378 8000 668 raise 
1111 1177 8000 229 fold 
2222 1850 8000 0 fold 
8888 4202 6000 568 call 
3333 838 6000 568 call 
6666 828 8000 568 call 
total pot: 3369 
/inquire 
recv from player 6666: check
send inquire msg to player 3333 
inquire/ 
6666 728 8000 668 call 
7777 1182 8000 100 fold 
4444 4176 8000 668 call 
5555 2378 8000 668 raise 
1111 1177 8000 229 fold 
2222 1850 8000 0 fold 
8888 4202 6000 568 call 
3333 838 6000 568 call 
total pot: 3469 
/inquire 
recv from player 3333: check
send inquire msg to player 8888 
inquire/ 
3333 738 6000 668 call 
6666 728 8000 668 call 
7777 1182 8000 100 fold 
4444 4176 8000 668 call 
5555 2378 8000 668 raise 
1111 1177 8000 229 fold 
2222 1850 8000 0 fold 
8888 4202 6000 568 call 
total pot: 3569 
/inquire 
recv from player 8888: check
river/ 
CLUBS 3 
/river 

---river round bet---
valid player: 8, all in player: 0, fold player: 3
send inquire msg to player 5555 
inquire/ 
1111 1177 8000 229 fold 
2222 1850 8000 0 fold 
8888 4102 6000 668 call 
3333 738 6000 668 call 
6666 728 8000 668 call 
7777 1182 8000 100 fold 
4444 4176 8000 668 call 
5555 2378 8000 668 raise 
total pot: 3669 
/inquire 
recv from player 5555: raise 0
send inquire msg to player 4444 
inquire/ 
5555 2278 8000 768 raise 
1111 1177 8000 229 fold 
2222 1850 8000 0 fold 
8888 4102 6000 668 call 
3333 738 6000 668 call 
6666 728 8000 668 call 
7777 1182 8000 100 fold 
4444 4176 8000 668 call 
total pot: 3769 
/inquire 
recv from player 4444: check
send inquire msg to player 7777 
inquire/ 
4444 4076 8000 768 call 
5555 2278 8000 768 raise 
1111 1177 8000 229 fold 
2222 1850 8000 0 fold 
8888 4102 6000 668 call 
3333 738 6000 668 call 
6666 728 8000 668 call 
7777 1182 8000 100 fold 
total pot: 3869 
/inquire 
send inquire msg to player 6666 
inquire/ 
7777 1182 8000 100 fold 
4444 4076 8000 768 call 
5555 2278 8000 768 raise 
1111 1177 8000 229 fold 
2222 1850 8000 0 fold 
8888 4102 6000 668 call 
3333 738 6000 668 call 
6666 728 8000 668 call 
total pot: 3869 
/inquire 
recv from player 6666: fold
send inquire msg to player 3333 
inquire/ 
6666 728 8000 668 fold 
7777 1182 8000 100 fold 
4444 4076 8000 768 call 
5555 2278 8000 768 raise 
1111 1177 8000 229 fold 
2222 1850 8000 0 fold 
8888 4102 6000 668 call 
3333 738 6000 668 call 
total pot: 3869 
/inquire 
recv from player 3333: check
send inquire msg to player 8888 
inquire/ 
3333 638 6000 768 call 
6666 728 8000 668 fold 
7777 1182 8000 100 fold 
4444 4076 8000 768 call 
5555 2278 8000 768 raise 
1111 1177 8000 229 fold 
2222 1850 8000 0 fold 
8888 4102 6000 668 call 
total pot: 3969 
/inquire 
recv from player 8888: check

---show down---
showdown/ 
common/ 
DIAMONDS 4 
CLUBS 7 
HEARTS 8 
SPADES 7 
CLUBS 3 
/common 
1: 5555 HEARTS 7 CLUBS 2 THREE_OF_A_KIND 
4: 4444 CLUBS 9 SPADES J ONE_PAIR 
3: 3333 CLUBS K SPADES Q ONE_PAIR 
2: 8888 HEARTS 3 SPADES 8 TWO_PAIR 
/showdown 

---Allocate pot---
pot-win/ 
5555: 4069 
/pot-win 
it is player 5555's turn to be button

-----8 Hand-----

----- clean player data in socket -----
seat/ 
button: 5555 6347 8000 
small blind: 4444 4076 8000 
big blind: 7777 1182 8000 
6666 728 8000 
3333 638 6000 
8888 4002 6000 
2222 1850 8000 
1111 1177 8000 
/seat 
blind/ 
4444: 50 
7777: 100 
/blind 
player 4444:hold/ 
HEARTS Q 
SPADES 5 
/hold 
player 7777:hold/ 
DIAMONDS 4 
HEARTS 8 
/hold 
player 6666:hold/ 
HEARTS 5 
CLUBS A 
/hold 
player 3333:hold/ 
CLUBS 10 
DIAMONDS Q 
/hold 
player 8888:hold/ 
SPADES J 
DIAMONDS K 
/hold 
player 2222:hold/ 
DIAMONDS J 
HEARTS J 
/hold 
player 1111:hold/ 
CLUBS Q 
HEARTS 10 
/hold 
player 5555:hold/ 
CLUBS 3 
CLUBS J 
/hold 

---pre flop round bet---
valid player: 8, all in player: 0, fold player: 0
send inquire msg to player 6666 
inquire/ 
7777 1082 8000 100 blind 
4444 4026 8000 50 blind 
total pot: 150 
/inquire 
recv from player 6666: check
send inquire msg to player 3333 
inquire/ 
6666 628 8000 100 call 
7777 1082 8000 100 blind 
4444 4026 8000 50 blind 
total pot: 250 
/inquire 
recv from player 3333: check
send inquire msg to player 8888 
inquire/ 
3333 538 6000 100 call 
6666 628 8000 100 call 
7777 1082 8000 100 blind 
4444 4026 8000 50 blind 
total pot: 350 
/inquire 
recv from player 8888: check
send inquire msg to player 2222 
inquire/ 
8888 3902 6000 100 call 
3333 538 6000 100 call 
6666 628 8000 100 call 
7777 1082 8000 100 blind 
4444 4026 8000 50 blind 
total pot: 450 
/inquire 
recv from player 2222: check
send inquire msg to player 1111 
inquire/ 
2222 1750 8000 100 call 
8888 3902 6000 100 call 
3333 538 6000 100 call 
6666 628 8000 100 call 
7777 1082 8000 100 blind 
4444 4026 8000 50 blind 
total pot: 550 
/inquire 
recv from player 1111: fold
send inquire msg to player 5555 
inquire/ 
1111 1177 8000 0 fold 
2222 1750 8000 100 call 
8888 3902 6000 100 call 
3333 538 6000 100 call 
6666 628 8000 100 call 
7777 1082 8000 100 blind 
4444 4026 8000 50 blind 
total pot: 550 
/inquire 
recv from player 5555: check
send inquire msg to player 4444 
inquire/ 
5555 6247 8000 100 call 
1111 1177 8000 0 fold 
2222 1750 8000 100 call 
8888 3902 6000 100 call 
3333 538 6000 100 call 
6666 628 8000 100 call 
7777 1082 8000 100 blind 
4444 4026 8000 50 blind 
total pot: 650 
/inquire 
recv from player 4444: raise 92
send inquire msg to player 7777 
inquire/ 
4444 3876 8000 200 raise 
5555 6247 8000 100 call 
1111 1177 8000 0 fold 
2222 1750 8000 100 call 
8888 3902 6000 100 call 
3333 538 6000 100 call 
6666 628 8000 100 call 
7777 1082 8000 100 blind 
total pot: 800 
/inquire 
recv from player 7777: check
send inquire msg to player 6666 
inquire/ 
7777 982 8000 200 call 
4444 3876 8000 200 raise 
5555 6247 8000 100 call 
1111 1177 8000 0 fold 
2222 1750 8000 100 call 
8888 3902 6000 100 call 
3333 538 6000 100 call 
6666 628 8000 100 call 
total pot: 900 
/inquire 
recv from player 6666: check
send inquire msg to player 3333 
inquire/ 
6666 528 8000 200 call 
7777 982 8000 200 call 
4444 3876 8000 200 raise 
5555 6247 8000 100 call 
1111 1177 8000 0 fold 
2222 1750 8000 100 call 
8888 3902 6000 100 call 
3333 538 6000 100 call 
total pot: 1000 
/inquire 
recv from player 3333: check
send inquire msg to player 8888 
inquire/ 
3333 438 6000 200 call 
6666 528 8000 200 call 
7777 982 8000 200 call 
4444 3876 8000 200 raise 
5555 6247 8000 100 call 
1111 1177 8000 0 fold 
2222 1750 8000 100 call 
8888 3902 6000 100 call 
total pot: 1100 
/inquire 
recv from player 8888: check
send inquire msg to player 2222 
inquire/ 
8888 3802 6000 200 call 
3333 438 6000 200 call 
6666 528 8000 200 call 
7777 982 8000 200 call 
4444 3876 8000 200 raise 
5555 6247 8000 100 call 
1111 1177 8000 0 fold 
2222 1750 8000 100 call 
total pot: 1200 
/inquire 
recv from player 2222: fold
send inquire msg to player 1111 
inquire/ 
2222 1750 8000 100 fold 
8888 3802 6000 200 call 
3333 438 6000 200 call 
6666 528 8000 200 call 
7777 982 8000 200 call 
4444 3876 8000 200 raise 
5555 6247 8000 100 call 
1111 1177 8000 0 fold 
total pot: 1200 
/inquire 
send inquire msg to player 5555 
inquire/ 
1111 1177 8000 0 fold 
2222 1750 8000 100 fold 
8888 3802 6000 200 call 
3333 438 6000 200 call 
6666 528 8000 200 call 
7777 982 8000 200 call 
4444 3876 8000 200 raise 
5555 6247 8000 100 call 
total pot: 1200 
/inquire 
recv from player 5555: check
flop/ 
SPADES 7 
HEARTS 3 
CLUBS 8 
/flop 

---flop round bet---
valid player: 8, all in player: 0, fold player: 2
send inquire msg to player 4444 
inquire/ 
5555 6147 8000 200 call 
1111 1177 8000 0 fold 
2222 1750 8000 100 fold 
8888 3802 6000 200 call 
3333 438 6000 200 call 
6666 528 8000 200 call 
7777 982 8000 200 call 
4444 3876 8000 200 raise 
total pot: 1300 
/inquire 
recv from player 4444: check
send inquire msg to player 7777 
inquire/ 
4444 3876 8000 200 check 
5555 6147 8000 200 call 
1111 1177 8000 0 fold 
2222 1750 8000 100 fold 
8888 3802 6000 200 call 
3333 438 6000 200 call 
6666 528 8000 200 call 
7777 982 8000 200 call 
total pot: 1300 
/inquire 
recv from player 7777: check
send inquire msg to player 6666 
inquire/ 
7777 982 8000 200 check 
4444 3876 8000 200 check 
5555 6147 8000 200 call 
1111 1177 8000 0 fold 
2222 1750 8000 100 fold 
8888 3802 6000 200 call 
3333 438 6000 200 call 
6666 528 8000 200 call 
total pot: 1300 
/inquire 
recv from player 6666: check
send inquire msg to player 3333 
inquire/ 
6666 528 8000 200 check 
7777 982 8000 200 check 
4444 3876 8000 200 check 
5555 6147 8000 200 call 
1111 1177 8000 0 fold 
2222 1750 8000 100 fold 
8888 3802 6000 200 call 
3333 438 6000 200 call 
total pot: 1300 
/inquire 
recv from player 3333: check
send inquire msg to player 8888 
inquire/ 
3333 438 6000 200 check 
6666 528 8000 200 check 
7777 982 8000 200 check 
4444 3876 8000 200 check 
5555 6147 8000 200 call 
1111 1177 8000 0 fold 
2222 1750 8000 100 fold 
8888 3802 6000 200 call 
total pot: 1300 
/inquire 
recv from player 8888: check
send inquire msg to player 2222 
inquire/ 
8888 3802 6000 200 check 
3333 438 6000 200 check 
6666 528 8000 200 check 
7777 982 8000 200 check 
4444 3876 8000 200 check 
5555 6147 8000 200 call 
1111 1177 8000 0 fold 
2222 1750 8000 100 fold 
total pot: 1300 
/inquire 
send inquire msg to player 1111 
inquire/ 
2222 1750 8000 100 fold 
8888 3802 6000 200 check 
3333 438 6000 200 check 
6666 528 8000 200 check 
7777 982 8000 200 check 
4444 3876 8000 200 check 
5555 6147 8000 200 call 
1111 1177 8000 0 fold 
total pot: 1300 
/inquire 
send inquire msg to player 5555 
inquire/ 
1111 1177 8000 0 fold 
2222 1750 8000 100 fold 
8888 3802 6000 200 check 
3333 438 6000 200 check 
6666 528 8000 200 check 
7777 982 8000 200 check 
4444 3876 8000 200 check 
5555 6147 8000 200 call 
total pot: 1300 
/inquire 
recv from player 5555: check
turn/ 
SPADES K 
/turn 

---turn round bet---
valid player: 8, all in player: 0, fold player: 2
send inquire msg to player 4444 
inquire/ 
5555 6147 8000 200 check 
1111 1177 8000 0 fold 
2222 1750 8000 100 fold 
8888 3802 6000 200 check 
3333 438 6000 200 check 
6666 528 8000 200 check 
7777 982 8000 200 check 
4444 3876 8000 200 check 
total pot: 1300 
/inquire 
recv from player 4444: check
send inquire msg to player 7777 
inquire/ 
4444 3876 8000 200 check 
5555 6147 8000 200 check 
1111 1177 8000 0 fold 
2222 1750 8000 100 fold 
8888 3802 6000 200 check 
3333 438 6000 200 check 
6666 528 8000 200 check 
7777 982 8000 200 check 
total pot: 1300 
/inquire 
recv from player 7777: check
send inquire msg to player 6666 
inquire/ 
7777 982 8000 200 check 
4444 3876 8000 200 check 
5555 6147 8000 200 check 
1111 1177 8000 0 fold 
2222 1750 8000 100 fold 
8888 3802 6000 200 check 
3333 438 6000 200 check 
6666 528 8000 200 check 
total pot: 1300 
/inquire 
recv from player 6666: check
send inquire msg to player 3333 
inquire/ 
6666 528 8000 200 check 
7777 982 8000 200 check 
4444 3876 8000 200 check 
5555 6147 8000 200 check 
1111 1177 8000 0 fold 
2222 1750 8000 100 fold 
8888 3802 6000 200 check 
3333 438 6000 200 check 
total pot: 1300 
/inquire 
recv from player 3333: check
send inquire msg to player 8888 
inquire/ 
3333 438 6000 200 check 
6666 528 8000 200 check 
7777 982 8000 200 check 
4444 3876 8000 200 check 
5555 6147 8000 200 check 
1111 1177 8000 0 fold 
2222 1750 8000 100 fold 
8888 3802 6000 200 check 
total pot: 1300 
/inquire 
recv from player 8888: check
send inquire msg to player 2222 
inquire/ 
8888 3802 6000 200 check 
3333 438 6000 200 check 
6666 528 8000 200 check 
7777 982 8000 200 check 
4444 3876 8000 200 check 
5555 6147 8000 200 check 
1111 1177 8000 0 fold 
2222 1750 8000 100 fold 
total pot: 1300 
/inquire 
send inquire msg to player 1111 
inquire/ 
2222 1750 8000 100 fold 
8888 3802 6000 200 check 
3333 438 6000 200 check 
6666 528 8000 200 check 
7777 982 8000 200 check 
4444 3876 8000 200 check 
5555 6147 8000 200 check 
1111 1177 8000 0 fold 
total pot: 1300 
/inquire 
send inquire msg to player 5555 
inquire/ 
1111 1177 8000 0 fold 
2222 1750 8000 100 fold 
8888 3802 6000 200 check 
3333 438 6000 200 check 
6666 528 8000 200 check 
7777 982 8000 200 check 
4444 3876 8000 200 check 
5555 6147 8000 200 check 
total pot: 1300 
/inquire 
recv from player 5555: check
river/ 
CLUBS 6 
/river 

---river round bet---
valid player: 8, all in player: 0, fold player: 2
send inquire msg to player 4444 
inquire/ 
5555 6147 8000 200 check 
1111 1177 8000 0 fold 
2222 1750 8000 100 fold 
8888 3802 6000 200 check 
3333 438 6000 200 check 
6666 528 8000 200 check 
7777 982 8000 200 check 
4444 3876 8000 200 check 
total pot: 1300 
/inquire 
recv from player 4444: check
send inquire msg to player 7777 
inquire/ 
4444 3876 8000 200 check 
5555 6147 8000 200 check 
1111 1177 8000 0 fold 
2222 1750 8000 100 fold 
8888 3802 6000 200 check 
3333 438 6000 200 check 
6666 528 8000 200 check 
7777 982 8000 200 check 
total pot: 1300 
/inquire 
recv from player 7777: check
send inquire msg to player 6666 
inquire/ 
7777 982 8000 200 check 
4444 3876 8000 200 check 
5555 6147 8000 200 check 
1111 1177 8000 0 fold 
2222 1750 8000 100 fold 
8888 3802 6000 200 check 
3333 438 6000 200 check 
6666 528 8000 200 check 
total pot: 1300 
/inquire 
recv from player 6666: check
send inquire msg to player 3333 
inquire/ 
6666 528 8000 200 check 
7777 982 8000 200 check 
4444 3876 8000 200 check 
5555 6147 8000 200 check 
1111 1177 8000 0 fold 
2222 1750 8000 100 fold 
8888 3802 6000 200 check 
3333 438 6000 200 check 
total pot: 1300 
/inquire 
recv from player 3333: check
send inquire msg to player 8888 
inquire/ 
3333 438 6000 200 check 
6666 528 8000 200 check 
7777 982 8000 200 check 
4444 3876 8000 200 check 
5555 6147 8000 200 check 
1111 1177 8000 0 fold 
2222 1750 8000 100 fold 
8888 3802 6000 200 check 
total pot: 1300 
/inquire 
recv from player 8888: check
send inquire msg to player 2222 
inquire/ 
8888 3802 6000 200 check 
3333 438 6000 200 check 
6666 528 8000 200 check 
7777 982 8000 200 check 
4444 3876 8000 200 check 
5555 6147 8000 200 check 
1111 1177 8000 0 fold 
2222 1750 8000 100 fold 
total pot: 1300 
/inquire 
send inquire msg to player 1111 
inquire/ 
2222 1750 8000 100 fold 
8888 3802 6000 200 check 
3333 438 6000 200 check 
6666 528 8000 200 check 
7777 982 8000 200 check 
4444 3876 8000 200 check 
5555 6147 8000 200 check 
1111 1177 8000 0 fold 
total pot: 1300 
/inquire 
send inquire msg to player 5555 
inquire/ 
1111 1177 8000 0 fold 
2222 1750 8000 100 fold 
8888 3802 6000 200 check 
3333 438 6000 200 check 
6666 528 8000 200 check 
7777 982 8000 200 check 
4444 3876 8000 200 check 
5555 6147 8000 200 check 
total pot: 1300 
/inquire 
recv from player 5555: raise 0
send inquire msg to player 4444 
inquire/ 
5555 6047 8000 300 raise 
1111 1177 8000 0 fold 
2222 1750 8000 100 fold 
8888 3802 6000 200 check 
3333 438 6000 200 check 
6666 528 8000 200 check 
7777 982 8000 200 check 
4444 3876 8000 200 check 
total pot: 1400 
/inquire 
recv from player 4444: fold
send inquire msg to player 7777 
inquire/ 
4444 3876 8000 200 fold 
5555 6047 8000 300 raise 
1111 1177 8000 0 fold 
2222 1750 8000 100 fold 
8888 3802 6000 200 check 
3333 438 6000 200 check 
6666 528 8000 200 check 
7777 982 8000 200 check 
total pot: 1400 
/inquire 
recv from player 7777: check
send inquire msg to player 6666 
inquire/ 
7777 882 8000 300 call 
4444 3876 8000 200 fold 
5555 6047 8000 300 raise 
1111 1177 8000 0 fold 
2222 1750 8000 100 fold 
8888 3802 6000 200 check 
3333 438 6000 200 check 
6666 528 8000 200 check 
total pot: 1500 
/inquire 
recv from player 6666: fold
send inquire msg to player 3333 
inquire/ 
6666 528 8000 200 fold 
7777 882 8000 300 call 
4444 3876 8000 200 fold 
5555 6047 8000 300 raise 
1111 1177 8000 0 fold 
2222 1750 8000 100 fold 
8888 3802 6000 200 check 
3333 438 6000 200 check 
total pot: 1500 
/inquire 
recv from player 3333: check
send inquire msg to player 8888 
inquire/ 
3333 338 6000 300 call 
6666 528 8000 200 fold 
7777 882 8000 300 call 
4444 3876 8000 200 fold 
5555 6047 8000 300 raise 
1111 1177 8000 0 fold 
2222 1750 8000 100 fold 
8888 3802 6000 200 check 
total pot: 1600 
/inquire 
recv from player 8888: check

---show down---
showdown/ 
common/ 
SPADES 7 
HEARTS 3 
CLUBS 8 
SPADES K 
CLUBS 6 
/common 
2: 7777 DIAMONDS 4 HEARTS 8 ONE_PAIR 
4: 3333 CLUBS 10 DIAMONDS Q HIGH_CARD 
1: 8888 SPADES J DIAMONDS K ONE_PAIR 
3: 5555 CLUBS 3 CLUBS J ONE_PAIR 
/showdown 

---Allocate pot---
pot-win/ 
8888: 1700 
/pot-win 
it is player 4444's turn to be button

-----9 Hand-----

----- clean player data in socket -----
seat/ 
button: 4444 3876 8000 
small blind: 7777 882 8000 
big blind: 6666 528 8000 
3333 338 6000 
8888 5402 6000 
2222 1750 8000 
1111 1177 8000 
5555 6047 8000 
/seat 
blind/ 
7777: 50 
6666: 100 
/blind 
player 7777:hold/ 
CLUBS 9 
HEARTS K 
/hold 
player 6666:hold/ 
SPADES A 
SPADES 10 
/hold 
player 3333:hold/ 
SPADES J 
CLUBS 4 
/hold 
player 8888:hold/ 
CLUBS A 
DIAMONDS K 
/hold 
player 2222:hold/ 
CLUBS 10 
HEARTS A 
/hold 
player 1111:hold/ 
HEARTS J 
SPADES 7 
/hold 
player 5555:hold/ 
HEARTS Q 
SPADES 8 
/hold 
player 4444:hold/ 
HEARTS 8 
CLUBS 6 
/hold 

---pre flop round bet---
valid player: 8, all in player: 0, fold player: 0
send inquire msg to player 3333 
inquire/ 
6666 428 8000 100 blind 
7777 832 8000 50 blind 
total pot: 150 
/inquire 
recv from player 3333: check
send inquire msg to player 8888 
inquire/ 
3333 238 6000 100 call 
6666 428 8000 100 blind 
7777 832 8000 50 blind 
total pot: 250 
/inquire 
recv from player 8888: check
send inquire msg to player 2222 
inquire/ 
8888 5302 6000 100 call 
3333 238 6000 100 call 
6666 428 8000 100 blind 
7777 832 8000 50 blind 
total pot: 350 
/inquire 
recv from player 2222: fold
send inquire msg to player 1111 
inquire/ 
2222 1750 8000 0 fold 
8888 5302 6000 100 call 
3333 238 6000 100 call 
6666 428 8000 100 blind 
7777 832 8000 50 blind 
total pot: 350 
/inquire 
recv from player 1111: fold
send inquire msg to player 5555 
inquire/ 
1111 1177 8000 0 fold 
2222 1750 8000 0 fold 
8888 5302 6000 100 call 
3333 238 6000 100 call 
6666 428 8000 100 blind 
7777 832 8000 50 blind 
total pot: 350 
/inquire 
recv from player 5555: raise 0
send inquire msg to player 4444 
inquire/ 
5555 5847 8000 200 raise 
1111 1177 8000 0 fold 
2222 1750 8000 0 fold 
8888 5302 6000 100 call 
3333 238 6000 100 call 
6666 428 8000 100 blind 
7777 832 8000 50 blind 
total pot: 550 
/inquire 
recv from player 4444: check
send inquire msg to player 7777 
inquire/ 
4444 3676 8000 200 call 
5555 5847 8000 200 raise 
1111 1177 8000 0 fold 
2222 1750 8000 0 fold 
8888 5302 6000 100 call 
3333 238 6000 100 call 
6666 428 8000 100 blind 
7777 832 8000 50 blind 
total pot: 750 
/inquire 
recv from player 7777: check
send inquire msg to player 6666 
inquire/ 
7777 682 8000 200 call 
4444 3676 8000 200 call 
5555 5847 8000 200 raise 
1111 1177 8000 0 fold 
2222 1750 8000 0 fold 
8888 5302 6000 100 call 
3333 238 6000 100 call 
6666 428 8000 100 blind 
total pot: 900 
/inquire 
recv from player 6666: check
send inquire msg to player 3333 
inquire/ 
6666 328 8000 200 call 
7777 682 8000 200 call 
4444 3676 8000 200 call 
5555 5847 8000 200 raise 
1111 1177 8000 0 fold 
2222 1750 8000 0 fold 
8888 5302 6000 100 call 
3333 238 6000 100 call 
total pot: 1000 
/inquire 
recv from player 3333: check
send inquire msg to player 8888 
inquire/ 
3333 138 6000 200 call 
6666 328 8000 200 call 
7777 682 8000 200 call 
4444 3676 8000 200 call 
5555 5847 8000 200 raise 
1111 1177 8000 0 fold 
2222 1750 8000 0 fold 
8888 5302 6000 100 call 
total pot: 1100 
/inquire 
recv from player 8888: check
flop/ 
SPADES Q 
SPADES 6 
SPADES K 
/flop 

---flop round bet---
valid player: 8, all in player: 0, fold player: 2
send inquire msg to player 7777 
inquire/ 
4444 3676 8000 200 call 
5555 5847 8000 200 raise 
1111 1177 8000 0 fold 
2222 1750 8000 0 fold 
8888 5202 6000 200 call 
3333 138 6000 200 call 
6666 328 8000 200 call 
7777 682 8000 200 call 
total pot: 1200 
/inquire 
recv from player 7777: check
send inquire msg to player 6666 
inquire/ 
7777 682 8000 200 check 
4444 3676 8000 200 call 
5555 5847 8000 200 raise 
1111 1177 8000 0 fold 
2222 1750 8000 0 fold 
8888 5202 6000 200 call 
3333 138 6000 200 call 
6666 328 8000 200 call 
total pot: 1200 
/inquire 
recv from player 6666: check
send inquire msg to player 3333 
inquire/ 
6666 328 8000 200 check 
7777 682 8000 200 check 
4444 3676 8000 200 call 
5555 5847 8000 200 raise 
1111 1177 8000 0 fold 
2222 1750 8000 0 fold 
8888 5202 6000 200 call 
3333 138 6000 200 call 
total pot: 1200 
/inquire 
recv from player 3333: check
send inquire msg to player 8888 
inquire/ 
3333 138 6000 200 check 
6666 328 8000 200 check 
7777 682 8000 200 check 
4444 3676 8000 200 call 
5555 5847 8000 200 raise 
1111 1177 8000 0 fold 
2222 1750 8000 0 fold 
8888 5202 6000 200 call 
total pot: 1200 
/inquire 
recv from player 8888: check
send inquire msg to player 2222 
inquire/ 
8888 5202 6000 200 check 
3333 138 6000 200 check 
6666 328 8000 200 check 
7777 682 8000 200 check 
4444 3676 8000 200 call 
5555 5847 8000 200 raise 
1111 1177 8000 0 fold 
2222 1750 8000 0 fold 
total pot: 1200 
/inquire 
send inquire msg to player 1111 
inquire/ 
2222 1750 8000 0 fold 
8888 5202 6000 200 check 
3333 138 6000 200 check 
6666 328 8000 200 check 
7777 682 8000 200 check 
4444 3676 8000 200 call 
5555 5847 8000 200 raise 
1111 1177 8000 0 fold 
total pot: 1200 
/inquire 
send inquire msg to player 5555 
inquire/ 
1111 1177 8000 0 fold 
2222 1750 8000 0 fold 
8888 5202 6000 200 check 
3333 138 6000 200 check 
6666 328 8000 200 check 
7777 682 8000 200 check 
4444 3676 8000 200 call 
5555 5847 8000 200 raise 
total pot: 1200 
/inquire 
recv from player 5555: raise 0
send inquire msg to player 4444 
inquire/ 
5555 5747 8000 300 raise 
1111 1177 8000 0 fold 
2222 1750 8000 0 fold 
8888 5202 6000 200 check 
3333 138 6000 200 check 
6666 328 8000 200 check 
7777 682 8000 200 check 
4444 3676 8000 200 call 
total pot: 1300 
/inquire 
recv from player 4444: check
send inquire msg to player 7777 
inquire/ 
4444 3576 8000 300 call 
5555 5747 8000 300 raise 
1111 1177 8000 0 fold 
2222 1750 8000 0 fold 
8888 5202 6000 200 check 
3333 138 6000 200 check 
6666 328 8000 200 check 
7777 682 8000 200 check 
total pot: 1400 
/inquire 
recv from player 7777: check
send inquire msg to player 6666 
inquire/ 
7777 582 8000 300 call 
4444 3576 8000 300 call 
5555 5747 8000 300 raise 
1111 1177 8000 0 fold 
2222 1750 8000 0 fold 
8888 5202 6000 200 check 
3333 138 6000 200 check 
6666 328 8000 200 check 
total pot: 1500 
/inquire 
recv from player 6666: check
send inquire msg to player 3333 
inquire/ 
6666 228 8000 300 call 
7777 582 8000 300 call 
4444 3576 8000 300 call 
5555 5747 8000 300 raise 
1111 1177 8000 0 fold 
2222 1750 8000 0 fold 
8888 5202 6000 200 check 
3333 138 6000 200 check 
total pot: 1600 
/inquire 
recv from player 3333: check
send inquire msg to player 8888 
inquire/ 
3333 38 6000 300 call 
6666 228 8000 300 call 
7777 582 8000 300 call 
4444 3576 8000 300 call 
5555 5747 8000 300 raise 
1111 1177 8000 0 fold 
2222 1750 8000 0 fold 
8888 5202 6000 200 check 
total pot: 1700 
/inquire 
recv from player 8888: check
turn/ 
HEARTS 6 
/turn 

---turn round bet---
valid player: 8, all in player: 0, fold player: 2
send inquire msg to player 7777 
inquire/ 
4444 3576 8000 300 call 
5555 5747 8000 300 raise 
1111 1177 8000 0 fold 
2222 1750 8000 0 fold 
8888 5102 6000 300 call 
3333 38 6000 300 call 
6666 228 8000 300 call 
7777 582 8000 300 call 
total pot: 1800 
/inquire 
recv from player 7777: check
send inquire msg to player 6666 
inquire/ 
7777 582 8000 300 check 
4444 3576 8000 300 call 
5555 5747 8000 300 raise 
1111 1177 8000 0 fold 
2222 1750 8000 0 fold 
8888 5102 6000 300 call 
3333 38 6000 300 call 
6666 228 8000 300 call 
total pot: 1800 
/inquire 
recv from player 6666: fold
send inquire msg to player 3333 
inquire/ 
6666 228 8000 300 fold 
7777 582 8000 300 check 
4444 3576 8000 300 call 
5555 5747 8000 300 raise 
1111 1177 8000 0 fold 
2222 1750 8000 0 fold 
8888 5102 6000 300 call 
3333 38 6000 300 call 
total pot: 1800 
/inquire 
recv from player 3333: check
send inquire msg to player 8888 
inquire/ 
3333 38 6000 300 check 
6666 228 8000 300 fold 
7777 582 8000 300 check 
4444 3576 8000 300 call 
5555 5747 8000 300 raise 
1111 1177 8000 0 fold 
2222 1750 8000 0 fold 
8888 5102 6000 300 call 
total pot: 1800 
/inquire 
recv from player 8888: check
send inquire msg to player 2222 
inquire/ 
8888 5102 6000 300 check 
3333 38 6000 300 check 
6666 228 8000 300 fold 
7777 582 8000 300 check 
4444 3576 8000 300 call 
5555 5747 8000 300 raise 
1111 1177 8000 0 fold 
2222 1750 8000 0 fold 
total pot: 1800 
/inquire 
send inquire msg to player 1111 
inquire/ 
2222 1750 8000 0 fold 
8888 5102 6000 300 check 
3333 38 6000 300 check 
6666 228 8000 300 fold 
7777 582 8000 300 check 
4444 3576 8000 300 call 
5555 5747 8000 300 raise 
1111 1177 8000 0 fold 
total pot: 1800 
/inquire 
send inquire msg to player 5555 
inquire/ 
1111 1177 8000 0 fold 
2222 1750 8000 0 fold 
8888 5102 6000 300 check 
3333 38 6000 300 check 
6666 228 8000 300 fold 
7777 582 8000 300 check 
4444 3576 8000 300 call 
5555 5747 8000 300 raise 
total pot: 1800 
/inquire 
recv from player 5555: check
send inquire msg to player 4444 
inquire/ 
5555 5747 8000 300 check 
1111 1177 8000 0 fold 
2222 1750 8000 0 fold 
8888 5102 6000 300 check 
3333 38 6000 300 check 
6666 228 8000 300 fold 
7777 582 8000 300 check 
4444 3576 8000 300 call 
total pot: 1800 
/inquire 
recv from player 4444: raise 811
send inquire msg to player 7777 
inquire/ 
4444 2765 8000 1111 raise 
5555 5747 8000 300 check 
1111 1177 8000 0 fold 
2222 1750 8000 0 fold 
8888 5102 6000 300 check 
3333 38 6000 300 check 
6666 228 8000 300 fold 
7777 582 8000 300 check 
total pot: 2611 
/inquire 
recv from player 7777: fold
send inquire msg to player 6666 
inquire/ 
7777 582 8000 300 fold 
4444 2765 8000 1111 raise 
5555 5747 8000 300 check 
1111 1177 8000 0 fold 
2222 1750 8000 0 fold 
8888 5102 6000 300 check 
3333 38 6000 300 check 
6666 228 8000 300 fold 
total pot: 2611 
/inquire 
send inquire msg to player 3333 
inquire/ 
6666 228 8000 300 fold 
7777 582 8000 300 fold 
4444 2765 8000 1111 raise 
5555 5747 8000 300 check 
1111 1177 8000 0 fold 
2222 1750 8000 0 fold 
8888 5102 6000 300 check 
3333 38 6000 300 check 
total pot: 2611 
/inquire 
recv from player 3333: check
send inquire msg to player 8888 
inquire/ 
3333 0 6000 338 all_in 
6666 228 8000 300 fold 
7777 582 8000 300 fold 
4444 2765 8000 1111 raise 
5555 5747 8000 300 check 
1111 1177 8000 0 fold 
2222 1750 8000 0 fold 
8888 5102 6000 300 check 
total pot: 2649 
/inquire 
recv from player 8888: check
send inquire msg to player 2222 
inquire/ 
8888 4291 6000 1111 call 
3333 0 6000 338 all_in 
6666 228 8000 300 fold 
7777 582 8000 300 fold 
4444 2765 8000 1111 raise 
5555 5747 8000 300 check 
1111 1177 8000 0 fold 
2222 1750 8000 0 fold 
total pot: 3460 
/inquire 
send inquire msg to player 1111 
inquire/ 
2222 1750 8000 0 fold 
8888 4291 6000 1111 call 
3333 0 6000 338 all_in 
6666 228 8000 300 fold 
7777 582 8000 300 fold 
4444 2765 8000 1111 raise 
5555 5747 8000 300 check 
1111 1177 8000 0 fold 
total pot: 3460 
/inquire 
send inquire msg to player 5555 
inquire/ 
1111 1177 8000 0 fold 
2222 1750 8000 0 fold 
8888 4291 6000 1111 call 
3333 0 6000 338 all_in 
6666 228 8000 300 fold 
7777 582 8000 300 fold 
4444 2765 8000 1111 raise 
5555 5747 8000 300 check 
total pot: 3460 
/inquire 
recv from player 5555: raise 0
send inquire msg to player 4444 
inquire/ 
5555 4125 8000 1922 raise 
1111 1177 8000 0 fold 
2222 1750 8000 0 fold 
8888 4291 6000 1111 call 
3333 0 6000 338 all_in 
6666 228 8000 300 fold 
7777 582 8000 300 fold 
4444 2765 8000 1111 raise 
total pot: 5082 
/inquire 
recv from player 4444: check
send inquire msg to player 7777 
inquire/ 
4444 1954 8000 1922 call 
5555 4125 8000 1922 raise 
1111 1177 8000 0 fold 
2222 1750 8000 0 fold 
8888 4291 6000 1111 call 
3333 0 6000 338 all_in 
6666 228 8000 300 fold 
7777 582 8000 300 fold 
total pot: 5893 
/inquire 
send inquire msg to player 6666 
inquire/ 
7777 582 8000 300 fold 
4444 1954 8000 1922 call 
5555 4125 8000 1922 raise 
1111 1177 8000 0 fold 
2222 1750 8000 0 fold 
8888 4291 6000 1111 call 
3333 0 6000 338 all_in 
6666 228 8000 300 fold 
total pot: 5893 
/inquire 
send inquire msg to player 3333 
inquire/ 
6666 228 8000 300 fold 
7777 582 8000 300 fold 
4444 1954 8000 1922 call 
5555 4125 8000 1922 raise 
1111 1177 8000 0 fold 
2222 1750 8000 0 fold 
8888 4291 6000 1111 call 
3333 0 6000 338 all_in 
total pot: 5893 
/inquire 
send inquire msg to player 8888 
inquire/ 
3333 0 6000 338 all_in 
6666 228 8000 300 fold 
7777 582 8000 300 fold 
4444 1954 8000 1922 call 
5555 4125 8000 1922 raise 
1111 1177 8000 0 fold 
2222 1750 8000 0 fold 
8888 4291 6000 1111 call 
total pot: 5893 
/inquire 
recv from player 8888: check
river/ 
CLUBS 5 
/river 

---river round bet---
valid player: 8, all in player: 1, fold player: 4
send inquire msg to player 7777 
inquire/ 
4444 1954 8000 1922 call 
5555 4125 8000 1922 raise 
1111 1177 8000 0 fold 
2222 1750 8000 0 fold 
8888 3480 6000 1922 call 
3333 0 6000 338 all_in 
6666 228 8000 300 fold 
7777 582 8000 300 fold 
total pot: 6704 
/inquire 
send inquire msg to player 6666 
inquire/ 
7777 582 8000 300 fold 
4444 1954 8000 1922 call 
5555 4125 8000 1922 raise 
1111 1177 8000 0 fold 
2222 1750 8000 0 fold 
8888 3480 6000 1922 call 
3333 0 6000 338 all_in 
6666 228 8000 300 fold 
total pot: 6704 
/inquire 
send inquire msg to player 3333 
inquire/ 
6666 228 8000 300 fold 
7777 582 8000 300 fold 
4444 1954 8000 1922 call 
5555 4125 8000 1922 raise 
1111 1177 8000 0 fold 
2222 1750 8000 0 fold 
8888 3480 6000 1922 call 
3333 0 6000 338 all_in 
total pot: 6704 
/inquire 
send inquire msg to player 8888 
inquire/ 
3333 0 6000 338 all_in 
6666 228 8000 300 fold 
7777 582 8000 300 fold 
4444 1954 8000 1922 call 
5555 4125 8000 1922 raise 
1111 1177 8000 0 fold 
2222 1750 8000 0 fold 
8888 3480 6000 1922 call 
total pot: 6704 
/inquire 
recv from player 8888: check
send inquire msg to player 2222 
inquire/ 
8888 3480 6000 1922 check 
3333 0 6000 338 all_in 
6666 228 8000 300 fold 
7777 582 8000 300 fold 
4444 1954 8000 1922 call 
5555 4125 8000 1922 raise 
1111 1177 8000 0 fold 
2222 1750 8000 0 fold 
total pot: 6704 
/inquire 
send inquire msg to player 1111 
inquire/ 
2222 1750 8000 0 fold 
8888 3480 6000 1922 check 
3333 0 6000 338 all_in 
6666 228 8000 300 fold 
7777 582 8000 300 fold 
4444 1954 8000 1922 call 
5555 4125 8000 1922 raise 
1111 1177 8000 0 fold 
total pot: 6704 
/inquire 
send inquire msg to player 5555 
inquire/ 
1111 1177 8000 0 fold 
2222 1750 8000 0 fold 
8888 3480 6000 1922 check 
3333 0 6000 338 all_in 
6666 228 8000 300 fold 
7777 582 8000 300 fold 
4444 1954 8000 1922 call 
5555 4125 8000 1922 raise 
total pot: 6704 
/inquire 
recv from player 5555: check
send inquire msg to player 4444 
inquire/ 
5555 4125 8000 1922 check 
1111 1177 8000 0 fold 
2222 1750 8000 0 fold 
8888 3480 6000 1922 check 
3333 0 6000 338 all_in 
6666 228 8000 300 fold 
7777 582 8000 300 fold 
4444 1954 8000 1922 call 
total pot: 6704 
/inquire 
recv from player 4444: check

---show down---
showdown/ 
common/ 
SPADES Q 
SPADES 6 
SPADES K 
HEARTS 6 
CLUBS 5 
/common 
4: 3333 SPADES J CLUBS 4 ONE_PAIR 
2: 8888 CLUBS A DIAMONDS K TWO_PAIR 
3: 5555 HEARTS Q SPADES 8 TWO_PAIR 
1: 4444 HEARTS 8 CLUBS 6 THREE_OF_A_KIND 
/showdown 

---Allocate pot---
pot-win/ 
4444: 6704 
/pot-win 
it is player 7777's turn to be button

-----10 Hand-----

----- clean player data in socket -----
seat/ 
button: 7777 582 8000 
small blind: 6666 228 8000 
big blind: 3333 2000 4000 
8888 3480 6000 
2222 1750 8000 
1111 1177 8000 
5555 4125 8000 
4444 8658 8000 
/seat 
blind/ 
6666: 50 
3333: 100 
/blind 
player 6666:hold/ 
HEARTS A 
CLUBS 5 
/hold 
player 3333:hold/ 
CLUBS 6 
HEARTS J 
/hold 
player 8888:hold/ 
SPADES 2 
DIAMONDS Q 
/hold 
player 2222:hold/ 
HEARTS 9 
SPADES 8 
/hold 
player 1111:hold/ 
HEARTS 8 
DIAMONDS 6 
/hold 
player 5555:hold/ 
HEARTS 7 
SPADES 9 
/hold 
player 4444:hold/ 
CLUBS 3 
CLUBS 9 
/hold 
player 7777:hold/ 
SPADES 10 
DIAMONDS J 
/hold 

---pre flop round bet---
valid player: 8, all in player: 0, fold player: 0
send inquire msg to player 8888 
inquire/ 
3333 1900 4000 100 blind 
6666 178 8000 50 blind 
total pot: 150 
/inquire 
recv from player 8888: check
send inquire msg to player 2222 
inquire/ 
8888 3380 6000 100 call 
3333 1900 4000 100 blind 
6666 178 8000 50 blind 
total pot: 250 
/inquire 
recv from player 2222: fold
send inquire msg to player 1111 
inquire/ 
2222 1750 8000 0 fold 
8888 3380 6000 100 call 
3333 1900 4000 100 blind 
6666 178 8000 50 blind 
total pot: 250 
/inquire 
recv from player 1111: fold
send inquire msg to player 5555 
inquire/ 
1111 1177 8000 0 fold 
2222 1750 8000 0 fold 
8888 3380 6000 100 call 
3333 1900 4000 100 blind 
6666 178 8000 50 blind 
total pot: 250 
/inquire 
recv from player 5555: check
send inquire msg to player 4444 
inquire/ 
5555 4025 8000 100 call 
1111 1177 8000 0 fold 
2222 1750 8000 0 fold 
8888 3380 6000 100 call 
3333 1900 4000 100 blind 
6666 178 8000 50 blind 
total pot: 350 
/inquire 
recv from player 4444: raise 333
send inquire msg to player 7777 
inquire/ 
4444 8225 8000 433 raise 
5555 4025 8000 100 call 
1111 1177 8000 0 fold 
2222 1750 8000 0 fold 
8888 3380 6000 100 call 
3333 1900 4000 100 blind 
6666 178 8000 50 blind 
total pot: 783 
/inquire 
recv from player 7777: fold
send inquire msg to player 6666 
inquire/ 
7777 582 8000 0 fold 
4444 8225 8000 433 raise 
5555 4025 8000 100 call 
1111 1177 8000 0 fold 
2222 1750 8000 0 fold 
8888 3380 6000 100 call 
3333 1900 4000 100 blind 
6666 178 8000 50 blind 
total pot: 783 
/inquire 
recv from player 6666: fold
send inquire msg to player 3333 
inquire/ 
6666 178 8000 50 fold 
7777 582 8000 0 fold 
4444 8225 8000 433 raise 
5555 4025 8000 100 call 
1111 1177 8000 0 fold 
2222 1750 8000 0 fold 
8888 3380 6000 100 call 
3333 1900 4000 100 blind 
total pot: 783 
/inquire 
recv from player 3333: check
send inquire msg to player 8888 
inquire/ 
3333 1567 4000 433 call 
6666 178 8000 50 fold 
7777 582 8000 0 fold 
4444 8225 8000 433 raise 
5555 4025 8000 100 call 
1111 1177 8000 0 fold 
2222 1750 8000 0 fold 
8888 3380 6000 100 call 
total pot: 1116 
/inquire 
recv from player 8888: check
send inquire msg to player 2222 
inquire/ 
8888 3047 6000 433 call 
3333 1567 4000 433 call 
6666 178 8000 50 fold 
7777 582 8000 0 fold 
4444 8225 8000 433 raise 
5555 4025 8000 100 call 
1111 1177 8000 0 fold 
2222 1750 8000 0 fold 
total pot: 1449 
/inquire 
send inquire msg to player 1111 
inquire/ 
2222 1750 8000 0 fold 
8888 3047 6000 433 call 
3333 1567 4000 433 call 
6666 178 8000 50 fold 
7777 582 8000 0 fold 
4444 8225 8000 433 raise 
5555 4025 8000 100 call 
1111 1177 8000 0 fold 
total pot: 1449 
/inquire 
send inquire msg to player 5555 
inquire/ 
1111 1177 8000 0 fold 
2222 1750 8000 0 fold 
8888 3047 6000 433 call 
3333 1567 4000 433 call 
6666 178 8000 50 fold 
7777 582 8000 0 fold 
4444 8225 8000 433 raise 
5555 4025 8000 100 call 
total pot: 1449 
/inquire 
recv from player 5555: check
flop/ 
HEARTS 5 
CLUBS 8 
SPADES 3 
/flop 

---flop round bet---
valid player: 8, all in player: 0, fold player: 4
send inquire msg to player 6666 
inquire/ 
7777 582 8000 0 fold 
4444 8225 8000 433 raise 
5555 3692 8000 433 call 
1111 1177 8000 0 fold 
2222 1750 8000 0 fold 
8888 3047 6000 433 call 
3333 1567 4000 433 call 
6666 178 8000 50 fold 
total pot: 1782 
/inquire 
send inquire msg to player 3333 
inquire/ 
6666 178 8000 50 fold 
7777 582 8000 0 fold 
4444 8225 8000 433 raise 
5555 3692 8000 433 call 
1111 1177 8000 0 fold 
2222 1750 8000 0 fold 
8888 3047 6000 433 call 
3333 1567 4000 433 call 
total pot: 1782 
/inquire 
recv from player 3333: check
send inquire msg to player 8888 
inquire/ 
3333 1567 4000 433 check 
6666 178 8000 50 fold 
7777 582 8000 0 fold 
4444 8225 8000 433 raise 
5555 3692 8000 433 call 
1111 1177 8000 0 fold 
2222 1750 8000 0 fold 
8888 3047 6000 433 call 
total pot: 1782 
/inquire 
recv from player 8888: check
send inquire msg to player 2222 
inquire/ 
8888 3047 6000 433 check 
3333 1567 4000 433 check 
6666 178 8000 50 fold 
7777 582 8000 0 fold 
4444 8225 8000 433 raise 
5555 3692 8000 433 call 
1111 1177 8000 0 fold 
2222 1750 8000 0 fold 
total pot: 1782 
/inquire 
send inquire msg to player 1111 
inquire/ 
2222 1750 8000 0 fold 
8888 3047 6000 433 check 
3333 1567 4000 433 check 
6666 178 8000 50 fold 
7777 582 8000 0 fold 
4444 8225 8000 433 raise 
5555 3692 8000 433 call 
1111 1177 8000 0 fold 
total pot: 1782 
/inquire 
send inquire msg to player 5555 
inquire/ 
1111 1177 8000 0 fold 
2222 1750 8000 0 fold 
8888 3047 6000 433 check 
3333 1567 4000 433 check 
6666 178 8000 50 fold 
7777 582 8000 0 fold 
4444 8225 8000 433 raise 
5555 3692 8000 433 call 
total pot: 1782 
/inquire 
recv from player 5555: raise 0
send inquire msg to player 4444 
inquire/ 
5555 3592 8000 533 raise 
1111 1177 8000 0 fold 
2222 1750 8000 0 fold 
8888 3047 6000 433 check 
3333 1567 4000 433 check 
6666 178 8000 50 fold 
7777 582 8000 0 fold 
4444 8225 8000 433 raise 
total pot: 1882 
/inquire 
recv from player 4444: check
send inquire msg to player 7777 
inquire/ 
4444 8125 8000 533 call 
5555 3592 8000 533 raise 
1111 1177 8000 0 fold 
2222 1750 8000 0 fold 
8888 3047 6000 433 check 
3333 1567 4000 433 check 
6666 178 8000 50 fold 
7777 582 8000 0 fold 
total pot: 1982 
/inquire 
send inquire msg to player 6666 
inquire/ 
7777 582 8000 0 fold 
4444 8125 8000 533 call 
5555 3592 8000 533 raise 
1111 1177 8000 0 fold 
2222 1750 8000 0 fold 
8888 3047 6000 433 check 
3333 1567 4000 433 check 
6666 178 8000 50 fold 
total pot: 1982 
/inquire 
send inquire msg to player 3333 
inquire/ 
6666 178 8000 50 fold 
7777 582 8000 0 fold 
4444 8125 8000 533 call 
5555 3592 8000 533 raise 
1111 1177 8000 0 fold 
2222 1750 8000 0 fold 
8888 3047 6000 433 check 
3333 1567 4000 433 check 
total pot: 1982 
/inquire 
recv from player 3333: check
send inquire msg to player 8888 
inquire/ 
3333 1467 4000 533 call 
6666 178 8000 50 fold 
7777 582 8000 0 fold 
4444 8125 8000 533 call 
5555 3592 8000 533 raise 
1111 1177 8000 0 fold 
2222 1750 8000 0 fold 
8888 3047 6000 433 check 
total pot: 2082 
/inquire 
recv from player 8888: check
turn/ 
DIAMONDS A 
/turn 

---turn round bet---
valid player: 8, all in player: 0, fold player: 4
send inquire msg to player 6666 
inquire/ 
7777 582 8000 0 fold 
4444 8125 8000 533 call 
5555 3592 8000 533 raise 
1111 1177 8000 0 fold 
2222 1750 8000 0 fold 
8888 2947 6000 533 call 
3333 1467 4000 533 call 
6666 178 8000 50 fold 
total pot: 2182 
/inquire 
send inquire msg to player 3333 
inquire/ 
6666 178 8000 50 fold 
7777 582 8000 0 fold 
4444 8125 8000 533 call 
5555 3592 8000 533 raise 
1111 1177 8000 0 fold 
2222 1750 8000 0 fold 
8888 2947 6000 533 call 
3333 1467 4000 533 call 
total pot: 2182 
/inquire 
recv from player 3333: check
send inquire msg to player 8888 
inquire/ 
3333 1467 4000 533 check 
6666 178 8000 50 fold 
7777 582 8000 0 fold 
4444 8125 8000 533 call 
5555 3592 8000 533 raise 
1111 1177 8000 0 fold 
2222 1750 8000 0 fold 
8888 2947 6000 533 call 
total pot: 2182 
/inquire 
recv from player 8888: check
send inquire msg to player 2222 
inquire/ 
8888 2947 6000 533 check 
3333 1467 4000 533 check 
6666 178 8000 50 fold 
7777 582 8000 0 fold 
4444 8125 8000 533 call 
5555 3592 8000 533 raise 
1111 1177 8000 0 fold 
2222 1750 8000 0 fold 
total pot: 2182 
/inquire 
send inquire msg to player 1111 
inquire/ 
2222 1750 8000 0 fold 
8888 2947 6000 533 check 
3333 1467 4000 533 check 
6666 178 8000 50 fold 
7777 582 8000 0 fold 
4444 8125 8000 533 call 
5555 3592 8000 533 raise 
1111 1177 8000 0 fold 
total pot: 2182 
/inquire 
send inquire msg to player 5555 
inquire/ 
1111 1177 8000 0 fold 
2222 1750 8000 0 fold 
8888 2947 6000 533 check 
3333 1467 4000 533 check 
6666 178 8000 50 fold 
7777 582 8000 0 fold 
4444 8125 8000 533 call 
5555 3592 8000 533 raise 
total pot: 2182 
/inquire 
recv from player 5555: check
send inquire msg to player 4444 
inquire/ 
5555 3592 8000 533 check 
1111 1177 8000 0 fold 
2222 1750 8000 0 fold 
8888 2947 6000 533 check 
3333 1467 4000 533 check 
6666 178 8000 50 fold 
7777 582 8000 0 fold 
4444 8125 8000 533 call 
total pot: 2182 
/inquire 
recv from player 4444: check
river/ 
DIAMONDS K 
/river 

---river round bet---
valid player: 8, all in player: 0, fold player: 4
send inquire msg to player 6666 
inquire/ 
7777 582 8000 0 fold 
4444 8125 8000 533 check 
5555 3592 8000 533 check 
1111 1177 8000 0 fold 
2222 1750 8000 0 fold 
8888 2947 6000 533 check 
3333 1467 4000 533 check 
6666 178 8000 50 fold 
total pot: 2182 
/inquire 
send inquire msg to player 3333 
inquire/ 
6666 178 8000 50 fold 
7777 582 8000 0 fold 
4444 8125 8000 533 check 
5555 3592 8000 533 check 
1111 1177 8000 0 fold 
2222 1750 8000 0 fold 
8888 2947 6000 533 check 
3333 1467 4000 533 check 
total pot: 2182 
/inquire 
recv from player 3333: check
send inquire msg to player 8888 
inquire/ 
3333 1467 4000 533 check 
6666 178 8000 50 fold 
7777 582 8000 0 fold 
4444 8125 8000 533 check 
5555 3592 8000 533 check 
1111 1177 8000 0 fold 
2222 1750 8000 0 fold 
8888 2947 6000 533 check 
total pot: 2182 
/inquire 
recv from player 8888: check
send inquire msg to player 2222 
inquire/ 
8888 2947 6000 533 check 
3333 1467 4000 533 check 
6666 178 8000 50 fold 
7777 582 8000 0 fold 
4444 8125 8000 533 check 
5555 3592 8000 533 check 
1111 1177 8000 0 fold 
2222 1750 8000 0 fold 
total pot: 2182 
/inquire 
send inquire msg to player 1111 
inquire/ 
2222 1750 8000 0 fold 
8888 2947 6000 533 check 
3333 1467 4000 533 check 
6666 178 8000 50 fold 
7777 582 8000 0 fold 
4444 8125 8000 533 check 
5555 3592 8000 533 check 
1111 1177 8000 0 fold 
total pot: 2182 
/inquire 
send inquire msg to player 5555 
inquire/ 
1111 1177 8000 0 fold 
2222 1750 8000 0 fold 
8888 2947 6000 533 check 
3333 1467 4000 533 check 
6666 178 8000 50 fold 
7777 582 8000 0 fold 
4444 8125 8000 533 check 
5555 3592 8000 533 check 
total pot: 2182 
/inquire 
recv from player 5555: raise 0
send inquire msg to player 4444 
inquire/ 
5555 3492 8000 633 raise 
1111 1177 8000 0 fold 
2222 1750 8000 0 fold 
8888 2947 6000 533 check 
3333 1467 4000 533 check 
6666 178 8000 50 fold 
7777 582 8000 0 fold 
4444 8125 8000 533 check 
total pot: 2282 
/inquire 
recv from player 4444: check
send inquire msg to player 7777 
inquire/ 
4444 8025 8000 633 call 
5555 3492 8000 633 raise 
1111 1177 8000 0 fold 
2222 1750 8000 0 fold 
8888 2947 6000 533 check 
3333 1467 4000 533 check 
6666 178 8000 50 fold 
7777 582 8000 0 fold 
total pot: 2382 
/inquire 
send inquire msg to player 6666 
inquire/ 
7777 582 8000 0 fold 
4444 8025 8000 633 call 
5555 3492 8000 633 raise 
1111 1177 8000 0 fold 
2222 1750 8000 0 fold 
8888 2947 6000 533 check 
3333 1467 4000 533 check 
6666 178 8000 50 fold 
total pot: 2382 
/inquire 
send inquire msg to player 3333 
inquire/ 
6666 178 8000 50 fold 
7777 582 8000 0 fold 
4444 8025 8000 633 call 
5555 3492 8000 633 raise 
1111 1177 8000 0 fold 
2222 1750 8000 0 fold 
8888 2947 6000 533 check 
3333 1467 4000 533 check 
total pot: 2382 
/inquire 
recv from player 3333: check
send inquire msg to player 8888 
inquire/ 
3333 1367 4000 633 call 
6666 178 8000 50 fold 
7777 582 8000 0 fold 
4444 8025 8000 633 call 
5555 3492 8000 633 raise 
1111 1177 8000 0 fold 
2222 1750 8000 0 fold 
8888 2947 6000 533 check 
total pot: 2482 
/inquire 
recv from player 8888: check

---show down---
showdown/ 
common/ 
HEARTS 5 
CLUBS 8 
SPADES 3 
DIAMONDS A 
DIAMONDS K 
/common 
3: 3333 CLUBS 6 HEARTS J HIGH_CARD 
2: 8888 SPADES 2 DIAMONDS Q HIGH_CARD 
4: 5555 HEARTS 7 SPADES 9 HIGH_CARD 
1: 4444 CLUBS 3 CLUBS 9 ONE_PAIR 
/showdown 

---Allocate pot---
pot-win/ 
4444: 2582 
/pot-win 
it is player 6666's turn to be button

-----11 Hand-----

----- clean player data in socket -----
seat/ 
button: 6666 178 8000 
small blind: 3333 1367 4000 
big blind: 8888 2847 6000 
2222 1750 8000 
1111 1177 8000 
5555 3492 8000 
4444 10607 8000 
7777 582 8000 
/seat 
blind/ 
3333: 50 
8888: 100 
/blind 
player 3333:hold/ 
HEARTS 3 
HEARTS Q 
/hold 
player 8888:hold/ 
SPADES 7 
DIAMONDS 5 
/hold 
player 2222:hold/ 
HEARTS 4 
HEARTS K 
/hold 
player 1111:hold/ 
HEARTS 7 
DIAMONDS A 
/hold 
player 5555:hold/ 
SPADES 3 
SPADES 9 
/hold 
player 4444:hold/ 
CLUBS 7 
CLUBS 5 
/hold 
player 7777:hold/ 
SPADES 2 
CLUBS 8 
/hold 
player 6666:hold/ 
DIAMONDS 8 
CLUBS 9 
/hold 

---pre flop round bet---
valid player: 8, all in player: 0, fold player: 0
send inquire msg to player 2222 
inquire/ 
8888 2747 6000 100 blind 
3333 1317 4000 50 blind 
total pot: 150 
/inquire 
recv from player 2222: fold
send inquire msg to player 1111 
inquire/ 
2222 1750 8000 0 fold 
8888 2747 6000 100 blind 
3333 1317 4000 50 blind 
total pot: 150 
/inquire 
recv from player 1111: fold
send inquire msg to player 5555 
inquire/ 
1111 1177 8000 0 fold 
2222 1750 8000 0 fold 
8888 2747 6000 100 blind 
3333 1317 4000 50 blind 
total pot: 150 
/inquire 
recv from player 5555: check
send inquire msg to player 4444 
inquire/ 
5555 3392 8000 100 call 
1111 1177 8000 0 fold 
2222 1750 8000 0 fold 
8888 2747 6000 100 blind 
3333 1317 4000 50 blind 
total pot: 250 
/inquire 
recv from player 4444: check
send inquire msg to player 7777 
inquire/ 
4444 10507 8000 100 call 
5555 3392 8000 100 call 
1111 1177 8000 0 fold 
2222 1750 8000 0 fold 
8888 2747 6000 100 blind 
3333 1317 4000 50 blind 
total pot: 350 
/inquire 
recv from player 7777: fold
send inquire msg to player 6666 
inquire/ 
7777 582 8000 0 fold 
4444 10507 8000 100 call 
5555 3392 8000 100 call 
1111 1177 8000 0 fold 
2222 1750 8000 0 fold 
8888 2747 6000 100 blind 
3333 1317 4000 50 blind 
total pot: 350 
/inquire 
recv from player 6666: fold
send inquire msg to player 3333 
inquire/ 
6666 178 8000 0 fold 
7777 582 8000 0 fold 
4444 10507 8000 100 call 
5555 3392 8000 100 call 
1111 1177 8000 0 fold 
2222 1750 8000 0 fold 
8888 2747 6000 100 blind 
3333 1317 4000 50 blind 
total pot: 350 
/inquire 
recv from player 3333: check
send inquire msg to player 8888 
inquire/ 
3333 1267 4000 100 call 
6666 178 8000 0 fold 
7777 582 8000 0 fold 
4444 10507 8000 100 call 
5555 3392 8000 100 call 
1111 1177 8000 0 fold 
2222 1750 8000 0 fold 
8888 2747 6000 100 blind 
total pot: 400 
/inquire 
recv from player 8888: check
flop/ 
SPADES 5 
SPADES J 
HEARTS 10 
/flop 

---flop round bet---
valid player: 8, all in player: 0, fold player: 4
send inquire msg to player 3333 
inquire/ 
6666 178 8000 0 fold 
7777 582 8000 0 fold 
4444 10507 8000 100 call 
5555 3392 8000 100 call 
1111 1177 8000 0 fold 
2222 1750 8000 0 fold 
8888 2747 6000 100 check 
3333 1267 4000 100 call 
total pot: 400 
/inquire 
recv from player 3333: check
send inquire msg to player 8888 
inquire/ 
3333 1267 4000 100 check 
6666 178 8000 0 fold 
7777 582 8000 0 fold 
4444 10507 8000 100 call 
5555 3392 8000 100 call 
1111 1177 8000 0 fold 
2222 1750 8000 0 fold 
8888 2747 6000 100 check 
total pot: 400 
/inquire 
recv from player 8888: check
send inquire msg to player 2222 
inquire/ 
8888 2747 6000 100 check 
3333 1267 4000 100 check 
6666 178 8000 0 fold 
7777 582 8000 0 fold 
4444 10507 8000 100 call 
5555 3392 8000 100 call 
1111 1177 8000 0 fold 
2222 1750 8000 0 fold 
total pot: 400 
/inquire 
send inquire msg to player 1111 
inquire/ 
2222 1750 8000 0 fold 
8888 2747 6000 100 check 
3333 1267 4000 100 check 
6666 178 8000 0 fold 
7777 582 8000 0 fold 
4444 10507 8000 100 call 
5555 3392 8000 100 call 
1111 1177 8000 0 fold 
total pot: 400 
/inquire 
send inquire msg to player 5555 
inquire/ 
1111 1177 8000 0 fold 
2222 1750 8000 0 fold 
8888 2747 6000 100 check 
3333 1267 4000 100 check 
6666 178 8000 0 fold 
7777 582 8000 0 fold 
4444 10507 8000 100 call 
5555 3392 8000 100 call 
total pot: 400 
/inquire 
recv from player 5555: check
send inquire msg to player 4444 
inquire/ 
5555 3392 8000 100 check 
1111 1177 8000 0 fold 
2222 1750 8000 0 fold 
8888 2747 6000 100 check 
3333 1267 4000 100 check 
6666 178 8000 0 fold 
7777 582 8000 0 fold 
4444 10507 8000 100 call 
total pot: 400 
/inquire 
recv from player 4444: check
turn/ 
SPADES K 
/turn 

---turn round bet---
valid player: 8, all in player: 0, fold player: 4
send inquire msg to player 3333 
inquire/ 
6666 178 8000 0 fold 
7777 582 8000 0 fold 
4444 10507 8000 100 check 
5555 3392 8000 100 check 
1111 1177 8000 0 fold 
2222 1750 8000 0 fold 
8888 2747 6000 100 check 
3333 1267 4000 100 check 
total pot: 400 
/inquire 
recv from player 3333: check
send inquire msg to player 8888 
inquire/ 
3333 1267 4000 100 check 
6666 178 8000 0 fold 
7777 582 8000 0 fold 
4444 10507 8000 100 check 
5555 3392 8000 100 check 
1111 1177 8000 0 fold 
2222 1750 8000 0 fold 
8888 2747 6000 100 check 
total pot: 400 
/inquire 
recv from player 8888: check
send inquire msg to player 2222 
inquire/ 
8888 2747 6000 100 check 
3333 1267 4000 100 check 
6666 178 8000 0 fold 
7777 582 8000 0 fold 
4444 10507 8000 100 check 
5555 3392 8000 100 check 
1111 1177 8000 0 fold 
2222 1750 8000 0 fold 
total pot: 400 
/inquire 
send inquire msg to player 1111 
inquire/ 
2222 1750 8000 0 fold 
8888 2747 6000 100 check 
3333 1267 4000 100 check 
6666 178 8000 0 fold 
7777 582 8000 0 fold 
4444 10507 8000 100 check 
5555 3392 8000 100 check 
1111 1177 8000 0 fold 
total pot: 400 
/inquire 
send inquire msg to player 5555 
inquire/ 
1111 1177 8000 0 fold 
2222 1750 8000 0 fold 
8888 2747 6000 100 check 
3333 1267 4000 100 check 
6666 178 8000 0 fold 
7777 582 8000 0 fold 
4444 10507 8000 100 check 
5555 3392 8000 100 check 
total pot: 400 
/inquire 
recv from player 5555: check
send inquire msg to player 4444 
inquire/ 
5555 3392 8000 100 check 
1111 1177 8000 0 fold 
2222 1750 8000 0 fold 
8888 2747 6000 100 check 
3333 1267 4000 100 check 
6666 178 8000 0 fold 
7777 582 8000 0 fold 
4444 10507 8000 100 check 
total pot: 400 
/inquire 
recv from player 4444: check
river/ 
DIAMONDS 9 
/river 

---river round bet---
valid player: 8, all in player: 0, fold player: 4
send inquire msg to player 3333 
inquire/ 
6666 178 8000 0 fold 
7777 582 8000 0 fold 
4444 10507 8000 100 check 
5555 3392 8000 100 check 
1111 1177 8000 0 fold 
2222 1750 8000 0 fold 
8888 2747 6000 100 check 
3333 1267 4000 100 check 
total pot: 400 
/inquire 
recv from player 3333: check
send inquire msg to player 8888 
inquire/ 
3333 1267 4000 100 check 
6666 178 8000 0 fold 
7777 582 8000 0 fold 
4444 10507 8000 100 check 
5555 3392 8000 100 check 
1111 1177 8000 0 fold 
2222 1750 8000 0 fold 
8888 2747 6000 100 check 
total pot: 400 
/inquire 
recv from player 8888: check
send inquire msg to player 2222 
inquire/ 
8888 2747 6000 100 check 
3333 1267 4000 100 check 
6666 178 8000 0 fold 
7777 582 8000 0 fold 
4444 10507 8000 100 check 
5555 3392 8000 100 check 
1111 1177 8000 0 fold 
2222 1750 8000 0 fold 
total pot: 400 
/inquire 
send inquire msg to player 1111 
inquire/ 
2222 1750 8000 0 fold 
8888 2747 6000 100 check 
3333 1267 4000 100 check 
6666 178 8000 0 fold 
7777 582 8000 0 fold 
4444 10507 8000 100 check 
5555 3392 8000 100 check 
1111 1177 8000 0 fold 
total pot: 400 
/inquire 
send inquire msg to player 5555 
inquire/ 
1111 1177 8000 0 fold 
2222 1750 8000 0 fold 
8888 2747 6000 100 check 
3333 1267 4000 100 check 
6666 178 8000 0 fold 
7777 582 8000 0 fold 
4444 10507 8000 100 check 
5555 3392 8000 100 check 
total pot: 400 
/inquire 
recv from player 5555: check
send inquire msg to player 4444 
inquire/ 
5555 3392 8000 100 check 
1111 1177 8000 0 fold 
2222 1750 8000 0 fold 
8888 2747 6000 100 check 
3333 1267 4000 100 check 
6666 178 8000 0 fold 
7777 582 8000 0 fold 
4444 10507 8000 100 check 
total pot: 400 
/inquire 
recv from player 4444: check

---show down---
showdown/ 
common/ 
SPADES 5 
SPADES J 
HEARTS 10 
SPADES K 
DIAMONDS 9 
/common 
2: 3333 HEARTS 3 HEARTS Q STRAIGHT 
3: 8888 SPADES 7 DIAMONDS 5 ONE_PAIR 
1: 5555 SPADES 3 SPADES 9 FLUSH 
3: 4444 CLUBS 7 CLUBS 5 ONE_PAIR 
/showdown 

---Allocate pot---
pot-win/ 
5555: 400 
/pot-win 
it is player 3333's turn to be button

-----12 Hand-----

----- clean player data in socket -----
seat/ 
button: 3333 1267 4000 
small blind: 8888 2747 6000 
big blind: 2222 1750 8000 
1111 1177 8000 
5555 3792 8000 
4444 10507 8000 
7777 582 8000 
6666 178 8000 
/seat 
blind/ 
8888: 50 
2222: 100 
/blind 
player 8888:hold/ 
SPADES Q 
CLUBS 10 
/hold 
player 2222:hold/ 
DIAMONDS 8 
HEARTS 10 
/hold 
player 1111:hold/ 
HEARTS Q 
HEARTS 2 
/hold 
player 5555:hold/ 
DIAMONDS 6 
CLUBS 4 
/hold 
player 4444:hold/ 
DIAMONDS 3 
SPADES 10 
/hold 
player 7777:hold/ 
CLUBS 5 
DIAMONDS 4 
/hold 
player 6666:hold/ 
HEARTS 7 
CLUBS Q 
/hold 
player 3333:hold/ 
HEARTS A 
SPADES 6 
/hold 

---pre flop round bet---
valid player: 8, all in player: 0, fold player: 0
send inquire msg to player 1111 
inquire/ 
2222 1650 8000 100 blind 
8888 2697 6000 50 blind 
total pot: 150 
/inquire 
recv from player 1111: check
send inquire msg to player 5555 
inquire/ 
1111 1077 8000 100 call 
2222 1650 8000 100 blind 
8888 2697 6000 50 blind 
total pot: 250 
/inquire 
recv from player 5555: raise 0
send inquire msg to player 4444 
inquire/ 
5555 3592 8000 200 raise 
1111 1077 8000 100 call 
2222 1650 8000 100 blind 
8888 2697 6000 50 blind 
total pot: 450 
/inquire 
recv from player 4444: raise 304
send inquire msg to player 7777 
inquire/ 
4444 10003 8000 504 raise 
5555 3592 8000 200 raise 
1111 1077 8000 100 call 
2222 1650 8000 100 blind 
8888 2697 6000 50 blind 
total pot: 954 
/inquire 
recv from player 7777: fold
send inquire msg to player 6666 
inquire/ 
7777 582 8000 0 fold 
4444 10003 8000 504 raise 
5555 3592 8000 200 raise 
1111 1077 8000 100 call 
2222 1650 8000 100 blind 
8888 2697 6000 50 blind 
total pot: 954 
/inquire 
recv from player 6666: fold
send inquire msg to player 3333 
inquire/ 
6666 178 8000 0 fold 
7777 582 8000 0 fold 
4444 10003 8000 504 raise 
5555 3592 8000 200 raise 
1111 1077 8000 100 call 
2222 1650 8000 100 blind 
8888 2697 6000 50 blind 
total pot: 954 
/inquire 
recv from player 3333: check
send inquire msg to player 8888 
inquire/ 
3333 763 4000 504 call 
6666 178 8000 0 fold 
7777 582 8000 0 fold 
4444 10003 8000 504 raise 
5555 3592 8000 200 raise 
1111 1077 8000 100 call 
2222 1650 8000 100 blind 
8888 2697 6000 50 blind 
total pot: 1458 
/inquire 
recv from player 8888: check
send inquire msg to player 2222 
inquire/ 
8888 2243 6000 504 call 
3333 763 4000 504 call 
6666 178 8000 0 fold 
7777 582 8000 0 fold 
4444 10003 8000 504 raise 
5555 3592 8000 200 raise 
1111 1077 8000 100 call 
2222 1650 8000 100 blind 
total pot: 1912 
/inquire 
recv from player 2222: fold
send inquire msg to player 1111 
inquire/ 
2222 1650 8000 100 fold 
8888 2243 6000 504 call 
3333 763 4000 504 call 
6666 178 8000 0 fold 
7777 582 8000 0 fold 
4444 10003 8000 504 raise 
5555 3592 8000 200 raise 
1111 1077 8000 100 call 
total pot: 1912 
/inquire 
recv from player 1111: fold
send inquire msg to player 5555 
inquire/ 
1111 1077 8000 100 fold 
2222 1650 8000 100 fold 
8888 2243 6000 504 call 
3333 763 4000 504 call 
6666 178 8000 0 fold 
7777 582 8000 0 fold 
4444 10003 8000 504 raise 
5555 3592 8000 200 raise 
total pot: 1912 
/inquire 
recv from player 5555: raise 0
send inquire msg to player 4444 
inquire/ 
5555 2984 8000 808 raise 
1111 1077 8000 100 fold 
2222 1650 8000 100 fold 
8888 2243 6000 504 call 
3333 763 4000 504 call 
6666 178 8000 0 fold 
7777 582 8000 0 fold 
4444 10003 8000 504 raise 
total pot: 2520 
/inquire 
recv from player 4444: check
send inquire msg to player 7777 
inquire/ 
4444 9699 8000 808 call 
5555 2984 8000 808 raise 
1111 1077 8000 100 fold 
2222 1650 8000 100 fold 
8888 2243 6000 504 call 
3333 763 4000 504 call 
6666 178 8000 0 fold 
7777 582 8000 0 fold 
total pot: 2824 
/inquire 
send inquire msg to player 6666 
inquire/ 
7777 582 8000 0 fold 
4444 9699 8000 808 call 
5555 2984 8000 808 raise 
1111 1077 8000 100 fold 
2222 1650 8000 100 fold 
8888 2243 6000 504 call 
3333 763 4000 504 call 
6666 178 8000 0 fold 
total pot: 2824 
/inquire 
send inquire msg to player 3333 
inquire/ 
6666 178 8000 0 fold 
7777 582 8000 0 fold 
4444 9699 8000 808 call 
5555 2984 8000 808 raise 
1111 1077 8000 100 fold 
2222 1650 8000 100 fold 
8888 2243 6000 504 call 
3333 763 4000 504 call 
total pot: 2824 
/inquire 
recv from player 3333: check
send inquire msg to player 8888 
inquire/ 
3333 459 4000 808 call 
6666 178 8000 0 fold 
7777 582 8000 0 fold 
4444 9699 8000 808 call 
5555 2984 8000 808 raise 
1111 1077 8000 100 fold 
2222 1650 8000 100 fold 
8888 2243 6000 504 call 
total pot: 3128 
/inquire 
recv from player 8888: check
flop/ 
SPADES 3 
HEARTS J 
HEARTS 4 
/flop 

---flop round bet---
valid player: 8, all in player: 0, fold player: 4
send inquire msg to player 8888 
inquire/ 
3333 459 4000 808 call 
6666 178 8000 0 fold 
7777 582 8000 0 fold 
4444 9699 8000 808 call 
5555 2984 8000 808 raise 
1111 1077 8000 100 fold 
2222 1650 8000 100 fold 
8888 1939 6000 808 call 
total pot: 3432 
/inquire 
recv from player 8888: check
send inquire msg to player 2222 
inquire/ 
8888 1939 6000 808 check 
3333 459 4000 808 call 
6666 178 8000 0 fold 
7777 582 8000 0 fold 
4444 9699 8000 808 call 
5555 2984 8000 808 raise 
1111 1077 8000 100 fold 
2222 1650 8000 100 fold 
total pot: 3432 
/inquire 
send inquire msg to player 1111 
inquire/ 
2222 1650 8000 100 fold 
8888 1939 6000 808 check 
3333 459 4000 808 call 
6666 178 8000 0 fold 
7777 582 8000 0 fold 
4444 9699 8000 808 call 
5555 2984 8000 808 raise 
1111 1077 8000 100 fold 
total pot: 3432 
/inquire 
send inquire msg to player 5555 
inquire/ 
1111 1077 8000 100 fold 
2222 1650 8000 100 fold 
8888 1939 6000 808 check 
3333 459 4000 808 call 
6666 178 8000 0 fold 
7777 582 8000 0 fold 
4444 9699 8000 808 call 
5555 2984 8000 808 raise 
total pot: 3432 
/inquire 
recv from player 5555: check
send inquire msg to player 4444 
inquire/ 
5555 2984 8000 808 check 
1111 1077 8000 100 fold 
2222 1650 8000 100 fold 
8888 1939 6000 808 check 
3333 459 4000 808 call 
6666 178 8000 0 fold 
7777 582 8000 0 fold 
4444 9699 8000 808 call 
total pot: 3432 
/inquire 
recv from player 4444: check
send inquire msg to player 7777 
inquire/ 
4444 9699 8000 808 check 
5555 2984 8000 808 check 
1111 1077 8000 100 fold 
2222 1650 8000 100 fold 
8888 1939 6000 808 check 
3333 459 4000 808 call 
6666 178 8000 0 fold 
7777 582 8000 0 fold 
total pot: 3432 
/inquire 
send inquire msg to player 6666 
inquire/ 
7777 582 8000 0 fold 
4444 9699 8000 808 check 
5555 2984 8000 808 check 
1111 1077 8000 100 fold 
2222 1650 8000 100 fold 
8888 1939 6000 808 check 
3333 459 4000 808 call 
6666 178 8000 0 fold 
total pot: 3432 
/inquire 
send inquire msg to player 3333 
inquire/ 
6666 178 8000 0 fold 
7777 582 8000 0 fold 
4444 9699 8000 808 check 
5555 2984 8000 808 check 
1111 1077 8000 100 fold 
2222 1650 8000 100 fold 
8888 1939 6000 808 check 
3333 459 4000 808 call 
total pot: 3432 
/inquire 
recv from player 3333: check
turn/ 
SPADES A 
/turn 

---turn round bet---
valid player: 8, all in player: 0, fold player: 4
send inquire msg to player 8888 
inquire/ 
3333 459 4000 808 check 
6666 178 8000 0 fold 
7777 582 8000 0 fold 
4444 9699 8000 808 check 
5555 2984 8000 808 check 
1111 1077 8000 100 fold 
2222 1650 8000 100 fold 
8888 1939 6000 808 check 
total pot: 3432 
/inquire 
recv from player 8888: check
send inquire msg to player 2222 
inquire/ 
8888 1939 6000 808 check 
3333 459 4000 808 check 
6666 178 8000 0 fold 
7777 582 8000 0 fold 
4444 9699 8000 808 check 
5555 2984 8000 808 check 
1111 1077 8000 100 fold 
2222 1650 8000 100 fold 
total pot: 3432 
/inquire 
send inquire msg to player 1111 
inquire/ 
2222 1650 8000 100 fold 
8888 1939 6000 808 check 
3333 459 4000 808 check 
6666 178 8000 0 fold 
7777 582 8000 0 fold 
4444 9699 8000 808 check 
5555 2984 8000 808 check 
1111 1077 8000 100 fold 
total pot: 3432 
/inquire 
send inquire msg to player 5555 
inquire/ 
1111 1077 8000 100 fold 
2222 1650 8000 100 fold 
8888 1939 6000 808 check 
3333 459 4000 808 check 
6666 178 8000 0 fold 
7777 582 8000 0 fold 
4444 9699 8000 808 check 
5555 2984 8000 808 check 
total pot: 3432 
/inquire 
recv from player 5555: check
send inquire msg to player 4444 
inquire/ 
5555 2984 8000 808 check 
1111 1077 8000 100 fold 
2222 1650 8000 100 fold 
8888 1939 6000 808 check 
3333 459 4000 808 check 
6666 178 8000 0 fold 
7777 582 8000 0 fold 
4444 9699 8000 808 check 
total pot: 3432 
/inquire 
recv from player 4444: check
send inquire msg to player 7777 
inquire/ 
4444 9699 8000 808 check 
5555 2984 8000 808 check 
1111 1077 8000 100 fold 
2222 1650 8000 100 fold 
8888 1939 6000 808 check 
3333 459 4000 808 check 
6666 178 8000 0 fold 
7777 582 8000 0 fold 
total pot: 3432 
/inquire 
send inquire msg to player 6666 
inquire/ 
7777 582 8000 0 fold 
4444 9699 8000 808 check 
5555 2984 8000 808 check 
1111 1077 8000 100 fold 
2222 1650 8000 100 fold 
8888 1939 6000 808 check 
3333 459 4000 808 check 
6666 178 8000 0 fold 
total pot: 3432 
/inquire 
send inquire msg to player 3333 
inquire/ 
6666 178 8000 0 fold 
7777 582 8000 0 fold 
4444 9699 8000 808 check 
5555 2984 8000 808 check 
1111 1077 8000 100 fold 
2222 1650 8000 100 fold 
8888 1939 6000 808 check 
3333 459 4000 808 check 
total pot: 3432 
/inquire 
recv from player 3333: check
river/ 
DIAMONDS 10 
/river 

---river round bet---
valid player: 8, all in player: 0, fold player: 4
send inquire msg to player 8888 
inquire/ 
3333 459 4000 808 check 
6666 178 8000 0 fold 
7777 582 8000 0 fold 
4444 9699 8000 808 check 
5555 2984 8000 808 check 
1111 1077 8000 100 fold 
2222 1650 8000 100 fold 
8888 1939 6000 808 check 
total pot: 3432 
/inquire 
recv from player 8888: check
send inquire msg to player 2222 
inquire/ 
8888 1939 6000 808 check 
3333 459 4000 808 check 
6666 178 8000 0 fold 
7777 582 8000 0 fold 
4444 9699 8000 808 check 
5555 2984 8000 808 check 
1111 1077 8000 100 fold 
2222 1650 8000 100 fold 
total pot: 3432 
/inquire 
send inquire msg to player 1111 
inquire/ 
2222 1650 8000 100 fold 
8888 1939 6000 808 check 
3333 459 4000 808 check 
6666 178 8000 0 fold 
7777 582 8000 0 fold 
4444 9699 8000 808 check 
5555 2984 8000 808 check 
1111 1077 8000 100 fold 
total pot: 3432 
/inquire 
send inquire msg to player 5555 
inquire/ 
1111 1077 8000 100 fold 
2222 1650 8000 100 fold 
8888 1939 6000 808 check 
3333 459 4000 808 check 
6666 178 8000 0 fold 
7777 582 8000 0 fold 
4444 9699 8000 808 check 
5555 2984 8000 808 check 
total pot: 3432 
/inquire 
recv from player 5555: raise 0
send inquire msg to player 4444 
inquire/ 
5555 2884 8000 908 raise 
1111 1077 8000 100 fold 
2222 1650 8000 100 fold 
8888 1939 6000 808 check 
3333 459 4000 808 check 
6666 178 8000 0 fold 
7777 582 8000 0 fold 
4444 9699 8000 808 check 
total pot: 3532 
/inquire 
recv from player 4444: check
send inquire msg to player 7777 
inquire/ 
4444 9599 8000 908 call 
5555 2884 8000 908 raise 
1111 1077 8000 100 fold 
2222 1650 8000 100 fold 
8888 1939 6000 808 check 
3333 459 4000 808 check 
6666 178 8000 0 fold 
7777 582 8000 0 fold 
total pot: 3632 
/inquire 
send inquire msg to player 6666 
inquire/ 
7777 582 8000 0 fold 
4444 9599 8000 908 call 
5555 2884 8000 908 raise 
1111 1077 8000 100 fold 
2222 1650 8000 100 fold 
8888 1939 6000 808 check 
3333 459 4000 808 check 
6666 178 8000 0 fold 
total pot: 3632 
/inquire 
send inquire msg to player 3333 
inquire/ 
6666 178 8000 0 fold 
7777 582 8000 0 fold 
4444 9599 8000 908 call 
5555 2884 8000 908 raise 
1111 1077 8000 100 fold 
2222 1650 8000 100 fold 
8888 1939 6000 808 check 
3333 459 4000 808 check 
total pot: 3632 
/inquire 
recv from player 3333: check
send inquire msg to player 8888 
inquire/ 
3333 359 4000 908 call 
6666 178 8000 0 fold 
7777 582 8000 0 fold 
4444 9599 8000 908 call 
5555 2884 8000 908 raise 
1111 1077 8000 100 fold 
2222 1650 8000 100 fold 
8888 1939 6000 808 check 
total pot: 3732 
/inquire 
recv from player 8888: check

---show down---
showdown/ 
common/ 
SPADES 3 
HEARTS J 
HEARTS 4 
SPADES A 
DIAMONDS 10 
/common 
3: 8888 SPADES Q CLUBS 10 ONE_PAIR 
4: 5555 DIAMONDS 6 CLUBS 4 ONE_PAIR 
1: 4444 DIAMONDS 3 SPADES 10 TWO_PAIR 
2: 3333 HEARTS A SPADES 6 ONE_PAIR 
/showdown 

---Allocate pot---
pot-win/ 
4444: 3832 
/pot-win 
it is player 8888's turn to be button

-----13 Hand-----

----- clean player data in socket -----
seat/ 
button: 8888 1839 6000 
small blind: 2222 1650 8000 
big blind: 1111 1077 8000 
5555 2884 8000 
4444 13431 8000 
7777 582 8000 
6666 178 8000 
3333 359 4000 
/seat 
blind/ 
2222: 50 
1111: 100 
/blind 
player 2222:hold/ 
CLUBS 10 
HEARTS 6 
/hold 
player 1111:hold/ 
CLUBS 9 
DIAMONDS 5 
/hold 
player 5555:hold/ 
HEARTS 9 
DIAMONDS 2 
/hold 
player 4444:hold/ 
HEARTS 10 
DIAMONDS 3 
/hold 
player 7777:hold/ 
HEARTS Q 
HEARTS 5 
/hold 
player 6666:hold/ 
SPADES 6 
DIAMONDS 7 
/hold 
player 3333:hold/ 
SPADES K 
DIAMONDS A 
/hold 
player 8888:hold/ 
HEARTS 2 
DIAMONDS K 
/hold 

---pre flop round bet---
valid player: 8, all in player: 0, fold player: 0
send inquire msg to player 5555 
inquire/ 
1111 977 8000 100 blind 
2222 1600 8000 50 blind 
total pot: 150 
/inquire 
recv from player 5555: raise 0
send inquire msg to player 4444 
inquire/ 
5555 2684 8000 200 raise 
1111 977 8000 100 blind 
2222 1600 8000 50 blind 
total pot: 350 
/inquire 
recv from player 4444: raise 361
send inquire msg to player 7777 
inquire/ 
4444 12870 8000 561 raise 
5555 2684 8000 200 raise 
1111 977 8000 100 blind 
2222 1600 8000 50 blind 
total pot: 911 
/inquire 
recv from player 7777: fold
send inquire msg to player 6666 
inquire/ 
7777 582 8000 0 fold 
4444 12870 8000 561 raise 
5555 2684 8000 200 raise 
1111 977 8000 100 blind 
2222 1600 8000 50 blind 
total pot: 911 
/inquire 
recv from player 6666: fold
send inquire msg to player 3333 
inquire/ 
6666 178 8000 0 fold 
7777 582 8000 0 fold 
4444 12870 8000 561 raise 
5555 2684 8000 200 raise 
1111 977 8000 100 blind 
2222 1600 8000 50 blind 
total pot: 911 
/inquire 
recv from player 3333: check
send inquire msg to player 8888 
inquire/ 
3333 0 4000 359 all_in 
6666 178 8000 0 fold 
7777 582 8000 0 fold 
4444 12870 8000 561 raise 
5555 2684 8000 200 raise 
1111 977 8000 100 blind 
2222 1600 8000 50 blind 
total pot: 1270 
/inquire 
recv from player 8888: check
send inquire msg to player 2222 
inquire/ 
8888 1278 6000 561 call 
3333 0 4000 359 all_in 
6666 178 8000 0 fold 
7777 582 8000 0 fold 
4444 12870 8000 561 raise 
5555 2684 8000 200 raise 
1111 977 8000 100 blind 
2222 1600 8000 50 blind 
total pot: 1831 
/inquire 
recv from player 2222: fold
send inquire msg to player 1111 
inquire/ 
2222 1600 8000 50 fold 
8888 1278 6000 561 call 
3333 0 4000 359 all_in 
6666 178 8000 0 fold 
7777 582 8000 0 fold 
4444 12870 8000 561 raise 
5555 2684 8000 200 raise 
1111 977 8000 100 blind 
total pot: 1831 
/inquire 
recv from player 1111: fold
send inquire msg to player 5555 
inquire/ 
1111 977 8000 100 fold 
2222 1600 8000 50 fold 
8888 1278 6000 561 call 
3333 0 4000 359 all_in 
6666 178 8000 0 fold 
7777 582 8000 0 fold 
4444 12870 8000 561 raise 
5555 2684 8000 200 raise 
total pot: 1831 
/inquire 
recv from player 5555: raise 0
send inquire msg to player 4444 
inquire/ 
5555 1962 8000 922 raise 
1111 977 8000 100 fold 
2222 1600 8000 50 fold 
8888 1278 6000 561 call 
3333 0 4000 359 all_in 
6666 178 8000 0 fold 
7777 582 8000 0 fold 
4444 12870 8000 561 raise 
total pot: 2553 
/inquire 
recv from player 4444: check
send inquire msg to player 7777 
inquire/ 
4444 12509 8000 922 call 
5555 1962 8000 922 raise 
1111 977 8000 100 fold 
2222 1600 8000 50 fold 
8888 1278 6000 561 call 
3333 0 4000 359 all_in 
6666 178 8000 0 fold 
7777 582 8000 0 fold 
total pot: 2914 
/inquire 
send inquire msg to player 6666 
inquire/ 
7777 582 8000 0 fold 
4444 12509 8000 922 call 
5555 1962 8000 922 raise 
1111 977 8000 100 fold 
2222 1600 8000 50 fold 
8888 1278 6000 561 call 
3333 0 4000 359 all_in 
6666 178 8000 0 fold 
total pot: 2914 
/inquire 
send inquire msg to player 3333 
inquire/ 
6666 178 8000 0 fold 
7777 582 8000 0 fold 
4444 12509 8000 922 call 
5555 1962 8000 922 raise 
1111 977 8000 100 fold 
2222 1600 8000 50 fold 
8888 1278 6000 561 call 
3333 0 4000 359 all_in 
total pot: 2914 
/inquire 
send inquire msg to player 8888 
inquire/ 
3333 0 4000 359 all_in 
6666 178 8000 0 fold 
7777 582 8000 0 fold 
4444 12509 8000 922 call 
5555 1962 8000 922 raise 
1111 977 8000 100 fold 
2222 1600 8000 50 fold 
8888 1278 6000 561 call 
total pot: 2914 
/inquire 
recv from player 8888: check
flop/ 
CLUBS 7 
SPADES A 
SPADES 10 
/flop 

---flop round bet---
valid player: 8, all in player: 1, fold player: 4
send inquire msg to player 2222 
inquire/ 
8888 917 6000 922 call 
3333 0 4000 359 all_in 
6666 178 8000 0 fold 
7777 582 8000 0 fold 
4444 12509 8000 922 call 
5555 1962 8000 922 raise 
1111 977 8000 100 fold 
2222 1600 8000 50 fold 
total pot: 3275 
/inquire 
send inquire msg to player 1111 
inquire/ 
2222 1600 8000 50 fold 
8888 917 6000 922 call 
3333 0 4000 359 all_in 
6666 178 8000 0 fold 
7777 582 8000 0 fold 
4444 12509 8000 922 call 
5555 1962 8000 922 raise 
1111 977 8000 100 fold 
total pot: 3275 
/inquire 
send inquire msg to player 5555 
inquire/ 
1111 977 8000 100 fold 
2222 1600 8000 50 fold 
8888 917 6000 922 call 
3333 0 4000 359 all_in 
6666 178 8000 0 fold 
7777 582 8000 0 fold 
4444 12509 8000 922 call 
5555 1962 8000 922 raise 
total pot: 3275 
/inquire 
recv from player 5555: raise 0
send inquire msg to player 4444 
inquire/ 
5555 1862 8000 1022 raise 
1111 977 8000 100 fold 
2222 1600 8000 50 fold 
8888 917 6000 922 call 
3333 0 4000 359 all_in 
6666 178 8000 0 fold 
7777 582 8000 0 fold 
4444 12509 8000 922 call 
total pot: 3375 
/inquire 
recv from player 4444: check
send inquire msg to player 7777 
inquire/ 
4444 12409 8000 1022 call 
5555 1862 8000 1022 raise 
1111 977 8000 100 fold 
2222 1600 8000 50 fold 
8888 917 6000 922 call 
3333 0 4000 359 all_in 
6666 178 8000 0 fold 
7777 582 8000 0 fold 
total pot: 3475 
/inquire 
send inquire msg to player 6666 
inquire/ 
7777 582 8000 0 fold 
4444 12409 8000 1022 call 
5555 1862 8000 1022 raise 
1111 977 8000 100 fold 
2222 1600 8000 50 fold 
8888 917 6000 922 call 
3333 0 4000 359 all_in 
6666 178 8000 0 fold 
total pot: 3475 
/inquire 
send inquire msg to player 3333 
inquire/ 
6666 178 8000 0 fold 
7777 582 8000 0 fold 
4444 12409 8000 1022 call 
5555 1862 8000 1022 raise 
1111 977 8000 100 fold 
2222 1600 8000 50 fold 
8888 917 6000 922 call 
3333 0 4000 359 all_in 
total pot: 3475 
/inquire 
send inquire msg to player 8888 
inquire/ 
3333 0 4000 359 all_in 
6666 178 8000 0 fold 
7777 582 8000 0 fold 
4444 12409 8000 1022 call 
5555 1862 8000 1022 raise 
1111 977 8000 100 fold 
2222 1600 8000 50 fold 
8888 917 6000 922 call 
total pot: 3475 
/inquire 
recv from player 8888: check
turn/ 
SPADES J 
/turn 

---turn round bet---
valid player: 8, all in player: 1, fold player: 4
send inquire msg to player 2222 
inquire/ 
8888 817 6000 1022 call 
3333 0 4000 359 all_in 
6666 178 8000 0 fold 
7777 582 8000 0 fold 
4444 12409 8000 1022 call 
5555 1862 8000 1022 raise 
1111 977 8000 100 fold 
2222 1600 8000 50 fold 
total pot: 3575 
/inquire 
send inquire msg to player 1111 
inquire/ 
2222 1600 8000 50 fold 
8888 817 6000 1022 call 
3333 0 4000 359 all_in 
6666 178 8000 0 fold 
7777 582 8000 0 fold 
4444 12409 8000 1022 call 
5555 1862 8000 1022 raise 
1111 977 8000 100 fold 
total pot: 3575 
/inquire 
send inquire msg to player 5555 
inquire/ 
1111 977 8000 100 fold 
2222 1600 8000 50 fold 
8888 817 6000 1022 call 
3333 0 4000 359 all_in 
6666 178 8000 0 fold 
7777 582 8000 0 fold 
4444 12409 8000 1022 call 
5555 1862 8000 1022 raise 
total pot: 3575 
/inquire 
recv from player 5555: raise 0
send inquire msg to player 4444 
inquire/ 
5555 1762 8000 1122 raise 
1111 977 8000 100 fold 
2222 1600 8000 50 fold 
8888 817 6000 1022 call 
3333 0 4000 359 all_in 
6666 178 8000 0 fold 
7777 582 8000 0 fold 
4444 12409 8000 1022 call 
total pot: 3675 
/inquire 
recv from player 4444: check
send inquire msg to player 7777 
inquire/ 
4444 12309 8000 1122 call 
5555 1762 8000 1122 raise 
1111 977 8000 100 fold 
2222 1600 8000 50 fold 
8888 817 6000 1022 call 
3333 0 4000 359 all_in 
6666 178 8000 0 fold 
7777 582 8000 0 fold 
total pot: 3775 
/inquire 
send inquire msg to player 6666 
inquire/ 
7777 582 8000 0 fold 
4444 12309 8000 1122 call 
5555 1762 8000 1122 raise 
1111 977 8000 100 fold 
2222 1600 8000 50 fold 
8888 817 6000 1022 call 
3333 0 4000 359 all_in 
6666 178 8000 0 fold 
total pot: 3775 
/inquire 
send inquire msg to player 3333 
inquire/ 
6666 178 8000 0 fold 
7777 582 8000 0 fold 
4444 12309 8000 1122 call 
5555 1762 8000 1122 raise 
1111 977 8000 100 fold 
2222 1600 8000 50 fold 
8888 817 6000 1022 call 
3333 0 4000 359 all_in 
total pot: 3775 
/inquire 
send inquire msg to player 8888 
inquire/ 
3333 0 4000 359 all_in 
6666 178 8000 0 fold 
7777 582 8000 0 fold 
4444 12309 8000 1122 call 
5555 1762 8000 1122 raise 
1111 977 8000 100 fold 
2222 1600 8000 50 fold 
8888 817 6000 1022 call 
total pot: 3775 
/inquire 
recv from player 8888: check
river/ 
SPADES 9 
/river 

---river round bet---
valid player: 8, all in player: 1, fold player: 4
send inquire msg to player 2222 
inquire/ 
8888 717 6000 1122 call 
3333 0 4000 359 all_in 
6666 178 8000 0 fold 
7777 582 8000 0 fold 
4444 12309 8000 1122 call 
5555 1762 8000 1122 raise 
1111 977 8000 100 fold 
2222 1600 8000 50 fold 
total pot: 3875 
/inquire 
send inquire msg to player 1111 
inquire/ 
2222 1600 8000 50 fold 
8888 717 6000 1122 call 
3333 0 4000 359 all_in 
6666 178 8000 0 fold 
7777 582 8000 0 fold 
4444 12309 8000 1122 call 
5555 1762 8000 1122 raise 
1111 977 8000 100 fold 
total pot: 3875 
/inquire 
send inquire msg to player 5555 
inquire/ 
1111 977 8000 100 fold 
2222 1600 8000 50 fold 
8888 717 6000 1122 call 
3333 0 4000 359 all_in 
6666 178 8000 0 fold 
7777 582 8000 0 fold 
4444 12309 8000 1122 call 
5555 1762 8000 1122 raise 
total pot: 3875 
/inquire 
recv from player 5555: raise 0
send inquire msg to player 4444 
inquire/ 
5555 1662 8000 1222 raise 
1111 977 8000 100 fold 
2222 1600 8000 50 fold 
8888 717 6000 1122 call 
3333 0 4000 359 all_in 
6666 178 8000 0 fold 
7777 582 8000 0 fold 
4444 12309 8000 1122 call 
total pot: 3975 
/inquire 
recv from player 4444: check
send inquire msg to player 7777 
inquire/ 
4444 12209 8000 1222 call 
5555 1662 8000 1222 raise 
1111 977 8000 100 fold 
2222 1600 8000 50 fold 
8888 717 6000 1122 call 
3333 0 4000 359 all_in 
6666 178 8000 0 fold 
7777 582 8000 0 fold 
total pot: 4075 
/inquire 
send inquire msg to player 6666 
inquire/ 
7777 582 8000 0 fold 
4444 12209 8000 1222 call 
5555 1662 8000 1222 raise 
1111 977 8000 100 fold 
2222 1600 8000 50 fold 
8888 717 6000 1122 call 
3333 0 4000 359 all_in 
6666 178 8000 0 fold 
total pot: 4075 
/inquire 
send inquire msg to player 3333 
inquire/ 
6666 178 8000 0 fold 
7777 582 8000 0 fold 
4444 12209 8000 1222 call 
5555 1662 8000 1222 raise 
1111 977 8000 100 fold 
2222 1600 8000 50 fold 
8888 717 6000 1122 call 
3333 0 4000 359 all_in 
total pot: 4075 
/inquire 
send inquire msg to player 8888 
inquire/ 
3333 0 4000 359 all_in 
6666 178 8000 0 fold 
7777 582 8000 0 fold 
4444 12209 8000 1222 call 
5555 1662 8000 1222 raise 
1111 977 8000 100 fold 
2222 1600 8000 50 fold 
8888 717 6000 1122 call 
total pot: 4075 
/inquire 
recv from player 8888: check

---show down---
showdown/ 
common/ 
CLUBS 7 
SPADES A 
SPADES 10 
SPADES J 
SPADES 9 
/common 
3: 5555 HEARTS 9 DIAMONDS 2 ONE_PAIR 
2: 4444 HEARTS 10 DIAMONDS 3 ONE_PAIR 
1: 3333 SPADES K DIAMONDS A FLUSH 
4: 8888 HEARTS 2 DIAMONDS K HIGH_CARD 
/showdown 

---Allocate pot---
pot-win/ 
3333: 1586 
4444: 2589 
/pot-win 
it is player 2222's turn to be button

-----14 Hand-----

----- clean player data in socket -----
seat/ 
button: 2222 1600 8000 
small blind: 1111 977 8000 
big blind: 5555 1662 8000 
4444 14798 8000 
7777 582 8000 
6666 178 8000 
3333 1586 4000 
8888 617 6000 
/seat 
blind/ 
1111: 50 
5555: 100 
/blind 
player 1111:hold/ 
HEARTS 2 
HEARTS 10 
/hold 
player 5555:hold/ 
SPADES 4 
DIAMONDS 4 
/hold 
player 4444:hold/ 
SPADES 2 
SPADES 9 
/hold 
player 7777:hold/ 
SPADES K 
CLUBS 4 
/hold 
player 6666:hold/ 
SPADES Q 
CLUBS 5 
/hold 
player 3333:hold/ 
DIAMONDS 2 
HEARTS 7 
/hold 
player 8888:hold/ 
HEARTS 3 
DIAMONDS J 
/hold 
player 2222:hold/ 
DIAMONDS K 
SPADES 10 
/hold 

---pre flop round bet---
valid player: 8, all in player: 0, fold player: 0
send inquire msg to player 4444 
inquire/ 
5555 1562 8000 100 blind 
1111 927 8000 50 blind 
total pot: 150 
/inquire 
recv from player 4444: raise 819
send inquire msg to player 7777 
inquire/ 
4444 13879 8000 919 raise 
5555 1562 8000 100 blind 
1111 927 8000 50 blind 
total pot: 1069 
/inquire 
recv from player 7777: fold
send inquire msg to player 6666 
inquire/ 
7777 582 8000 0 fold 
4444 13879 8000 919 raise 
5555 1562 8000 100 blind 
1111 927 8000 50 blind 
total pot: 1069 
/inquire 
recv from player 6666: fold
send inquire msg to player 3333 
inquire/ 
6666 178 8000 0 fold 
7777 582 8000 0 fold 
4444 13879 8000 919 raise 
5555 1562 8000 100 blind 
1111 927 8000 50 blind 
total pot: 1069 
/inquire 
recv from player 3333: check
send inquire msg to player 8888 
inquire/ 
3333 667 4000 919 call 
6666 178 8000 0 fold 
7777 582 8000 0 fold 
4444 13879 8000 919 raise 
5555 1562 8000 100 blind 
1111 927 8000 50 blind 
total pot: 1988 
/inquire 
recv from player 8888: check
send inquire msg to player 2222 
inquire/ 
8888 0 6000 617 all_in 
3333 667 4000 919 call 
6666 178 8000 0 fold 
7777 582 8000 0 fold 
4444 13879 8000 919 raise 
5555 1562 8000 100 blind 
1111 927 8000 50 blind 
total pot: 2605 
/inquire 
recv from player 2222: check
send inquire msg to player 1111 
inquire/ 
2222 681 8000 919 call 
8888 0 6000 617 all_in 
3333 667 4000 919 call 
6666 178 8000 0 fold 
7777 582 8000 0 fold 
4444 13879 8000 919 raise 
5555 1562 8000 100 blind 
1111 927 8000 50 blind 
total pot: 3524 
/inquire 
recv from player 1111: fold
send inquire msg to player 5555 
inquire/ 
1111 927 8000 50 fold 
2222 681 8000 919 call 
8888 0 6000 617 all_in 
3333 667 4000 919 call 
6666 178 8000 0 fold 
7777 582 8000 0 fold 
4444 13879 8000 919 raise 
5555 1562 8000 100 blind 
total pot: 3524 
/inquire 
recv from player 5555: raise 0
send inquire msg to player 4444 
inquire/ 
5555 0 8000 1662 all_in 
1111 927 8000 50 fold 
2222 681 8000 919 call 
8888 0 6000 617 all_in 
3333 667 4000 919 call 
6666 178 8000 0 fold 
7777 582 8000 0 fold 
4444 13879 8000 919 raise 
total pot: 5086 
/inquire 
recv from player 4444: check
send inquire msg to player 7777 
inquire/ 
4444 13136 8000 1662 call 
5555 0 8000 1662 all_in 
1111 927 8000 50 fold 
2222 681 8000 919 call 
8888 0 6000 617 all_in 
3333 667 4000 919 call 
6666 178 8000 0 fold 
7777 582 8000 0 fold 
total pot: 5829 
/inquire 
send inquire msg to player 6666 
inquire/ 
7777 582 8000 0 fold 
4444 13136 8000 1662 call 
5555 0 8000 1662 all_in 
1111 927 8000 50 fold 
2222 681 8000 919 call 
8888 0 6000 617 all_in 
3333 667 4000 919 call 
6666 178 8000 0 fold 
total pot: 5829 
/inquire 
send inquire msg to player 3333 
inquire/ 
6666 178 8000 0 fold 
7777 582 8000 0 fold 
4444 13136 8000 1662 call 
5555 0 8000 1662 all_in 
1111 927 8000 50 fold 
2222 681 8000 919 call 
8888 0 6000 617 all_in 
3333 667 4000 919 call 
total pot: 5829 
/inquire 
recv from player 3333: check
send inquire msg to player 8888 
inquire/ 
3333 0 4000 1586 all_in 
6666 178 8000 0 fold 
7777 582 8000 0 fold 
4444 13136 8000 1662 call 
5555 0 8000 1662 all_in 
1111 927 8000 50 fold 
2222 681 8000 919 call 
8888 0 6000 617 all_in 
total pot: 6496 
/inquire 
send inquire msg to player 2222 
inquire/ 
8888 0 6000 617 all_in 
3333 0 4000 1586 all_in 
6666 178 8000 0 fold 
7777 582 8000 0 fold 
4444 13136 8000 1662 call 
5555 0 8000 1662 all_in 
1111 927 8000 50 fold 
2222 681 8000 919 call 
total pot: 6496 
/inquire 
recv from player 2222: fold
flop/ 
CLUBS Q 
CLUBS J 
CLUBS 7 
/flop 

---flop round bet---
valid player: 8, all in player: 3, fold player: 4
turn/ 
CLUBS 3 
/turn 

---turn round bet---
valid player: 8, all in player: 3, fold player: 4
river/ 
CLUBS 10 
/river 

---river round bet---
valid player: 8, all in player: 3, fold player: 4

---show down---
showdown/ 
common/ 
CLUBS Q 
CLUBS J 
CLUBS 7 
CLUBS 3 
CLUBS 10 
/common 
1: 5555 SPADES 4 DIAMONDS 4 FLUSH 
1: 4444 SPADES 2 SPADES 9 FLUSH 
1: 3333 DIAMONDS 2 HEARTS 7 FLUSH 
1: 8888 HEARTS 3 DIAMONDS J FLUSH 
/showdown 

---Allocate pot---
pot-win/ 
5555: 1904 
4444: 1904 
3333: 1828 
8888: 859 
/pot-win 
it is player 1111's turn to be button

-----15 Hand-----

----- clean player data in socket -----
seat/ 
button: 1111 927 8000 
small blind: 5555 1904 8000 
big blind: 4444 15040 8000 
7777 582 8000 
6666 178 8000 
3333 1828 4000 
8888 859 6000 
2222 681 8000 
/seat 
blind/ 
5555: 50 
4444: 100 
/blind 
player 5555:hold/ 
CLUBS 5 
DIAMONDS 4 
/hold 
player 4444:hold/ 
CLUBS 4 
SPADES J 
/hold 
player 7777:hold/ 
DIAMONDS 9 
SPADES Q 
/hold 
player 6666:hold/ 
DIAMONDS 6 
SPADES 10 
/hold 
player 3333:hold/ 
CLUBS 10 
SPADES 7 
/hold 
player 8888:hold/ 
SPADES 2 
HEARTS 8 
/hold 
player 2222:hold/ 
SPADES 5 
SPADES 6 
/hold 
player 1111:hold/ 
SPADES 9 
HEARTS Q 
/hold 

---pre flop round bet---
valid player: 8, all in player: 0, fold player: 0
send inquire msg to player 7777 
inquire/ 
4444 14940 8000 100 blind 
5555 1854 8000 50 blind 
total pot: 150 
/inquire 
recv from player 7777: check
send inquire msg to player 6666 
inquire/ 
7777 482 8000 100 call 
4444 14940 8000 100 blind 
5555 1854 8000 50 blind 
total pot: 250 
/inquire 
recv from player 6666: fold
send inquire msg to player 3333 
inquire/ 
6666 178 8000 0 fold 
7777 482 8000 100 call 
4444 14940 8000 100 blind 
5555 1854 8000 50 blind 
total pot: 250 
/inquire 
recv from player 3333: check
send inquire msg to player 8888 
inquire/ 
3333 1728 4000 100 call 
6666 178 8000 0 fold 
7777 482 8000 100 call 
4444 14940 8000 100 blind 
5555 1854 8000 50 blind 
total pot: 350 
/inquire 
recv from player 8888: check
send inquire msg to player 2222 
inquire/ 
8888 759 6000 100 call 
3333 1728 4000 100 call 
6666 178 8000 0 fold 
7777 482 8000 100 call 
4444 14940 8000 100 blind 
5555 1854 8000 50 blind 
total pot: 450 
/inquire 
recv from player 2222: fold
send inquire msg to player 1111 
inquire/ 
2222 681 8000 0 fold 
8888 759 6000 100 call 
3333 1728 4000 100 call 
6666 178 8000 0 fold 
7777 482 8000 100 call 
4444 14940 8000 100 blind 
5555 1854 8000 50 blind 
total pot: 450 
/inquire 
recv from player 1111: check
send inquire msg to player 5555 
inquire/ 
1111 827 8000 100 call 
2222 681 8000 0 fold 
8888 759 6000 100 call 
3333 1728 4000 100 call 
6666 178 8000 0 fold 
7777 482 8000 100 call 
4444 14940 8000 100 blind 
5555 1854 8000 50 blind 
total pot: 550 
/inquire 
recv from player 5555: raise 0
send inquire msg to player 4444 
inquire/ 
5555 1704 8000 200 raise 
1111 827 8000 100 call 
2222 681 8000 0 fold 
8888 759 6000 100 call 
3333 1728 4000 100 call 
6666 178 8000 0 fold 
7777 482 8000 100 call 
4444 14940 8000 100 blind 
total pot: 700 
/inquire 
recv from player 4444: raise 139
send inquire msg to player 7777 
inquire/ 
4444 14701 8000 339 raise 
5555 1704 8000 200 raise 
1111 827 8000 100 call 
2222 681 8000 0 fold 
8888 759 6000 100 call 
3333 1728 4000 100 call 
6666 178 8000 0 fold 
7777 482 8000 100 call 
total pot: 939 
/inquire 
recv from player 7777: fold
send inquire msg to player 6666 
inquire/ 
7777 482 8000 100 fold 
4444 14701 8000 339 raise 
5555 1704 8000 200 raise 
1111 827 8000 100 call 
2222 681 8000 0 fold 
8888 759 6000 100 call 
3333 1728 4000 100 call 
6666 178 8000 0 fold 
total pot: 939 
/inquire 
send inquire msg to player 3333 
inquire/ 
6666 178 8000 0 fold 
7777 482 8000 100 fold 
4444 14701 8000 339 raise 
5555 1704 8000 200 raise 
1111 827 8000 100 call 
2222 681 8000 0 fold 
8888 759 6000 100 call 
3333 1728 4000 100 call 
total pot: 939 
/inquire 
recv from player 3333: check
send inquire msg to player 8888 
inquire/ 
3333 1489 4000 339 call 
6666 178 8000 0 fold 
7777 482 8000 100 fold 
4444 14701 8000 339 raise 
5555 1704 8000 200 raise 
1111 827 8000 100 call 
2222 681 8000 0 fold 
8888 759 6000 100 call 
total pot: 1178 
/inquire 
recv from player 8888: check
send inquire msg to player 2222 
inquire/ 
8888 520 6000 339 call 
3333 1489 4000 339 call 
6666 178 8000 0 fold 
7777 482 8000 100 fold 
4444 14701 8000 339 raise 
5555 1704 8000 200 raise 
1111 827 8000 100 call 
2222 681 8000 0 fold 
total pot: 1417 
/inquire 
send inquire msg to player 1111 
inquire/ 
2222 681 8000 0 fold 
8888 520 6000 339 call 
3333 1489 4000 339 call 
6666 178 8000 0 fold 
7777 482 8000 100 fold 
4444 14701 8000 339 raise 
5555 1704 8000 200 raise 
1111 827 8000 100 call 
total pot: 1417 
/inquire 
recv from player 1111: fold
send inquire msg to player 5555 
inquire/ 
1111 827 8000 100 fold 
2222 681 8000 0 fold 
8888 520 6000 339 call 
3333 1489 4000 339 call 
6666 178 8000 0 fold 
7777 482 8000 100 fold 
4444 14701 8000 339 raise 
5555 1704 8000 200 raise 
total pot: 1417 
/inquire 
recv from player 5555: check
flop/ 
HEARTS 2 
HEARTS 9 
DIAMONDS J 
/flop 

---flop round bet---
valid player: 8, all in player: 0, fold player: 4
send inquire msg to player 5555 
inquire/ 
1111 827 8000 100 fold 
2222 681 8000 0 fold 
8888 520 6000 339 call 
3333 1489 4000 339 call 
6666 178 8000 0 fold 
7777 482 8000 100 fold 
4444 14701 8000 339 raise 
5555 1565 8000 339 call 
total pot: 1556 
/inquire 
recv from player 5555: raise 0
send inquire msg to player 4444 
inquire/ 
5555 1465 8000 439 raise 
1111 827 8000 100 fold 
2222 681 8000 0 fold 
8888 520 6000 339 call 
3333 1489 4000 339 call 
6666 178 8000 0 fold 
7777 482 8000 100 fold 
4444 14701 8000 339 raise 
total pot: 1656 
/inquire 
recv from player 4444: raise 1691
send inquire msg to player 7777 
inquire/ 
4444 12910 8000 2130 raise 
5555 1465 8000 439 raise 
1111 827 8000 100 fold 
2222 681 8000 0 fold 
8888 520 6000 339 call 
3333 1489 4000 339 call 
6666 178 8000 0 fold 
7777 482 8000 100 fold 
total pot: 3447 
/inquire 
send inquire msg to player 6666 
inquire/ 
7777 482 8000 100 fold 
4444 12910 8000 2130 raise 
5555 1465 8000 439 raise 
1111 827 8000 100 fold 
2222 681 8000 0 fold 
8888 520 6000 339 call 
3333 1489 4000 339 call 
6666 178 8000 0 fold 
total pot: 3447 
/inquire 
send inquire msg to player 3333 
inquire/ 
6666 178 8000 0 fold 
7777 482 8000 100 fold 
4444 12910 8000 2130 raise 
5555 1465 8000 439 raise 
1111 827 8000 100 fold 
2222 681 8000 0 fold 
8888 520 6000 339 call 
3333 1489 4000 339 call 
total pot: 3447 
/inquire 
recv from player 3333: check
send inquire msg to player 8888 
inquire/ 
3333 0 4000 1828 all_in 
6666 178 8000 0 fold 
7777 482 8000 100 fold 
4444 12910 8000 2130 raise 
5555 1465 8000 439 raise 
1111 827 8000 100 fold 
2222 681 8000 0 fold 
8888 520 6000 339 call 
total pot: 4936 
/inquire 
recv from player 8888: check
send inquire msg to player 2222 
inquire/ 
8888 0 6000 859 all_in 
3333 0 4000 1828 all_in 
6666 178 8000 0 fold 
7777 482 8000 100 fold 
4444 12910 8000 2130 raise 
5555 1465 8000 439 raise 
1111 827 8000 100 fold 
2222 681 8000 0 fold 
total pot: 5456 
/inquire 
send inquire msg to player 1111 
inquire/ 
2222 681 8000 0 fold 
8888 0 6000 859 all_in 
3333 0 4000 1828 all_in 
6666 178 8000 0 fold 
7777 482 8000 100 fold 
4444 12910 8000 2130 raise 
5555 1465 8000 439 raise 
1111 827 8000 100 fold 
total pot: 5456 
/inquire 
send inquire msg to player 5555 
inquire/ 
1111 827 8000 100 fold 
2222 681 8000 0 fold 
8888 0 6000 859 all_in 
3333 0 4000 1828 all_in 
6666 178 8000 0 fold 
7777 482 8000 100 fold 
4444 12910 8000 2130 raise 
5555 1465 8000 439 raise 
total pot: 5456 
/inquire 
recv from player 5555: raise 0
turn/ 
CLUBS 3 
/turn 

---turn round bet---
valid player: 8, all in player: 3, fold player: 4
river/ 
DIAMONDS 5 
/river 

---river round bet---
valid player: 8, all in player: 3, fold player: 4

---show down---
showdown/ 
common/ 
HEARTS 2 
HEARTS 9 
DIAMONDS J 
CLUBS 3 
DIAMONDS 5 
/common 
2: 5555 CLUBS 5 DIAMONDS 4 ONE_PAIR 
1: 4444 CLUBS 4 SPADES J ONE_PAIR 
4: 3333 CLUBS 10 SPADES 7 HIGH_CARD 
3: 8888 SPADES 2 HEARTS 8 ONE_PAIR 
/showdown 

---Allocate pot---
pot-win/ 
4444: 6921 
/pot-win 
it is player 5555's turn to be button

-----16 Hand-----

----- clean player data in socket -----
seat/ 
button: 5555 2000 6000 
small blind: 4444 19831 8000 
big blind: 7777 482 8000 
6666 178 8000 
3333 2000 2000 
8888 2000 4000 
2222 681 8000 
1111 827 8000 
/seat 
blind/ 
4444: 50 
7777: 100 
/blind 
player 4444:hold/ 
DIAMONDS 7 
DIAMONDS 4 
/hold 
player 7777:hold/ 
HEARTS 10 
DIAMONDS 6 
/hold 
player 6666:hold/ 
HEARTS 3 
DIAMONDS K 
/hold 
player 3333:hold/ 
DIAMONDS A 
SPADES 2 
/hold 
player 8888:hold/ 
SPADES 3 
SPADES 10 
/hold 
player 2222:hold/ 
DIAMONDS 10 
CLUBS 10 
/hold 
player 1111:hold/ 
HEARTS 7 
CLUBS J 
/hold 
player 5555:hold/ 
SPADES 6 
CLUBS 2 
/hold 

---pre flop round bet---
valid player: 8, all in player: 0, fold player: 0
send inquire msg to player 6666 
inquire/ 
7777 382 8000 100 blind 
4444 19781 8000 50 blind 
total pot: 150 
/inquire 
recv from player 6666: fold
send inquire msg to player 3333 
inquire/ 
6666 178 8000 0 fold 
7777 382 8000 100 blind 
4444 19781 8000 50 blind 
total pot: 150 
/inquire 
recv from player 3333: check
send inquire msg to player 8888 
inquire/ 
3333 1900 2000 100 call 
6666 178 8000 0 fold 
7777 382 8000 100 blind 
4444 19781 8000 50 blind 
total pot: 250 
/inquire 
recv from player 8888: check
send inquire msg to player 2222 
inquire/ 
8888 1900 4000 100 call 
3333 1900 2000 100 call 
6666 178 8000 0 fold 
7777 382 8000 100 blind 
4444 19781 8000 50 blind 
total pot: 350 
/inquire 
recv from player 2222: fold
send inquire msg to player 1111 
inquire/ 
2222 681 8000 0 fold 
8888 1900 4000 100 call 
3333 1900 2000 100 call 
6666 178 8000 0 fold 
7777 382 8000 100 blind 
4444 19781 8000 50 blind 
total pot: 350 
/inquire 
recv from player 1111: check
send inquire msg to player 5555 
inquire/ 
1111 727 8000 100 call 
2222 681 8000 0 fold 
8888 1900 4000 100 call 
3333 1900 2000 100 call 
6666 178 8000 0 fold 
7777 382 8000 100 blind 
4444 19781 8000 50 blind 
total pot: 450 
/inquire 
recv from player 5555: check
send inquire msg to player 4444 
inquire/ 
5555 1900 6000 100 call 
1111 727 8000 100 call 
2222 681 8000 0 fold 
8888 1900 4000 100 call 
3333 1900 2000 100 call 
6666 178 8000 0 fold 
7777 382 8000 100 blind 
4444 19781 8000 50 blind 
total pot: 550 
/inquire 
recv from player 4444: check
send inquire msg to player 7777 
inquire/ 
4444 19731 8000 100 call 
5555 1900 6000 100 call 
1111 727 8000 100 call 
2222 681 8000 0 fold 
8888 1900 4000 100 call 
3333 1900 2000 100 call 
6666 178 8000 0 fold 
7777 382 8000 100 blind 
total pot: 600 
/inquire 
recv from player 7777: check
flop/ 
CLUBS 6 
CLUBS 5 
CLUBS 8 
/flop 

---flop round bet---
valid player: 8, all in player: 0, fold player: 2
send inquire msg to player 4444 
inquire/ 
5555 1900 6000 100 call 
1111 727 8000 100 call 
2222 681 8000 0 fold 
8888 1900 4000 100 call 
3333 1900 2000 100 call 
6666 178 8000 0 fold 
7777 382 8000 100 check 
4444 19731 8000 100 call 
total pot: 600 
/inquire 
recv from player 4444: raise 3093
send inquire msg to player 7777 
inquire/ 
4444 16638 8000 3193 raise 
5555 1900 6000 100 call 
1111 727 8000 100 call 
2222 681 8000 0 fold 
8888 1900 4000 100 call 
3333 1900 2000 100 call 
6666 178 8000 0 fold 
7777 382 8000 100 check 
total pot: 3693 
/inquire 
recv from player 7777: fold
send inquire msg to player 6666 
inquire/ 
7777 382 8000 100 fold 
4444 16638 8000 3193 raise 
5555 1900 6000 100 call 
1111 727 8000 100 call 
2222 681 8000 0 fold 
8888 1900 4000 100 call 
3333 1900 2000 100 call 
6666 178 8000 0 fold 
total pot: 3693 
/inquire 
send inquire msg to player 3333 
inquire/ 
6666 178 8000 0 fold 
7777 382 8000 100 fold 
4444 16638 8000 3193 raise 
5555 1900 6000 100 call 
1111 727 8000 100 call 
2222 681 8000 0 fold 
8888 1900 4000 100 call 
3333 1900 2000 100 call 
total pot: 3693 
/inquire 
recv from player 3333: check
send inquire msg to player 8888 
inquire/ 
3333 0 2000 2000 all_in 
6666 178 8000 0 fold 
7777 382 8000 100 fold 
4444 16638 8000 3193 raise 
5555 1900 6000 100 call 
1111 727 8000 100 call 
2222 681 8000 0 fold 
8888 1900 4000 100 call 
total pot: 5593 
/inquire 
recv from player 8888: check
send inquire msg to player 2222 
inquire/ 
8888 0 4000 2000 all_in 
3333 0 2000 2000 all_in 
6666 178 8000 0 fold 
7777 382 8000 100 fold 
4444 16638 8000 3193 raise 
5555 1900 6000 100 call 
1111 727 8000 100 call 
2222 681 8000 0 fold 
total pot: 7493 
/inquire 
send inquire msg to player 1111 
inquire/ 
2222 681 8000 0 fold 
8888 0 4000 2000 all_in 
3333 0 2000 2000 all_in 
6666 178 8000 0 fold 
7777 382 8000 100 fold 
4444 16638 8000 3193 raise 
5555 1900 6000 100 call 
1111 727 8000 100 call 
total pot: 7493 
/inquire 
recv from player 1111: fold
send inquire msg to player 5555 
inquire/ 
1111 727 8000 100 fold 
2222 681 8000 0 fold 
8888 0 4000 2000 all_in 
3333 0 2000 2000 all_in 
6666 178 8000 0 fold 
7777 382 8000 100 fold 
4444 16638 8000 3193 raise 
5555 1900 6000 100 call 
total pot: 7493 
/inquire 
recv from player 5555: raise 0
turn/ 
SPADES Q 
/turn 

---turn round bet---
valid player: 8, all in player: 3, fold player: 4
river/ 
HEARTS 6 
/river 

---river round bet---
valid player: 8, all in player: 3, fold player: 4

---show down---
showdown/ 
common/ 
CLUBS 6 
CLUBS 5 
CLUBS 8 
SPADES Q 
HEARTS 6 
/common 
1: 4444 DIAMONDS 7 DIAMONDS 4 STRAIGHT 
3: 3333 DIAMONDS A SPADES 2 ONE_PAIR 
4: 8888 SPADES 3 SPADES 10 ONE_PAIR 
2: 5555 SPADES 6 CLUBS 2 THREE_OF_A_KIND 
/showdown 

---Allocate pot---
pot-win/ 
4444: 9393 
/pot-win 
it is player 4444's turn to be button

-----17 Hand-----

----- clean player data in socket -----
seat/ 
button: 4444 26031 8000 
small blind: 7777 382 8000 
big blind: 6666 178 8000 
3333 2000 0 
8888 2000 2000 
2222 681 8000 
1111 727 8000 
5555 2000 4000 
/seat 
blind/ 
7777: 50 
6666: 100 
/blind 
player 7777:hold/ 
CLUBS 2 
DIAMONDS 2 
/hold 
player 6666:hold/ 
SPADES 10 
CLUBS J 
/hold 
player 3333:hold/ 
SPADES A 
DIAMONDS 9 
/hold 
player 8888:hold/ 
HEARTS Q 
DIAMONDS 7 
/hold 
player 2222:hold/ 
SPADES 9 
CLUBS A 
/hold 
player 1111:hold/ 
HEARTS 4 
SPADES 6 
/hold 
player 5555:hold/ 
SPADES 4 
DIAMONDS J 
/hold 
player 4444:hold/ 
DIAMONDS 8 
HEARTS 3 
/hold 

---pre flop round bet---
valid player: 8, all in player: 0, fold player: 0
send inquire msg to player 3333 
inquire/ 
6666 78 8000 100 blind 
7777 332 8000 50 blind 
total pot: 150 
/inquire 
recv from player 3333: check
send inquire msg to player 8888 
inquire/ 
3333 1900 0 100 call 
6666 78 8000 100 blind 
7777 332 8000 50 blind 
total pot: 250 
/inquire 
recv from player 8888: check
send inquire msg to player 2222 
inquire/ 
8888 1900 2000 100 call 
3333 1900 0 100 call 
6666 78 8000 100 blind 
7777 332 8000 50 blind 
total pot: 350 
/inquire 
recv from player 2222: fold
send inquire msg to player 1111 
inquire/ 
2222 681 8000 0 fold 
8888 1900 2000 100 call 
3333 1900 0 100 call 
6666 78 8000 100 blind 
7777 332 8000 50 blind 
total pot: 350 
/inquire 
recv from player 1111: fold
send inquire msg to player 5555 
inquire/ 
1111 727 8000 0 fold 
2222 681 8000 0 fold 
8888 1900 2000 100 call 
3333 1900 0 100 call 
6666 78 8000 100 blind 
7777 332 8000 50 blind 
total pot: 350 
/inquire 
recv from player 5555: raise 0
send inquire msg to player 4444 
inquire/ 
5555 1800 4000 200 raise 
1111 727 8000 0 fold 
2222 681 8000 0 fold 
8888 1900 2000 100 call 
3333 1900 0 100 call 
6666 78 8000 100 blind 
7777 332 8000 50 blind 
total pot: 550 
/inquire 
recv from player 4444: fold
send inquire msg to player 7777 
inquire/ 
4444 26031 8000 0 fold 
5555 1800 4000 200 raise 
1111 727 8000 0 fold 
2222 681 8000 0 fold 
8888 1900 2000 100 call 
3333 1900 0 100 call 
6666 78 8000 100 blind 
7777 332 8000 50 blind 
total pot: 550 
/inquire 
recv from player 7777: fold
send inquire msg to player 6666 
inquire/ 
7777 332 8000 50 fold 
4444 26031 8000 0 fold 
5555 1800 4000 200 raise 
1111 727 8000 0 fold 
2222 681 8000 0 fold 
8888 1900 2000 100 call 
3333 1900 0 100 call 
6666 78 8000 100 blind 
total pot: 550 
/inquire 
recv from player 6666: fold
send inquire msg to player 3333 
inquire/ 
6666 78 8000 100 fold 
7777 332 8000 50 fold 
4444 26031 8000 0 fold 
5555 1800 4000 200 raise 
1111 727 8000 0 fold 
2222 681 8000 0 fold 
8888 1900 2000 100 call 
3333 1900 0 100 call 
total pot: 550 
/inquire 
recv from player 3333: check
send inquire msg to player 8888 
inquire/ 
3333 1800 0 200 call 
6666 78 8000 100 fold 
7777 332 8000 50 fold 
4444 26031 8000 0 fold 
5555 1800 4000 200 raise 
1111 727 8000 0 fold 
2222 681 8000 0 fold 
8888 1900 2000 100 call 
total pot: 650 
/inquire 
recv from player 8888: check
flop/ 
CLUBS 6 
SPADES 7 
SPADES Q 
/flop 

---flop round bet---
valid player: 8, all in player: 0, fold player: 5
send inquire msg to player 7777 
inquire/ 
4444 26031 8000 0 fold 
5555 1800 4000 200 raise 
1111 727 8000 0 fold 
2222 681 8000 0 fold 
8888 1800 2000 200 call 
3333 1800 0 200 call 
6666 78 8000 100 fold 
7777 332 8000 50 fold 
total pot: 750 
/inquire 
send inquire msg to player 6666 
inquire/ 
7777 332 8000 50 fold 
4444 26031 8000 0 fold 
5555 1800 4000 200 raise 
1111 727 8000 0 fold 
2222 681 8000 0 fold 
8888 1800 2000 200 call 
3333 1800 0 200 call 
6666 78 8000 100 fold 
total pot: 750 
/inquire 
send inquire msg to player 3333 
inquire/ 
6666 78 8000 100 fold 
7777 332 8000 50 fold 
4444 26031 8000 0 fold 
5555 1800 4000 200 raise 
1111 727 8000 0 fold 
2222 681 8000 0 fold 
8888 1800 2000 200 call 
3333 1800 0 200 call 
total pot: 750 
/inquire 
recv from player 3333: check
send inquire msg to player 8888 
inquire/ 
3333 1800 0 200 check 
6666 78 8000 100 fold 
7777 332 8000 50 fold 
4444 26031 8000 0 fold 
5555 1800 4000 200 raise 
1111 727 8000 0 fold 
2222 681 8000 0 fold 
8888 1800 2000 200 call 
total pot: 750 
/inquire 
recv from player 8888: check
send inquire msg to player 2222 
inquire/ 
8888 1800 2000 200 check 
3333 1800 0 200 check 
6666 78 8000 100 fold 
7777 332 8000 50 fold 
4444 26031 8000 0 fold 
5555 1800 4000 200 raise 
1111 727 8000 0 fold 
2222 681 8000 0 fold 
total pot: 750 
/inquire 
send inquire msg to player 1111 
inquire/ 
2222 681 8000 0 fold 
8888 1800 2000 200 check 
3333 1800 0 200 check 
6666 78 8000 100 fold 
7777 332 8000 50 fold 
4444 26031 8000 0 fold 
5555 1800 4000 200 raise 
1111 727 8000 0 fold 
total pot: 750 
/inquire 
send inquire msg to player 5555 
inquire/ 
1111 727 8000 0 fold 
2222 681 8000 0 fold 
8888 1800 2000 200 check 
3333 1800 0 200 check 
6666 78 8000 100 fold 
7777 332 8000 50 fold 
4444 26031 8000 0 fold 
5555 1800 4000 200 raise 
total pot: 750 
/inquire 
recv from player 5555: check
turn/ 
HEARTS 2 
/turn 

---turn round bet---
valid player: 8, all in player: 0, fold player: 5
send inquire msg to player 7777 
inquire/ 
4444 26031 8000 0 fold 
5555 1800 4000 200 check 
1111 727 8000 0 fold 
2222 681 8000 0 fold 
8888 1800 2000 200 check 
3333 1800 0 200 check 
6666 78 8000 100 fold 
7777 332 8000 50 fold 
total pot: 750 
/inquire 
send inquire msg to player 6666 
inquire/ 
7777 332 8000 50 fold 
4444 26031 8000 0 fold 
5555 1800 4000 200 check 
1111 727 8000 0 fold 
2222 681 8000 0 fold 
8888 1800 2000 200 check 
3333 1800 0 200 check 
6666 78 8000 100 fold 
total pot: 750 
/inquire 
send inquire msg to player 3333 
inquire/ 
6666 78 8000 100 fold 
7777 332 8000 50 fold 
4444 26031 8000 0 fold 
5555 1800 4000 200 check 
1111 727 8000 0 fold 
2222 681 8000 0 fold 
8888 1800 2000 200 check 
3333 1800 0 200 check 
total pot: 750 
/inquire 
recv from player 3333: check
send inquire msg to player 8888 
inquire/ 
3333 1800 0 200 check 
6666 78 8000 100 fold 
7777 332 8000 50 fold 
4444 26031 8000 0 fold 
5555 1800 4000 200 check 
1111 727 8000 0 fold 
2222 681 8000 0 fold 
8888 1800 2000 200 check 
total pot: 750 
/inquire 
recv from player 8888: check
send inquire msg to player 2222 
inquire/ 
8888 1800 2000 200 check 
3333 1800 0 200 check 
6666 78 8000 100 fold 
7777 332 8000 50 fold 
4444 26031 8000 0 fold 
5555 1800 4000 200 check 
1111 727 8000 0 fold 
2222 681 8000 0 fold 
total pot: 750 
/inquire 
send inquire msg to player 1111 
inquire/ 
2222 681 8000 0 fold 
8888 1800 2000 200 check 
3333 1800 0 200 check 
6666 78 8000 100 fold 
7777 332 8000 50 fold 
4444 26031 8000 0 fold 
5555 1800 4000 200 check 
1111 727 8000 0 fold 
total pot: 750 
/inquire 
send inquire msg to player 5555 
inquire/ 
1111 727 8000 0 fold 
2222 681 8000 0 fold 
8888 1800 2000 200 check 
3333 1800 0 200 check 
6666 78 8000 100 fold 
7777 332 8000 50 fold 
4444 26031 8000 0 fold 
5555 1800 4000 200 check 
total pot: 750 
/inquire 
recv from player 5555: raise 0
send inquire msg to player 4444 
inquire/ 
5555 1700 4000 300 raise 
1111 727 8000 0 fold 
2222 681 8000 0 fold 
8888 1800 2000 200 check 
3333 1800 0 200 check 
6666 78 8000 100 fold 
7777 332 8000 50 fold 
4444 26031 8000 0 fold 
total pot: 850 
/inquire 
send inquire msg to player 7777 
inquire/ 
4444 26031 8000 0 fold 
5555 1700 4000 300 raise 
1111 727 8000 0 fold 
2222 681 8000 0 fold 
8888 1800 2000 200 check 
3333 1800 0 200 check 
6666 78 8000 100 fold 
7777 332 8000 50 fold 
total pot: 850 
/inquire 
send inquire msg to player 6666 
inquire/ 
7777 332 8000 50 fold 
4444 26031 8000 0 fold 
5555 1700 4000 300 raise 
1111 727 8000 0 fold 
2222 681 8000 0 fold 
8888 1800 2000 200 check 
3333 1800 0 200 check 
6666 78 8000 100 fold 
total pot: 850 
/inquire 
send inquire msg to player 3333 
inquire/ 
6666 78 8000 100 fold 
7777 332 8000 50 fold 
4444 26031 8000 0 fold 
5555 1700 4000 300 raise 
1111 727 8000 0 fold 
2222 681 8000 0 fold 
8888 1800 2000 200 check 
3333 1800 0 200 check 
total pot: 850 
/inquire 
recv from player 3333: check
send inquire msg to player 8888 
inquire/ 
3333 1700 0 300 call 
6666 78 8000 100 fold 
7777 332 8000 50 fold 
4444 26031 8000 0 fold 
5555 1700 4000 300 raise 
1111 727 8000 0 fold 
2222 681 8000 0 fold 
8888 1800 2000 200 check 
total pot: 950 
/inquire 
recv from player 8888: check
river/ 
DIAMONDS 4 
/river 

---river round bet---
valid player: 8, all in player: 0, fold player: 5
send inquire msg to player 7777 
inquire/ 
4444 26031 8000 0 fold 
5555 1700 4000 300 raise 
1111 727 8000 0 fold 
2222 681 8000 0 fold 
8888 1700 2000 300 call 
3333 1700 0 300 call 
6666 78 8000 100 fold 
7777 332 8000 50 fold 
total pot: 1050 
/inquire 
send inquire msg to player 6666 
inquire/ 
7777 332 8000 50 fold 
4444 26031 8000 0 fold 
5555 1700 4000 300 raise 
1111 727 8000 0 fold 
2222 681 8000 0 fold 
8888 1700 2000 300 call 
3333 1700 0 300 call 
6666 78 8000 100 fold 
total pot: 1050 
/inquire 
send inquire msg to player 3333 
inquire/ 
6666 78 8000 100 fold 
7777 332 8000 50 fold 
4444 26031 8000 0 fold 
5555 1700 4000 300 raise 
1111 727 8000 0 fold 
2222 681 8000 0 fold 
8888 1700 2000 300 call 
3333 1700 0 300 call 
total pot: 1050 
/inquire 
recv from player 3333: check
send inquire msg to player 8888 
inquire/ 
3333 1700 0 300 check 
6666 78 8000 100 fold 
7777 332 8000 50 fold 
4444 26031 8000 0 fold 
5555 1700 4000 300 raise 
1111 727 8000 0 fold 
2222 681 8000 0 fold 
8888 1700 2000 300 call 
total pot: 1050 
/inquire 
recv from player 8888: check
send inquire msg to player 2222 
inquire/ 
8888 1700 2000 300 check 
3333 1700 0 300 check 
6666 78 8000 100 fold 
7777 332 8000 50 fold 
4444 26031 8000 0 fold 
5555 1700 4000 300 raise 
1111 727 8000 0 fold 
2222 681 8000 0 fold 
total pot: 1050 
/inquire 
send inquire msg to player 1111 
inquire/ 
2222 681 8000 0 fold 
8888 1700 2000 300 check 
3333 1700 0 300 check 
6666 78 8000 100 fold 
7777 332 8000 50 fold 
4444 26031 8000 0 fold 
5555 1700 4000 300 raise 
1111 727 8000 0 fold 
total pot: 1050 
/inquire 
send inquire msg to player 5555 
inquire/ 
1111 727 8000 0 fold 
2222 681 8000 0 fold 
8888 1700 2000 300 check 
3333 1700 0 300 check 
6666 78 8000 100 fold 
7777 332 8000 50 fold 
4444 26031 8000 0 fold 
5555 1700 4000 300 raise 
total pot: 1050 
/inquire 
recv from player 5555: raise 0
send inquire msg to player 4444 
inquire/ 
5555 1600 4000 400 raise 
1111 727 8000 0 fold 
2222 681 8000 0 fold 
8888 1700 2000 300 check 
3333 1700 0 300 check 
6666 78 8000 100 fold 
7777 332 8000 50 fold 
4444 26031 8000 0 fold 
total pot: 1150 
/inquire 
send inquire msg to player 7777 
inquire/ 
4444 26031 8000 0 fold 
5555 1600 4000 400 raise 
1111 727 8000 0 fold 
2222 681 8000 0 fold 
8888 1700 2000 300 check 
3333 1700 0 300 check 
6666 78 8000 100 fold 
7777 332 8000 50 fold 
total pot: 1150 
/inquire 
send inquire msg to player 6666 
inquire/ 
7777 332 8000 50 fold 
4444 26031 8000 0 fold 
5555 1600 4000 400 raise 
1111 727 8000 0 fold 
2222 681 8000 0 fold 
8888 1700 2000 300 check 
3333 1700 0 300 check 
6666 78 8000 100 fold 
total pot: 1150 
/inquire 
send inquire msg to player 3333 
inquire/ 
6666 78 8000 100 fold 
7777 332 8000 50 fold 
4444 26031 8000 0 fold 
5555 1600 4000 400 raise 
1111 727 8000 0 fold 
2222 681 8000 0 fold 
8888 1700 2000 300 check 
3333 1700 0 300 check 
total pot: 1150 
/inquire 
recv from player 3333: check
send inquire msg to player 8888 
inquire/ 
3333 1600 0 400 call 
6666 78 8000 100 fold 
7777 332 8000 50 fold 
4444 26031 8000 0 fold 
5555 1600 4000 400 raise 
1111 727 8000 0 fold 
2222 681 8000 0 fold 
8888 1700 2000 300 check 
total pot: 1250 
/inquire 
recv from player 8888: check

---show down---
showdown/ 
common/ 
CLUBS 6 
SPADES 7 
SPADES Q 
HEARTS 2 
DIAMONDS 4 
/common 
3: 3333 SPADES A DIAMONDS 9 HIGH_CARD 
1: 8888 HEARTS Q DIAMONDS 7 TWO_PAIR 
2: 5555 SPADES 4 DIAMONDS J ONE_PAIR 
/showdown 

---Allocate pot---
pot-win/ 
8888: 1350 
/pot-win 
it is player 7777's turn to be button

-----18 Hand-----

----- clean player data in socket -----
seat/ 
button: 7777 332 8000 
small blind: 6666 2000 6078 
big blind: 3333 1600 0 
8888 2950 2000 
2222 681 8000 
1111 727 8000 
5555 1600 4000 
4444 26031 8000 
/seat 
blind/ 
6666: 50 
3333: 100 
/blind 
player 6666:hold/ 
CLUBS 5 
CLUBS 8 
/hold 
player 3333:hold/ 
DIAMONDS 8 
DIAMONDS J 
/hold 
player 8888:hold/ 
CLUBS 6 
DIAMONDS A 
/hold 
player 2222:hold/ 
CLUBS Q 
HEARTS J 
/hold 
player 1111:hold/ 
HEARTS 7 
DIAMONDS 3 
/hold 
player 5555:hold/ 
CLUBS 7 
HEARTS 8 
/hold 
player 4444:hold/ 
SPADES 8 
SPADES K 
/hold 
player 7777:hold/ 
HEARTS 10 
SPADES A 
/hold 

---pre flop round bet---
valid player: 8, all in player: 0, fold player: 0
send inquire msg to player 8888 
inquire/ 
3333 1500 0 100 blind 
6666 1950 6078 50 blind 
total pot: 150 
/inquire 
recv from player 8888: check
send inquire msg to player 2222 
inquire/ 
8888 2850 2000 100 call 
3333 1500 0 100 blind 
6666 1950 6078 50 blind 
total pot: 250 
/inquire 
recv from player 2222: fold
send inquire msg to player 1111 
inquire/ 
2222 681 8000 0 fold 
8888 2850 2000 100 call 
3333 1500 0 100 blind 
6666 1950 6078 50 blind 
total pot: 250 
/inquire 
recv from player 1111: fold
send inquire msg to player 5555 
inquire/ 
1111 727 8000 0 fold 
2222 681 8000 0 fold 
8888 2850 2000 100 call 
3333 1500 0 100 blind 
6666 1950 6078 50 blind 
total pot: 250 
/inquire 
recv from player 5555: raise 0
send inquire msg to player 4444 
inquire/ 
5555 1400 4000 200 raise 
1111 727 8000 0 fold 
2222 681 8000 0 fold 
8888 2850 2000 100 call 
3333 1500 0 100 blind 
6666 1950 6078 50 blind 
total pot: 450 
/inquire 
recv from player 4444: raise 2378
send inquire msg to player 7777 
inquire/ 
4444 23453 8000 2578 raise 
5555 1400 4000 200 raise 
1111 727 8000 0 fold 
2222 681 8000 0 fold 
8888 2850 2000 100 call 
3333 1500 0 100 blind 
6666 1950 6078 50 blind 
total pot: 3028 
/inquire 
recv from player 7777: fold
send inquire msg to player 6666 
inquire/ 
7777 332 8000 0 fold 
4444 23453 8000 2578 raise 
5555 1400 4000 200 raise 
1111 727 8000 0 fold 
2222 681 8000 0 fold 
8888 2850 2000 100 call 
3333 1500 0 100 blind 
6666 1950 6078 50 blind 
total pot: 3028 
/inquire 
recv from player 6666: fold
send inquire msg to player 3333 
inquire/ 
6666 1950 6078 50 fold 
7777 332 8000 0 fold 
4444 23453 8000 2578 raise 
5555 1400 4000 200 raise 
1111 727 8000 0 fold 
2222 681 8000 0 fold 
8888 2850 2000 100 call 
3333 1500 0 100 blind 
total pot: 3028 
/inquire 
recv from player 3333: check
send inquire msg to player 8888 
inquire/ 
3333 0 0 1600 all_in 
6666 1950 6078 50 fold 
7777 332 8000 0 fold 
4444 23453 8000 2578 raise 
5555 1400 4000 200 raise 
1111 727 8000 0 fold 
2222 681 8000 0 fold 
8888 2850 2000 100 call 
total pot: 4528 
/inquire 
recv from player 8888: check
send inquire msg to player 2222 
inquire/ 
8888 372 2000 2578 call 
3333 0 0 1600 all_in 
6666 1950 6078 50 fold 
7777 332 8000 0 fold 
4444 23453 8000 2578 raise 
5555 1400 4000 200 raise 
1111 727 8000 0 fold 
2222 681 8000 0 fold 
total pot: 7006 
/inquire 
send inquire msg to player 1111 
inquire/ 
2222 681 8000 0 fold 
8888 372 2000 2578 call 
3333 0 0 1600 all_in 
6666 1950 6078 50 fold 
7777 332 8000 0 fold 
4444 23453 8000 2578 raise 
5555 1400 4000 200 raise 
1111 727 8000 0 fold 
total pot: 7006 
/inquire 
send inquire msg to player 5555 
inquire/ 
1111 727 8000 0 fold 
2222 681 8000 0 fold 
8888 372 2000 2578 call 
3333 0 0 1600 all_in 
6666 1950 6078 50 fold 
7777 332 8000 0 fold 
4444 23453 8000 2578 raise 
5555 1400 4000 200 raise 
total pot: 7006 
/inquire 
recv from player 5555: check
flop/ 
CLUBS J 
SPADES 6 
SPADES 4 
/flop 

---flop round bet---
valid player: 8, all in player: 2, fold player: 4
send inquire msg to player 6666 
inquire/ 
7777 332 8000 0 fold 
4444 23453 8000 2578 raise 
5555 0 4000 1600 all_in 
1111 727 8000 0 fold 
2222 681 8000 0 fold 
8888 372 2000 2578 call 
3333 0 0 1600 all_in 
6666 1950 6078 50 fold 
total pot: 8406 
/inquire 
send inquire msg to player 3333 
inquire/ 
6666 1950 6078 50 fold 
7777 332 8000 0 fold 
4444 23453 8000 2578 raise 
5555 0 4000 1600 all_in 
1111 727 8000 0 fold 
2222 681 8000 0 fold 
8888 372 2000 2578 call 
3333 0 0 1600 all_in 
total pot: 8406 
/inquire 
send inquire msg to player 8888 
inquire/ 
3333 0 0 1600 all_in 
6666 1950 6078 50 fold 
7777 332 8000 0 fold 
4444 23453 8000 2578 raise 
5555 0 4000 1600 all_in 
1111 727 8000 0 fold 
2222 681 8000 0 fold 
8888 372 2000 2578 call 
total pot: 8406 
/inquire 
recv from player 8888: check
send inquire msg to player 2222 
inquire/ 
8888 372 2000 2578 check 
3333 0 0 1600 all_in 
6666 1950 6078 50 fold 
7777 332 8000 0 fold 
4444 23453 8000 2578 raise 
5555 0 4000 1600 all_in 
1111 727 8000 0 fold 
2222 681 8000 0 fold 
total pot: 8406 
/inquire 
send inquire msg to player 1111 
inquire/ 
2222 681 8000 0 fold 
8888 372 2000 2578 check 
3333 0 0 1600 all_in 
6666 1950 6078 50 fold 
7777 332 8000 0 fold 
4444 23453 8000 2578 raise 
5555 0 4000 1600 all_in 
1111 727 8000 0 fold 
total pot: 8406 
/inquire 
send inquire msg to player 5555 
inquire/ 
1111 727 8000 0 fold 
2222 681 8000 0 fold 
8888 372 2000 2578 check 
3333 0 0 1600 all_in 
6666 1950 6078 50 fold 
7777 332 8000 0 fold 
4444 23453 8000 2578 raise 
5555 0 4000 1600 all_in 
total pot: 8406 
/inquire 
send inquire msg to player 4444 
inquire/ 
5555 0 4000 1600 all_in 
1111 727 8000 0 fold 
2222 681 8000 0 fold 
8888 372 2000 2578 check 
3333 0 0 1600 all_in 
6666 1950 6078 50 fold 
7777 332 8000 0 fold 
4444 23453 8000 2578 raise 
total pot: 8406 
/inquire 
recv from player 4444: check
turn/ 
DIAMONDS 2 
/turn 

---turn round bet---
valid player: 8, all in player: 2, fold player: 4
send inquire msg to player 6666 
inquire/ 
7777 332 8000 0 fold 
4444 23453 8000 2578 check 
5555 0 4000 1600 all_in 
1111 727 8000 0 fold 
2222 681 8000 0 fold 
8888 372 2000 2578 check 
3333 0 0 1600 all_in 
6666 1950 6078 50 fold 
total pot: 8406 
/inquire 
send inquire msg to player 3333 
inquire/ 
6666 1950 6078 50 fold 
7777 332 8000 0 fold 
4444 23453 8000 2578 check 
5555 0 4000 1600 all_in 
1111 727 8000 0 fold 
2222 681 8000 0 fold 
8888 372 2000 2578 check 
3333 0 0 1600 all_in 
total pot: 8406 
/inquire 
send inquire msg to player 8888 
inquire/ 
3333 0 0 1600 all_in 
6666 1950 6078 50 fold 
7777 332 8000 0 fold 
4444 23453 8000 2578 check 
5555 0 4000 1600 all_in 
1111 727 8000 0 fold 
2222 681 8000 0 fold 
8888 372 2000 2578 check 
total pot: 8406 
/inquire 
recv from player 8888: check
send inquire msg to player 2222 
inquire/ 
8888 372 2000 2578 check 
3333 0 0 1600 all_in 
6666 1950 6078 50 fold 
7777 332 8000 0 fold 
4444 23453 8000 2578 check 
5555 0 4000 1600 all_in 
1111 727 8000 0 fold 
2222 681 8000 0 fold 
total pot: 8406 
/inquire 
send inquire msg to player 1111 
inquire/ 
2222 681 8000 0 fold 
8888 372 2000 2578 check 
3333 0 0 1600 all_in 
6666 1950 6078 50 fold 
7777 332 8000 0 fold 
4444 23453 8000 2578 check 
5555 0 4000 1600 all_in 
1111 727 8000 0 fold 
total pot: 8406 
/inquire 
send inquire msg to player 5555 
inquire/ 
1111 727 8000 0 fold 
2222 681 8000 0 fold 
8888 372 2000 2578 check 
3333 0 0 1600 all_in 
6666 1950 6078 50 fold 
7777 332 8000 0 fold 
4444 23453 8000 2578 check 
5555 0 4000 1600 all_in 
total pot: 8406 
/inquire 
send inquire msg to player 4444 
inquire/ 
5555 0 4000 1600 all_in 
1111 727 8000 0 fold 
2222 681 8000 0 fold 
8888 372 2000 2578 check 
3333 0 0 1600 all_in 
6666 1950 6078 50 fold 
7777 332 8000 0 fold 
4444 23453 8000 2578 check 
total pot: 8406 
/inquire 
recv from player 4444: check
river/ 
DIAMONDS 7 
/river 

---river round bet---
valid player: 8, all in player: 2, fold player: 4
send inquire msg to player 6666 
inquire/ 
7777 332 8000 0 fold 
4444 23453 8000 2578 check 
5555 0 4000 1600 all_in 
1111 727 8000 0 fold 
2222 681 8000 0 fold 
8888 372 2000 2578 check 
3333 0 0 1600 all_in 
6666 1950 6078 50 fold 
total pot: 8406 
/inquire 
send inquire msg to player 3333 
inquire/ 
6666 1950 6078 50 fold 
7777 332 8000 0 fold 
4444 23453 8000 2578 check 
5555 0 4000 1600 all_in 
1111 727 8000 0 fold 
2222 681 8000 0 fold 
8888 372 2000 2578 check 
3333 0 0 1600 all_in 
total pot: 8406 
/inquire 
send inquire msg to player 8888 
inquire/ 
3333 0 0 1600 all_in 
6666 1950 6078 50 fold 
7777 332 8000 0 fold 
4444 23453 8000 2578 check 
5555 0 4000 1600 all_in 
1111 727 8000 0 fold 
2222 681 8000 0 fold 
8888 372 2000 2578 check 
total pot: 8406 
/inquire 
recv from player 8888: check
send inquire msg to player 2222 
inquire/ 
8888 372 2000 2578 check 
3333 0 0 1600 all_in 
6666 1950 6078 50 fold 
7777 332 8000 0 fold 
4444 23453 8000 2578 check 
5555 0 4000 1600 all_in 
1111 727 8000 0 fold 
2222 681 8000 0 fold 
total pot: 8406 
/inquire 
send inquire msg to player 1111 
inquire/ 
2222 681 8000 0 fold 
8888 372 2000 2578 check 
3333 0 0 1600 all_in 
6666 1950 6078 50 fold 
7777 332 8000 0 fold 
4444 23453 8000 2578 check 
5555 0 4000 1600 all_in 
1111 727 8000 0 fold 
total pot: 8406 
/inquire 
send inquire msg to player 5555 
inquire/ 
1111 727 8000 0 fold 
2222 681 8000 0 fold 
8888 372 2000 2578 check 
3333 0 0 1600 all_in 
6666 1950 6078 50 fold 
7777 332 8000 0 fold 
4444 23453 8000 2578 check 
5555 0 4000 1600 all_in 
total pot: 8406 
/inquire 
send inquire msg to player 4444 
inquire/ 
5555 0 4000 1600 all_in 
1111 727 8000 0 fold 
2222 681 8000 0 fold 
8888 372 2000 2578 check 
3333 0 0 1600 all_in 
6666 1950 6078 50 fold 
7777 332 8000 0 fold 
4444 23453 8000 2578 check 
total pot: 8406 
/inquire 
recv from player 4444: check

---show down---
showdown/ 
common/ 
CLUBS J 
SPADES 6 
SPADES 4 
DIAMONDS 2 
DIAMONDS 7 
/common 
1: 3333 DIAMONDS 8 DIAMONDS J ONE_PAIR 
3: 8888 CLUBS 6 DIAMONDS A ONE_PAIR 
2: 5555 CLUBS 7 HEARTS 8 ONE_PAIR 
4: 4444 SPADES 8 SPADES K HIGH_CARD 
/showdown 

---Allocate pot---
pot-win/ 
3333: 6450 
8888: 1956 
/pot-win 
it is player 6666's turn to be button

-----19 Hand-----

----- clean player data in socket -----
seat/ 
button: 6666 1950 6078 
small blind: 3333 6450 0 
big blind: 8888 2328 2000 
2222 681 8000 
1111 727 8000 
5555 2000 2000 
4444 23453 8000 
7777 332 8000 
/seat 
blind/ 
3333: 50 
8888: 100 
/blind 
player 3333:hold/ 
DIAMONDS 8 
CLUBS 10 
/hold 
player 8888:hold/ 
DIAMONDS 10 
DIAMONDS 2 
/hold 
player 2222:hold/ 
HEARTS 4 
DIAMONDS 3 
/hold 
player 1111:hold/ 
CLUBS J 
SPADES 3 
/hold 
player 5555:hold/ 
CLUBS 3 
SPADES Q 
/hold 
player 4444:hold/ 
SPADES K 
DIAMONDS 4 
/hold 
player 7777:hold/ 
CLUBS 4 
HEARTS 5 
/hold 
player 6666:hold/ 
CLUBS 2 
SPADES A 
/hold 

---pre flop round bet---
valid player: 8, all in player: 0, fold player: 0
send inquire msg to player 2222 
inquire/ 
8888 2228 2000 100 blind 
3333 6400 0 50 blind 
total pot: 150 
/inquire 
recv from player 2222: fold
send inquire msg to player 1111 
inquire/ 
2222 681 8000 0 fold 
8888 2228 2000 100 blind 
3333 6400 0 50 blind 
total pot: 150 
/inquire 
recv from player 1111: fold
send inquire msg to player 5555 
inquire/ 
1111 727 8000 0 fold 
2222 681 8000 0 fold 
8888 2228 2000 100 blind 
3333 6400 0 50 blind 
total pot: 150 
/inquire 
recv from player 5555: check
send inquire msg to player 4444 
inquire/ 
5555 1900 2000 100 call 
1111 727 8000 0 fold 
2222 681 8000 0 fold 
8888 2228 2000 100 blind 
3333 6400 0 50 blind 
total pot: 250 
/inquire 
recv from player 4444: raise 808
send inquire msg to player 7777 
inquire/ 
4444 22545 8000 908 raise 
5555 1900 2000 100 call 
1111 727 8000 0 fold 
2222 681 8000 0 fold 
8888 2228 2000 100 blind 
3333 6400 0 50 blind 
total pot: 1158 
/inquire 
recv from player 7777: fold
send inquire msg to player 6666 
inquire/ 
7777 332 8000 0 fold 
4444 22545 8000 908 raise 
5555 1900 2000 100 call 
1111 727 8000 0 fold 
2222 681 8000 0 fold 
8888 2228 2000 100 blind 
3333 6400 0 50 blind 
total pot: 1158 
/inquire 
recv from player 6666: fold
send inquire msg to player 3333 
inquire/ 
6666 1950 6078 0 fold 
7777 332 8000 0 fold 
4444 22545 8000 908 raise 
5555 1900 2000 100 call 
1111 727 8000 0 fold 
2222 681 8000 0 fold 
8888 2228 2000 100 blind 
3333 6400 0 50 blind 
total pot: 1158 
/inquire 
recv from player 3333: check
send inquire msg to player 8888 
inquire/ 
3333 5542 0 908 call 
6666 1950 6078 0 fold 
7777 332 8000 0 fold 
4444 22545 8000 908 raise 
5555 1900 2000 100 call 
1111 727 8000 0 fold 
2222 681 8000 0 fold 
8888 2228 2000 100 blind 
total pot: 2016 
/inquire 
recv from player 8888: check
send inquire msg to player 2222 
inquire/ 
8888 1420 2000 908 call 
3333 5542 0 908 call 
6666 1950 6078 0 fold 
7777 332 8000 0 fold 
4444 22545 8000 908 raise 
5555 1900 2000 100 call 
1111 727 8000 0 fold 
2222 681 8000 0 fold 
total pot: 2824 
/inquire 
send inquire msg to player 1111 
inquire/ 
2222 681 8000 0 fold 
8888 1420 2000 908 call 
3333 5542 0 908 call 
6666 1950 6078 0 fold 
7777 332 8000 0 fold 
4444 22545 8000 908 raise 
5555 1900 2000 100 call 
1111 727 8000 0 fold 
total pot: 2824 
/inquire 
send inquire msg to player 5555 
inquire/ 
1111 727 8000 0 fold 
2222 681 8000 0 fold 
8888 1420 2000 908 call 
3333 5542 0 908 call 
6666 1950 6078 0 fold 
7777 332 8000 0 fold 
4444 22545 8000 908 raise 
5555 1900 2000 100 call 
total pot: 2824 
/inquire 
recv from player 5555: raise 0
send inquire msg to player 4444 
inquire/ 
5555 284 2000 1716 raise 
1111 727 8000 0 fold 
2222 681 8000 0 fold 
8888 1420 2000 908 call 
3333 5542 0 908 call 
6666 1950 6078 0 fold 
7777 332 8000 0 fold 
4444 22545 8000 908 raise 
total pot: 4440 
/inquire 
recv from player 4444: check
send inquire msg to player 7777 
inquire/ 
4444 21737 8000 1716 call 
5555 284 2000 1716 raise 
1111 727 8000 0 fold 
2222 681 8000 0 fold 
8888 1420 2000 908 call 
3333 5542 0 908 call 
6666 1950 6078 0 fold 
7777 332 8000 0 fold 
total pot: 5248 
/inquire 
send inquire msg to player 6666 
inquire/ 
7777 332 8000 0 fold 
4444 21737 8000 1716 call 
5555 284 2000 1716 raise 
1111 727 8000 0 fold 
2222 681 8000 0 fold 
8888 1420 2000 908 call 
3333 5542 0 908 call 
6666 1950 6078 0 fold 
total pot: 5248 
/inquire 
send inquire msg to player 3333 
inquire/ 
6666 1950 6078 0 fold 
7777 332 8000 0 fold 
4444 21737 8000 1716 call 
5555 284 2000 1716 raise 
1111 727 8000 0 fold 
2222 681 8000 0 fold 
8888 1420 2000 908 call 
3333 5542 0 908 call 
total pot: 5248 
/inquire 
recv from player 3333: check
send inquire msg to player 8888 
inquire/ 
3333 4734 0 1716 call 
6666 1950 6078 0 fold 
7777 332 8000 0 fold 
4444 21737 8000 1716 call 
5555 284 2000 1716 raise 
1111 727 8000 0 fold 
2222 681 8000 0 fold 
8888 1420 2000 908 call 
total pot: 6056 
/inquire 
recv from player 8888: check
flop/ 
DIAMONDS A 
CLUBS A 
SPADES 7 
/flop 

---flop round bet---
valid player: 8, all in player: 0, fold player: 4
send inquire msg to player 3333 
inquire/ 
6666 1950 6078 0 fold 
7777 332 8000 0 fold 
4444 21737 8000 1716 call 
5555 284 2000 1716 raise 
1111 727 8000 0 fold 
2222 681 8000 0 fold 
8888 612 2000 1716 call 
3333 4734 0 1716 call 
total pot: 6864 
/inquire 
recv from player 3333: check
send inquire msg to player 8888 
inquire/ 
3333 4734 0 1716 check 
6666 1950 6078 0 fold 
7777 332 8000 0 fold 
4444 21737 8000 1716 call 
5555 284 2000 1716 raise 
1111 727 8000 0 fold 
2222 681 8000 0 fold 
8888 612 2000 1716 call 
total pot: 6864 
/inquire 
recv from player 8888: check
send inquire msg to player 2222 
inquire/ 
8888 612 2000 1716 check 
3333 4734 0 1716 check 
6666 1950 6078 0 fold 
7777 332 8000 0 fold 
4444 21737 8000 1716 call 
5555 284 2000 1716 raise 
1111 727 8000 0 fold 
2222 681 8000 0 fold 
total pot: 6864 
/inquire 
send inquire msg to player 1111 
inquire/ 
2222 681 8000 0 fold 
8888 612 2000 1716 check 
3333 4734 0 1716 check 
6666 1950 6078 0 fold 
7777 332 8000 0 fold 
4444 21737 8000 1716 call 
5555 284 2000 1716 raise 
1111 727 8000 0 fold 
total pot: 6864 
/inquire 
send inquire msg to player 5555 
inquire/ 
1111 727 8000 0 fold 
2222 681 8000 0 fold 
8888 612 2000 1716 check 
3333 4734 0 1716 check 
6666 1950 6078 0 fold 
7777 332 8000 0 fold 
4444 21737 8000 1716 call 
5555 284 2000 1716 raise 
total pot: 6864 
/inquire 
recv from player 5555: check
send inquire msg to player 4444 
inquire/ 
5555 284 2000 1716 check 
1111 727 8000 0 fold 
2222 681 8000 0 fold 
8888 612 2000 1716 check 
3333 4734 0 1716 check 
6666 1950 6078 0 fold 
7777 332 8000 0 fold 
4444 21737 8000 1716 call 
total pot: 6864 
/inquire 
recv from player 4444: check
turn/ 
DIAMONDS 9 
/turn 

---turn round bet---
valid player: 8, all in player: 0, fold player: 4
send inquire msg to player 3333 
inquire/ 
6666 1950 6078 0 fold 
7777 332 8000 0 fold 
4444 21737 8000 1716 check 
5555 284 2000 1716 check 
1111 727 8000 0 fold 
2222 681 8000 0 fold 
8888 612 2000 1716 check 
3333 4734 0 1716 check 
total pot: 6864 
/inquire 
recv from player 3333: check
send inquire msg to player 8888 
inquire/ 
3333 4734 0 1716 check 
6666 1950 6078 0 fold 
7777 332 8000 0 fold 
4444 21737 8000 1716 check 
5555 284 2000 1716 check 
1111 727 8000 0 fold 
2222 681 8000 0 fold 
8888 612 2000 1716 check 
total pot: 6864 
/inquire 
recv from player 8888: check
send inquire msg to player 2222 
inquire/ 
8888 612 2000 1716 check 
3333 4734 0 1716 check 
6666 1950 6078 0 fold 
7777 332 8000 0 fold 
4444 21737 8000 1716 check 
5555 284 2000 1716 check 
1111 727 8000 0 fold 
2222 681 8000 0 fold 
total pot: 6864 
/inquire 
send inquire msg to player 1111 
inquire/ 
2222 681 8000 0 fold 
8888 612 2000 1716 check 
3333 4734 0 1716 check 
6666 1950 6078 0 fold 
7777 332 8000 0 fold 
4444 21737 8000 1716 check 
5555 284 2000 1716 check 
1111 727 8000 0 fold 
total pot: 6864 
/inquire 
send inquire msg to player 5555 
inquire/ 
1111 727 8000 0 fold 
2222 681 8000 0 fold 
8888 612 2000 1716 check 
3333 4734 0 1716 check 
6666 1950 6078 0 fold 
7777 332 8000 0 fold 
4444 21737 8000 1716 check 
5555 284 2000 1716 check 
total pot: 6864 
/inquire 
recv from player 5555: raise 0
send inquire msg to player 4444 
inquire/ 
5555 184 2000 1816 raise 
1111 727 8000 0 fold 
2222 681 8000 0 fold 
8888 612 2000 1716 check 
3333 4734 0 1716 check 
6666 1950 6078 0 fold 
7777 332 8000 0 fold 
4444 21737 8000 1716 check 
total pot: 6964 
/inquire 
recv from player 4444: check
send inquire msg to player 7777 
inquire/ 
4444 21637 8000 1816 call 
5555 184 2000 1816 raise 
1111 727 8000 0 fold 
2222 681 8000 0 fold 
8888 612 2000 1716 check 
3333 4734 0 1716 check 
6666 1950 6078 0 fold 
7777 332 8000 0 fold 
total pot: 7064 
/inquire 
send inquire msg to player 6666 
inquire/ 
7777 332 8000 0 fold 
4444 21637 8000 1816 call 
5555 184 2000 1816 raise 
1111 727 8000 0 fold 
2222 681 8000 0 fold 
8888 612 2000 1716 check 
3333 4734 0 1716 check 
6666 1950 6078 0 fold 
total pot: 7064 
/inquire 
send inquire msg to player 3333 
inquire/ 
6666 1950 6078 0 fold 
7777 332 8000 0 fold 
4444 21637 8000 1816 call 
5555 184 2000 1816 raise 
1111 727 8000 0 fold 
2222 681 8000 0 fold 
8888 612 2000 1716 check 
3333 4734 0 1716 check 
total pot: 7064 
/inquire 
recv from player 3333: check
send inquire msg to player 8888 
inquire/ 
3333 4634 0 1816 call 
6666 1950 6078 0 fold 
7777 332 8000 0 fold 
4444 21637 8000 1816 call 
5555 184 2000 1816 raise 
1111 727 8000 0 fold 
2222 681 8000 0 fold 
8888 612 2000 1716 check 
total pot: 7164 
/inquire 
recv from player 8888: check
river/ 
CLUBS 8 
/river 

---river round bet---
valid player: 8, all in player: 0, fold player: 4
send inquire msg to player 3333 
inquire/ 
6666 1950 6078 0 fold 
7777 332 8000 0 fold 
4444 21637 8000 1816 call 
5555 184 2000 1816 raise 
1111 727 8000 0 fold 
2222 681 8000 0 fold 
8888 512 2000 1816 call 
3333 4634 0 1816 call 
total pot: 7264 
/inquire 
recv from player 3333: check
send inquire msg to player 8888 
inquire/ 
3333 4634 0 1816 check 
6666 1950 6078 0 fold 
7777 332 8000 0 fold 
4444 21637 8000 1816 call 
5555 184 2000 1816 raise 
1111 727 8000 0 fold 
2222 681 8000 0 fold 
8888 512 2000 1816 call 
total pot: 7264 
/inquire 
recv from player 8888: check
send inquire msg to player 2222 
inquire/ 
8888 512 2000 1816 check 
3333 4634 0 1816 check 
6666 1950 6078 0 fold 
7777 332 8000 0 fold 
4444 21637 8000 1816 call 
5555 184 2000 1816 raise 
1111 727 8000 0 fold 
2222 681 8000 0 fold 
total pot: 7264 
/inquire 
send inquire msg to player 1111 
inquire/ 
2222 681 8000 0 fold 
8888 512 2000 1816 check 
3333 4634 0 1816 check 
6666 1950 6078 0 fold 
7777 332 8000 0 fold 
4444 21637 8000 1816 call 
5555 184 2000 1816 raise 
1111 727 8000 0 fold 
total pot: 7264 
/inquire 
send inquire msg to player 5555 
inquire/ 
1111 727 8000 0 fold 
2222 681 8000 0 fold 
8888 512 2000 1816 check 
3333 4634 0 1816 check 
6666 1950 6078 0 fold 
7777 332 8000 0 fold 
4444 21637 8000 1816 call 
5555 184 2000 1816 raise 
total pot: 7264 
/inquire 
recv from player 5555: check
send inquire msg to player 4444 
inquire/ 
5555 184 2000 1816 check 
1111 727 8000 0 fold 
2222 681 8000 0 fold 
8888 512 2000 1816 check 
3333 4634 0 1816 check 
6666 1950 6078 0 fold 
7777 332 8000 0 fold 
4444 21637 8000 1816 call 
total pot: 7264 
/inquire 
recv from player 4444: check

---show down---
showdown/ 
common/ 
DIAMONDS A 
CLUBS A 
SPADES 7 
DIAMONDS 9 
CLUBS 8 
/common 
1: 3333 DIAMONDS 8 CLUBS 10 TWO_PAIR 
4: 8888 DIAMONDS 10 DIAMONDS 2 ONE_PAIR 
3: 5555 CLUBS 3 SPADES Q ONE_PAIR 
2: 4444 SPADES K DIAMONDS 4 ONE_PAIR 
/showdown 

---Allocate pot---
pot-win/ 
3333: 7264 
/pot-win 
it is player 3333's turn to be button

-----20 Hand-----

----- clean player data in socket -----
seat/ 
button: 3333 11898 0 
small blind: 8888 512 2000 
big blind: 2222 681 8000 
1111 727 8000 
5555 184 2000 
4444 21637 8000 
7777 332 8000 
6666 1950 6078 
/seat 
blind/ 
8888: 50 
2222: 100 
/blind 
player 8888:hold/ 
DIAMONDS 4 
CLUBS J 
/hold 
player 2222:hold/ 
SPADES Q 
HEARTS J 
/hold 
player 1111:hold/ 
HEARTS 7 
CLUBS Q 
/hold 
player 5555:hold/ 
DIAMONDS J 
DIAMONDS 2 
/hold 
player 4444:hold/ 
SPADES 10 
DIAMONDS 6 
/hold 
player 7777:hold/ 
DIAMONDS Q 
HEARTS 9 
/hold 
player 6666:hold/ 
CLUBS 2 
SPADES 7 
/hold 
player 3333:hold/ 
CLUBS 7 
DIAMONDS 10 
/hold 

---pre flop round bet---
valid player: 8, all in player: 0, fold player: 0
send inquire msg to player 1111 
inquire/ 
2222 581 8000 100 blind 
8888 462 2000 50 blind 
total pot: 150 
/inquire 
recv from player 1111: fold
send inquire msg to player 5555 
inquire/ 
1111 727 8000 0 fold 
2222 581 8000 100 blind 
8888 462 2000 50 blind 
total pot: 150 
/inquire 
recv from player 5555: raise 0
send inquire msg to player 4444 
inquire/ 
5555 0 2000 184 all_in 
1111 727 8000 0 fold 
2222 581 8000 100 blind 
8888 462 2000 50 blind 
total pot: 334 
/inquire 
recv from player 4444: raise 716
send inquire msg to player 7777 
inquire/ 
4444 20737 8000 900 raise 
5555 0 2000 184 all_in 
1111 727 8000 0 fold 
2222 581 8000 100 blind 
8888 462 2000 50 blind 
total pot: 1234 
/inquire 
recv from player 7777: fold
send inquire msg to player 6666 
inquire/ 
7777 332 8000 0 fold 
4444 20737 8000 900 raise 
5555 0 2000 184 all_in 
1111 727 8000 0 fold 
2222 581 8000 100 blind 
8888 462 2000 50 blind 
total pot: 1234 
/inquire 
recv from player 6666: fold
send inquire msg to player 3333 
inquire/ 
6666 1950 6078 0 fold 
7777 332 8000 0 fold 
4444 20737 8000 900 raise 
5555 0 2000 184 all_in 
1111 727 8000 0 fold 
2222 581 8000 100 blind 
8888 462 2000 50 blind 
total pot: 1234 
/inquire 
recv from player 3333: check
send inquire msg to player 8888 
inquire/ 
3333 10998 0 900 call 
6666 1950 6078 0 fold 
7777 332 8000 0 fold 
4444 20737 8000 900 raise 
5555 0 2000 184 all_in 
1111 727 8000 0 fold 
2222 581 8000 100 blind 
8888 462 2000 50 blind 
total pot: 2134 
/inquire 
recv from player 8888: check
send inquire msg to player 2222 
inquire/ 
8888 0 2000 512 all_in 
3333 10998 0 900 call 
6666 1950 6078 0 fold 
7777 332 8000 0 fold 
4444 20737 8000 900 raise 
5555 0 2000 184 all_in 
1111 727 8000 0 fold 
2222 581 8000 100 blind 
total pot: 2596 
/inquire 
recv from player 2222: fold
flop/ 
DIAMONDS 5 
DIAMONDS A 
SPADES 9 
/flop 

---flop round bet---
valid player: 8, all in player: 2, fold player: 4
send inquire msg to player 8888 
inquire/ 
3333 10998 0 900 call 
6666 1950 6078 0 fold 
7777 332 8000 0 fold 
4444 20737 8000 900 raise 
5555 0 2000 184 all_in 
1111 727 8000 0 fold 
2222 581 8000 100 fold 
8888 0 2000 512 all_in 
total pot: 2596 
/inquire 
send inquire msg to player 2222 
inquire/ 
8888 0 2000 512 all_in 
3333 10998 0 900 call 
6666 1950 6078 0 fold 
7777 332 8000 0 fold 
4444 20737 8000 900 raise 
5555 0 2000 184 all_in 
1111 727 8000 0 fold 
2222 581 8000 100 fold 
total pot: 2596 
/inquire 
send inquire msg to player 1111 
inquire/ 
2222 581 8000 100 fold 
8888 0 2000 512 all_in 
3333 10998 0 900 call 
6666 1950 6078 0 fold 
7777 332 8000 0 fold 
4444 20737 8000 900 raise 
5555 0 2000 184 all_in 
1111 727 8000 0 fold 
total pot: 2596 
/inquire 
send inquire msg to player 5555 
inquire/ 
1111 727 8000 0 fold 
2222 581 8000 100 fold 
8888 0 2000 512 all_in 
3333 10998 0 900 call 
6666 1950 6078 0 fold 
7777 332 8000 0 fold 
4444 20737 8000 900 raise 
5555 0 2000 184 all_in 
total pot: 2596 
/inquire 
send inquire msg to player 4444 
inquire/ 
5555 0 2000 184 all_in 
1111 727 8000 0 fold 
2222 581 8000 100 fold 
8888 0 2000 512 all_in 
3333 10998 0 900 call 
6666 1950 6078 0 fold 
7777 332 8000 0 fold 
4444 20737 8000 900 raise 
total pot: 2596 
/inquire 
recv from player 4444: check
send inquire msg to player 7777 
inquire/ 
4444 20737 8000 900 check 
5555 0 2000 184 all_in 
1111 727 8000 0 fold 
2222 581 8000 100 fold 
8888 0 2000 512 all_in 
3333 10998 0 900 call 
6666 1950 6078 0 fold 
7777 332 8000 0 fold 
total pot: 2596 
/inquire 
send inquire msg to player 6666 
inquire/ 
7777 332 8000 0 fold 
4444 20737 8000 900 check 
5555 0 2000 184 all_in 
1111 727 8000 0 fold 
2222 581 8000 100 fold 
8888 0 2000 512 all_in 
3333 10998 0 900 call 
6666 1950 6078 0 fold 
total pot: 2596 
/inquire 
send inquire msg to player 3333 
inquire/ 
6666 1950 6078 0 fold 
7777 332 8000 0 fold 
4444 20737 8000 900 check 
5555 0 2000 184 all_in 
1111 727 8000 0 fold 
2222 581 8000 100 fold 
8888 0 2000 512 all_in 
3333 10998 0 900 call 
total pot: 2596 
/inquire 
recv from player 3333: check
turn/ 
HEARTS 8 
/turn 

---turn round bet---
valid player: 8, all in player: 2, fold player: 4
send inquire msg to player 8888 
inquire/ 
3333 10998 0 900 check 
6666 1950 6078 0 fold 
7777 332 8000 0 fold 
4444 20737 8000 900 check 
5555 0 2000 184 all_in 
1111 727 8000 0 fold 
2222 581 8000 100 fold 
8888 0 2000 512 all_in 
total pot: 2596 
/inquire 
send inquire msg to player 2222 
inquire/ 
8888 0 2000 512 all_in 
3333 10998 0 900 check 
6666 1950 6078 0 fold 
7777 332 8000 0 fold 
4444 20737 8000 900 check 
5555 0 2000 184 all_in 
1111 727 8000 0 fold 
2222 581 8000 100 fold 
total pot: 2596 
/inquire 
send inquire msg to player 1111 
inquire/ 
2222 581 8000 100 fold 
8888 0 2000 512 all_in 
3333 10998 0 900 check 
6666 1950 6078 0 fold 
7777 332 8000 0 fold 
4444 20737 8000 900 check 
5555 0 2000 184 all_in 
1111 727 8000 0 fold 
total pot: 2596 
/inquire 
send inquire msg to player 5555 
inquire/ 
1111 727 8000 0 fold 
2222 581 8000 100 fold 
8888 0 2000 512 all_in 
3333 10998 0 900 check 
6666 1950 6078 0 fold 
7777 332 8000 0 fold 
4444 20737 8000 900 check 
5555 0 2000 184 all_in 
total pot: 2596 
/inquire 
send inquire msg to player 4444 
inquire/ 
5555 0 2000 184 all_in 
1111 727 8000 0 fold 
2222 581 8000 100 fold 
8888 0 2000 512 all_in 
3333 10998 0 900 check 
6666 1950 6078 0 fold 
7777 332 8000 0 fold 
4444 20737 8000 900 check 
total pot: 2596 
/inquire 
recv from player 4444: check
send inquire msg to player 7777 
inquire/ 
4444 20737 8000 900 check 
5555 0 2000 184 all_in 
1111 727 8000 0 fold 
2222 581 8000 100 fold 
8888 0 2000 512 all_in 
3333 10998 0 900 check 
6666 1950 6078 0 fold 
7777 332 8000 0 fold 
total pot: 2596 
/inquire 
send inquire msg to player 6666 
inquire/ 
7777 332 8000 0 fold 
4444 20737 8000 900 check 
5555 0 2000 184 all_in 
1111 727 8000 0 fold 
2222 581 8000 100 fold 
8888 0 2000 512 all_in 
3333 10998 0 900 check 
6666 1950 6078 0 fold 
total pot: 2596 
/inquire 
send inquire msg to player 3333 
inquire/ 
6666 1950 6078 0 fold 
7777 332 8000 0 fold 
4444 20737 8000 900 check 
5555 0 2000 184 all_in 
1111 727 8000 0 fold 
2222 581 8000 100 fold 
8888 0 2000 512 all_in 
3333 10998 0 900 check 
total pot: 2596 
/inquire 
recv from player 3333: check
river/ 
SPADES A 
/river 

---river round bet---
valid player: 8, all in player: 2, fold player: 4
send inquire msg to player 8888 
inquire/ 
3333 10998 0 900 check 
6666 1950 6078 0 fold 
7777 332 8000 0 fold 
4444 20737 8000 900 check 
5555 0 2000 184 all_in 
1111 727 8000 0 fold 
2222 581 8000 100 fold 
8888 0 2000 512 all_in 
total pot: 2596 
/inquire 
send inquire msg to player 2222 
inquire/ 
8888 0 2000 512 all_in 
3333 10998 0 900 check 
6666 1950 6078 0 fold 
7777 332 8000 0 fold 
4444 20737 8000 900 check 
5555 0 2000 184 all_in 
1111 727 8000 0 fold 
2222 581 8000 100 fold 
total pot: 2596 
/inquire 
send inquire msg to player 1111 
inquire/ 
2222 581 8000 100 fold 
8888 0 2000 512 all_in 
3333 10998 0 900 check 
6666 1950 6078 0 fold 
7777 332 8000 0 fold 
4444 20737 8000 900 check 
5555 0 2000 184 all_in 
1111 727 8000 0 fold 
total pot: 2596 
/inquire 
send inquire msg to player 5555 
inquire/ 
1111 727 8000 0 fold 
2222 581 8000 100 fold 
8888 0 2000 512 all_in 
3333 10998 0 900 check 
6666 1950 6078 0 fold 
7777 332 8000 0 fold 
4444 20737 8000 900 check 
5555 0 2000 184 all_in 
total pot: 2596 
/inquire 
send inquire msg to player 4444 
inquire/ 
5555 0 2000 184 all_in 
1111 727 8000 0 fold 
2222 581 8000 100 fold 
8888 0 2000 512 all_in 
3333 10998 0 900 check 
6666 1950 6078 0 fold 
7777 332 8000 0 fold 
4444 20737 8000 900 check 
total pot: 2596 
/inquire 
recv from player 4444: check
send inquire msg to player 7777 
inquire/ 
4444 20737 8000 900 check 
5555 0 2000 184 all_in 
1111 727 8000 0 fold 
2222 581 8000 100 fold 
8888 0 2000 512 all_in 
3333 10998 0 900 check 
6666 1950 6078 0 fold 
7777 332 8000 0 fold 
total pot: 2596 
/inquire 
send inquire msg to player 6666 
inquire/ 
7777 332 8000 0 fold 
4444 20737 8000 900 check 
5555 0 2000 184 all_in 
1111 727 8000 0 fold 
2222 581 8000 100 fold 
8888 0 2000 512 all_in 
3333 10998 0 900 check 
6666 1950 6078 0 fold 
total pot: 2596 
/inquire 
send inquire msg to player 3333 
inquire/ 
6666 1950 6078 0 fold 
7777 332 8000 0 fold 
4444 20737 8000 900 check 
5555 0 2000 184 all_in 
1111 727 8000 0 fold 
2222 581 8000 100 fold 
8888 0 2000 512 all_in 
3333 10998 0 900 check 
total pot: 2596 
/inquire 
recv from player 3333: check

---show down---
showdown/ 
common/ 
DIAMONDS 5 
DIAMONDS A 
SPADES 9 
HEARTS 8 
SPADES A 
/common 
1: 8888 DIAMONDS 4 CLUBS J ONE_PAIR 
1: 5555 DIAMONDS J DIAMONDS 2 ONE_PAIR 
2: 4444 SPADES 10 DIAMONDS 6 ONE_PAIR 
2: 3333 CLUBS 7 DIAMONDS 10 ONE_PAIR 
/showdown 

---Allocate pot---
pot-win/ 
8888: 1402 
5555: 418 
4444: 388 
3333: 388 
/pot-win 
it is player 8888's turn to be button

-----21 Hand-----

----- clean player data in socket -----
seat/ 
button: 8888 1402 2000 
small blind: 2222 581 8000 
big blind: 1111 727 8000 
5555 418 2000 
4444 21125 8000 
7777 332 8000 
6666 1950 6078 
3333 11386 0 
/seat 
blind/ 
2222: 50 
1111: 100 
/blind 
player 2222:hold/ 
SPADES 5 
SPADES 2 
/hold 
player 1111:hold/ 
SPADES 4 
CLUBS 10 
/hold 
player 5555:hold/ 
HEARTS A 
DIAMONDS 10 
/hold 
player 4444:hold/ 
HEARTS 4 
SPADES 10 
/hold 
player 7777:hold/ 
DIAMONDS 6 
HEARTS 5 
/hold 
player 6666:hold/ 
HEARTS 9 
CLUBS 9 
/hold 
player 3333:hold/ 
HEARTS 10 
CLUBS 5 
/hold 
player 8888:hold/ 
CLUBS 4 
HEARTS J 
/hold 

---pre flop round bet---
valid player: 8, all in player: 0, fold player: 0
send inquire msg to player 5555 
inquire/ 
1111 627 8000 100 blind 
2222 531 8000 50 blind 
total pot: 150 
/inquire 
recv from player 5555: check
send inquire msg to player 4444 
inquire/ 
5555 318 2000 100 call 
1111 627 8000 100 blind 
2222 531 8000 50 blind 
total pot: 250 
/inquire 
recv from player 4444: raise 616
send inquire msg to player 7777 
inquire/ 
4444 20409 8000 716 raise 
5555 318 2000 100 call 
1111 627 8000 100 blind 
2222 531 8000 50 blind 
total pot: 966 
/inquire 
recv from player 7777: fold
send inquire msg to player 6666 
inquire/ 
7777 332 8000 0 fold 
4444 20409 8000 716 raise 
5555 318 2000 100 call 
1111 627 8000 100 blind 
2222 531 8000 50 blind 
total pot: 966 
/inquire 
recv from player 6666: fold
send inquire msg to player 3333 
inquire/ 
6666 1950 6078 0 fold 
7777 332 8000 0 fold 
4444 20409 8000 716 raise 
5555 318 2000 100 call 
1111 627 8000 100 blind 
2222 531 8000 50 blind 
total pot: 966 
/inquire 
recv from player 3333: check
send inquire msg to player 8888 
inquire/ 
3333 10670 0 716 call 
6666 1950 6078 0 fold 
7777 332 8000 0 fold 
4444 20409 8000 716 raise 
5555 318 2000 100 call 
1111 627 8000 100 blind 
2222 531 8000 50 blind 
total pot: 1682 
/inquire 
recv from player 8888: check
send inquire msg to player 2222 
inquire/ 
8888 686 2000 716 call 
3333 10670 0 716 call 
6666 1950 6078 0 fold 
7777 332 8000 0 fold 
4444 20409 8000 716 raise 
5555 318 2000 100 call 
1111 627 8000 100 blind 
2222 531 8000 50 blind 
total pot: 2398 
/inquire 
recv from player 2222: fold
send inquire msg to player 1111 
inquire/ 
2222 531 8000 50 fold 
8888 686 2000 716 call 
3333 10670 0 716 call 
6666 1950 6078 0 fold 
7777 332 8000 0 fold 
4444 20409 8000 716 raise 
5555 318 2000 100 call 
1111 627 8000 100 blind 
total pot: 2398 
/inquire 
recv from player 1111: check
send inquire msg to player 5555 
inquire/ 
1111 11 8000 716 call 
2222 531 8000 50 fold 
8888 686 2000 716 call 
3333 10670 0 716 call 
6666 1950 6078 0 fold 
7777 332 8000 0 fold 
4444 20409 8000 716 raise 
5555 318 2000 100 call 
total pot: 3014 
/inquire 
recv from player 5555: raise 0
flop/ 
CLUBS 2 
CLUBS 3 
CLUBS Q 
/flop 

---flop round bet---
valid player: 8, all in player: 1, fold player: 3
send inquire msg to player 2222 
inquire/ 
8888 686 2000 716 call 
3333 10670 0 716 call 
6666 1950 6078 0 fold 
7777 332 8000 0 fold 
4444 20409 8000 716 raise 
5555 0 2000 418 all_in 
1111 11 8000 716 call 
2222 531 8000 50 fold 
total pot: 3332 
/inquire 
send inquire msg to player 1111 
inquire/ 
2222 531 8000 50 fold 
8888 686 2000 716 call 
3333 10670 0 716 call 
6666 1950 6078 0 fold 
7777 332 8000 0 fold 
4444 20409 8000 716 raise 
5555 0 2000 418 all_in 
1111 11 8000 716 call 
total pot: 3332 
/inquire 
recv from player 1111: fold
send inquire msg to player 5555 
inquire/ 
1111 11 8000 716 fold 
2222 531 8000 50 fold 
8888 686 2000 716 call 
3333 10670 0 716 call 
6666 1950 6078 0 fold 
7777 332 8000 0 fold 
4444 20409 8000 716 raise 
5555 0 2000 418 all_in 
total pot: 3332 
/inquire 
send inquire msg to player 4444 
inquire/ 
5555 0 2000 418 all_in 
1111 11 8000 716 fold 
2222 531 8000 50 fold 
8888 686 2000 716 call 
3333 10670 0 716 call 
6666 1950 6078 0 fold 
7777 332 8000 0 fold 
4444 20409 8000 716 raise 
total pot: 3332 
/inquire 
recv from player 4444: check
send inquire msg to player 7777 
inquire/ 
4444 20409 8000 716 check 
5555 0 2000 418 all_in 
1111 11 8000 716 fold 
2222 531 8000 50 fold 
8888 686 2000 716 call 
3333 10670 0 716 call 
6666 1950 6078 0 fold 
7777 332 8000 0 fold 
total pot: 3332 
/inquire 
send inquire msg to player 6666 
inquire/ 
7777 332 8000 0 fold 
4444 20409 8000 716 check 
5555 0 2000 418 all_in 
1111 11 8000 716 fold 
2222 531 8000 50 fold 
8888 686 2000 716 call 
3333 10670 0 716 call 
6666 1950 6078 0 fold 
total pot: 3332 
/inquire 
send inquire msg to player 3333 
inquire/ 
6666 1950 6078 0 fold 
7777 332 8000 0 fold 
4444 20409 8000 716 check 
5555 0 2000 418 all_in 
1111 11 8000 716 fold 
2222 531 8000 50 fold 
8888 686 2000 716 call 
3333 10670 0 716 call 
total pot: 3332 
/inquire 
recv from player 3333: check
send inquire msg to player 8888 
inquire/ 
3333 10670 0 716 check 
6666 1950 6078 0 fold 
7777 332 8000 0 fold 
4444 20409 8000 716 check 
5555 0 2000 418 all_in 
1111 11 8000 716 fold 
2222 531 8000 50 fold 
8888 686 2000 716 call 
total pot: 3332 
/inquire 
recv from player 8888: check
turn/ 
CLUBS A 
/turn 

---turn round bet---
valid player: 8, all in player: 1, fold player: 4
send inquire msg to player 2222 
inquire/ 
8888 686 2000 716 check 
3333 10670 0 716 check 
6666 1950 6078 0 fold 
7777 332 8000 0 fold 
4444 20409 8000 716 check 
5555 0 2000 418 all_in 
1111 11 8000 716 fold 
2222 531 8000 50 fold 
total pot: 3332 
/inquire 
send inquire msg to player 1111 
inquire/ 
2222 531 8000 50 fold 
8888 686 2000 716 check 
3333 10670 0 716 check 
6666 1950 6078 0 fold 
7777 332 8000 0 fold 
4444 20409 8000 716 check 
5555 0 2000 418 all_in 
1111 11 8000 716 fold 
total pot: 3332 
/inquire 
send inquire msg to player 5555 
inquire/ 
1111 11 8000 716 fold 
2222 531 8000 50 fold 
8888 686 2000 716 check 
3333 10670 0 716 check 
6666 1950 6078 0 fold 
7777 332 8000 0 fold 
4444 20409 8000 716 check 
5555 0 2000 418 all_in 
total pot: 3332 
/inquire 
send inquire msg to player 4444 
inquire/ 
5555 0 2000 418 all_in 
1111 11 8000 716 fold 
2222 531 8000 50 fold 
8888 686 2000 716 check 
3333 10670 0 716 check 
6666 1950 6078 0 fold 
7777 332 8000 0 fold 
4444 20409 8000 716 check 
total pot: 3332 
/inquire 
recv from player 4444: check
send inquire msg to player 7777 
inquire/ 
4444 20409 8000 716 check 
5555 0 2000 418 all_in 
1111 11 8000 716 fold 
2222 531 8000 50 fold 
8888 686 2000 716 check 
3333 10670 0 716 check 
6666 1950 6078 0 fold 
7777 332 8000 0 fold 
total pot: 3332 
/inquire 
send inquire msg to player 6666 
inquire/ 
7777 332 8000 0 fold 
4444 20409 8000 716 check 
5555 0 2000 418 all_in 
1111 11 8000 716 fold 
2222 531 8000 50 fold 
8888 686 2000 716 check 
3333 10670 0 716 check 
6666 1950 6078 0 fold 
total pot: 3332 
/inquire 
send inquire msg to player 3333 
inquire/ 
6666 1950 6078 0 fold 
7777 332 8000 0 fold 
4444 20409 8000 716 check 
5555 0 2000 418 all_in 
1111 11 8000 716 fold 
2222 531 8000 50 fold 
8888 686 2000 716 check 
3333 10670 0 716 check 
total pot: 3332 
/inquire 
recv from player 3333: check
send inquire msg to player 8888 
inquire/ 
3333 10670 0 716 check 
6666 1950 6078 0 fold 
7777 332 8000 0 fold 
4444 20409 8000 716 check 
5555 0 2000 418 all_in 
1111 11 8000 716 fold 
2222 531 8000 50 fold 
8888 686 2000 716 check 
total pot: 3332 
/inquire 
recv from player 8888: check
river/ 
SPADES K 
/river 

---river round bet---
valid player: 8, all in player: 1, fold player: 4
send inquire msg to player 2222 
inquire/ 
8888 686 2000 716 check 
3333 10670 0 716 check 
6666 1950 6078 0 fold 
7777 332 8000 0 fold 
4444 20409 8000 716 check 
5555 0 2000 418 all_in 
1111 11 8000 716 fold 
2222 531 8000 50 fold 
total pot: 3332 
/inquire 
send inquire msg to player 1111 
inquire/ 
2222 531 8000 50 fold 
8888 686 2000 716 check 
3333 10670 0 716 check 
6666 1950 6078 0 fold 
7777 332 8000 0 fold 
4444 20409 8000 716 check 
5555 0 2000 418 all_in 
1111 11 8000 716 fold 
total pot: 3332 
/inquire 
send inquire msg to player 5555 
inquire/ 
1111 11 8000 716 fold 
2222 531 8000 50 fold 
8888 686 2000 716 check 
3333 10670 0 716 check 
6666 1950 6078 0 fold 
7777 332 8000 0 fold 
4444 20409 8000 716 check 
5555 0 2000 418 all_in 
total pot: 3332 
/inquire 
send inquire msg to player 4444 
inquire/ 
5555 0 2000 418 all_in 
1111 11 8000 716 fold 
2222 531 8000 50 fold 
8888 686 2000 716 check 
3333 10670 0 716 check 
6666 1950 6078 0 fold 
7777 332 8000 0 fold 
4444 20409 8000 716 check 
total pot: 3332 
/inquire 
recv from player 4444: check
send inquire msg to player 7777 
inquire/ 
4444 20409 8000 716 check 
5555 0 2000 418 all_in 
1111 11 8000 716 fold 
2222 531 8000 50 fold 
8888 686 2000 716 check 
3333 10670 0 716 check 
6666 1950 6078 0 fold 
7777 332 8000 0 fold 
total pot: 3332 
/inquire 
send inquire msg to player 6666 
inquire/ 
7777 332 8000 0 fold 
4444 20409 8000 716 check 
5555 0 2000 418 all_in 
1111 11 8000 716 fold 
2222 531 8000 50 fold 
8888 686 2000 716 check 
3333 10670 0 716 check 
6666 1950 6078 0 fold 
total pot: 3332 
/inquire 
send inquire msg to player 3333 
inquire/ 
6666 1950 6078 0 fold 
7777 332 8000 0 fold 
4444 20409 8000 716 check 
5555 0 2000 418 all_in 
1111 11 8000 716 fold 
2222 531 8000 50 fold 
8888 686 2000 716 check 
3333 10670 0 716 check 
total pot: 3332 
/inquire 
recv from player 3333: check
send inquire msg to player 8888 
inquire/ 
3333 10670 0 716 check 
6666 1950 6078 0 fold 
7777 332 8000 0 fold 
4444 20409 8000 716 check 
5555 0 2000 418 all_in 
1111 11 8000 716 fold 
2222 531 8000 50 fold 
8888 686 2000 716 check 
total pot: 3332 
/inquire 
recv from player 8888: check

---show down---
showdown/ 
common/ 
CLUBS 2 
CLUBS 3 
CLUBS Q 
CLUBS A 
SPADES K 
/common 
3: 5555 HEARTS A DIAMONDS 10 ONE_PAIR 
4: 4444 HEARTS 4 SPADES 10 HIGH_CARD 
1: 3333 HEARTS 10 CLUBS 5 FLUSH 
2: 8888 CLUBS 4 HEARTS J FLUSH 
/showdown 

---Allocate pot---
pot-win/ 
3333: 3332 
/pot-win 
it is player 2222's turn to be button

-----22 Hand-----

----- clean player data in socket -----
seat/ 
button: 2222 531 8000 
small blind: 1111 2000 6011 
big blind: 5555 2000 0 
4444 20409 8000 
7777 332 8000 
6666 1950 6078 
3333 14002 0 
8888 686 2000 
/seat 
blind/ 
1111: 50 
5555: 100 
/blind 
player 1111:hold/ 
CLUBS K 
HEARTS 5 
/hold 
player 5555:hold/ 
DIAMONDS 5 
SPADES Q 
/hold 
player 4444:hold/ 
HEARTS K 
CLUBS A 
/hold 
player 7777:hold/ 
HEARTS 2 
HEARTS Q 
/hold 
player 6666:hold/ 
DIAMONDS J 
CLUBS 6 
/hold 
player 3333:hold/ 
SPADES J 
DIAMONDS 7 
/hold 
player 8888:hold/ 
HEARTS 7 
DIAMONDS 8 
/hold 
player 2222:hold/ 
CLUBS 9 
SPADES 7 
/hold 

---pre flop round bet---
valid player: 8, all in player: 0, fold player: 0
send inquire msg to player 4444 
inquire/ 
5555 1900 0 100 blind 
1111 1950 6011 50 blind 
total pot: 150 
/inquire 
recv from player 4444: check
send inquire msg to player 7777 
inquire/ 
4444 20309 8000 100 call 
5555 1900 0 100 blind 
1111 1950 6011 50 blind 
total pot: 250 
/inquire 
recv from player 7777: fold
send inquire msg to player 6666 
inquire/ 
7777 332 8000 0 fold 
4444 20309 8000 100 call 
5555 1900 0 100 blind 
1111 1950 6011 50 blind 
total pot: 250 
/inquire 
recv from player 6666: check
send inquire msg to player 3333 
inquire/ 
6666 1850 6078 100 call 
7777 332 8000 0 fold 
4444 20309 8000 100 call 
5555 1900 0 100 blind 
1111 1950 6011 50 blind 
total pot: 350 
/inquire 
recv from player 3333: check
send inquire msg to player 8888 
inquire/ 
3333 13902 0 100 call 
6666 1850 6078 100 call 
7777 332 8000 0 fold 
4444 20309 8000 100 call 
5555 1900 0 100 blind 
1111 1950 6011 50 blind 
total pot: 450 
/inquire 
recv from player 8888: check
send inquire msg to player 2222 
inquire/ 
8888 586 2000 100 call 
3333 13902 0 100 call 
6666 1850 6078 100 call 
7777 332 8000 0 fold 
4444 20309 8000 100 call 
5555 1900 0 100 blind 
1111 1950 6011 50 blind 
total pot: 550 
/inquire 
recv from player 2222: fold
send inquire msg to player 1111 
inquire/ 
2222 531 8000 0 fold 
8888 586 2000 100 call 
3333 13902 0 100 call 
6666 1850 6078 100 call 
7777 332 8000 0 fold 
4444 20309 8000 100 call 
5555 1900 0 100 blind 
1111 1950 6011 50 blind 
total pot: 550 
/inquire 
recv from player 1111: check
send inquire msg to player 5555 
inquire/ 
1111 1900 6011 100 call 
2222 531 8000 0 fold 
8888 586 2000 100 call 
3333 13902 0 100 call 
6666 1850 6078 100 call 
7777 332 8000 0 fold 
4444 20309 8000 100 call 
5555 1900 0 100 blind 
total pot: 600 
/inquire 
recv from player 5555: raise 0
send inquire msg to player 4444 
inquire/ 
5555 1800 0 200 raise 
1111 1900 6011 100 call 
2222 531 8000 0 fold 
8888 586 2000 100 call 
3333 13902 0 100 call 
6666 1850 6078 100 call 
7777 332 8000 0 fold 
4444 20309 8000 100 call 
total pot: 700 
/inquire 
recv from player 4444: check
send inquire msg to player 7777 
inquire/ 
4444 20209 8000 200 call 
5555 1800 0 200 raise 
1111 1900 6011 100 call 
2222 531 8000 0 fold 
8888 586 2000 100 call 
3333 13902 0 100 call 
6666 1850 6078 100 call 
7777 332 8000 0 fold 
total pot: 800 
/inquire 
send inquire msg to player 6666 
inquire/ 
7777 332 8000 0 fold 
4444 20209 8000 200 call 
5555 1800 0 200 raise 
1111 1900 6011 100 call 
2222 531 8000 0 fold 
8888 586 2000 100 call 
3333 13902 0 100 call 
6666 1850 6078 100 call 
total pot: 800 
/inquire 
recv from player 6666: check
send inquire msg to player 3333 
inquire/ 
6666 1750 6078 200 call 
7777 332 8000 0 fold 
4444 20209 8000 200 call 
5555 1800 0 200 raise 
1111 1900 6011 100 call 
2222 531 8000 0 fold 
8888 586 2000 100 call 
3333 13902 0 100 call 
total pot: 900 
/inquire 
recv from player 3333: check
send inquire msg to player 8888 
inquire/ 
3333 13802 0 200 call 
6666 1750 6078 200 call 
7777 332 8000 0 fold 
4444 20209 8000 200 call 
5555 1800 0 200 raise 
1111 1900 6011 100 call 
2222 531 8000 0 fold 
8888 586 2000 100 call 
total pot: 1000 
/inquire 
recv from player 8888: check
send inquire msg to player 2222 
inquire/ 
8888 486 2000 200 call 
3333 13802 0 200 call 
6666 1750 6078 200 call 
7777 332 8000 0 fold 
4444 20209 8000 200 call 
5555 1800 0 200 raise 
1111 1900 6011 100 call 
2222 531 8000 0 fold 
total pot: 1100 
/inquire 
send inquire msg to player 1111 
inquire/ 
2222 531 8000 0 fold 
8888 486 2000 200 call 
3333 13802 0 200 call 
6666 1750 6078 200 call 
7777 332 8000 0 fold 
4444 20209 8000 200 call 
5555 1800 0 200 raise 
1111 1900 6011 100 call 
total pot: 1100 
/inquire 
recv from player 1111: check
flop/ 
SPADES 6 
SPADES 2 
CLUBS J 
/flop 

---flop round bet---
valid player: 8, all in player: 0, fold player: 2
send inquire msg to player 1111 
inquire/ 
2222 531 8000 0 fold 
8888 486 2000 200 call 
3333 13802 0 200 call 
6666 1750 6078 200 call 
7777 332 8000 0 fold 
4444 20209 8000 200 call 
5555 1800 0 200 raise 
1111 1800 6011 200 call 
total pot: 1200 
/inquire 
recv from player 1111: fold
send inquire msg to player 5555 
inquire/ 
1111 1800 6011 200 fold 
2222 531 8000 0 fold 
8888 486 2000 200 call 
3333 13802 0 200 call 
6666 1750 6078 200 call 
7777 332 8000 0 fold 
4444 20209 8000 200 call 
5555 1800 0 200 raise 
total pot: 1200 
/inquire 
recv from player 5555: check
send inquire msg to player 4444 
inquire/ 
5555 1800 0 200 check 
1111 1800 6011 200 fold 
2222 531 8000 0 fold 
8888 486 2000 200 call 
3333 13802 0 200 call 
6666 1750 6078 200 call 
7777 332 8000 0 fold 
4444 20209 8000 200 call 
total pot: 1200 
/inquire 
recv from player 4444: check
send inquire msg to player 7777 
inquire/ 
4444 20209 8000 200 check 
5555 1800 0 200 check 
1111 1800 6011 200 fold 
2222 531 8000 0 fold 
8888 486 2000 200 call 
3333 13802 0 200 call 
6666 1750 6078 200 call 
7777 332 8000 0 fold 
total pot: 1200 
/inquire 
send inquire msg to player 6666 
inquire/ 
7777 332 8000 0 fold 
4444 20209 8000 200 check 
5555 1800 0 200 check 
1111 1800 6011 200 fold 
2222 531 8000 0 fold 
8888 486 2000 200 call 
3333 13802 0 200 call 
6666 1750 6078 200 call 
total pot: 1200 
/inquire 
recv from player 6666: raise 573
send inquire msg to player 3333 
inquire/ 
6666 1177 6078 773 raise 
7777 332 8000 0 fold 
4444 20209 8000 200 check 
5555 1800 0 200 check 
1111 1800 6011 200 fold 
2222 531 8000 0 fold 
8888 486 2000 200 call 
3333 13802 0 200 call 
total pot: 1773 
/inquire 
recv from player 3333: check
send inquire msg to player 8888 
inquire/ 
3333 13229 0 773 call 
6666 1177 6078 773 raise 
7777 332 8000 0 fold 
4444 20209 8000 200 check 
5555 1800 0 200 check 
1111 1800 6011 200 fold 
2222 531 8000 0 fold 
8888 486 2000 200 call 
total pot: 2346 
/inquire 
recv from player 8888: check
send inquire msg to player 2222 
inquire/ 
8888 0 2000 686 all_in 
3333 13229 0 773 call 
6666 1177 6078 773 raise 
7777 332 8000 0 fold 
4444 20209 8000 200 check 
5555 1800 0 200 check 
1111 1800 6011 200 fold 
2222 531 8000 0 fold 
total pot: 2832 
/inquire 
send inquire msg to player 1111 
inquire/ 
2222 531 8000 0 fold 
8888 0 2000 686 all_in 
3333 13229 0 773 call 
6666 1177 6078 773 raise 
7777 332 8000 0 fold 
4444 20209 8000 200 check 
5555 1800 0 200 check 
1111 1800 6011 200 fold 
total pot: 2832 
/inquire 
send inquire msg to player 5555 
inquire/ 
1111 1800 6011 200 fold 
2222 531 8000 0 fold 
8888 0 2000 686 all_in 
3333 13229 0 773 call 
6666 1177 6078 773 raise 
7777 332 8000 0 fold 
4444 20209 8000 200 check 
5555 1800 0 200 check 
total pot: 2832 
/inquire 
recv from player 5555: raise 0
send inquire msg to player 4444 
inquire/ 
5555 654 0 1346 raise 
1111 1800 6011 200 fold 
2222 531 8000 0 fold 
8888 0 2000 686 all_in 
3333 13229 0 773 call 
6666 1177 6078 773 raise 
7777 332 8000 0 fold 
4444 20209 8000 200 check 
total pot: 3978 
/inquire 
recv from player 4444: fold
send inquire msg to player 7777 
inquire/ 
4444 20209 8000 200 fold 
5555 654 0 1346 raise 
1111 1800 6011 200 fold 
2222 531 8000 0 fold 
8888 0 2000 686 all_in 
3333 13229 0 773 call 
6666 1177 6078 773 raise 
7777 332 8000 0 fold 
total pot: 3978 
/inquire 
send inquire msg to player 6666 
inquire/ 
7777 332 8000 0 fold 
4444 20209 8000 200 fold 
5555 654 0 1346 raise 
1111 1800 6011 200 fold 
2222 531 8000 0 fold 
8888 0 2000 686 all_in 
3333 13229 0 773 call 
6666 1177 6078 773 raise 
total pot: 3978 
/inquire 
recv from player 6666: fold
send inquire msg to player 3333 
inquire/ 
6666 1177 6078 773 fold 
7777 332 8000 0 fold 
4444 20209 8000 200 fold 
5555 654 0 1346 raise 
1111 1800 6011 200 fold 
2222 531 8000 0 fold 
8888 0 2000 686 all_in 
3333 13229 0 773 call 
total pot: 3978 
/inquire 
recv from player 3333: check
turn/ 
SPADES A 
/turn 

---turn round bet---
valid player: 8, all in player: 1, fold player: 5
send inquire msg to player 1111 
inquire/ 
2222 531 8000 0 fold 
8888 0 2000 686 all_in 
3333 12656 0 1346 call 
6666 1177 6078 773 fold 
7777 332 8000 0 fold 
4444 20209 8000 200 fold 
5555 654 0 1346 raise 
1111 1800 6011 200 fold 
total pot: 4551 
/inquire 
send inquire msg to player 5555 
inquire/ 
1111 1800 6011 200 fold 
2222 531 8000 0 fold 
8888 0 2000 686 all_in 
3333 12656 0 1346 call 
6666 1177 6078 773 fold 
7777 332 8000 0 fold 
4444 20209 8000 200 fold 
5555 654 0 1346 raise 
total pot: 4551 
/inquire 
recv from player 5555: raise 0
send inquire msg to player 4444 
inquire/ 
5555 554 0 1446 raise 
1111 1800 6011 200 fold 
2222 531 8000 0 fold 
8888 0 2000 686 all_in 
3333 12656 0 1346 call 
6666 1177 6078 773 fold 
7777 332 8000 0 fold 
4444 20209 8000 200 fold 
total pot: 4651 
/inquire 
send inquire msg to player 7777 
inquire/ 
4444 20209 8000 200 fold 
5555 554 0 1446 raise 
1111 1800 6011 200 fold 
2222 531 8000 0 fold 
8888 0 2000 686 all_in 
3333 12656 0 1346 call 
6666 1177 6078 773 fold 
7777 332 8000 0 fold 
total pot: 4651 
/inquire 
send inquire msg to player 6666 
inquire/ 
7777 332 8000 0 fold 
4444 20209 8000 200 fold 
5555 554 0 1446 raise 
1111 1800 6011 200 fold 
2222 531 8000 0 fold 
8888 0 2000 686 all_in 
3333 12656 0 1346 call 
6666 1177 6078 773 fold 
total pot: 4651 
/inquire 
send inquire msg to player 3333 
inquire/ 
6666 1177 6078 773 fold 
7777 332 8000 0 fold 
4444 20209 8000 200 fold 
5555 554 0 1446 raise 
1111 1800 6011 200 fold 
2222 531 8000 0 fold 
8888 0 2000 686 all_in 
3333 12656 0 1346 call 
total pot: 4651 
/inquire 
recv from player 3333: check
river/ 
DIAMONDS 2 
/river 

---river round bet---
valid player: 8, all in player: 1, fold player: 5
send inquire msg to player 1111 
inquire/ 
2222 531 8000 0 fold 
8888 0 2000 686 all_in 
3333 12556 0 1446 call 
6666 1177 6078 773 fold 
7777 332 8000 0 fold 
4444 20209 8000 200 fold 
5555 554 0 1446 raise 
1111 1800 6011 200 fold 
total pot: 4751 
/inquire 
send inquire msg to player 5555 
inquire/ 
1111 1800 6011 200 fold 
2222 531 8000 0 fold 
8888 0 2000 686 all_in 
3333 12556 0 1446 call 
6666 1177 6078 773 fold 
7777 332 8000 0 fold 
4444 20209 8000 200 fold 
5555 554 0 1446 raise 
total pot: 4751 
/inquire 
recv from player 5555: raise 0
send inquire msg to player 4444 
inquire/ 
5555 454 0 1546 raise 
1111 1800 6011 200 fold 
2222 531 8000 0 fold 
8888 0 2000 686 all_in 
3333 12556 0 1446 call 
6666 1177 6078 773 fold 
7777 332 8000 0 fold 
4444 20209 8000 200 fold 
total pot: 4851 
/inquire 
send inquire msg to player 7777 
inquire/ 
4444 20209 8000 200 fold 
5555 454 0 1546 raise 
1111 1800 6011 200 fold 
2222 531 8000 0 fold 
8888 0 2000 686 all_in 
3333 12556 0 1446 call 
6666 1177 6078 773 fold 
7777 332 8000 0 fold 
total pot: 4851 
/inquire 
send inquire msg to player 6666 
inquire/ 
7777 332 8000 0 fold 
4444 20209 8000 200 fold 
5555 454 0 1546 raise 
1111 1800 6011 200 fold 
2222 531 8000 0 fold 
8888 0 2000 686 all_in 
3333 12556 0 1446 call 
6666 1177 6078 773 fold 
total pot: 4851 
/inquire 
send inquire msg to player 3333 
inquire/ 
6666 1177 6078 773 fold 
7777 332 8000 0 fold 
4444 20209 8000 200 fold 
5555 454 0 1546 raise 
1111 1800 6011 200 fold 
2222 531 8000 0 fold 
8888 0 2000 686 all_in 
3333 12556 0 1446 call 
total pot: 4851 
/inquire 
recv from player 3333: check

---show down---
showdown/ 
common/ 
SPADES 6 
SPADES 2 
CLUBS J 
SPADES A 
DIAMONDS 2 
/common 
2: 5555 DIAMONDS 5 SPADES Q ONE_PAIR 
1: 3333 SPADES J DIAMONDS 7 TWO_PAIR 
3: 8888 HEARTS 7 DIAMONDS 8 ONE_PAIR 
/showdown 

---Allocate pot---
pot-win/ 
3333: 4951 
/pot-win 
it is player 1111's turn to be button

-----23 Hand-----

----- clean player data in socket -----
seat/ 
button: 1111 1800 6011 
small blind: 5555 454 0 
big blind: 4444 20209 8000 
7777 332 8000 
6666 1177 6078 
3333 17407 0 
8888 2000 0 
2222 531 8000 
/seat 
blind/ 
5555: 50 
4444: 100 
/blind 
player 5555:hold/ 
DIAMONDS 2 
DIAMONDS 10 
/hold 
player 4444:hold/ 
HEARTS J 
HEARTS 2 
/hold 
player 7777:hold/ 
HEARTS 3 
SPADES 4 
/hold 
player 6666:hold/ 
DIAMONDS 6 
HEARTS 8 
/hold 
player 3333:hold/ 
SPADES 5 
HEARTS 6 
/hold 
player 8888:hold/ 
SPADES Q 
DIAMONDS 5 
/hold 
player 2222:hold/ 
CLUBS A 
SPADES 8 
/hold 
player 1111:hold/ 
CLUBS 10 
SPADES 9 
/hold 

---pre flop round bet---
valid player: 8, all in player: 0, fold player: 0
send inquire msg to player 7777 
inquire/ 
4444 20109 8000 100 blind 
5555 404 0 50 blind 
total pot: 150 
/inquire 
recv from player 7777: fold
send inquire msg to player 6666 
inquire/ 
7777 332 8000 0 fold 
4444 20109 8000 100 blind 
5555 404 0 50 blind 
total pot: 150 
/inquire 
recv from player 6666: check
send inquire msg to player 3333 
inquire/ 
6666 1077 6078 100 call 
7777 332 8000 0 fold 
4444 20109 8000 100 blind 
5555 404 0 50 blind 
total pot: 250 
/inquire 
recv from player 3333: check
send inquire msg to player 8888 
inquire/ 
3333 17307 0 100 call 
6666 1077 6078 100 call 
7777 332 8000 0 fold 
4444 20109 8000 100 blind 
5555 404 0 50 blind 
total pot: 350 
/inquire 
recv from player 8888: check
send inquire msg to player 2222 
inquire/ 
8888 1900 0 100 call 
3333 17307 0 100 call 
6666 1077 6078 100 call 
7777 332 8000 0 fold 
4444 20109 8000 100 blind 
5555 404 0 50 blind 
total pot: 450 
/inquire 
recv from player 2222: check
send inquire msg to player 1111 
inquire/ 
2222 431 8000 100 call 
8888 1900 0 100 call 
3333 17307 0 100 call 
6666 1077 6078 100 call 
7777 332 8000 0 fold 
4444 20109 8000 100 blind 
5555 404 0 50 blind 
total pot: 550 
/inquire 
recv from player 1111: fold
send inquire msg to player 5555 
inquire/ 
1111 1800 6011 0 fold 
2222 431 8000 100 call 
8888 1900 0 100 call 
3333 17307 0 100 call 
6666 1077 6078 100 call 
7777 332 8000 0 fold 
4444 20109 8000 100 blind 
5555 404 0 50 blind 
total pot: 550 
/inquire 
recv from player 5555: check
send inquire msg to player 4444 
inquire/ 
5555 354 0 100 call 
1111 1800 6011 0 fold 
2222 431 8000 100 call 
8888 1900 0 100 call 
3333 17307 0 100 call 
6666 1077 6078 100 call 
7777 332 8000 0 fold 
4444 20109 8000 100 blind 
total pot: 600 
/inquire 
recv from player 4444: raise 946
send inquire msg to player 7777 
inquire/ 
4444 19163 8000 1046 raise 
5555 354 0 100 call 
1111 1800 6011 0 fold 
2222 431 8000 100 call 
8888 1900 0 100 call 
3333 17307 0 100 call 
6666 1077 6078 100 call 
7777 332 8000 0 fold 
total pot: 1546 
/inquire 
send inquire msg to player 6666 
inquire/ 
7777 332 8000 0 fold 
4444 19163 8000 1046 raise 
5555 354 0 100 call 
1111 1800 6011 0 fold 
2222 431 8000 100 call 
8888 1900 0 100 call 
3333 17307 0 100 call 
6666 1077 6078 100 call 
total pot: 1546 
/inquire 
recv from player 6666: fold
send inquire msg to player 3333 
inquire/ 
6666 1077 6078 100 fold 
7777 332 8000 0 fold 
4444 19163 8000 1046 raise 
5555 354 0 100 call 
1111 1800 6011 0 fold 
2222 431 8000 100 call 
8888 1900 0 100 call 
3333 17307 0 100 call 
total pot: 1546 
/inquire 
recv from player 3333: check
send inquire msg to player 8888 
inquire/ 
3333 16361 0 1046 call 
6666 1077 6078 100 fold 
7777 332 8000 0 fold 
4444 19163 8000 1046 raise 
5555 354 0 100 call 
1111 1800 6011 0 fold 
2222 431 8000 100 call 
8888 1900 0 100 call 
total pot: 2492 
/inquire 
recv from player 8888: check
send inquire msg to player 2222 
inquire/ 
8888 954 0 1046 call 
3333 16361 0 1046 call 
6666 1077 6078 100 fold 
7777 332 8000 0 fold 
4444 19163 8000 1046 raise 
5555 354 0 100 call 
1111 1800 6011 0 fold 
2222 431 8000 100 call 
total pot: 3438 
/inquire 
recv from player 2222: fold
send inquire msg to player 1111 
inquire/ 
2222 431 8000 100 fold 
8888 954 0 1046 call 
3333 16361 0 1046 call 
6666 1077 6078 100 fold 
7777 332 8000 0 fold 
4444 19163 8000 1046 raise 
5555 354 0 100 call 
1111 1800 6011 0 fold 
total pot: 3438 
/inquire 
send inquire msg to player 5555 
inquire/ 
1111 1800 6011 0 fold 
2222 431 8000 100 fold 
8888 954 0 1046 call 
3333 16361 0 1046 call 
6666 1077 6078 100 fold 
7777 332 8000 0 fold 
4444 19163 8000 1046 raise 
5555 354 0 100 call 
total pot: 3438 
/inquire 
recv from player 5555: raise 0
flop/ 
HEARTS 4 
HEARTS 5 
HEARTS K 
/flop 

---flop round bet---
valid player: 8, all in player: 1, fold player: 4
send inquire msg to player 5555 
inquire/ 
1111 1800 6011 0 fold 
2222 431 8000 100 fold 
8888 954 0 1046 call 
3333 16361 0 1046 call 
6666 1077 6078 100 fold 
7777 332 8000 0 fold 
4444 19163 8000 1046 raise 
5555 0 0 454 all_in 
total pot: 3792 
/inquire 
send inquire msg to player 4444 
inquire/ 
5555 0 0 454 all_in 
1111 1800 6011 0 fold 
2222 431 8000 100 fold 
8888 954 0 1046 call 
3333 16361 0 1046 call 
6666 1077 6078 100 fold 
7777 332 8000 0 fold 
4444 19163 8000 1046 raise 
total pot: 3792 
/inquire 
recv from player 4444: raise 9600
send inquire msg to player 7777 
inquire/ 
4444 9563 8000 10646 raise 
5555 0 0 454 all_in 
1111 1800 6011 0 fold 
2222 431 8000 100 fold 
8888 954 0 1046 call 
3333 16361 0 1046 call 
6666 1077 6078 100 fold 
7777 332 8000 0 fold 
total pot: 13392 
/inquire 
send inquire msg to player 6666 
inquire/ 
7777 332 8000 0 fold 
4444 9563 8000 10646 raise 
5555 0 0 454 all_in 
1111 1800 6011 0 fold 
2222 431 8000 100 fold 
8888 954 0 1046 call 
3333 16361 0 1046 call 
6666 1077 6078 100 fold 
total pot: 13392 
/inquire 
send inquire msg to player 3333 
inquire/ 
6666 1077 6078 100 fold 
7777 332 8000 0 fold 
4444 9563 8000 10646 raise 
5555 0 0 454 all_in 
1111 1800 6011 0 fold 
2222 431 8000 100 fold 
8888 954 0 1046 call 
3333 16361 0 1046 call 
total pot: 13392 
/inquire 
recv from player 3333: check
send inquire msg to player 8888 
inquire/ 
3333 6761 0 10646 call 
6666 1077 6078 100 fold 
7777 332 8000 0 fold 
4444 9563 8000 10646 raise 
5555 0 0 454 all_in 
1111 1800 6011 0 fold 
2222 431 8000 100 fold 
8888 954 0 1046 call 
total pot: 22992 
/inquire 
recv from player 8888: check
turn/ 
DIAMONDS 9 
/turn 

---turn round bet---
valid player: 8, all in player: 2, fold player: 4
send inquire msg to player 5555 
inquire/ 
1111 1800 6011 0 fold 
2222 431 8000 100 fold 
8888 0 0 2000 all_in 
3333 6761 0 10646 call 
6666 1077 6078 100 fold 
7777 332 8000 0 fold 
4444 9563 8000 10646 raise 
5555 0 0 454 all_in 
total pot: 23946 
/inquire 
send inquire msg to player 4444 
inquire/ 
5555 0 0 454 all_in 
1111 1800 6011 0 fold 
2222 431 8000 100 fold 
8888 0 0 2000 all_in 
3333 6761 0 10646 call 
6666 1077 6078 100 fold 
7777 332 8000 0 fold 
4444 9563 8000 10646 raise 
total pot: 23946 
/inquire 
recv from player 4444: fold
send inquire msg to player 7777 
inquire/ 
4444 9563 8000 10646 fold 
5555 0 0 454 all_in 
1111 1800 6011 0 fold 
2222 431 8000 100 fold 
8888 0 0 2000 all_in 
3333 6761 0 10646 call 
6666 1077 6078 100 fold 
7777 332 8000 0 fold 
total pot: 23946 
/inquire 
send inquire msg to player 6666 
inquire/ 
7777 332 8000 0 fold 
4444 9563 8000 10646 fold 
5555 0 0 454 all_in 
1111 1800 6011 0 fold 
2222 431 8000 100 fold 
8888 0 0 2000 all_in 
3333 6761 0 10646 call 
6666 1077 6078 100 fold 
total pot: 23946 
/inquire 
send inquire msg to player 3333 
inquire/ 
6666 1077 6078 100 fold 
7777 332 8000 0 fold 
4444 9563 8000 10646 fold 
5555 0 0 454 all_in 
1111 1800 6011 0 fold 
2222 431 8000 100 fold 
8888 0 0 2000 all_in 
3333 6761 0 10646 call 
total pot: 23946 
/inquire 
recv from player 3333: check
river/ 
SPADES 2 
/river 

---river round bet---
valid player: 8, all in player: 2, fold player: 5

---show down---
showdown/ 
common/ 
HEARTS 4 
HEARTS 5 
HEARTS K 
DIAMONDS 9 
SPADES 2 
/common 
3: 5555 DIAMONDS 2 DIAMONDS 10 ONE_PAIR 
2: 3333 SPADES 5 HEARTS 6 ONE_PAIR 
1: 8888 SPADES Q DIAMONDS 5 ONE_PAIR 
/showdown 

---Allocate pot---
pot-win/ 
8888: 15300 
3333: 8646 
/pot-win 
it is player 4444's turn to be button

-----24 Hand-----

----- clean player data in socket -----
seat/ 
button: 4444 9563 8000 
small blind: 7777 332 8000 
big blind: 6666 1077 6078 
3333 15407 0 
8888 15300 0 
2222 431 8000 
1111 1800 6011 
/seat 
blind/ 
7777: 50 
6666: 100 
/blind 
player 7777:hold/ 
SPADES 10 
HEARTS K 
/hold 
player 6666:hold/ 
CLUBS 4 
DIAMONDS 7 
/hold 
player 3333:hold/ 
CLUBS 8 
HEARTS 2 
/hold 
player 8888:hold/ 
HEARTS 9 
CLUBS 5 
/hold 
player 2222:hold/ 
DIAMONDS 4 
DIAMONDS A 
/hold 
player 1111:hold/ 
SPADES 6 
SPADES A 
/hold 
player 4444:hold/ 
SPADES 9 
SPADES K 
/hold 

---pre flop round bet---
valid player: 7, all in player: 0, fold player: 0
send inquire msg to player 3333 
inquire/ 
6666 977 6078 100 blind 
7777 282 8000 50 blind 
total pot: 150 
/inquire 
recv from player 3333: check
send inquire msg to player 8888 
inquire/ 
3333 15307 0 100 call 
6666 977 6078 100 blind 
7777 282 8000 50 blind 
total pot: 250 
/inquire 
recv from player 8888: check
send inquire msg to player 2222 
inquire/ 
8888 15200 0 100 call 
3333 15307 0 100 call 
6666 977 6078 100 blind 
7777 282 8000 50 blind 
total pot: 350 
/inquire 
recv from player 2222: fold
send inquire msg to player 1111 
inquire/ 
2222 431 8000 0 fold 
8888 15200 0 100 call 
3333 15307 0 100 call 
6666 977 6078 100 blind 
7777 282 8000 50 blind 
total pot: 350 
/inquire 
recv from player 1111: fold
send inquire msg to player 4444 
inquire/ 
1111 1800 6011 0 fold 
2222 431 8000 0 fold 
8888 15200 0 100 call 
3333 15307 0 100 call 
6666 977 6078 100 blind 
7777 282 8000 50 blind 
total pot: 350 
/inquire 
recv from player 4444: raise 999
send inquire msg to player 7777 
inquire/ 
4444 8464 8000 1099 raise 
1111 1800 6011 0 fold 
2222 431 8000 0 fold 
8888 15200 0 100 call 
3333 15307 0 100 call 
6666 977 6078 100 blind 
7777 282 8000 50 blind 
total pot: 1449 
/inquire 
recv from player 7777: fold
send inquire msg to player 6666 
inquire/ 
7777 282 8000 50 fold 
4444 8464 8000 1099 raise 
1111 1800 6011 0 fold 
2222 431 8000 0 fold 
8888 15200 0 100 call 
3333 15307 0 100 call 
6666 977 6078 100 blind 
total pot: 1449 
/inquire 
recv from player 6666: fold
send inquire msg to player 3333 
inquire/ 
6666 977 6078 100 fold 
7777 282 8000 50 fold 
4444 8464 8000 1099 raise 
1111 1800 6011 0 fold 
2222 431 8000 0 fold 
8888 15200 0 100 call 
3333 15307 0 100 call 
total pot: 1449 
/inquire 
recv from player 3333: check
send inquire msg to player 8888 
inquire/ 
3333 14308 0 1099 call 
6666 977 6078 100 fold 
7777 282 8000 50 fold 
4444 8464 8000 1099 raise 
1111 1800 6011 0 fold 
2222 431 8000 0 fold 
8888 15200 0 100 call 
total pot: 2448 
/inquire 
recv from player 8888: check
flop/ 
CLUBS 10 
SPADES 3 
DIAMONDS 2 
/flop 

---flop round bet---
valid player: 7, all in player: 0, fold player: 4
send inquire msg to player 7777 
inquire/ 
4444 8464 8000 1099 raise 
1111 1800 6011 0 fold 
2222 431 8000 0 fold 
8888 14201 0 1099 call 
3333 14308 0 1099 call 
6666 977 6078 100 fold 
7777 282 8000 50 fold 
total pot: 3447 
/inquire 
send inquire msg to player 6666 
inquire/ 
7777 282 8000 50 fold 
4444 8464 8000 1099 raise 
1111 1800 6011 0 fold 
2222 431 8000 0 fold 
8888 14201 0 1099 call 
3333 14308 0 1099 call 
6666 977 6078 100 fold 
total pot: 3447 
/inquire 
send inquire msg to player 3333 
inquire/ 
6666 977 6078 100 fold 
7777 282 8000 50 fold 
4444 8464 8000 1099 raise 
1111 1800 6011 0 fold 
2222 431 8000 0 fold 
8888 14201 0 1099 call 
3333 14308 0 1099 call 
total pot: 3447 
/inquire 
recv from player 3333: check
send inquire msg to player 8888 
inquire/ 
3333 14308 0 1099 check 
6666 977 6078 100 fold 
7777 282 8000 50 fold 
4444 8464 8000 1099 raise 
1111 1800 6011 0 fold 
2222 431 8000 0 fold 
8888 14201 0 1099 call 
total pot: 3447 
/inquire 
recv from player 8888: check
send inquire msg to player 2222 
inquire/ 
8888 14201 0 1099 check 
3333 14308 0 1099 check 
6666 977 6078 100 fold 
7777 282 8000 50 fold 
4444 8464 8000 1099 raise 
1111 1800 6011 0 fold 
2222 431 8000 0 fold 
total pot: 3447 
/inquire 
send inquire msg to player 1111 
inquire/ 
2222 431 8000 0 fold 
8888 14201 0 1099 check 
3333 14308 0 1099 check 
6666 977 6078 100 fold 
7777 282 8000 50 fold 
4444 8464 8000 1099 raise 
1111 1800 6011 0 fold 
total pot: 3447 
/inquire 
send inquire msg to player 4444 
inquire/ 
1111 1800 6011 0 fold 
2222 431 8000 0 fold 
8888 14201 0 1099 check 
3333 14308 0 1099 check 
6666 977 6078 100 fold 
7777 282 8000 50 fold 
4444 8464 8000 1099 raise 
total pot: 3447 
/inquire 
recv from player 4444: check
turn/ 
HEARTS A 
/turn 

---turn round bet---
valid player: 7, all in player: 0, fold player: 4
send inquire msg to player 7777 
inquire/ 
4444 8464 8000 1099 check 
1111 1800 6011 0 fold 
2222 431 8000 0 fold 
8888 14201 0 1099 check 
3333 14308 0 1099 check 
6666 977 6078 100 fold 
7777 282 8000 50 fold 
total pot: 3447 
/inquire 
send inquire msg to player 6666 
inquire/ 
7777 282 8000 50 fold 
4444 8464 8000 1099 check 
1111 1800 6011 0 fold 
2222 431 8000 0 fold 
8888 14201 0 1099 check 
3333 14308 0 1099 check 
6666 977 6078 100 fold 
total pot: 3447 
/inquire 
send inquire msg to player 3333 
inquire/ 
6666 977 6078 100 fold 
7777 282 8000 50 fold 
4444 8464 8000 1099 check 
1111 1800 6011 0 fold 
2222 431 8000 0 fold 
8888 14201 0 1099 check 
3333 14308 0 1099 check 
total pot: 3447 
/inquire 
recv from player 3333: check
send inquire msg to player 8888 
inquire/ 
3333 14308 0 1099 check 
6666 977 6078 100 fold 
7777 282 8000 50 fold 
4444 8464 8000 1099 check 
1111 1800 6011 0 fold 
2222 431 8000 0 fold 
8888 14201 0 1099 check 
total pot: 3447 
/inquire 
recv from player 8888: check
send inquire msg to player 2222 
inquire/ 
8888 14201 0 1099 check 
3333 14308 0 1099 check 
6666 977 6078 100 fold 
7777 282 8000 50 fold 
4444 8464 8000 1099 check 
1111 1800 6011 0 fold 
2222 431 8000 0 fold 
total pot: 3447 
/inquire 
send inquire msg to player 1111 
inquire/ 
2222 431 8000 0 fold 
8888 14201 0 1099 check 
3333 14308 0 1099 check 
6666 977 6078 100 fold 
7777 282 8000 50 fold 
4444 8464 8000 1099 check 
1111 1800 6011 0 fold 
total pot: 3447 
/inquire 
send inquire msg to player 4444 
inquire/ 
1111 1800 6011 0 fold 
2222 431 8000 0 fold 
8888 14201 0 1099 check 
3333 14308 0 1099 check 
6666 977 6078 100 fold 
7777 282 8000 50 fold 
4444 8464 8000 1099 check 
total pot: 3447 
/inquire 
recv from player 4444: check
river/ 
HEARTS 6 
/river 

---river round bet---
valid player: 7, all in player: 0, fold player: 4
send inquire msg to player 7777 
inquire/ 
4444 8464 8000 1099 check 
1111 1800 6011 0 fold 
2222 431 8000 0 fold 
8888 14201 0 1099 check 
3333 14308 0 1099 check 
6666 977 6078 100 fold 
7777 282 8000 50 fold 
total pot: 3447 
/inquire 
send inquire msg to player 6666 
inquire/ 
7777 282 8000 50 fold 
4444 8464 8000 1099 check 
1111 1800 6011 0 fold 
2222 431 8000 0 fold 
8888 14201 0 1099 check 
3333 14308 0 1099 check 
6666 977 6078 100 fold 
total pot: 3447 
/inquire 
send inquire msg to player 3333 
inquire/ 
6666 977 6078 100 fold 
7777 282 8000 50 fold 
4444 8464 8000 1099 check 
1111 1800 6011 0 fold 
2222 431 8000 0 fold 
8888 14201 0 1099 check 
3333 14308 0 1099 check 
total pot: 3447 
/inquire 
recv from player 3333: check
send inquire msg to player 8888 
inquire/ 
3333 14308 0 1099 check 
6666 977 6078 100 fold 
7777 282 8000 50 fold 
4444 8464 8000 1099 check 
1111 1800 6011 0 fold 
2222 431 8000 0 fold 
8888 14201 0 1099 check 
total pot: 3447 
/inquire 
recv from player 8888: check
send inquire msg to player 2222 
inquire/ 
8888 14201 0 1099 check 
3333 14308 0 1099 check 
6666 977 6078 100 fold 
7777 282 8000 50 fold 
4444 8464 8000 1099 check 
1111 1800 6011 0 fold 
2222 431 8000 0 fold 
total pot: 3447 
/inquire 
send inquire msg to player 1111 
inquire/ 
2222 431 8000 0 fold 
8888 14201 0 1099 check 
3333 14308 0 1099 check 
6666 977 6078 100 fold 
7777 282 8000 50 fold 
4444 8464 8000 1099 check 
1111 1800 6011 0 fold 
total pot: 3447 
/inquire 
send inquire msg to player 4444 
inquire/ 
1111 1800 6011 0 fold 
2222 431 8000 0 fold 
8888 14201 0 1099 check 
3333 14308 0 1099 check 
6666 977 6078 100 fold 
7777 282 8000 50 fold 
4444 8464 8000 1099 check 
total pot: 3447 
/inquire 
recv from player 4444: check

---show down---
showdown/ 
common/ 
CLUBS 10 
SPADES 3 
DIAMONDS 2 
HEARTS A 
HEARTS 6 
/common 
1: 3333 CLUBS 8 HEARTS 2 ONE_PAIR 
3: 8888 HEARTS 9 CLUBS 5 HIGH_CARD 
2: 4444 SPADES 9 SPADES K HIGH_CARD 
/showdown 

---Allocate pot---
pot-win/ 
3333: 3447 
/pot-win 
it is player 7777's turn to be button

-----25 Hand-----

----- clean player data in socket -----
seat/ 
button: 7777 282 8000 
small blind: 6666 977 6078 
big blind: 3333 17755 0 
8888 14201 0 
2222 431 8000 
1111 1800 6011 
4444 8464 8000 
/seat 
blind/ 
6666: 50 
3333: 100 
/blind 
player 6666:hold/ 
HEARTS 2 
SPADES 10 
/hold 
player 3333:hold/ 
SPADES 6 
DIAMONDS 8 
/hold 
player 8888:hold/ 
HEARTS A 
SPADES 2 
/hold 
player 2222:hold/ 
DIAMONDS 4 
DIAMONDS 3 
/hold 
player 1111:hold/ 
HEARTS 4 
SPADES 7 
/hold 
player 4444:hold/ 
HEARTS 9 
DIAMONDS 2 
/hold 
player 7777:hold/ 
CLUBS 5 
CLUBS A 
/hold 

---pre flop round bet---
valid player: 7, all in player: 0, fold player: 0
send inquire msg to player 8888 
inquire/ 
3333 17655 0 100 blind 
6666 927 6078 50 blind 
total pot: 150 
/inquire 
recv from player 8888: check
send inquire msg to player 2222 
inquire/ 
8888 14101 0 100 call 
3333 17655 0 100 blind 
6666 927 6078 50 blind 
total pot: 250 
/inquire 
recv from player 2222: check
send inquire msg to player 1111 
inquire/ 
2222 331 8000 100 call 
8888 14101 0 100 call 
3333 17655 0 100 blind 
6666 927 6078 50 blind 
total pot: 350 
/inquire 
recv from player 1111: fold
send inquire msg to player 4444 
inquire/ 
1111 1800 6011 0 fold 
2222 331 8000 100 call 
8888 14101 0 100 call 
3333 17655 0 100 blind 
6666 927 6078 50 blind 
total pot: 350 
/inquire 
recv from player 4444: fold
send inquire msg to player 7777 
inquire/ 
4444 8464 8000 0 fold 
1111 1800 6011 0 fold 
2222 331 8000 100 call 
8888 14101 0 100 call 
3333 17655 0 100 blind 
6666 927 6078 50 blind 
total pot: 350 
/inquire 
recv from player 7777: fold
send inquire msg to player 6666 
inquire/ 
7777 282 8000 0 fold 
4444 8464 8000 0 fold 
1111 1800 6011 0 fold 
2222 331 8000 100 call 
8888 14101 0 100 call 
3333 17655 0 100 blind 
6666 927 6078 50 blind 
total pot: 350 
/inquire 
recv from player 6666: check
send inquire msg to player 3333 
inquire/ 
6666 877 6078 100 call 
7777 282 8000 0 fold 
4444 8464 8000 0 fold 
1111 1800 6011 0 fold 
2222 331 8000 100 call 
8888 14101 0 100 call 
3333 17655 0 100 blind 
total pot: 400 
/inquire 
recv from player 3333: check
flop/ 
DIAMONDS 7 
CLUBS 10 
DIAMONDS K 
/flop 

---flop round bet---
valid player: 7, all in player: 0, fold player: 3
send inquire msg to player 6666 
inquire/ 
7777 282 8000 0 fold 
4444 8464 8000 0 fold 
1111 1800 6011 0 fold 
2222 331 8000 100 call 
8888 14101 0 100 call 
3333 17655 0 100 check 
6666 877 6078 100 call 
total pot: 400 
/inquire 
recv from player 6666: check
send inquire msg to player 3333 
inquire/ 
6666 877 6078 100 check 
7777 282 8000 0 fold 
4444 8464 8000 0 fold 
1111 1800 6011 0 fold 
2222 331 8000 100 call 
8888 14101 0 100 call 
3333 17655 0 100 check 
total pot: 400 
/inquire 
recv from player 3333: check
send inquire msg to player 8888 
inquire/ 
3333 17655 0 100 check 
6666 877 6078 100 check 
7777 282 8000 0 fold 
4444 8464 8000 0 fold 
1111 1800 6011 0 fold 
2222 331 8000 100 call 
8888 14101 0 100 call 
total pot: 400 
/inquire 
recv from player 8888: check
send inquire msg to player 2222 
inquire/ 
8888 14101 0 100 check 
3333 17655 0 100 check 
6666 877 6078 100 check 
7777 282 8000 0 fold 
4444 8464 8000 0 fold 
1111 1800 6011 0 fold 
2222 331 8000 100 call 
total pot: 400 
/inquire 
recv from player 2222: fold
turn/ 
HEARTS J 
/turn 

---turn round bet---
valid player: 7, all in player: 0, fold player: 4
send inquire msg to player 6666 
inquire/ 
7777 282 8000 0 fold 
4444 8464 8000 0 fold 
1111 1800 6011 0 fold 
2222 331 8000 100 fold 
8888 14101 0 100 check 
3333 17655 0 100 check 
6666 877 6078 100 check 
total pot: 400 
/inquire 
recv from player 6666: check
send inquire msg to player 3333 
inquire/ 
6666 877 6078 100 check 
7777 282 8000 0 fold 
4444 8464 8000 0 fold 
1111 1800 6011 0 fold 
2222 331 8000 100 fold 
8888 14101 0 100 check 
3333 17655 0 100 check 
total pot: 400 
/inquire 
recv from player 3333: check
send inquire msg to player 8888 
inquire/ 
3333 17655 0 100 check 
6666 877 6078 100 check 
7777 282 8000 0 fold 
4444 8464 8000 0 fold 
1111 1800 6011 0 fold 
2222 331 8000 100 fold 
8888 14101 0 100 check 
total pot: 400 
/inquire 
recv from player 8888: check
river/ 
HEARTS Q 
/river 

---river round bet---
valid player: 7, all in player: 0, fold player: 4
send inquire msg to player 6666 
inquire/ 
7777 282 8000 0 fold 
4444 8464 8000 0 fold 
1111 1800 6011 0 fold 
2222 331 8000 100 fold 
8888 14101 0 100 check 
3333 17655 0 100 check 
6666 877 6078 100 check 
total pot: 400 
/inquire 
recv from player 6666: check
send inquire msg to player 3333 
inquire/ 
6666 877 6078 100 check 
7777 282 8000 0 fold 
4444 8464 8000 0 fold 
1111 1800 6011 0 fold 
2222 331 8000 100 fold 
8888 14101 0 100 check 
3333 17655 0 100 check 
total pot: 400 
/inquire 
recv from player 3333: check
send inquire msg to player 8888 
inquire/ 
3333 17655 0 100 check 
6666 877 6078 100 check 
7777 282 8000 0 fold 
4444 8464 8000 0 fold 
1111 1800 6011 0 fold 
2222 331 8000 100 fold 
8888 14101 0 100 check 
total pot: 400 
/inquire 
recv from player 8888: check

---show down---
showdown/ 
common/ 
DIAMONDS 7 
CLUBS 10 
DIAMONDS K 
HEARTS J 
HEARTS Q 
/common 
2: 6666 HEARTS 2 SPADES 10 ONE_PAIR 
3: 3333 SPADES 6 DIAMONDS 8 HIGH_CARD 
1: 8888 HEARTS A SPADES 2 STRAIGHT 
/showdown 

---Allocate pot---
pot-win/ 
8888: 400 
/pot-win 
it is player 6666's turn to be button

-----26 Hand-----

----- clean player data in socket -----
seat/ 
button: 6666 877 6078 
small blind: 3333 17655 0 
big blind: 8888 14501 0 
2222 331 8000 
1111 1800 6011 
4444 8464 8000 
7777 282 8000 
/seat 
blind/ 
3333: 50 
8888: 100 
/blind 
player 3333:hold/ 
CLUBS 7 
CLUBS A 
/hold 
player 8888:hold/ 
SPADES 9 
SPADES 3 
/hold 
player 2222:hold/ 
DIAMONDS 4 
DIAMONDS 3 
/hold 
player 1111:hold/ 
CLUBS Q 
HEARTS 6 
/hold 
player 4444:hold/ 
CLUBS K 
CLUBS 10 
/hold 
player 7777:hold/ 
HEARTS K 
SPADES 2 
/hold 
player 6666:hold/ 
CLUBS 2 
HEARTS 10 
/hold 

---pre flop round bet---
valid player: 7, all in player: 0, fold player: 0
send inquire msg to player 2222 
inquire/ 
8888 14401 0 100 blind 
3333 17605 0 50 blind 
total pot: 150 
/inquire 
recv from player 2222: fold
send inquire msg to player 1111 
inquire/ 
2222 331 8000 0 fold 
8888 14401 0 100 blind 
3333 17605 0 50 blind 
total pot: 150 
/inquire 
recv from player 1111: fold
send inquire msg to player 4444 
inquire/ 
1111 1800 6011 0 fold 
2222 331 8000 0 fold 
8888 14401 0 100 blind 
3333 17605 0 50 blind 
total pot: 150 
/inquire 
recv from player 4444: check
send inquire msg to player 7777 
inquire/ 
4444 8364 8000 100 call 
1111 1800 6011 0 fold 
2222 331 8000 0 fold 
8888 14401 0 100 blind 
3333 17605 0 50 blind 
total pot: 250 
/inquire 
recv from player 7777: fold
send inquire msg to player 6666 
inquire/ 
7777 282 8000 0 fold 
4444 8364 8000 100 call 
1111 1800 6011 0 fold 
2222 331 8000 0 fold 
8888 14401 0 100 blind 
3333 17605 0 50 blind 
total pot: 250 
/inquire 
recv from player 6666: fold
send inquire msg to player 3333 
inquire/ 
6666 877 6078 0 fold 
7777 282 8000 0 fold 
4444 8364 8000 100 call 
1111 1800 6011 0 fold 
2222 331 8000 0 fold 
8888 14401 0 100 blind 
3333 17605 0 50 blind 
total pot: 250 
/inquire 
recv from player 3333: check
send inquire msg to player 8888 
inquire/ 
3333 17555 0 100 call 
6666 877 6078 0 fold 
7777 282 8000 0 fold 
4444 8364 8000 100 call 
1111 1800 6011 0 fold 
2222 331 8000 0 fold 
8888 14401 0 100 blind 
total pot: 300 
/inquire 
recv from player 8888: check
flop/ 
HEARTS 8 
CLUBS 8 
CLUBS 5 
/flop 

---flop round bet---
valid player: 7, all in player: 0, fold player: 4
send inquire msg to player 3333 
inquire/ 
6666 877 6078 0 fold 
7777 282 8000 0 fold 
4444 8364 8000 100 call 
1111 1800 6011 0 fold 
2222 331 8000 0 fold 
8888 14401 0 100 check 
3333 17555 0 100 call 
total pot: 300 
/inquire 
recv from player 3333: check
send inquire msg to player 8888 
inquire/ 
3333 17555 0 100 check 
6666 877 6078 0 fold 
7777 282 8000 0 fold 
4444 8364 8000 100 call 
1111 1800 6011 0 fold 
2222 331 8000 0 fold 
8888 14401 0 100 check 
total pot: 300 
/inquire 
recv from player 8888: check
send inquire msg to player 2222 
inquire/ 
8888 14401 0 100 check 
3333 17555 0 100 check 
6666 877 6078 0 fold 
7777 282 8000 0 fold 
4444 8364 8000 100 call 
1111 1800 6011 0 fold 
2222 331 8000 0 fold 
total pot: 300 
/inquire 
send inquire msg to player 1111 
inquire/ 
2222 331 8000 0 fold 
8888 14401 0 100 check 
3333 17555 0 100 check 
6666 877 6078 0 fold 
7777 282 8000 0 fold 
4444 8364 8000 100 call 
1111 1800 6011 0 fold 
total pot: 300 
/inquire 
send inquire msg to player 4444 
inquire/ 
1111 1800 6011 0 fold 
2222 331 8000 0 fold 
8888 14401 0 100 check 
3333 17555 0 100 check 
6666 877 6078 0 fold 
7777 282 8000 0 fold 
4444 8364 8000 100 call 
total pot: 300 
/inquire 
recv from player 4444: raise 1181
send inquire msg to player 7777 
inquire/ 
4444 7183 8000 1281 raise 
1111 1800 6011 0 fold 
2222 331 8000 0 fold 
8888 14401 0 100 check 
3333 17555 0 100 check 
6666 877 6078 0 fold 
7777 282 8000 0 fold 
total pot: 1481 
/inquire 
send inquire msg to player 6666 
inquire/ 
7777 282 8000 0 fold 
4444 7183 8000 1281 raise 
1111 1800 6011 0 fold 
2222 331 8000 0 fold 
8888 14401 0 100 check 
3333 17555 0 100 check 
6666 877 6078 0 fold 
total pot: 1481 
/inquire 
send inquire msg to player 3333 
inquire/ 
6666 877 6078 0 fold 
7777 282 8000 0 fold 
4444 7183 8000 1281 raise 
1111 1800 6011 0 fold 
2222 331 8000 0 fold 
8888 14401 0 100 check 
3333 17555 0 100 check 
total pot: 1481 
/inquire 
recv from player 3333: check
send inquire msg to player 8888 
inquire/ 
3333 16374 0 1281 call 
6666 877 6078 0 fold 
7777 282 8000 0 fold 
4444 7183 8000 1281 raise 
1111 1800 6011 0 fold 
2222 331 8000 0 fold 
8888 14401 0 100 check 
total pot: 2662 
/inquire 
recv from player 8888: check
turn/ 
CLUBS J 
/turn 

---turn round bet---
valid player: 7, all in player: 0, fold player: 4
send inquire msg to player 3333 
inquire/ 
6666 877 6078 0 fold 
7777 282 8000 0 fold 
4444 7183 8000 1281 raise 
1111 1800 6011 0 fold 
2222 331 8000 0 fold 
8888 13220 0 1281 call 
3333 16374 0 1281 call 
total pot: 3843 
/inquire 
recv from player 3333: check
send inquire msg to player 8888 
inquire/ 
3333 16374 0 1281 check 
6666 877 6078 0 fold 
7777 282 8000 0 fold 
4444 7183 8000 1281 raise 
1111 1800 6011 0 fold 
2222 331 8000 0 fold 
8888 13220 0 1281 call 
total pot: 3843 
/inquire 
recv from player 8888: check
send inquire msg to player 2222 
inquire/ 
8888 13220 0 1281 check 
3333 16374 0 1281 check 
6666 877 6078 0 fold 
7777 282 8000 0 fold 
4444 7183 8000 1281 raise 
1111 1800 6011 0 fold 
2222 331 8000 0 fold 
total pot: 3843 
/inquire 
send inquire msg to player 1111 
inquire/ 
2222 331 8000 0 fold 
8888 13220 0 1281 check 
3333 16374 0 1281 check 
6666 877 6078 0 fold 
7777 282 8000 0 fold 
4444 7183 8000 1281 raise 
1111 1800 6011 0 fold 
total pot: 3843 
/inquire 
send inquire msg to player 4444 
inquire/ 
1111 1800 6011 0 fold 
2222 331 8000 0 fold 
8888 13220 0 1281 check 
3333 16374 0 1281 check 
6666 877 6078 0 fold 
7777 282 8000 0 fold 
4444 7183 8000 1281 raise 
total pot: 3843 
/inquire 
recv from player 4444: check
river/ 
HEARTS 7 
/river 

---river round bet---
valid player: 7, all in player: 0, fold player: 4
send inquire msg to player 3333 
inquire/ 
6666 877 6078 0 fold 
7777 282 8000 0 fold 
4444 7183 8000 1281 check 
1111 1800 6011 0 fold 
2222 331 8000 0 fold 
8888 13220 0 1281 check 
3333 16374 0 1281 check 
total pot: 3843 
/inquire 
recv from player 3333: check
send inquire msg to player 8888 
inquire/ 
3333 16374 0 1281 check 
6666 877 6078 0 fold 
7777 282 8000 0 fold 
4444 7183 8000 1281 check 
1111 1800 6011 0 fold 
2222 331 8000 0 fold 
8888 13220 0 1281 check 
total pot: 3843 
/inquire 
recv from player 8888: check
send inquire msg to player 2222 
inquire/ 
8888 13220 0 1281 check 
3333 16374 0 1281 check 
6666 877 6078 0 fold 
7777 282 8000 0 fold 
4444 7183 8000 1281 check 
1111 1800 6011 0 fold 
2222 331 8000 0 fold 
total pot: 3843 
/inquire 
send inquire msg to player 1111 
inquire/ 
2222 331 8000 0 fold 
8888 13220 0 1281 check 
3333 16374 0 1281 check 
6666 877 6078 0 fold 
7777 282 8000 0 fold 
4444 7183 8000 1281 check 
1111 1800 6011 0 fold 
total pot: 3843 
/inquire 
send inquire msg to player 4444 
inquire/ 
1111 1800 6011 0 fold 
2222 331 8000 0 fold 
8888 13220 0 1281 check 
3333 16374 0 1281 check 
6666 877 6078 0 fold 
7777 282 8000 0 fold 
4444 7183 8000 1281 check 
total pot: 3843 
/inquire 
recv from player 4444: check

---show down---
showdown/ 
common/ 
HEARTS 8 
CLUBS 8 
CLUBS 5 
CLUBS J 
HEARTS 7 
/common 
1: 3333 CLUBS 7 CLUBS A FLUSH 
3: 8888 SPADES 9 SPADES 3 ONE_PAIR 
2: 4444 CLUBS K CLUBS 10 FLUSH 
/showdown 

---Allocate pot---
pot-win/ 
3333: 3843 
/pot-win 
it is player 3333's turn to be button

-----27 Hand-----

----- clean player data in socket -----
seat/ 
button: 3333 20217 0 
small blind: 8888 13220 0 
big blind: 2222 331 8000 
1111 1800 6011 
4444 7183 8000 
7777 282 8000 
6666 877 6078 
/seat 
blind/ 
8888: 50 
2222: 100 
/blind 
player 8888:hold/ 
DIAMONDS 5 
CLUBS K 
/hold 
player 2222:hold/ 
CLUBS 7 
HEARTS Q 
/hold 
player 1111:hold/ 
CLUBS 10 
SPADES 3 
/hold 
player 4444:hold/ 
SPADES 8 
SPADES 6 
/hold 
player 7777:hold/ 
HEARTS K 
CLUBS 6 
/hold 
player 6666:hold/ 
DIAMONDS 4 
HEARTS 3 
/hold 
player 3333:hold/ 
HEARTS 6 
DIAMONDS 2 
/hold 

---pre flop round bet---
valid player: 7, all in player: 0, fold player: 0
send inquire msg to player 1111 
inquire/ 
2222 231 8000 100 blind 
8888 13170 0 50 blind 
total pot: 150 
/inquire 
recv from player 1111: check
send inquire msg to player 4444 
inquire/ 
1111 1700 6011 100 call 
2222 231 8000 100 blind 
8888 13170 0 50 blind 
total pot: 250 
/inquire 
recv from player 4444: raise 536
send inquire msg to player 7777 
inquire/ 
4444 6547 8000 636 raise 
1111 1700 6011 100 call 
2222 231 8000 100 blind 
8888 13170 0 50 blind 
total pot: 886 
/inquire 
recv from player 7777: fold
send inquire msg to player 6666 
inquire/ 
7777 282 8000 0 fold 
4444 6547 8000 636 raise 
1111 1700 6011 100 call 
2222 231 8000 100 blind 
8888 13170 0 50 blind 
total pot: 886 
/inquire 
recv from player 6666: fold
send inquire msg to player 3333 
inquire/ 
6666 877 6078 0 fold 
7777 282 8000 0 fold 
4444 6547 8000 636 raise 
1111 1700 6011 100 call 
2222 231 8000 100 blind 
8888 13170 0 50 blind 
total pot: 886 
/inquire 
recv from player 3333: check
send inquire msg to player 8888 
inquire/ 
3333 19581 0 636 call 
6666 877 6078 0 fold 
7777 282 8000 0 fold 
4444 6547 8000 636 raise 
1111 1700 6011 100 call 
2222 231 8000 100 blind 
8888 13170 0 50 blind 
total pot: 1522 
/inquire 
recv from player 8888: check
send inquire msg to player 2222 
inquire/ 
8888 12584 0 636 call 
3333 19581 0 636 call 
6666 877 6078 0 fold 
7777 282 8000 0 fold 
4444 6547 8000 636 raise 
1111 1700 6011 100 call 
2222 231 8000 100 blind 
total pot: 2108 
/inquire 
recv from player 2222: fold
send inquire msg to player 1111 
inquire/ 
2222 231 8000 100 fold 
8888 12584 0 636 call 
3333 19581 0 636 call 
6666 877 6078 0 fold 
7777 282 8000 0 fold 
4444 6547 8000 636 raise 
1111 1700 6011 100 call 
total pot: 2108 
/inquire 
recv from player 1111: check
flop/ 
SPADES J 
SPADES 2 
DIAMONDS 9 
/flop 

---flop round bet---
valid player: 7, all in player: 0, fold player: 3
send inquire msg to player 8888 
inquire/ 
3333 19581 0 636 call 
6666 877 6078 0 fold 
7777 282 8000 0 fold 
4444 6547 8000 636 raise 
1111 1164 6011 636 call 
2222 231 8000 100 fold 
8888 12584 0 636 call 
total pot: 2644 
/inquire 
recv from player 8888: check
send inquire msg to player 2222 
inquire/ 
8888 12584 0 636 check 
3333 19581 0 636 call 
6666 877 6078 0 fold 
7777 282 8000 0 fold 
4444 6547 8000 636 raise 
1111 1164 6011 636 call 
2222 231 8000 100 fold 
total pot: 2644 
/inquire 
send inquire msg to player 1111 
inquire/ 
2222 231 8000 100 fold 
8888 12584 0 636 check 
3333 19581 0 636 call 
6666 877 6078 0 fold 
7777 282 8000 0 fold 
4444 6547 8000 636 raise 
1111 1164 6011 636 call 
total pot: 2644 
/inquire 
recv from player 1111: fold
send inquire msg to player 4444 
inquire/ 
1111 1164 6011 636 fold 
2222 231 8000 100 fold 
8888 12584 0 636 check 
3333 19581 0 636 call 
6666 877 6078 0 fold 
7777 282 8000 0 fold 
4444 6547 8000 636 raise 
total pot: 2644 
/inquire 
recv from player 4444: check
send inquire msg to player 7777 
inquire/ 
4444 6547 8000 636 check 
1111 1164 6011 636 fold 
2222 231 8000 100 fold 
8888 12584 0 636 check 
3333 19581 0 636 call 
6666 877 6078 0 fold 
7777 282 8000 0 fold 
total pot: 2644 
/inquire 
send inquire msg to player 6666 
inquire/ 
7777 282 8000 0 fold 
4444 6547 8000 636 check 
1111 1164 6011 636 fold 
2222 231 8000 100 fold 
8888 12584 0 636 check 
3333 19581 0 636 call 
6666 877 6078 0 fold 
total pot: 2644 
/inquire 
send inquire msg to player 3333 
inquire/ 
6666 877 6078 0 fold 
7777 282 8000 0 fold 
4444 6547 8000 636 check 
1111 1164 6011 636 fold 
2222 231 8000 100 fold 
8888 12584 0 636 check 
3333 19581 0 636 call 
total pot: 2644 
/inquire 
recv from player 3333: check
turn/ 
DIAMONDS 8 
/turn 

---turn round bet---
valid player: 7, all in player: 0, fold player: 4
send inquire msg to player 8888 
inquire/ 
3333 19581 0 636 check 
6666 877 6078 0 fold 
7777 282 8000 0 fold 
4444 6547 8000 636 check 
1111 1164 6011 636 fold 
2222 231 8000 100 fold 
8888 12584 0 636 check 
total pot: 2644 
/inquire 
recv from player 8888: check
send inquire msg to player 2222 
inquire/ 
8888 12584 0 636 check 
3333 19581 0 636 check 
6666 877 6078 0 fold 
7777 282 8000 0 fold 
4444 6547 8000 636 check 
1111 1164 6011 636 fold 
2222 231 8000 100 fold 
total pot: 2644 
/inquire 
send inquire msg to player 1111 
inquire/ 
2222 231 8000 100 fold 
8888 12584 0 636 check 
3333 19581 0 636 check 
6666 877 6078 0 fold 
7777 282 8000 0 fold 
4444 6547 8000 636 check 
1111 1164 6011 636 fold 
total pot: 2644 
/inquire 
send inquire msg to player 4444 
inquire/ 
1111 1164 6011 636 fold 
2222 231 8000 100 fold 
8888 12584 0 636 check 
3333 19581 0 636 check 
6666 877 6078 0 fold 
7777 282 8000 0 fold 
4444 6547 8000 636 check 
total pot: 2644 
/inquire 
recv from player 4444: check
send inquire msg to player 7777 
inquire/ 
4444 6547 8000 636 check 
1111 1164 6011 636 fold 
2222 231 8000 100 fold 
8888 12584 0 636 check 
3333 19581 0 636 check 
6666 877 6078 0 fold 
7777 282 8000 0 fold 
total pot: 2644 
/inquire 
send inquire msg to player 6666 
inquire/ 
7777 282 8000 0 fold 
4444 6547 8000 636 check 
1111 1164 6011 636 fold 
2222 231 8000 100 fold 
8888 12584 0 636 check 
3333 19581 0 636 check 
6666 877 6078 0 fold 
total pot: 2644 
/inquire 
send inquire msg to player 3333 
inquire/ 
6666 877 6078 0 fold 
7777 282 8000 0 fold 
4444 6547 8000 636 check 
1111 1164 6011 636 fold 
2222 231 8000 100 fold 
8888 12584 0 636 check 
3333 19581 0 636 check 
total pot: 2644 
/inquire 
recv from player 3333: check
river/ 
CLUBS 9 
/river 

---river round bet---
valid player: 7, all in player: 0, fold player: 4
send inquire msg to player 8888 
inquire/ 
3333 19581 0 636 check 
6666 877 6078 0 fold 
7777 282 8000 0 fold 
4444 6547 8000 636 check 
1111 1164 6011 636 fold 
2222 231 8000 100 fold 
8888 12584 0 636 check 
total pot: 2644 
/inquire 
recv from player 8888: check
send inquire msg to player 2222 
inquire/ 
8888 12584 0 636 check 
3333 19581 0 636 check 
6666 877 6078 0 fold 
7777 282 8000 0 fold 
4444 6547 8000 636 check 
1111 1164 6011 636 fold 
2222 231 8000 100 fold 
total pot: 2644 
/inquire 
send inquire msg to player 1111 
inquire/ 
2222 231 8000 100 fold 
8888 12584 0 636 check 
3333 19581 0 636 check 
6666 877 6078 0 fold 
7777 282 8000 0 fold 
4444 6547 8000 636 check 
1111 1164 6011 636 fold 
total pot: 2644 
/inquire 
send inquire msg to player 4444 
inquire/ 
1111 1164 6011 636 fold 
2222 231 8000 100 fold 
8888 12584 0 636 check 
3333 19581 0 636 check 
6666 877 6078 0 fold 
7777 282 8000 0 fold 
4444 6547 8000 636 check 
total pot: 2644 
/inquire 
recv from player 4444: check
send inquire msg to player 7777 
inquire/ 
4444 6547 8000 636 check 
1111 1164 6011 636 fold 
2222 231 8000 100 fold 
8888 12584 0 636 check 
3333 19581 0 636 check 
6666 877 6078 0 fold 
7777 282 8000 0 fold 
total pot: 2644 
/inquire 
send inquire msg to player 6666 
inquire/ 
7777 282 8000 0 fold 
4444 6547 8000 636 check 
1111 1164 6011 636 fold 
2222 231 8000 100 fold 
8888 12584 0 636 check 
3333 19581 0 636 check 
6666 877 6078 0 fold 
total pot: 2644 
/inquire 
send inquire msg to player 3333 
inquire/ 
6666 877 6078 0 fold 
7777 282 8000 0 fold 
4444 6547 8000 636 check 
1111 1164 6011 636 fold 
2222 231 8000 100 fold 
8888 12584 0 636 check 
3333 19581 0 636 check 
total pot: 2644 
/inquire 
recv from player 3333: check

---show down---
showdown/ 
common/ 
SPADES J 
SPADES 2 
DIAMONDS 9 
DIAMONDS 8 
CLUBS 9 
/common 
3: 8888 DIAMONDS 5 CLUBS K ONE_PAIR 
1: 4444 SPADES 8 SPADES 6 TWO_PAIR 
2: 3333 HEARTS 6 DIAMONDS 2 TWO_PAIR 
/showdown 

---Allocate pot---
pot-win/ 
4444: 2644 
/pot-win 
it is player 8888's turn to be button

-----28 Hand-----

----- clean player data in socket -----
seat/ 
button: 8888 12584 0 
small blind: 2222 231 8000 
big blind: 1111 1164 6011 
4444 9191 8000 
7777 282 8000 
6666 877 6078 
3333 19581 0 
/seat 
blind/ 
2222: 50 
1111: 100 
/blind 
player 2222:hold/ 
HEARTS 8 
DIAMONDS Q 
/hold 
player 1111:hold/ 
SPADES 3 
SPADES J 
/hold 
player 4444:hold/ 
DIAMONDS 7 
CLUBS A 
/hold 
player 7777:hold/ 
CLUBS 2 
DIAMONDS 2 
/hold 
player 6666:hold/ 
HEARTS 10 
HEARTS K 
/hold 
player 3333:hold/ 
HEARTS 9 
HEARTS 5 
/hold 
player 8888:hold/ 
SPADES 5 
HEARTS 2 
/hold 

---pre flop round bet---
valid player: 7, all in player: 0, fold player: 0
send inquire msg to player 4444 
inquire/ 
1111 1064 6011 100 blind 
2222 181 8000 50 blind 
total pot: 150 
/inquire 
recv from player 4444: check
send inquire msg to player 7777 
inquire/ 
4444 9091 8000 100 call 
1111 1064 6011 100 blind 
2222 181 8000 50 blind 
total pot: 250 
/inquire 
recv from player 7777: fold
send inquire msg to player 6666 
inquire/ 
7777 282 8000 0 fold 
4444 9091 8000 100 call 
1111 1064 6011 100 blind 
2222 181 8000 50 blind 
total pot: 250 
/inquire 
recv from player 6666: raise 111
send inquire msg to player 3333 
inquire/ 
6666 666 6078 211 raise 
7777 282 8000 0 fold 
4444 9091 8000 100 call 
1111 1064 6011 100 blind 
2222 181 8000 50 blind 
total pot: 461 
/inquire 
recv from player 3333: check
send inquire msg to player 8888 
inquire/ 
3333 19370 0 211 call 
6666 666 6078 211 raise 
7777 282 8000 0 fold 
4444 9091 8000 100 call 
1111 1064 6011 100 blind 
2222 181 8000 50 blind 
total pot: 672 
/inquire 
recv from player 8888: check
send inquire msg to player 2222 
inquire/ 
8888 12373 0 211 call 
3333 19370 0 211 call 
6666 666 6078 211 raise 
7777 282 8000 0 fold 
4444 9091 8000 100 call 
1111 1064 6011 100 blind 
2222 181 8000 50 blind 
total pot: 883 
/inquire 
recv from player 2222: fold
send inquire msg to player 1111 
inquire/ 
2222 181 8000 50 fold 
8888 12373 0 211 call 
3333 19370 0 211 call 
6666 666 6078 211 raise 
7777 282 8000 0 fold 
4444 9091 8000 100 call 
1111 1064 6011 100 blind 
total pot: 883 
/inquire 
recv from player 1111: check
send inquire msg to player 4444 
inquire/ 
1111 953 6011 211 call 
2222 181 8000 50 fold 
8888 12373 0 211 call 
3333 19370 0 211 call 
6666 666 6078 211 raise 
7777 282 8000 0 fold 
4444 9091 8000 100 call 
total pot: 994 
/inquire 
recv from player 4444: check
flop/ 
SPADES K 
SPADES 7 
DIAMONDS J 
/flop 

---flop round bet---
valid player: 7, all in player: 0, fold player: 2
send inquire msg to player 2222 
inquire/ 
8888 12373 0 211 call 
3333 19370 0 211 call 
6666 666 6078 211 raise 
7777 282 8000 0 fold 
4444 8980 8000 211 call 
1111 953 6011 211 call 
2222 181 8000 50 fold 
total pot: 1105 
/inquire 
send inquire msg to player 1111 
inquire/ 
2222 181 8000 50 fold 
8888 12373 0 211 call 
3333 19370 0 211 call 
6666 666 6078 211 raise 
7777 282 8000 0 fold 
4444 8980 8000 211 call 
1111 953 6011 211 call 
total pot: 1105 
/inquire 
recv from player 1111: fold
send inquire msg to player 4444 
inquire/ 
1111 953 6011 211 fold 
2222 181 8000 50 fold 
8888 12373 0 211 call 
3333 19370 0 211 call 
6666 666 6078 211 raise 
7777 282 8000 0 fold 
4444 8980 8000 211 call 
total pot: 1105 
/inquire 
recv from player 4444: raise 196
send inquire msg to player 7777 
inquire/ 
4444 8784 8000 407 raise 
1111 953 6011 211 fold 
2222 181 8000 50 fold 
8888 12373 0 211 call 
3333 19370 0 211 call 
6666 666 6078 211 raise 
7777 282 8000 0 fold 
total pot: 1301 
/inquire 
send inquire msg to player 6666 
inquire/ 
7777 282 8000 0 fold 
4444 8784 8000 407 raise 
1111 953 6011 211 fold 
2222 181 8000 50 fold 
8888 12373 0 211 call 
3333 19370 0 211 call 
6666 666 6078 211 raise 
total pot: 1301 
/inquire 
recv from player 6666: check
send inquire msg to player 3333 
inquire/ 
6666 470 6078 407 call 
7777 282 8000 0 fold 
4444 8784 8000 407 raise 
1111 953 6011 211 fold 
2222 181 8000 50 fold 
8888 12373 0 211 call 
3333 19370 0 211 call 
total pot: 1497 
/inquire 
recv from player 3333: check
send inquire msg to player 8888 
inquire/ 
3333 19174 0 407 call 
6666 470 6078 407 call 
7777 282 8000 0 fold 
4444 8784 8000 407 raise 
1111 953 6011 211 fold 
2222 181 8000 50 fold 
8888 12373 0 211 call 
total pot: 1693 
/inquire 
recv from player 8888: check
turn/ 
CLUBS 8 
/turn 

---turn round bet---
valid player: 7, all in player: 0, fold player: 3
send inquire msg to player 2222 
inquire/ 
8888 12177 0 407 call 
3333 19174 0 407 call 
6666 470 6078 407 call 
7777 282 8000 0 fold 
4444 8784 8000 407 raise 
1111 953 6011 211 fold 
2222 181 8000 50 fold 
total pot: 1889 
/inquire 
send inquire msg to player 1111 
inquire/ 
2222 181 8000 50 fold 
8888 12177 0 407 call 
3333 19174 0 407 call 
6666 470 6078 407 call 
7777 282 8000 0 fold 
4444 8784 8000 407 raise 
1111 953 6011 211 fold 
total pot: 1889 
/inquire 
send inquire msg to player 4444 
inquire/ 
1111 953 6011 211 fold 
2222 181 8000 50 fold 
8888 12177 0 407 call 
3333 19174 0 407 call 
6666 470 6078 407 call 
7777 282 8000 0 fold 
4444 8784 8000 407 raise 
total pot: 1889 
/inquire 
recv from player 4444: check
send inquire msg to player 7777 
inquire/ 
4444 8784 8000 407 check 
1111 953 6011 211 fold 
2222 181 8000 50 fold 
8888 12177 0 407 call 
3333 19174 0 407 call 
6666 470 6078 407 call 
7777 282 8000 0 fold 
total pot: 1889 
/inquire 
send inquire msg to player 6666 
inquire/ 
7777 282 8000 0 fold 
4444 8784 8000 407 check 
1111 953 6011 211 fold 
2222 181 8000 50 fold 
8888 12177 0 407 call 
3333 19174 0 407 call 
6666 470 6078 407 call 
total pot: 1889 
/inquire 
recv from player 6666: check
send inquire msg to player 3333 
inquire/ 
6666 470 6078 407 check 
7777 282 8000 0 fold 
4444 8784 8000 407 check 
1111 953 6011 211 fold 
2222 181 8000 50 fold 
8888 12177 0 407 call 
3333 19174 0 407 call 
total pot: 1889 
/inquire 
recv from player 3333: check
send inquire msg to player 8888 
inquire/ 
3333 19174 0 407 check 
6666 470 6078 407 check 
7777 282 8000 0 fold 
4444 8784 8000 407 check 
1111 953 6011 211 fold 
2222 181 8000 50 fold 
8888 12177 0 407 call 
total pot: 1889 
/inquire 
recv from player 8888: check
river/ 
CLUBS 5 
/river 

---river round bet---
valid player: 7, all in player: 0, fold player: 3
send inquire msg to player 2222 
inquire/ 
8888 12177 0 407 check 
3333 19174 0 407 check 
6666 470 6078 407 check 
7777 282 8000 0 fold 
4444 8784 8000 407 check 
1111 953 6011 211 fold 
2222 181 8000 50 fold 
total pot: 1889 
/inquire 
send inquire msg to player 1111 
inquire/ 
2222 181 8000 50 fold 
8888 12177 0 407 check 
3333 19174 0 407 check 
6666 470 6078 407 check 
7777 282 8000 0 fold 
4444 8784 8000 407 check 
1111 953 6011 211 fold 
total pot: 1889 
/inquire 
send inquire msg to player 4444 
inquire/ 
1111 953 6011 211 fold 
2222 181 8000 50 fold 
8888 12177 0 407 check 
3333 19174 0 407 check 
6666 470 6078 407 check 
7777 282 8000 0 fold 
4444 8784 8000 407 check 
total pot: 1889 
/inquire 
recv from player 4444: check
send inquire msg to player 7777 
inquire/ 
4444 8784 8000 407 check 
1111 953 6011 211 fold 
2222 181 8000 50 fold 
8888 12177 0 407 check 
3333 19174 0 407 check 
6666 470 6078 407 check 
7777 282 8000 0 fold 
total pot: 1889 
/inquire 
send inquire msg to player 6666 
inquire/ 
7777 282 8000 0 fold 
4444 8784 8000 407 check 
1111 953 6011 211 fold 
2222 181 8000 50 fold 
8888 12177 0 407 check 
3333 19174 0 407 check 
6666 470 6078 407 check 
total pot: 1889 
/inquire 
recv from player 6666: check
send inquire msg to player 3333 
inquire/ 
6666 470 6078 407 check 
7777 282 8000 0 fold 
4444 8784 8000 407 check 
1111 953 6011 211 fold 
2222 181 8000 50 fold 
8888 12177 0 407 check 
3333 19174 0 407 check 
total pot: 1889 
/inquire 
recv from player 3333: check
send inquire msg to player 8888 
inquire/ 
3333 19174 0 407 check 
6666 470 6078 407 check 
7777 282 8000 0 fold 
4444 8784 8000 407 check 
1111 953 6011 211 fold 
2222 181 8000 50 fold 
8888 12177 0 407 check 
total pot: 1889 
/inquire 
recv from player 8888: check

---show down---
showdown/ 
common/ 
SPADES K 
SPADES 7 
DIAMONDS J 
CLUBS 8 
CLUBS 5 
/common 
2: 4444 DIAMONDS 7 CLUBS A ONE_PAIR 
1: 6666 HEARTS 10 HEARTS K ONE_PAIR 
3: 3333 HEARTS 9 HEARTS 5 ONE_PAIR 
4: 8888 SPADES 5 HEARTS 2 ONE_PAIR 
/showdown 

---Allocate pot---
pot-win/ 
6666: 1889 
/pot-win 
it is player 2222's turn to be button

-----29 Hand-----

----- clean player data in socket -----
seat/ 
button: 2222 181 8000 
small blind: 1111 953 6011 
big blind: 4444 8784 8000 
7777 282 8000 
6666 2359 6078 
3333 19174 0 
8888 12177 0 
/seat 
blind/ 
1111: 50 
4444: 100 
/blind 
player 1111:hold/ 
HEARTS Q 
CLUBS 3 
/hold 
player 4444:hold/ 
HEARTS 5 
SPADES 10 
/hold 
player 7777:hold/ 
CLUBS K 
DIAMONDS 9 
/hold 
player 6666:hold/ 
DIAMONDS 10 
SPADES K 
/hold 
player 3333:hold/ 
HEARTS 2 
CLUBS 8 
/hold 
player 8888:hold/ 
SPADES 3 
DIAMONDS J 
/hold 
player 2222:hold/ 
SPADES 6 
DIAMONDS 2 
/hold 

---pre flop round bet---
valid player: 7, all in player: 0, fold player: 0
send inquire msg to player 7777 
inquire/ 
4444 8684 8000 100 blind 
1111 903 6011 50 blind 
total pot: 150 
/inquire 
recv from player 7777: fold
send inquire msg to player 6666 
inquire/ 
7777 282 8000 0 fold 
4444 8684 8000 100 blind 
1111 903 6011 50 blind 
total pot: 150 
/inquire 
recv from player 6666: raise 226
send inquire msg to player 3333 
inquire/ 
6666 2033 6078 326 raise 
7777 282 8000 0 fold 
4444 8684 8000 100 blind 
1111 903 6011 50 blind 
total pot: 476 
/inquire 
recv from player 3333: check
send inquire msg to player 8888 
inquire/ 
3333 18848 0 326 call 
6666 2033 6078 326 raise 
7777 282 8000 0 fold 
4444 8684 8000 100 blind 
1111 903 6011 50 blind 
total pot: 802 
/inquire 
recv from player 8888: check
send inquire msg to player 2222 
inquire/ 
8888 11851 0 326 call 
3333 18848 0 326 call 
6666 2033 6078 326 raise 
7777 282 8000 0 fold 
4444 8684 8000 100 blind 
1111 903 6011 50 blind 
total pot: 1128 
/inquire 
recv from player 2222: fold
send inquire msg to player 1111 
inquire/ 
2222 181 8000 0 fold 
8888 11851 0 326 call 
3333 18848 0 326 call 
6666 2033 6078 326 raise 
7777 282 8000 0 fold 
4444 8684 8000 100 blind 
1111 903 6011 50 blind 
total pot: 1128 
/inquire 
recv from player 1111: check
send inquire msg to player 4444 
inquire/ 
1111 627 6011 326 call 
2222 181 8000 0 fold 
8888 11851 0 326 call 
3333 18848 0 326 call 
6666 2033 6078 326 raise 
7777 282 8000 0 fold 
4444 8684 8000 100 blind 
total pot: 1404 
/inquire 
recv from player 4444: check
flop/ 
SPADES 5 
SPADES 9 
DIAMONDS Q 
/flop 

---flop round bet---
valid player: 7, all in player: 0, fold player: 2
send inquire msg to player 1111 
inquire/ 
2222 181 8000 0 fold 
8888 11851 0 326 call 
3333 18848 0 326 call 
6666 2033 6078 326 raise 
7777 282 8000 0 fold 
4444 8458 8000 326 call 
1111 627 6011 326 call 
total pot: 1630 
/inquire 
recv from player 1111: check
send inquire msg to player 4444 
inquire/ 
1111 627 6011 326 check 
2222 181 8000 0 fold 
8888 11851 0 326 call 
3333 18848 0 326 call 
6666 2033 6078 326 raise 
7777 282 8000 0 fold 
4444 8458 8000 326 call 
total pot: 1630 
/inquire 
recv from player 4444: check
send inquire msg to player 7777 
inquire/ 
4444 8458 8000 326 check 
1111 627 6011 326 check 
2222 181 8000 0 fold 
8888 11851 0 326 call 
3333 18848 0 326 call 
6666 2033 6078 326 raise 
7777 282 8000 0 fold 
total pot: 1630 
/inquire 
send inquire msg to player 6666 
inquire/ 
7777 282 8000 0 fold 
4444 8458 8000 326 check 
1111 627 6011 326 check 
2222 181 8000 0 fold 
8888 11851 0 326 call 
3333 18848 0 326 call 
6666 2033 6078 326 raise 
total pot: 1630 
/inquire 
recv from player 6666: check
send inquire msg to player 3333 
inquire/ 
6666 2033 6078 326 check 
7777 282 8000 0 fold 
4444 8458 8000 326 check 
1111 627 6011 326 check 
2222 181 8000 0 fold 
8888 11851 0 326 call 
3333 18848 0 326 call 
total pot: 1630 
/inquire 
recv from player 3333: check
send inquire msg to player 8888 
inquire/ 
3333 18848 0 326 check 
6666 2033 6078 326 check 
7777 282 8000 0 fold 
4444 8458 8000 326 check 
1111 627 6011 326 check 
2222 181 8000 0 fold 
8888 11851 0 326 call 
total pot: 1630 
/inquire 
recv from player 8888: check
turn/ 
HEARTS 8 
/turn 

---turn round bet---
valid player: 7, all in player: 0, fold player: 2
send inquire msg to player 1111 
inquire/ 
2222 181 8000 0 fold 
8888 11851 0 326 check 
3333 18848 0 326 check 
6666 2033 6078 326 check 
7777 282 8000 0 fold 
4444 8458 8000 326 check 
1111 627 6011 326 check 
total pot: 1630 
/inquire 
recv from player 1111: fold
send inquire msg to player 4444 
inquire/ 
1111 627 6011 326 fold 
2222 181 8000 0 fold 
8888 11851 0 326 check 
3333 18848 0 326 check 
6666 2033 6078 326 check 
7777 282 8000 0 fold 
4444 8458 8000 326 check 
total pot: 1630 
/inquire 
recv from player 4444: check
send inquire msg to player 7777 
inquire/ 
4444 8458 8000 326 check 
1111 627 6011 326 fold 
2222 181 8000 0 fold 
8888 11851 0 326 check 
3333 18848 0 326 check 
6666 2033 6078 326 check 
7777 282 8000 0 fold 
total pot: 1630 
/inquire 
send inquire msg to player 6666 
inquire/ 
7777 282 8000 0 fold 
4444 8458 8000 326 check 
1111 627 6011 326 fold 
2222 181 8000 0 fold 
8888 11851 0 326 check 
3333 18848 0 326 check 
6666 2033 6078 326 check 
total pot: 1630 
/inquire 
recv from player 6666: check
send inquire msg to player 3333 
inquire/ 
6666 2033 6078 326 check 
7777 282 8000 0 fold 
4444 8458 8000 326 check 
1111 627 6011 326 fold 
2222 181 8000 0 fold 
8888 11851 0 326 check 
3333 18848 0 326 check 
total pot: 1630 
/inquire 
recv from player 3333: check
send inquire msg to player 8888 
inquire/ 
3333 18848 0 326 check 
6666 2033 6078 326 check 
7777 282 8000 0 fold 
4444 8458 8000 326 check 
1111 627 6011 326 fold 
2222 181 8000 0 fold 
8888 11851 0 326 check 
total pot: 1630 
/inquire 
recv from player 8888: check
river/ 
SPADES 7 
/river 

---river round bet---
valid player: 7, all in player: 0, fold player: 3
send inquire msg to player 1111 
inquire/ 
2222 181 8000 0 fold 
8888 11851 0 326 check 
3333 18848 0 326 check 
6666 2033 6078 326 check 
7777 282 8000 0 fold 
4444 8458 8000 326 check 
1111 627 6011 326 fold 
total pot: 1630 
/inquire 
send inquire msg to player 4444 
inquire/ 
1111 627 6011 326 fold 
2222 181 8000 0 fold 
8888 11851 0 326 check 
3333 18848 0 326 check 
6666 2033 6078 326 check 
7777 282 8000 0 fold 
4444 8458 8000 326 check 
total pot: 1630 
/inquire 
recv from player 4444: check
send inquire msg to player 7777 
inquire/ 
4444 8458 8000 326 check 
1111 627 6011 326 fold 
2222 181 8000 0 fold 
8888 11851 0 326 check 
3333 18848 0 326 check 
6666 2033 6078 326 check 
7777 282 8000 0 fold 
total pot: 1630 
/inquire 
send inquire msg to player 6666 
inquire/ 
7777 282 8000 0 fold 
4444 8458 8000 326 check 
1111 627 6011 326 fold 
2222 181 8000 0 fold 
8888 11851 0 326 check 
3333 18848 0 326 check 
6666 2033 6078 326 check 
total pot: 1630 
/inquire 
recv from player 6666: check
send inquire msg to player 3333 
inquire/ 
6666 2033 6078 326 check 
7777 282 8000 0 fold 
4444 8458 8000 326 check 
1111 627 6011 326 fold 
2222 181 8000 0 fold 
8888 11851 0 326 check 
3333 18848 0 326 check 
total pot: 1630 
/inquire 
recv from player 3333: check
send inquire msg to player 8888 
inquire/ 
3333 18848 0 326 check 
6666 2033 6078 326 check 
7777 282 8000 0 fold 
4444 8458 8000 326 check 
1111 627 6011 326 fold 
2222 181 8000 0 fold 
8888 11851 0 326 check 
total pot: 1630 
/inquire 
recv from player 8888: check

---show down---
showdown/ 
common/ 
SPADES 5 
SPADES 9 
DIAMONDS Q 
HEARTS 8 
SPADES 7 
/common 
2: 4444 HEARTS 5 SPADES 10 ONE_PAIR 
3: 6666 DIAMONDS 10 SPADES K HIGH_CARD 
1: 3333 HEARTS 2 CLUBS 8 ONE_PAIR 
4: 8888 SPADES 3 DIAMONDS J HIGH_CARD 
/showdown 

---Allocate pot---
pot-win/ 
3333: 1630 
/pot-win 
it is player 1111's turn to be button

-----30 Hand-----

----- clean player data in socket -----
seat/ 
button: 1111 627 6011 
small blind: 4444 8458 8000 
big blind: 7777 282 8000 
6666 2033 6078 
3333 20478 0 
8888 11851 0 
2222 181 8000 
/seat 
blind/ 
4444: 50 
7777: 100 
/blind 
player 4444:hold/ 
DIAMONDS 5 
SPADES J 
/hold 
player 7777:hold/ 
CLUBS J 
SPADES A 
/hold 
player 6666:hold/ 
HEARTS 3 
CLUBS 2 
/hold 
player 3333:hold/ 
CLUBS 7 
DIAMONDS 6 
/hold 
player 8888:hold/ 
DIAMONDS A 
CLUBS 3 
/hold 
player 2222:hold/ 
SPADES 3 
DIAMONDS J 
/hold 
player 1111:hold/ 
SPADES 4 
SPADES 10 
/hold 

---pre flop round bet---
valid player: 7, all in player: 0, fold player: 0
send inquire msg to player 6666 
inquire/ 
7777 182 8000 100 blind 
4444 8408 8000 50 blind 
total pot: 150 
/inquire 
recv from player 6666: fold
send inquire msg to player 3333 
inquire/ 
6666 2033 6078 0 fold 
7777 182 8000 100 blind 
4444 8408 8000 50 blind 
total pot: 150 
/inquire 
recv from player 3333: check
send inquire msg to player 8888 
inquire/ 
3333 20378 0 100 call 
6666 2033 6078 0 fold 
7777 182 8000 100 blind 
4444 8408 8000 50 blind 
total pot: 250 
/inquire 
recv from player 8888: check
send inquire msg to player 2222 
inquire/ 
8888 11751 0 100 call 
3333 20378 0 100 call 
6666 2033 6078 0 fold 
7777 182 8000 100 blind 
4444 8408 8000 50 blind 
total pot: 350 
/inquire 
recv from player 2222: fold
send inquire msg to player 1111 
inquire/ 
2222 181 8000 0 fold 
8888 11751 0 100 call 
3333 20378 0 100 call 
6666 2033 6078 0 fold 
7777 182 8000 100 blind 
4444 8408 8000 50 blind 
total pot: 350 
/inquire 
recv from player 1111: fold
send inquire msg to player 4444 
inquire/ 
1111 627 6011 0 fold 
2222 181 8000 0 fold 
8888 11751 0 100 call 
3333 20378 0 100 call 
6666 2033 6078 0 fold 
7777 182 8000 100 blind 
4444 8408 8000 50 blind 
total pot: 350 
/inquire 
recv from player 4444: check
send inquire msg to player 7777 
inquire/ 
4444 8358 8000 100 call 
1111 627 6011 0 fold 
2222 181 8000 0 fold 
8888 11751 0 100 call 
3333 20378 0 100 call 
6666 2033 6078 0 fold 
7777 182 8000 100 blind 
total pot: 400 
/inquire 
recv from player 7777: check
flop/ 
CLUBS 8 
CLUBS 6 
SPADES 6 
/flop 

---flop round bet---
valid player: 7, all in player: 0, fold player: 3
send inquire msg to player 4444 
inquire/ 
1111 627 6011 0 fold 
2222 181 8000 0 fold 
8888 11751 0 100 call 
3333 20378 0 100 call 
6666 2033 6078 0 fold 
7777 182 8000 100 check 
4444 8358 8000 100 call 
total pot: 400 
/inquire 
recv from player 4444: check
send inquire msg to player 7777 
inquire/ 
4444 8358 8000 100 check 
1111 627 6011 0 fold 
2222 181 8000 0 fold 
8888 11751 0 100 call 
3333 20378 0 100 call 
6666 2033 6078 0 fold 
7777 182 8000 100 check 
total pot: 400 
/inquire 
recv from player 7777: check
send inquire msg to player 6666 
inquire/ 
7777 182 8000 100 check 
4444 8358 8000 100 check 
1111 627 6011 0 fold 
2222 181 8000 0 fold 
8888 11751 0 100 call 
3333 20378 0 100 call 
6666 2033 6078 0 fold 
total pot: 400 
/inquire 
send inquire msg to player 3333 
inquire/ 
6666 2033 6078 0 fold 
7777 182 8000 100 check 
4444 8358 8000 100 check 
1111 627 6011 0 fold 
2222 181 8000 0 fold 
8888 11751 0 100 call 
3333 20378 0 100 call 
total pot: 400 
/inquire 
recv from player 3333: check
send inquire msg to player 8888 
inquire/ 
3333 20378 0 100 check 
6666 2033 6078 0 fold 
7777 182 8000 100 check 
4444 8358 8000 100 check 
1111 627 6011 0 fold 
2222 181 8000 0 fold 
8888 11751 0 100 call 
total pot: 400 
/inquire 
recv from player 8888: check
turn/ 
HEARTS Q 
/turn 

---turn round bet---
valid player: 7, all in player: 0, fold player: 3
send inquire msg to player 4444 
inquire/ 
1111 627 6011 0 fold 
2222 181 8000 0 fold 
8888 11751 0 100 check 
3333 20378 0 100 check 
6666 2033 6078 0 fold 
7777 182 8000 100 check 
4444 8358 8000 100 check 
total pot: 400 
/inquire 
recv from player 4444: check
send inquire msg to player 7777 
inquire/ 
4444 8358 8000 100 check 
1111 627 6011 0 fold 
2222 181 8000 0 fold 
8888 11751 0 100 check 
3333 20378 0 100 check 
6666 2033 6078 0 fold 
7777 182 8000 100 check 
total pot: 400 
/inquire 
recv from player 7777: check
send inquire msg to player 6666 
inquire/ 
7777 182 8000 100 check 
4444 8358 8000 100 check 
1111 627 6011 0 fold 
2222 181 8000 0 fold 
8888 11751 0 100 check 
3333 20378 0 100 check 
6666 2033 6078 0 fold 
total pot: 400 
/inquire 
send inquire msg to player 3333 
inquire/ 
6666 2033 6078 0 fold 
7777 182 8000 100 check 
4444 8358 8000 100 check 
1111 627 6011 0 fold 
2222 181 8000 0 fold 
8888 11751 0 100 check 
3333 20378 0 100 check 
total pot: 400 
/inquire 
recv from player 3333: check
send inquire msg to player 8888 
inquire/ 
3333 20378 0 100 check 
6666 2033 6078 0 fold 
7777 182 8000 100 check 
4444 8358 8000 100 check 
1111 627 6011 0 fold 
2222 181 8000 0 fold 
8888 11751 0 100 check 
total pot: 400 
/inquire 
recv from player 8888: check
river/ 
SPADES K 
/river 

---river round bet---
valid player: 7, all in player: 0, fold player: 3
send inquire msg to player 4444 
inquire/ 
1111 627 6011 0 fold 
2222 181 8000 0 fold 
8888 11751 0 100 check 
3333 20378 0 100 check 
6666 2033 6078 0 fold 
7777 182 8000 100 check 
4444 8358 8000 100 check 
total pot: 400 
/inquire 
recv from player 4444: check
send inquire msg to player 7777 
inquire/ 
4444 8358 8000 100 check 
1111 627 6011 0 fold 
2222 181 8000 0 fold 
8888 11751 0 100 check 
3333 20378 0 100 check 
6666 2033 6078 0 fold 
7777 182 8000 100 check 
total pot: 400 
/inquire 
recv from player 7777: check
send inquire msg to player 6666 
inquire/ 
7777 182 8000 100 check 
4444 8358 8000 100 check 
1111 627 6011 0 fold 
2222 181 8000 0 fold 
8888 11751 0 100 check 
3333 20378 0 100 check 
6666 2033 6078 0 fold 
total pot: 400 
/inquire 
send inquire msg to player 3333 
inquire/ 
6666 2033 6078 0 fold 
7777 182 8000 100 check 
4444 8358 8000 100 check 
1111 627 6011 0 fold 
2222 181 8000 0 fold 
8888 11751 0 100 check 
3333 20378 0 100 check 
total pot: 400 
/inquire 
recv from player 3333: check
send inquire msg to player 8888 
inquire/ 
3333 20378 0 100 check 
6666 2033 6078 0 fold 
7777 182 8000 100 check 
4444 8358 8000 100 check 
1111 627 6011 0 fold 
2222 181 8000 0 fold 
8888 11751 0 100 check 
total pot: 400 
/inquire 
recv from player 8888: check

---show down---
showdown/ 
common/ 
CLUBS 8 
CLUBS 6 
SPADES 6 
HEARTS Q 
SPADES K 
/common 
3: 4444 DIAMONDS 5 SPADES J ONE_PAIR 
2: 7777 CLUBS J SPADES A ONE_PAIR 
1: 3333 CLUBS 7 DIAMONDS 6 THREE_OF_A_KIND 
2: 8888 DIAMONDS A CLUBS 3 ONE_PAIR 
/showdown 

---Allocate pot---
pot-win/ 
3333: 400 
/pot-win 
it is player 4444's turn to be button

-----31 Hand-----

----- clean player data in socket -----
seat/ 
button: 4444 8358 8000 
small blind: 7777 182 8000 
big blind: 6666 2033 6078 
3333 20778 0 
8888 11751 0 
2222 181 8000 
1111 627 6011 
/seat 
blind/ 
7777: 50 
6666: 100 
/blind 
player 7777:hold/ 
HEARTS 8 
DIAMONDS 7 
/hold 
player 6666:hold/ 
DIAMONDS 5 
DIAMONDS 4 
/hold 
player 3333:hold/ 
CLUBS 10 
CLUBS 8 
/hold 
player 8888:hold/ 
SPADES 2 
DIAMONDS J 
/hold 
player 2222:hold/ 
SPADES 10 
DIAMONDS 8 
/hold 
player 1111:hold/ 
CLUBS A 
SPADES 3 
/hold 
player 4444:hold/ 
DIAMONDS 6 
SPADES 8 
/hold 

---pre flop round bet---
valid player: 7, all in player: 0, fold player: 0
send inquire msg to player 3333 
inquire/ 
6666 1933 6078 100 blind 
7777 132 8000 50 blind 
total pot: 150 
/inquire 
recv from player 3333: check
send inquire msg to player 8888 
inquire/ 
3333 20678 0 100 call 
6666 1933 6078 100 blind 
7777 132 8000 50 blind 
total pot: 250 
/inquire 
recv from player 8888: check
send inquire msg to player 2222 
inquire/ 
8888 11651 0 100 call 
3333 20678 0 100 call 
6666 1933 6078 100 blind 
7777 132 8000 50 blind 
total pot: 350 
/inquire 
recv from player 2222: fold
send inquire msg to player 1111 
inquire/ 
2222 181 8000 0 fold 
8888 11651 0 100 call 
3333 20678 0 100 call 
6666 1933 6078 100 blind 
7777 132 8000 50 blind 
total pot: 350 
/inquire 
recv from player 1111: check
send inquire msg to player 4444 
inquire/ 
1111 527 6011 100 call 
2222 181 8000 0 fold 
8888 11651 0 100 call 
3333 20678 0 100 call 
6666 1933 6078 100 blind 
7777 132 8000 50 blind 
total pot: 450 
/inquire 
recv from player 4444: raise 258
send inquire msg to player 7777 
inquire/ 
4444 8000 8000 358 raise 
1111 527 6011 100 call 
2222 181 8000 0 fold 
8888 11651 0 100 call 
3333 20678 0 100 call 
6666 1933 6078 100 blind 
7777 132 8000 50 blind 
total pot: 808 
/inquire 
recv from player 7777: fold
send inquire msg to player 6666 
inquire/ 
7777 132 8000 50 fold 
4444 8000 8000 358 raise 
1111 527 6011 100 call 
2222 181 8000 0 fold 
8888 11651 0 100 call 
3333 20678 0 100 call 
6666 1933 6078 100 blind 
total pot: 808 
/inquire 
recv from player 6666: check
send inquire msg to player 3333 
inquire/ 
6666 1675 6078 358 call 
7777 132 8000 50 fold 
4444 8000 8000 358 raise 
1111 527 6011 100 call 
2222 181 8000 0 fold 
8888 11651 0 100 call 
3333 20678 0 100 call 
total pot: 1066 
/inquire 
recv from player 3333: check
send inquire msg to player 8888 
inquire/ 
3333 20420 0 358 call 
6666 1675 6078 358 call 
7777 132 8000 50 fold 
4444 8000 8000 358 raise 
1111 527 6011 100 call 
2222 181 8000 0 fold 
8888 11651 0 100 call 
total pot: 1324 
/inquire 
recv from player 8888: check
send inquire msg to player 2222 
inquire/ 
8888 11393 0 358 call 
3333 20420 0 358 call 
6666 1675 6078 358 call 
7777 132 8000 50 fold 
4444 8000 8000 358 raise 
1111 527 6011 100 call 
2222 181 8000 0 fold 
total pot: 1582 
/inquire 
send inquire msg to player 1111 
inquire/ 
2222 181 8000 0 fold 
8888 11393 0 358 call 
3333 20420 0 358 call 
6666 1675 6078 358 call 
7777 132 8000 50 fold 
4444 8000 8000 358 raise 
1111 527 6011 100 call 
total pot: 1582 
/inquire 
recv from player 1111: check
flop/ 
SPADES A 
DIAMONDS 2 
DIAMONDS 10 
/flop 

---flop round bet---
valid player: 7, all in player: 0, fold player: 2
send inquire msg to player 7777 
inquire/ 
4444 8000 8000 358 raise 
1111 269 6011 358 call 
2222 181 8000 0 fold 
8888 11393 0 358 call 
3333 20420 0 358 call 
6666 1675 6078 358 call 
7777 132 8000 50 fold 
total pot: 1840 
/inquire 
send inquire msg to player 6666 
inquire/ 
7777 132 8000 50 fold 
4444 8000 8000 358 raise 
1111 269 6011 358 call 
2222 181 8000 0 fold 
8888 11393 0 358 call 
3333 20420 0 358 call 
6666 1675 6078 358 call 
total pot: 1840 
/inquire 
recv from player 6666: check
send inquire msg to player 3333 
inquire/ 
6666 1675 6078 358 check 
7777 132 8000 50 fold 
4444 8000 8000 358 raise 
1111 269 6011 358 call 
2222 181 8000 0 fold 
8888 11393 0 358 call 
3333 20420 0 358 call 
total pot: 1840 
/inquire 
recv from player 3333: check
send inquire msg to player 8888 
inquire/ 
3333 20420 0 358 check 
6666 1675 6078 358 check 
7777 132 8000 50 fold 
4444 8000 8000 358 raise 
1111 269 6011 358 call 
2222 181 8000 0 fold 
8888 11393 0 358 call 
total pot: 1840 
/inquire 
recv from player 8888: check
send inquire msg to player 2222 
inquire/ 
8888 11393 0 358 check 
3333 20420 0 358 check 
6666 1675 6078 358 check 
7777 132 8000 50 fold 
4444 8000 8000 358 raise 
1111 269 6011 358 call 
2222 181 8000 0 fold 
total pot: 1840 
/inquire 
send inquire msg to player 1111 
inquire/ 
2222 181 8000 0 fold 
8888 11393 0 358 check 
3333 20420 0 358 check 
6666 1675 6078 358 check 
7777 132 8000 50 fold 
4444 8000 8000 358 raise 
1111 269 6011 358 call 
total pot: 1840 
/inquire 
recv from player 1111: fold
send inquire msg to player 4444 
inquire/ 
1111 269 6011 358 fold 
2222 181 8000 0 fold 
8888 11393 0 358 check 
3333 20420 0 358 check 
6666 1675 6078 358 check 
7777 132 8000 50 fold 
4444 8000 8000 358 raise 
total pot: 1840 
/inquire 
recv from player 4444: check
turn/ 
CLUBS J 
/turn 

---turn round bet---
valid player: 7, all in player: 0, fold player: 3
send inquire msg to player 7777 
inquire/ 
4444 8000 8000 358 check 
1111 269 6011 358 fold 
2222 181 8000 0 fold 
8888 11393 0 358 check 
3333 20420 0 358 check 
6666 1675 6078 358 check 
7777 132 8000 50 fold 
total pot: 1840 
/inquire 
send inquire msg to player 6666 
inquire/ 
7777 132 8000 50 fold 
4444 8000 8000 358 check 
1111 269 6011 358 fold 
2222 181 8000 0 fold 
8888 11393 0 358 check 
3333 20420 0 358 check 
6666 1675 6078 358 check 
total pot: 1840 
/inquire 
recv from player 6666: check
send inquire msg to player 3333 
inquire/ 
6666 1675 6078 358 check 
7777 132 8000 50 fold 
4444 8000 8000 358 check 
1111 269 6011 358 fold 
2222 181 8000 0 fold 
8888 11393 0 358 check 
3333 20420 0 358 check 
total pot: 1840 
/inquire 
recv from player 3333: check
send inquire msg to player 8888 
inquire/ 
3333 20420 0 358 check 
6666 1675 6078 358 check 
7777 132 8000 50 fold 
4444 8000 8000 358 check 
1111 269 6011 358 fold 
2222 181 8000 0 fold 
8888 11393 0 358 check 
total pot: 1840 
/inquire 
recv from player 8888: check
send inquire msg to player 2222 
inquire/ 
8888 11393 0 358 check 
3333 20420 0 358 check 
6666 1675 6078 358 check 
7777 132 8000 50 fold 
4444 8000 8000 358 check 
1111 269 6011 358 fold 
2222 181 8000 0 fold 
total pot: 1840 
/inquire 
send inquire msg to player 1111 
inquire/ 
2222 181 8000 0 fold 
8888 11393 0 358 check 
3333 20420 0 358 check 
6666 1675 6078 358 check 
7777 132 8000 50 fold 
4444 8000 8000 358 check 
1111 269 6011 358 fold 
total pot: 1840 
/inquire 
send inquire msg to player 4444 
inquire/ 
1111 269 6011 358 fold 
2222 181 8000 0 fold 
8888 11393 0 358 check 
3333 20420 0 358 check 
6666 1675 6078 358 check 
7777 132 8000 50 fold 
4444 8000 8000 358 check 
total pot: 1840 
/inquire 
recv from player 4444: check
river/ 
HEARTS A 
/river 

---river round bet---
valid player: 7, all in player: 0, fold player: 3
send inquire msg to player 7777 
inquire/ 
4444 8000 8000 358 check 
1111 269 6011 358 fold 
2222 181 8000 0 fold 
8888 11393 0 358 check 
3333 20420 0 358 check 
6666 1675 6078 358 check 
7777 132 8000 50 fold 
total pot: 1840 
/inquire 
send inquire msg to player 6666 
inquire/ 
7777 132 8000 50 fold 
4444 8000 8000 358 check 
1111 269 6011 358 fold 
2222 181 8000 0 fold 
8888 11393 0 358 check 
3333 20420 0 358 check 
6666 1675 6078 358 check 
total pot: 1840 
/inquire 
recv from player 6666: check
send inquire msg to player 3333 
inquire/ 
6666 1675 6078 358 check 
7777 132 8000 50 fold 
4444 8000 8000 358 check 
1111 269 6011 358 fold 
2222 181 8000 0 fold 
8888 11393 0 358 check 
3333 20420 0 358 check 
total pot: 1840 
/inquire 
recv from player 3333: check
send inquire msg to player 8888 
inquire/ 
3333 20420 0 358 check 
6666 1675 6078 358 check 
7777 132 8000 50 fold 
4444 8000 8000 358 check 
1111 269 6011 358 fold 
2222 181 8000 0 fold 
8888 11393 0 358 check 
total pot: 1840 
/inquire 
recv from player 8888: check
send inquire msg to player 2222 
inquire/ 
8888 11393 0 358 check 
3333 20420 0 358 check 
6666 1675 6078 358 check 
7777 132 8000 50 fold 
4444 8000 8000 358 check 
1111 269 6011 358 fold 
2222 181 8000 0 fold 
total pot: 1840 
/inquire 
send inquire msg to player 1111 
inquire/ 
2222 181 8000 0 fold 
8888 11393 0 358 check 
3333 20420 0 358 check 
6666 1675 6078 358 check 
7777 132 8000 50 fold 
4444 8000 8000 358 check 
1111 269 6011 358 fold 
total pot: 1840 
/inquire 
send inquire msg to player 4444 
inquire/ 
1111 269 6011 358 fold 
2222 181 8000 0 fold 
8888 11393 0 358 check 
3333 20420 0 358 check 
6666 1675 6078 358 check 
7777 132 8000 50 fold 
4444 8000 8000 358 check 
total pot: 1840 
/inquire 
recv from player 4444: check

---show down---
showdown/ 
common/ 
SPADES A 
DIAMONDS 2 
DIAMONDS 10 
CLUBS J 
HEARTS A 
/common 
4: 6666 DIAMONDS 5 DIAMONDS 4 ONE_PAIR 
2: 3333 CLUBS 10 CLUBS 8 TWO_PAIR 
1: 8888 SPADES 2 DIAMONDS J TWO_PAIR 
3: 4444 DIAMONDS 6 SPADES 8 ONE_PAIR 
/showdown 

---Allocate pot---
pot-win/ 
8888: 1840 
/pot-win 
it is player 7777's turn to be button

-----32 Hand-----

----- clean player data in socket -----
seat/ 
button: 7777 132 8000 
small blind: 6666 1675 6078 
big blind: 3333 20420 0 
8888 13233 0 
2222 181 8000 
1111 269 6011 
4444 8000 8000 
/seat 
blind/ 
6666: 50 
3333: 100 
/blind 
player 6666:hold/ 
SPADES A 
CLUBS 3 
/hold 
player 3333:hold/ 
HEARTS J 
CLUBS Q 
/hold 
player 8888:hold/ 
HEARTS 9 
HEARTS 2 
/hold 
player 2222:hold/ 
SPADES 5 
DIAMONDS 5 
/hold 
player 1111:hold/ 
CLUBS K 
DIAMONDS K 
/hold 
player 4444:hold/ 
SPADES 3 
SPADES K 
/hold 
player 7777:hold/ 
SPADES Q 
SPADES 2 
/hold 

---pre flop round bet---
valid player: 7, all in player: 0, fold player: 0
send inquire msg to player 8888 
inquire/ 
3333 20320 0 100 blind 
6666 1625 6078 50 blind 
total pot: 150 
/inquire 
recv from player 8888: check
send inquire msg to player 2222 
inquire/ 
8888 13133 0 100 call 
3333 20320 0 100 blind 
6666 1625 6078 50 blind 
total pot: 250 
/inquire 
recv from player 2222: fold
send inquire msg to player 1111 
inquire/ 
2222 181 8000 0 fold 
8888 13133 0 100 call 
3333 20320 0 100 blind 
6666 1625 6078 50 blind 
total pot: 250 
/inquire 
recv from player 1111: fold
send inquire msg to player 4444 
inquire/ 
1111 269 6011 0 fold 
2222 181 8000 0 fold 
8888 13133 0 100 call 
3333 20320 0 100 blind 
6666 1625 6078 50 blind 
total pot: 250 
/inquire 
recv from player 4444: raise 479
send inquire msg to player 7777 
inquire/ 
4444 7421 8000 579 raise 
1111 269 6011 0 fold 
2222 181 8000 0 fold 
8888 13133 0 100 call 
3333 20320 0 100 blind 
6666 1625 6078 50 blind 
total pot: 829 
/inquire 
recv from player 7777: fold
send inquire msg to player 6666 
inquire/ 
7777 132 8000 0 fold 
4444 7421 8000 579 raise 
1111 269 6011 0 fold 
2222 181 8000 0 fold 
8888 13133 0 100 call 
3333 20320 0 100 blind 
6666 1625 6078 50 blind 
total pot: 829 
/inquire 
recv from player 6666: fold
send inquire msg to player 3333 
inquire/ 
6666 1625 6078 50 fold 
7777 132 8000 0 fold 
4444 7421 8000 579 raise 
1111 269 6011 0 fold 
2222 181 8000 0 fold 
8888 13133 0 100 call 
3333 20320 0 100 blind 
total pot: 829 
/inquire 
recv from player 3333: check
send inquire msg to player 8888 
inquire/ 
3333 19841 0 579 call 
6666 1625 6078 50 fold 
7777 132 8000 0 fold 
4444 7421 8000 579 raise 
1111 269 6011 0 fold 
2222 181 8000 0 fold 
8888 13133 0 100 call 
total pot: 1308 
/inquire 
recv from player 8888: check
flop/ 
SPADES 6 
HEARTS 7 
SPADES 7 
/flop 

---flop round bet---
valid player: 7, all in player: 0, fold player: 4
send inquire msg to player 6666 
inquire/ 
7777 132 8000 0 fold 
4444 7421 8000 579 raise 
1111 269 6011 0 fold 
2222 181 8000 0 fold 
8888 12654 0 579 call 
3333 19841 0 579 call 
6666 1625 6078 50 fold 
total pot: 1787 
/inquire 
send inquire msg to player 3333 
inquire/ 
6666 1625 6078 50 fold 
7777 132 8000 0 fold 
4444 7421 8000 579 raise 
1111 269 6011 0 fold 
2222 181 8000 0 fold 
8888 12654 0 579 call 
3333 19841 0 579 call 
total pot: 1787 
/inquire 
recv from player 3333: check
send inquire msg to player 8888 
inquire/ 
3333 19841 0 579 check 
6666 1625 6078 50 fold 
7777 132 8000 0 fold 
4444 7421 8000 579 raise 
1111 269 6011 0 fold 
2222 181 8000 0 fold 
8888 12654 0 579 call 
total pot: 1787 
/inquire 
recv from player 8888: check
send inquire msg to player 2222 
inquire/ 
8888 12654 0 579 check 
3333 19841 0 579 check 
6666 1625 6078 50 fold 
7777 132 8000 0 fold 
4444 7421 8000 579 raise 
1111 269 6011 0 fold 
2222 181 8000 0 fold 
total pot: 1787 
/inquire 
send inquire msg to player 1111 
inquire/ 
2222 181 8000 0 fold 
8888 12654 0 579 check 
3333 19841 0 579 check 
6666 1625 6078 50 fold 
7777 132 8000 0 fold 
4444 7421 8000 579 raise 
1111 269 6011 0 fold 
total pot: 1787 
/inquire 
send inquire msg to player 4444 
inquire/ 
1111 269 6011 0 fold 
2222 181 8000 0 fold 
8888 12654 0 579 check 
3333 19841 0 579 check 
6666 1625 6078 50 fold 
7777 132 8000 0 fold 
4444 7421 8000 579 raise 
total pot: 1787 
/inquire 
recv from player 4444: raise 188
send inquire msg to player 7777 
inquire/ 
4444 7233 8000 767 raise 
1111 269 6011 0 fold 
2222 181 8000 0 fold 
8888 12654 0 579 check 
3333 19841 0 579 check 
6666 1625 6078 50 fold 
7777 132 8000 0 fold 
total pot: 1975 
/inquire 
send inquire msg to player 6666 
inquire/ 
7777 132 8000 0 fold 
4444 7233 8000 767 raise 
1111 269 6011 0 fold 
2222 181 8000 0 fold 
8888 12654 0 579 check 
3333 19841 0 579 check 
6666 1625 6078 50 fold 
total pot: 1975 
/inquire 
send inquire msg to player 3333 
inquire/ 
6666 1625 6078 50 fold 
7777 132 8000 0 fold 
4444 7233 8000 767 raise 
1111 269 6011 0 fold 
2222 181 8000 0 fold 
8888 12654 0 579 check 
3333 19841 0 579 check 
total pot: 1975 
/inquire 
recv from player 3333: check
send inquire msg to player 8888 
inquire/ 
3333 19653 0 767 call 
6666 1625 6078 50 fold 
7777 132 8000 0 fold 
4444 7233 8000 767 raise 
1111 269 6011 0 fold 
2222 181 8000 0 fold 
8888 12654 0 579 check 
total pot: 2163 
/inquire 
recv from player 8888: check
turn/ 
HEARTS 4 
/turn 

---turn round bet---
valid player: 7, all in player: 0, fold player: 4
send inquire msg to player 6666 
inquire/ 
7777 132 8000 0 fold 
4444 7233 8000 767 raise 
1111 269 6011 0 fold 
2222 181 8000 0 fold 
8888 12466 0 767 call 
3333 19653 0 767 call 
6666 1625 6078 50 fold 
total pot: 2351 
/inquire 
send inquire msg to player 3333 
inquire/ 
6666 1625 6078 50 fold 
7777 132 8000 0 fold 
4444 7233 8000 767 raise 
1111 269 6011 0 fold 
2222 181 8000 0 fold 
8888 12466 0 767 call 
3333 19653 0 767 call 
total pot: 2351 
/inquire 
recv from player 3333: check
send inquire msg to player 8888 
inquire/ 
3333 19653 0 767 check 
6666 1625 6078 50 fold 
7777 132 8000 0 fold 
4444 7233 8000 767 raise 
1111 269 6011 0 fold 
2222 181 8000 0 fold 
8888 12466 0 767 call 
total pot: 2351 
/inquire 
recv from player 8888: check
send inquire msg to player 2222 
inquire/ 
8888 12466 0 767 check 
3333 19653 0 767 check 
6666 1625 6078 50 fold 
7777 132 8000 0 fold 
4444 7233 8000 767 raise 
1111 269 6011 0 fold 
2222 181 8000 0 fold 
total pot: 2351 
/inquire 
send inquire msg to player 1111 
inquire/ 
2222 181 8000 0 fold 
8888 12466 0 767 check 
3333 19653 0 767 check 
6666 1625 6078 50 fold 
7777 132 8000 0 fold 
4444 7233 8000 767 raise 
1111 269 6011 0 fold 
total pot: 2351 
/inquire 
send inquire msg to player 4444 
inquire/ 
1111 269 6011 0 fold 
2222 181 8000 0 fold 
8888 12466 0 767 check 
3333 19653 0 767 check 
6666 1625 6078 50 fold 
7777 132 8000 0 fold 
4444 7233 8000 767 raise 
total pot: 2351 
/inquire 
recv from player 4444: check
river/ 
CLUBS 5 
/river 

---river round bet---
valid player: 7, all in player: 0, fold player: 4
send inquire msg to player 6666 
inquire/ 
7777 132 8000 0 fold 
4444 7233 8000 767 check 
1111 269 6011 0 fold 
2222 181 8000 0 fold 
8888 12466 0 767 check 
3333 19653 0 767 check 
6666 1625 6078 50 fold 
total pot: 2351 
/inquire 
send inquire msg to player 3333 
inquire/ 
6666 1625 6078 50 fold 
7777 132 8000 0 fold 
4444 7233 8000 767 check 
1111 269 6011 0 fold 
2222 181 8000 0 fold 
8888 12466 0 767 check 
3333 19653 0 767 check 
total pot: 2351 
/inquire 
recv from player 3333: check
send inquire msg to player 8888 
inquire/ 
3333 19653 0 767 check 
6666 1625 6078 50 fold 
7777 132 8000 0 fold 
4444 7233 8000 767 check 
1111 269 6011 0 fold 
2222 181 8000 0 fold 
8888 12466 0 767 check 
total pot: 2351 
/inquire 
recv from player 8888: check
send inquire msg to player 2222 
inquire/ 
8888 12466 0 767 check 
3333 19653 0 767 check 
6666 1625 6078 50 fold 
7777 132 8000 0 fold 
4444 7233 8000 767 check 
1111 269 6011 0 fold 
2222 181 8000 0 fold 
total pot: 2351 
/inquire 
send inquire msg to player 1111 
inquire/ 
2222 181 8000 0 fold 
8888 12466 0 767 check 
3333 19653 0 767 check 
6666 1625 6078 50 fold 
7777 132 8000 0 fold 
4444 7233 8000 767 check 
1111 269 6011 0 fold 
total pot: 2351 
/inquire 
send inquire msg to player 4444 
inquire/ 
1111 269 6011 0 fold 
2222 181 8000 0 fold 
8888 12466 0 767 check 
3333 19653 0 767 check 
6666 1625 6078 50 fold 
7777 132 8000 0 fold 
4444 7233 8000 767 check 
total pot: 2351 
/inquire 
recv from player 4444: check

---show down---
showdown/ 
common/ 
SPADES 6 
HEARTS 7 
SPADES 7 
HEARTS 4 
CLUBS 5 
/common 
2: 3333 HEARTS J CLUBS Q ONE_PAIR 
3: 8888 HEARTS 9 HEARTS 2 ONE_PAIR 
1: 4444 SPADES 3 SPADES K STRAIGHT 
/showdown 

---Allocate pot---
pot-win/ 
4444: 2351 
/pot-win 
it is player 6666's turn to be button

-----33 Hand-----

----- clean player data in socket -----
seat/ 
button: 6666 1625 6078 
small blind: 3333 19653 0 
big blind: 8888 12466 0 
2222 181 8000 
1111 269 6011 
4444 9584 8000 
7777 132 8000 
/seat 
blind/ 
3333: 50 
8888: 100 
/blind 
player 3333:hold/ 
CLUBS 7 
SPADES 7 
/hold 
player 8888:hold/ 
DIAMONDS Q 
DIAMONDS 7 
/hold 
player 2222:hold/ 
SPADES 3 
SPADES 6 
/hold 
player 1111:hold/ 
DIAMONDS 2 
DIAMONDS 8 
/hold 
player 4444:hold/ 
CLUBS 2 
DIAMONDS 4 
/hold 
player 7777:hold/ 
CLUBS 5 
CLUBS 10 
/hold 
player 6666:hold/ 
HEARTS Q 
CLUBS 9 
/hold 

---pre flop round bet---
valid player: 7, all in player: 0, fold player: 0
send inquire msg to player 2222 
inquire/ 
8888 12366 0 100 blind 
3333 19603 0 50 blind 
total pot: 150 
/inquire 
recv from player 2222: fold
send inquire msg to player 1111 
inquire/ 
2222 181 8000 0 fold 
8888 12366 0 100 blind 
3333 19603 0 50 blind 
total pot: 150 
/inquire 
recv from player 1111: fold
send inquire msg to player 4444 
inquire/ 
1111 269 6011 0 fold 
2222 181 8000 0 fold 
8888 12366 0 100 blind 
3333 19603 0 50 blind 
total pot: 150 
/inquire 
recv from player 4444: fold
send inquire msg to player 7777 
inquire/ 
4444 9584 8000 0 fold 
1111 269 6011 0 fold 
2222 181 8000 0 fold 
8888 12366 0 100 blind 
3333 19603 0 50 blind 
total pot: 150 
/inquire 
recv from player 7777: fold
send inquire msg to player 6666 
inquire/ 
7777 132 8000 0 fold 
4444 9584 8000 0 fold 
1111 269 6011 0 fold 
2222 181 8000 0 fold 
8888 12366 0 100 blind 
3333 19603 0 50 blind 
total pot: 150 
/inquire 
recv from player 6666: fold
send inquire msg to player 3333 
inquire/ 
6666 1625 6078 0 fold 
7777 132 8000 0 fold 
4444 9584 8000 0 fold 
1111 269 6011 0 fold 
2222 181 8000 0 fold 
8888 12366 0 100 blind 
3333 19603 0 50 blind 
total pot: 150 
/inquire 
recv from player 3333: check
send inquire msg to player 8888 
inquire/ 
3333 19553 0 100 call 
6666 1625 6078 0 fold 
7777 132 8000 0 fold 
4444 9584 8000 0 fold 
1111 269 6011 0 fold 
2222 181 8000 0 fold 
8888 12366 0 100 blind 
total pot: 200 
/inquire 
recv from player 8888: check
flop/ 
SPADES 4 
DIAMONDS 9 
HEARTS 10 
/flop 

---flop round bet---
valid player: 7, all in player: 0, fold player: 5
send inquire msg to player 3333 
inquire/ 
6666 1625 6078 0 fold 
7777 132 8000 0 fold 
4444 9584 8000 0 fold 
1111 269 6011 0 fold 
2222 181 8000 0 fold 
8888 12366 0 100 check 
3333 19553 0 100 call 
total pot: 200 
/inquire 
recv from player 3333: check
send inquire msg to player 8888 
inquire/ 
3333 19553 0 100 check 
6666 1625 6078 0 fold 
7777 132 8000 0 fold 
4444 9584 8000 0 fold 
1111 269 6011 0 fold 
2222 181 8000 0 fold 
8888 12366 0 100 check 
total pot: 200 
/inquire 
recv from player 8888: check
turn/ 
CLUBS 3 
/turn 

---turn round bet---
valid player: 7, all in player: 0, fold player: 5
send inquire msg to player 3333 
inquire/ 
6666 1625 6078 0 fold 
7777 132 8000 0 fold 
4444 9584 8000 0 fold 
1111 269 6011 0 fold 
2222 181 8000 0 fold 
8888 12366 0 100 check 
3333 19553 0 100 check 
total pot: 200 
/inquire 
recv from player 3333: check
send inquire msg to player 8888 
inquire/ 
3333 19553 0 100 check 
6666 1625 6078 0 fold 
7777 132 8000 0 fold 
4444 9584 8000 0 fold 
1111 269 6011 0 fold 
2222 181 8000 0 fold 
8888 12366 0 100 check 
total pot: 200 
/inquire 
recv from player 8888: check
river/ 
CLUBS J 
/river 

---river round bet---
valid player: 7, all in player: 0, fold player: 5
send inquire msg to player 3333 
inquire/ 
6666 1625 6078 0 fold 
7777 132 8000 0 fold 
4444 9584 8000 0 fold 
1111 269 6011 0 fold 
2222 181 8000 0 fold 
8888 12366 0 100 check 
3333 19553 0 100 check 
total pot: 200 
/inquire 
recv from player 3333: check
send inquire msg to player 8888 
inquire/ 
3333 19553 0 100 check 
6666 1625 6078 0 fold 
7777 132 8000 0 fold 
4444 9584 8000 0 fold 
1111 269 6011 0 fold 
2222 181 8000 0 fold 
8888 12366 0 100 check 
total pot: 200 
/inquire 
recv from player 8888: check

---show down---
showdown/ 
common/ 
SPADES 4 
DIAMONDS 9 
HEARTS 10 
CLUBS 3 
CLUBS J 
/common 
1: 3333 CLUBS 7 SPADES 7 ONE_PAIR 
2: 8888 DIAMONDS Q DIAMONDS 7 HIGH_CARD 
/showdown 

---Allocate pot---
pot-win/ 
3333: 200 
/pot-win 
it is player 3333's turn to be button

-----34 Hand-----

----- clean player data in socket -----
seat/ 
button: 3333 19753 0 
small blind: 8888 12366 0 
big blind: 2222 181 8000 
1111 269 6011 
4444 9584 8000 
7777 132 8000 
6666 1625 6078 
/seat 
blind/ 
8888: 50 
2222: 100 
/blind 
player 8888:hold/ 
SPADES 3 
HEARTS 2 
/hold 
player 2222:hold/ 
DIAMONDS 2 
SPADES K 
/hold 
player 1111:hold/ 
DIAMONDS 6 
CLUBS 5 
/hold 
player 4444:hold/ 
HEARTS 3 
DIAMONDS A 
/hold 
player 7777:hold/ 
DIAMONDS J 
CLUBS 10 
/hold 
player 6666:hold/ 
SPADES 9 
CLUBS Q 
/hold 
player 3333:hold/ 
DIAMONDS 8 
DIAMONDS 9 
/hold 

---pre flop round bet---
valid player: 7, all in player: 0, fold player: 0
send inquire msg to player 1111 
inquire/ 
2222 81 8000 100 blind 
8888 12316 0 50 blind 
total pot: 150 
/inquire 
recv from player 1111: fold
send inquire msg to player 4444 
inquire/ 
1111 269 6011 0 fold 
2222 81 8000 100 blind 
8888 12316 0 50 blind 
total pot: 150 
/inquire 
recv from player 4444: raise 488
send inquire msg to player 7777 
inquire/ 
4444 8996 8000 588 raise 
1111 269 6011 0 fold 
2222 81 8000 100 blind 
8888 12316 0 50 blind 
total pot: 738 
/inquire 
recv from player 7777: fold
send inquire msg to player 6666 
inquire/ 
7777 132 8000 0 fold 
4444 8996 8000 588 raise 
1111 269 6011 0 fold 
2222 81 8000 100 blind 
8888 12316 0 50 blind 
total pot: 738 
/inquire 
recv from player 6666: fold
send inquire msg to player 3333 
inquire/ 
6666 1625 6078 0 fold 
7777 132 8000 0 fold 
4444 8996 8000 588 raise 
1111 269 6011 0 fold 
2222 81 8000 100 blind 
8888 12316 0 50 blind 
total pot: 738 
/inquire 
recv from player 3333: check
send inquire msg to player 8888 
inquire/ 
3333 19165 0 588 call 
6666 1625 6078 0 fold 
7777 132 8000 0 fold 
4444 8996 8000 588 raise 
1111 269 6011 0 fold 
2222 81 8000 100 blind 
8888 12316 0 50 blind 
total pot: 1326 
/inquire 
recv from player 8888: check
send inquire msg to player 2222 
inquire/ 
8888 11778 0 588 call 
3333 19165 0 588 call 
6666 1625 6078 0 fold 
7777 132 8000 0 fold 
4444 8996 8000 588 raise 
1111 269 6011 0 fold 
2222 81 8000 100 blind 
total pot: 1864 
/inquire 
recv from player 2222: check
flop/ 
CLUBS 9 
SPADES J 
HEARTS 9 
/flop 

---flop round bet---
valid player: 7, all in player: 1, fold player: 3
send inquire msg to player 8888 
inquire/ 
3333 19165 0 588 call 
6666 1625 6078 0 fold 
7777 132 8000 0 fold 
4444 8996 8000 588 raise 
1111 269 6011 0 fold 
2222 0 8000 181 all_in 
8888 11778 0 588 call 
total pot: 1945 
/inquire 
recv from player 8888: check
send inquire msg to player 2222 
inquire/ 
8888 11778 0 588 check 
3333 19165 0 588 call 
6666 1625 6078 0 fold 
7777 132 8000 0 fold 
4444 8996 8000 588 raise 
1111 269 6011 0 fold 
2222 0 8000 181 all_in 
total pot: 1945 
/inquire 
send inquire msg to player 1111 
inquire/ 
2222 0 8000 181 all_in 
8888 11778 0 588 check 
3333 19165 0 588 call 
6666 1625 6078 0 fold 
7777 132 8000 0 fold 
4444 8996 8000 588 raise 
1111 269 6011 0 fold 
total pot: 1945 
/inquire 
send inquire msg to player 4444 
inquire/ 
1111 269 6011 0 fold 
2222 0 8000 181 all_in 
8888 11778 0 588 check 
3333 19165 0 588 call 
6666 1625 6078 0 fold 
7777 132 8000 0 fold 
4444 8996 8000 588 raise 
total pot: 1945 
/inquire 
recv from player 4444: check
send inquire msg to player 7777 
inquire/ 
4444 8996 8000 588 check 
1111 269 6011 0 fold 
2222 0 8000 181 all_in 
8888 11778 0 588 check 
3333 19165 0 588 call 
6666 1625 6078 0 fold 
7777 132 8000 0 fold 
total pot: 1945 
/inquire 
send inquire msg to player 6666 
inquire/ 
7777 132 8000 0 fold 
4444 8996 8000 588 check 
1111 269 6011 0 fold 
2222 0 8000 181 all_in 
8888 11778 0 588 check 
3333 19165 0 588 call 
6666 1625 6078 0 fold 
total pot: 1945 
/inquire 
send inquire msg to player 3333 
inquire/ 
6666 1625 6078 0 fold 
7777 132 8000 0 fold 
4444 8996 8000 588 check 
1111 269 6011 0 fold 
2222 0 8000 181 all_in 
8888 11778 0 588 check 
3333 19165 0 588 call 
total pot: 1945 
/inquire 
recv from player 3333: check
turn/ 
CLUBS 6 
/turn 

---turn round bet---
valid player: 7, all in player: 1, fold player: 3
send inquire msg to player 8888 
inquire/ 
3333 19165 0 588 check 
6666 1625 6078 0 fold 
7777 132 8000 0 fold 
4444 8996 8000 588 check 
1111 269 6011 0 fold 
2222 0 8000 181 all_in 
8888 11778 0 588 check 
total pot: 1945 
/inquire 
recv from player 8888: check
send inquire msg to player 2222 
inquire/ 
8888 11778 0 588 check 
3333 19165 0 588 check 
6666 1625 6078 0 fold 
7777 132 8000 0 fold 
4444 8996 8000 588 check 
1111 269 6011 0 fold 
2222 0 8000 181 all_in 
total pot: 1945 
/inquire 
send inquire msg to player 1111 
inquire/ 
2222 0 8000 181 all_in 
8888 11778 0 588 check 
3333 19165 0 588 check 
6666 1625 6078 0 fold 
7777 132 8000 0 fold 
4444 8996 8000 588 check 
1111 269 6011 0 fold 
total pot: 1945 
/inquire 
send inquire msg to player 4444 
inquire/ 
1111 269 6011 0 fold 
2222 0 8000 181 all_in 
8888 11778 0 588 check 
3333 19165 0 588 check 
6666 1625 6078 0 fold 
7777 132 8000 0 fold 
4444 8996 8000 588 check 
total pot: 1945 
/inquire 
recv from player 4444: check
send inquire msg to player 7777 
inquire/ 
4444 8996 8000 588 check 
1111 269 6011 0 fold 
2222 0 8000 181 all_in 
8888 11778 0 588 check 
3333 19165 0 588 check 
6666 1625 6078 0 fold 
7777 132 8000 0 fold 
total pot: 1945 
/inquire 
send inquire msg to player 6666 
inquire/ 
7777 132 8000 0 fold 
4444 8996 8000 588 check 
1111 269 6011 0 fold 
2222 0 8000 181 all_in 
8888 11778 0 588 check 
3333 19165 0 588 check 
6666 1625 6078 0 fold 
total pot: 1945 
/inquire 
send inquire msg to player 3333 
inquire/ 
6666 1625 6078 0 fold 
7777 132 8000 0 fold 
4444 8996 8000 588 check 
1111 269 6011 0 fold 
2222 0 8000 181 all_in 
8888 11778 0 588 check 
3333 19165 0 588 check 
total pot: 1945 
/inquire 
recv from player 3333: check
river/ 
CLUBS 4 
/river 

---river round bet---
valid player: 7, all in player: 1, fold player: 3
send inquire msg to player 8888 
inquire/ 
3333 19165 0 588 check 
6666 1625 6078 0 fold 
7777 132 8000 0 fold 
4444 8996 8000 588 check 
1111 269 6011 0 fold 
2222 0 8000 181 all_in 
8888 11778 0 588 check 
total pot: 1945 
/inquire 
recv from player 8888: check
send inquire msg to player 2222 
inquire/ 
8888 11778 0 588 check 
3333 19165 0 588 check 
6666 1625 6078 0 fold 
7777 132 8000 0 fold 
4444 8996 8000 588 check 
1111 269 6011 0 fold 
2222 0 8000 181 all_in 
total pot: 1945 
/inquire 
send inquire msg to player 1111 
inquire/ 
2222 0 8000 181 all_in 
8888 11778 0 588 check 
3333 19165 0 588 check 
6666 1625 6078 0 fold 
7777 132 8000 0 fold 
4444 8996 8000 588 check 
1111 269 6011 0 fold 
total pot: 1945 
/inquire 
send inquire msg to player 4444 
inquire/ 
1111 269 6011 0 fold 
2222 0 8000 181 all_in 
8888 11778 0 588 check 
3333 19165 0 588 check 
6666 1625 6078 0 fold 
7777 132 8000 0 fold 
4444 8996 8000 588 check 
total pot: 1945 
/inquire 
recv from player 4444: check
send inquire msg to player 7777 
inquire/ 
4444 8996 8000 588 check 
1111 269 6011 0 fold 
2222 0 8000 181 all_in 
8888 11778 0 588 check 
3333 19165 0 588 check 
6666 1625 6078 0 fold 
7777 132 8000 0 fold 
total pot: 1945 
/inquire 
send inquire msg to player 6666 
inquire/ 
7777 132 8000 0 fold 
4444 8996 8000 588 check 
1111 269 6011 0 fold 
2222 0 8000 181 all_in 
8888 11778 0 588 check 
3333 19165 0 588 check 
6666 1625 6078 0 fold 
total pot: 1945 
/inquire 
send inquire msg to player 3333 
inquire/ 
6666 1625 6078 0 fold 
7777 132 8000 0 fold 
4444 8996 8000 588 check 
1111 269 6011 0 fold 
2222 0 8000 181 all_in 
8888 11778 0 588 check 
3333 19165 0 588 check 
total pot: 1945 
/inquire 
recv from player 3333: check

---show down---
showdown/ 
common/ 
CLUBS 9 
SPADES J 
HEARTS 9 
CLUBS 6 
CLUBS 4 
/common 
4: 8888 SPADES 3 HEARTS 2 ONE_PAIR 
3: 2222 DIAMONDS 2 SPADES K ONE_PAIR 
2: 4444 HEARTS 3 DIAMONDS A ONE_PAIR 
1: 3333 DIAMONDS 8 DIAMONDS 9 THREE_OF_A_KIND 
/showdown 

---Allocate pot---
pot-win/ 
3333: 1945 
/pot-win 
it is player 8888's turn to be button

-----35 Hand-----

----- clean player data in socket -----
seat/ 
button: 8888 11778 0 
small blind: 2222 2000 6000 
big blind: 1111 269 6011 
4444 8996 8000 
7777 132 8000 
6666 1625 6078 
3333 21110 0 
/seat 
blind/ 
2222: 50 
1111: 100 
/blind 
player 2222:hold/ 
DIAMONDS 9 
CLUBS 5 
/hold 
player 1111:hold/ 
SPADES Q 
DIAMONDS 2 
/hold 
player 4444:hold/ 
DIAMONDS J 
CLUBS J 
/hold 
player 7777:hold/ 
DIAMONDS A 
CLUBS 6 
/hold 
player 6666:hold/ 
CLUBS Q 
HEARTS A 
/hold 
player 3333:hold/ 
CLUBS 10 
HEARTS 2 
/hold 
player 8888:hold/ 
HEARTS 6 
SPADES 5 
/hold 

---pre flop round bet---
valid player: 7, all in player: 0, fold player: 0
send inquire msg to player 4444 
inquire/ 
1111 169 6011 100 blind 
2222 1950 6000 50 blind 
total pot: 150 
/inquire 
recv from player 4444: raise 1495
send inquire msg to player 7777 
inquire/ 
4444 7401 8000 1595 raise 
1111 169 6011 100 blind 
2222 1950 6000 50 blind 
total pot: 1745 
/inquire 
recv from player 7777: fold
send inquire msg to player 6666 
inquire/ 
7777 132 8000 0 fold 
4444 7401 8000 1595 raise 
1111 169 6011 100 blind 
2222 1950 6000 50 blind 
total pot: 1745 
/inquire 
recv from player 6666: fold
send inquire msg to player 3333 
inquire/ 
6666 1625 6078 0 fold 
7777 132 8000 0 fold 
4444 7401 8000 1595 raise 
1111 169 6011 100 blind 
2222 1950 6000 50 blind 
total pot: 1745 
/inquire 
recv from player 3333: check
send inquire msg to player 8888 
inquire/ 
3333 19515 0 1595 call 
6666 1625 6078 0 fold 
7777 132 8000 0 fold 
4444 7401 8000 1595 raise 
1111 169 6011 100 blind 
2222 1950 6000 50 blind 
total pot: 3340 
/inquire 
recv from player 8888: check
send inquire msg to player 2222 
inquire/ 
8888 10183 0 1595 call 
3333 19515 0 1595 call 
6666 1625 6078 0 fold 
7777 132 8000 0 fold 
4444 7401 8000 1595 raise 
1111 169 6011 100 blind 
2222 1950 6000 50 blind 
total pot: 4935 
/inquire 
recv from player 2222: check
send inquire msg to player 1111 
inquire/ 
2222 405 6000 1595 call 
8888 10183 0 1595 call 
3333 19515 0 1595 call 
6666 1625 6078 0 fold 
7777 132 8000 0 fold 
4444 7401 8000 1595 raise 
1111 169 6011 100 blind 
total pot: 6480 
/inquire 
recv from player 1111: check
flop/ 
HEARTS 4 
HEARTS 8 
DIAMONDS 4 
/flop 

---flop round bet---
valid player: 7, all in player: 1, fold player: 2
send inquire msg to player 2222 
inquire/ 
8888 10183 0 1595 call 
3333 19515 0 1595 call 
6666 1625 6078 0 fold 
7777 132 8000 0 fold 
4444 7401 8000 1595 raise 
1111 0 6011 269 all_in 
2222 405 6000 1595 call 
total pot: 6649 
/inquire 
recv from player 2222: check
send inquire msg to player 1111 
inquire/ 
2222 405 6000 1595 check 
8888 10183 0 1595 call 
3333 19515 0 1595 call 
6666 1625 6078 0 fold 
7777 132 8000 0 fold 
4444 7401 8000 1595 raise 
1111 0 6011 269 all_in 
total pot: 6649 
/inquire 
send inquire msg to player 4444 
inquire/ 
1111 0 6011 269 all_in 
2222 405 6000 1595 check 
8888 10183 0 1595 call 
3333 19515 0 1595 call 
6666 1625 6078 0 fold 
7777 132 8000 0 fold 
4444 7401 8000 1595 raise 
total pot: 6649 
/inquire 
recv from player 4444: check
send inquire msg to player 7777 
inquire/ 
4444 7401 8000 1595 check 
1111 0 6011 269 all_in 
2222 405 6000 1595 check 
8888 10183 0 1595 call 
3333 19515 0 1595 call 
6666 1625 6078 0 fold 
7777 132 8000 0 fold 
total pot: 6649 
/inquire 
send inquire msg to player 6666 
inquire/ 
7777 132 8000 0 fold 
4444 7401 8000 1595 check 
1111 0 6011 269 all_in 
2222 405 6000 1595 check 
8888 10183 0 1595 call 
3333 19515 0 1595 call 
6666 1625 6078 0 fold 
total pot: 6649 
/inquire 
send inquire msg to player 3333 
inquire/ 
6666 1625 6078 0 fold 
7777 132 8000 0 fold 
4444 7401 8000 1595 check 
1111 0 6011 269 all_in 
2222 405 6000 1595 check 
8888 10183 0 1595 call 
3333 19515 0 1595 call 
total pot: 6649 
/inquire 
recv from player 3333: check
send inquire msg to player 8888 
inquire/ 
3333 19515 0 1595 check 
6666 1625 6078 0 fold 
7777 132 8000 0 fold 
4444 7401 8000 1595 check 
1111 0 6011 269 all_in 
2222 405 6000 1595 check 
8888 10183 0 1595 call 
total pot: 6649 
/inquire 
recv from player 8888: check
turn/ 
SPADES 9 
/turn 

---turn round bet---
valid player: 7, all in player: 1, fold player: 2
send inquire msg to player 2222 
inquire/ 
8888 10183 0 1595 check 
3333 19515 0 1595 check 
6666 1625 6078 0 fold 
7777 132 8000 0 fold 
4444 7401 8000 1595 check 
1111 0 6011 269 all_in 
2222 405 6000 1595 check 
total pot: 6649 
/inquire 
recv from player 2222: fold
send inquire msg to player 1111 
inquire/ 
2222 405 6000 1595 fold 
8888 10183 0 1595 check 
3333 19515 0 1595 check 
6666 1625 6078 0 fold 
7777 132 8000 0 fold 
4444 7401 8000 1595 check 
1111 0 6011 269 all_in 
total pot: 6649 
/inquire 
send inquire msg to player 4444 
inquire/ 
1111 0 6011 269 all_in 
2222 405 6000 1595 fold 
8888 10183 0 1595 check 
3333 19515 0 1595 check 
6666 1625 6078 0 fold 
7777 132 8000 0 fold 
4444 7401 8000 1595 check 
total pot: 6649 
/inquire 
recv from player 4444: check
send inquire msg to player 7777 
inquire/ 
4444 7401 8000 1595 check 
1111 0 6011 269 all_in 
2222 405 6000 1595 fold 
8888 10183 0 1595 check 
3333 19515 0 1595 check 
6666 1625 6078 0 fold 
7777 132 8000 0 fold 
total pot: 6649 
/inquire 
send inquire msg to player 6666 
inquire/ 
7777 132 8000 0 fold 
4444 7401 8000 1595 check 
1111 0 6011 269 all_in 
2222 405 6000 1595 fold 
8888 10183 0 1595 check 
3333 19515 0 1595 check 
6666 1625 6078 0 fold 
total pot: 6649 
/inquire 
send inquire msg to player 3333 
inquire/ 
6666 1625 6078 0 fold 
7777 132 8000 0 fold 
4444 7401 8000 1595 check 
1111 0 6011 269 all_in 
2222 405 6000 1595 fold 
8888 10183 0 1595 check 
3333 19515 0 1595 check 
total pot: 6649 
/inquire 
recv from player 3333: check
send inquire msg to player 8888 
inquire/ 
3333 19515 0 1595 check 
6666 1625 6078 0 fold 
7777 132 8000 0 fold 
4444 7401 8000 1595 check 
1111 0 6011 269 all_in 
2222 405 6000 1595 fold 
8888 10183 0 1595 check 
total pot: 6649 
/inquire 
recv from player 8888: check
river/ 
HEARTS 3 
/river 

---river round bet---
valid player: 7, all in player: 1, fold player: 3
send inquire msg to player 2222 
inquire/ 
8888 10183 0 1595 check 
3333 19515 0 1595 check 
6666 1625 6078 0 fold 
7777 132 8000 0 fold 
4444 7401 8000 1595 check 
1111 0 6011 269 all_in 
2222 405 6000 1595 fold 
total pot: 6649 
/inquire 
send inquire msg to player 1111 
inquire/ 
2222 405 6000 1595 fold 
8888 10183 0 1595 check 
3333 19515 0 1595 check 
6666 1625 6078 0 fold 
7777 132 8000 0 fold 
4444 7401 8000 1595 check 
1111 0 6011 269 all_in 
total pot: 6649 
/inquire 
send inquire msg to player 4444 
inquire/ 
1111 0 6011 269 all_in 
2222 405 6000 1595 fold 
8888 10183 0 1595 check 
3333 19515 0 1595 check 
6666 1625 6078 0 fold 
7777 132 8000 0 fold 
4444 7401 8000 1595 check 
total pot: 6649 
/inquire 
recv from player 4444: check
send inquire msg to player 7777 
inquire/ 
4444 7401 8000 1595 check 
1111 0 6011 269 all_in 
2222 405 6000 1595 fold 
8888 10183 0 1595 check 
3333 19515 0 1595 check 
6666 1625 6078 0 fold 
7777 132 8000 0 fold 
total pot: 6649 
/inquire 
send inquire msg to player 6666 
inquire/ 
7777 132 8000 0 fold 
4444 7401 8000 1595 check 
1111 0 6011 269 all_in 
2222 405 6000 1595 fold 
8888 10183 0 1595 check 
3333 19515 0 1595 check 
6666 1625 6078 0 fold 
total pot: 6649 
/inquire 
send inquire msg to player 3333 
inquire/ 
6666 1625 6078 0 fold 
7777 132 8000 0 fold 
4444 7401 8000 1595 check 
1111 0 6011 269 all_in 
2222 405 6000 1595 fold 
8888 10183 0 1595 check 
3333 19515 0 1595 check 
total pot: 6649 
/inquire 
recv from player 3333: check
send inquire msg to player 8888 
inquire/ 
3333 19515 0 1595 check 
6666 1625 6078 0 fold 
7777 132 8000 0 fold 
4444 7401 8000 1595 check 
1111 0 6011 269 all_in 
2222 405 6000 1595 fold 
8888 10183 0 1595 check 
total pot: 6649 
/inquire 
recv from player 8888: check

---show down---
showdown/ 
common/ 
HEARTS 4 
HEARTS 8 
DIAMONDS 4 
SPADES 9 
HEARTS 3 
/common 
2: 1111 SPADES Q DIAMONDS 2 ONE_PAIR 
1: 4444 DIAMONDS J CLUBS J TWO_PAIR 
3: 3333 CLUBS 10 HEARTS 2 ONE_PAIR 
4: 8888 HEARTS 6 SPADES 5 ONE_PAIR 
/showdown 

---Allocate pot---
pot-win/ 
4444: 6649 
/pot-win 
it is player 2222's turn to be button

-----36 Hand-----

----- clean player data in socket -----
seat/ 
button: 2222 405 6000 
small blind: 1111 2000 4011 
big blind: 4444 14050 8000 
7777 132 8000 
6666 1625 6078 
3333 19515 0 
8888 10183 0 
/seat 
blind/ 
1111: 50 
4444: 100 
/blind 
player 1111:hold/ 
DIAMONDS K 
CLUBS 8 
/hold 
player 4444:hold/ 
HEARTS K 
DIAMONDS 3 
/hold 
player 7777:hold/ 
DIAMONDS 2 
CLUBS 9 
/hold 
player 6666:hold/ 
DIAMONDS 7 
SPADES 9 
/hold 
player 3333:hold/ 
CLUBS 2 
CLUBS K 
/hold 
player 8888:hold/ 
HEARTS Q 
SPADES 7 
/hold 
player 2222:hold/ 
SPADES K 
SPADES 2 
/hold 

---pre flop round bet---
valid player: 7, all in player: 0, fold player: 0
send inquire msg to player 7777 
inquire/ 
4444 13950 8000 100 blind 
1111 1950 4011 50 blind 
total pot: 150 
/inquire 
recv from player 7777: fold
send inquire msg to player 6666 
inquire/ 
7777 132 8000 0 fold 
4444 13950 8000 100 blind 
1111 1950 4011 50 blind 
total pot: 150 
/inquire 
recv from player 6666: check
send inquire msg to player 3333 
inquire/ 
6666 1525 6078 100 call 
7777 132 8000 0 fold 
4444 13950 8000 100 blind 
1111 1950 4011 50 blind 
total pot: 250 
/inquire 
recv from player 3333: check
send inquire msg to player 8888 
inquire/ 
3333 19415 0 100 call 
6666 1525 6078 100 call 
7777 132 8000 0 fold 
4444 13950 8000 100 blind 
1111 1950 4011 50 blind 
total pot: 350 
/inquire 
recv from player 8888: check
send inquire msg to player 2222 
inquire/ 
8888 10083 0 100 call 
3333 19415 0 100 call 
6666 1525 6078 100 call 
7777 132 8000 0 fold 
4444 13950 8000 100 blind 
1111 1950 4011 50 blind 
total pot: 450 
/inquire 
recv from player 2222: check
send inquire msg to player 1111 
inquire/ 
2222 305 6000 100 call 
8888 10083 0 100 call 
3333 19415 0 100 call 
6666 1525 6078 100 call 
7777 132 8000 0 fold 
4444 13950 8000 100 blind 
1111 1950 4011 50 blind 
total pot: 550 
/inquire 
recv from player 1111: fold
send inquire msg to player 4444 
inquire/ 
1111 1950 4011 50 fold 
2222 305 6000 100 call 
8888 10083 0 100 call 
3333 19415 0 100 call 
6666 1525 6078 100 call 
7777 132 8000 0 fold 
4444 13950 8000 100 blind 
total pot: 550 
/inquire 
recv from player 4444: check
flop/ 
HEARTS 2 
DIAMONDS 8 
HEARTS J 
/flop 

---flop round bet---
valid player: 7, all in player: 0, fold player: 2
send inquire msg to player 1111 
inquire/ 
2222 305 6000 100 call 
8888 10083 0 100 call 
3333 19415 0 100 call 
6666 1525 6078 100 call 
7777 132 8000 0 fold 
4444 13950 8000 100 check 
1111 1950 4011 50 fold 
total pot: 550 
/inquire 
send inquire msg to player 4444 
inquire/ 
1111 1950 4011 50 fold 
2222 305 6000 100 call 
8888 10083 0 100 call 
3333 19415 0 100 call 
6666 1525 6078 100 call 
7777 132 8000 0 fold 
4444 13950 8000 100 check 
total pot: 550 
/inquire 
recv from player 4444: check
send inquire msg to player 7777 
inquire/ 
4444 13950 8000 100 check 
1111 1950 4011 50 fold 
2222 305 6000 100 call 
8888 10083 0 100 call 
3333 19415 0 100 call 
6666 1525 6078 100 call 
7777 132 8000 0 fold 
total pot: 550 
/inquire 
send inquire msg to player 6666 
inquire/ 
7777 132 8000 0 fold 
4444 13950 8000 100 check 
1111 1950 4011 50 fold 
2222 305 6000 100 call 
8888 10083 0 100 call 
3333 19415 0 100 call 
6666 1525 6078 100 call 
total pot: 550 
/inquire 
recv from player 6666: check
send inquire msg to player 3333 
inquire/ 
6666 1525 6078 100 check 
7777 132 8000 0 fold 
4444 13950 8000 100 check 
1111 1950 4011 50 fold 
2222 305 6000 100 call 
8888 10083 0 100 call 
3333 19415 0 100 call 
total pot: 550 
/inquire 
recv from player 3333: check
send inquire msg to player 8888 
inquire/ 
3333 19415 0 100 check 
6666 1525 6078 100 check 
7777 132 8000 0 fold 
4444 13950 8000 100 check 
1111 1950 4011 50 fold 
2222 305 6000 100 call 
8888 10083 0 100 call 
total pot: 550 
/inquire 
recv from player 8888: check
send inquire msg to player 2222 
inquire/ 
8888 10083 0 100 check 
3333 19415 0 100 check 
6666 1525 6078 100 check 
7777 132 8000 0 fold 
4444 13950 8000 100 check 
1111 1950 4011 50 fold 
2222 305 6000 100 call 
total pot: 550 
/inquire 
recv from player 2222: fold
turn/ 
HEARTS 6 
/turn 

---turn round bet---
valid player: 7, all in player: 0, fold player: 3
send inquire msg to player 1111 
inquire/ 
2222 305 6000 100 fold 
8888 10083 0 100 check 
3333 19415 0 100 check 
6666 1525 6078 100 check 
7777 132 8000 0 fold 
4444 13950 8000 100 check 
1111 1950 4011 50 fold 
total pot: 550 
/inquire 
send inquire msg to player 4444 
inquire/ 
1111 1950 4011 50 fold 
2222 305 6000 100 fold 
8888 10083 0 100 check 
3333 19415 0 100 check 
6666 1525 6078 100 check 
7777 132 8000 0 fold 
4444 13950 8000 100 check 
total pot: 550 
/inquire 
recv from player 4444: check
send inquire msg to player 7777 
inquire/ 
4444 13950 8000 100 check 
1111 1950 4011 50 fold 
2222 305 6000 100 fold 
8888 10083 0 100 check 
3333 19415 0 100 check 
6666 1525 6078 100 check 
7777 132 8000 0 fold 
total pot: 550 
/inquire 
send inquire msg to player 6666 
inquire/ 
7777 132 8000 0 fold 
4444 13950 8000 100 check 
1111 1950 4011 50 fold 
2222 305 6000 100 fold 
8888 10083 0 100 check 
3333 19415 0 100 check 
6666 1525 6078 100 check 
total pot: 550 
/inquire 
recv from player 6666: check
send inquire msg to player 3333 
inquire/ 
6666 1525 6078 100 check 
7777 132 8000 0 fold 
4444 13950 8000 100 check 
1111 1950 4011 50 fold 
2222 305 6000 100 fold 
8888 10083 0 100 check 
3333 19415 0 100 check 
total pot: 550 
/inquire 
recv from player 3333: check
send inquire msg to player 8888 
inquire/ 
3333 19415 0 100 check 
6666 1525 6078 100 check 
7777 132 8000 0 fold 
4444 13950 8000 100 check 
1111 1950 4011 50 fold 
2222 305 6000 100 fold 
8888 10083 0 100 check 
total pot: 550 
/inquire 
recv from player 8888: check
river/ 
CLUBS 4 
/river 

---river round bet---
valid player: 7, all in player: 0, fold player: 3
send inquire msg to player 1111 
inquire/ 
2222 305 6000 100 fold 
8888 10083 0 100 check 
3333 19415 0 100 check 
6666 1525 6078 100 check 
7777 132 8000 0 fold 
4444 13950 8000 100 check 
1111 1950 4011 50 fold 
total pot: 550 
/inquire 
send inquire msg to player 4444 
inquire/ 
1111 1950 4011 50 fold 
2222 305 6000 100 fold 
8888 10083 0 100 check 
3333 19415 0 100 check 
6666 1525 6078 100 check 
7777 132 8000 0 fold 
4444 13950 8000 100 check 
total pot: 550 
/inquire 
recv from player 4444: check
send inquire msg to player 7777 
inquire/ 
4444 13950 8000 100 check 
1111 1950 4011 50 fold 
2222 305 6000 100 fold 
8888 10083 0 100 check 
3333 19415 0 100 check 
6666 1525 6078 100 check 
7777 132 8000 0 fold 
total pot: 550 
/inquire 
send inquire msg to player 6666 
inquire/ 
7777 132 8000 0 fold 
4444 13950 8000 100 check 
1111 1950 4011 50 fold 
2222 305 6000 100 fold 
8888 10083 0 100 check 
3333 19415 0 100 check 
6666 1525 6078 100 check 
total pot: 550 
/inquire 
recv from player 6666: check
send inquire msg to player 3333 
inquire/ 
6666 1525 6078 100 check 
7777 132 8000 0 fold 
4444 13950 8000 100 check 
1111 1950 4011 50 fold 
2222 305 6000 100 fold 
8888 10083 0 100 check 
3333 19415 0 100 check 
total pot: 550 
/inquire 
recv from player 3333: check
send inquire msg to player 8888 
inquire/ 
3333 19415 0 100 check 
6666 1525 6078 100 check 
7777 132 8000 0 fold 
4444 13950 8000 100 check 
1111 1950 4011 50 fold 
2222 305 6000 100 fold 
8888 10083 0 100 check 
total pot: 550 
/inquire 
recv from player 8888: check

---show down---
showdown/ 
common/ 
HEARTS 2 
DIAMONDS 8 
HEARTS J 
HEARTS 6 
CLUBS 4 
/common 
2: 4444 HEARTS K DIAMONDS 3 HIGH_CARD 
4: 6666 DIAMONDS 7 SPADES 9 HIGH_CARD 
1: 3333 CLUBS 2 CLUBS K ONE_PAIR 
3: 8888 HEARTS Q SPADES 7 HIGH_CARD 
/showdown 

---Allocate pot---
pot-win/ 
3333: 550 
/pot-win 
it is player 1111's turn to be button

-----37 Hand-----

----- clean player data in socket -----
seat/ 
button: 1111 1950 4011 
small blind: 4444 13950 8000 
big blind: 7777 132 8000 
6666 1525 6078 
3333 19965 0 
8888 10083 0 
2222 305 6000 
/seat 
blind/ 
4444: 50 
7777: 100 
/blind 
player 4444:hold/ 
CLUBS A 
DIAMONDS 2 
/hold 
player 7777:hold/ 
HEARTS K 
SPADES 4 
/hold 
player 6666:hold/ 
CLUBS 10 
HEARTS 4 
/hold 
player 3333:hold/ 
CLUBS K 
DIAMONDS 10 
/hold 
player 8888:hold/ 
SPADES 6 
SPADES 5 
/hold 
player 2222:hold/ 
DIAMONDS K 
CLUBS 5 
/hold 
player 1111:hold/ 
HEARTS 3 
DIAMONDS A 
/hold 

---pre flop round bet---
valid player: 7, all in player: 0, fold player: 0
send inquire msg to player 6666 
inquire/ 
7777 32 8000 100 blind 
4444 13900 8000 50 blind 
total pot: 150 
/inquire 
recv from player 6666: fold
send inquire msg to player 3333 
inquire/ 
6666 1525 6078 0 fold 
7777 32 8000 100 blind 
4444 13900 8000 50 blind 
total pot: 150 
/inquire 
recv from player 3333: check
send inquire msg to player 8888 
inquire/ 
3333 19865 0 100 call 
6666 1525 6078 0 fold 
7777 32 8000 100 blind 
4444 13900 8000 50 blind 
total pot: 250 
/inquire 
recv from player 8888: check
send inquire msg to player 2222 
inquire/ 
8888 9983 0 100 call 
3333 19865 0 100 call 
6666 1525 6078 0 fold 
7777 32 8000 100 blind 
4444 13900 8000 50 blind 
total pot: 350 
/inquire 
recv from player 2222: check
send inquire msg to player 1111 
inquire/ 
2222 205 6000 100 call 
8888 9983 0 100 call 
3333 19865 0 100 call 
6666 1525 6078 0 fold 
7777 32 8000 100 blind 
4444 13900 8000 50 blind 
total pot: 450 
/inquire 
recv from player 1111: fold
send inquire msg to player 4444 
inquire/ 
1111 1950 4011 0 fold 
2222 205 6000 100 call 
8888 9983 0 100 call 
3333 19865 0 100 call 
6666 1525 6078 0 fold 
7777 32 8000 100 blind 
4444 13900 8000 50 blind 
total pot: 450 
/inquire 
recv from player 4444: raise 511
send inquire msg to player 7777 
inquire/ 
4444 13339 8000 611 raise 
1111 1950 4011 0 fold 
2222 205 6000 100 call 
8888 9983 0 100 call 
3333 19865 0 100 call 
6666 1525 6078 0 fold 
7777 32 8000 100 blind 
total pot: 1011 
/inquire 
recv from player 7777: fold
send inquire msg to player 6666 
inquire/ 
7777 32 8000 100 fold 
4444 13339 8000 611 raise 
1111 1950 4011 0 fold 
2222 205 6000 100 call 
8888 9983 0 100 call 
3333 19865 0 100 call 
6666 1525 6078 0 fold 
total pot: 1011 
/inquire 
send inquire msg to player 3333 
inquire/ 
6666 1525 6078 0 fold 
7777 32 8000 100 fold 
4444 13339 8000 611 raise 
1111 1950 4011 0 fold 
2222 205 6000 100 call 
8888 9983 0 100 call 
3333 19865 0 100 call 
total pot: 1011 
/inquire 
recv from player 3333: check
send inquire msg to player 8888 
inquire/ 
3333 19354 0 611 call 
6666 1525 6078 0 fold 
7777 32 8000 100 fold 
4444 13339 8000 611 raise 
1111 1950 4011 0 fold 
2222 205 6000 100 call 
8888 9983 0 100 call 
total pot: 1522 
/inquire 
recv from player 8888: check
send inquire msg to player 2222 
inquire/ 
8888 9472 0 611 call 
3333 19354 0 611 call 
6666 1525 6078 0 fold 
7777 32 8000 100 fold 
4444 13339 8000 611 raise 
1111 1950 4011 0 fold 
2222 205 6000 100 call 
total pot: 2033 
/inquire 
recv from player 2222: fold
flop/ 
SPADES 10 
SPADES K 
CLUBS J 
/flop 

---flop round bet---
valid player: 7, all in player: 0, fold player: 4
send inquire msg to player 4444 
inquire/ 
1111 1950 4011 0 fold 
2222 205 6000 100 fold 
8888 9472 0 611 call 
3333 19354 0 611 call 
6666 1525 6078 0 fold 
7777 32 8000 100 fold 
4444 13339 8000 611 raise 
total pot: 2033 
/inquire 
recv from player 4444: check
send inquire msg to player 7777 
inquire/ 
4444 13339 8000 611 check 
1111 1950 4011 0 fold 
2222 205 6000 100 fold 
8888 9472 0 611 call 
3333 19354 0 611 call 
6666 1525 6078 0 fold 
7777 32 8000 100 fold 
total pot: 2033 
/inquire 
send inquire msg to player 6666 
inquire/ 
7777 32 8000 100 fold 
4444 13339 8000 611 check 
1111 1950 4011 0 fold 
2222 205 6000 100 fold 
8888 9472 0 611 call 
3333 19354 0 611 call 
6666 1525 6078 0 fold 
total pot: 2033 
/inquire 
send inquire msg to player 3333 
inquire/ 
6666 1525 6078 0 fold 
7777 32 8000 100 fold 
4444 13339 8000 611 check 
1111 1950 4011 0 fold 
2222 205 6000 100 fold 
8888 9472 0 611 call 
3333 19354 0 611 call 
total pot: 2033 
/inquire 
recv from player 3333: check
send inquire msg to player 8888 
inquire/ 
3333 19354 0 611 check 
6666 1525 6078 0 fold 
7777 32 8000 100 fold 
4444 13339 8000 611 check 
1111 1950 4011 0 fold 
2222 205 6000 100 fold 
8888 9472 0 611 call 
total pot: 2033 
/inquire 
recv from player 8888: check
turn/ 
SPADES 2 
/turn 

---turn round bet---
valid player: 7, all in player: 0, fold player: 4
send inquire msg to player 4444 
inquire/ 
1111 1950 4011 0 fold 
2222 205 6000 100 fold 
8888 9472 0 611 check 
3333 19354 0 611 check 
6666 1525 6078 0 fold 
7777 32 8000 100 fold 
4444 13339 8000 611 check 
total pot: 2033 
/inquire 
recv from player 4444: check
send inquire msg to player 7777 
inquire/ 
4444 13339 8000 611 check 
1111 1950 4011 0 fold 
2222 205 6000 100 fold 
8888 9472 0 611 check 
3333 19354 0 611 check 
6666 1525 6078 0 fold 
7777 32 8000 100 fold 
total pot: 2033 
/inquire 
send inquire msg to player 6666 
inquire/ 
7777 32 8000 100 fold 
4444 13339 8000 611 check 
1111 1950 4011 0 fold 
2222 205 6000 100 fold 
8888 9472 0 611 check 
3333 19354 0 611 check 
6666 1525 6078 0 fold 
total pot: 2033 
/inquire 
send inquire msg to player 3333 
inquire/ 
6666 1525 6078 0 fold 
7777 32 8000 100 fold 
4444 13339 8000 611 check 
1111 1950 4011 0 fold 
2222 205 6000 100 fold 
8888 9472 0 611 check 
3333 19354 0 611 check 
total pot: 2033 
/inquire 
recv from player 3333: check
send inquire msg to player 8888 
inquire/ 
3333 19354 0 611 check 
6666 1525 6078 0 fold 
7777 32 8000 100 fold 
4444 13339 8000 611 check 
1111 1950 4011 0 fold 
2222 205 6000 100 fold 
8888 9472 0 611 check 
total pot: 2033 
/inquire 
recv from player 8888: check
river/ 
HEARTS 9 
/river 

---river round bet---
valid player: 7, all in player: 0, fold player: 4
send inquire msg to player 4444 
inquire/ 
1111 1950 4011 0 fold 
2222 205 6000 100 fold 
8888 9472 0 611 check 
3333 19354 0 611 check 
6666 1525 6078 0 fold 
7777 32 8000 100 fold 
4444 13339 8000 611 check 
total pot: 2033 
/inquire 
recv from player 4444: check
send inquire msg to player 7777 
inquire/ 
4444 13339 8000 611 check 
1111 1950 4011 0 fold 
2222 205 6000 100 fold 
8888 9472 0 611 check 
3333 19354 0 611 check 
6666 1525 6078 0 fold 
7777 32 8000 100 fold 
total pot: 2033 
/inquire 
send inquire msg to player 6666 
inquire/ 
7777 32 8000 100 fold 
4444 13339 8000 611 check 
1111 1950 4011 0 fold 
2222 205 6000 100 fold 
8888 9472 0 611 check 
3333 19354 0 611 check 
6666 1525 6078 0 fold 
total pot: 2033 
/inquire 
send inquire msg to player 3333 
inquire/ 
6666 1525 6078 0 fold 
7777 32 8000 100 fold 
4444 13339 8000 611 check 
1111 1950 4011 0 fold 
2222 205 6000 100 fold 
8888 9472 0 611 check 
3333 19354 0 611 check 
total pot: 2033 
/inquire 
recv from player 3333: check
send inquire msg to player 8888 
inquire/ 
3333 19354 0 611 check 
6666 1525 6078 0 fold 
7777 32 8000 100 fold 
4444 13339 8000 611 check 
1111 1950 4011 0 fold 
2222 205 6000 100 fold 
8888 9472 0 611 check 
total pot: 2033 
/inquire 
recv from player 8888: check

---show down---
showdown/ 
common/ 
SPADES 10 
SPADES K 
CLUBS J 
SPADES 2 
HEARTS 9 
/common 
3: 4444 CLUBS A DIAMONDS 2 ONE_PAIR 
2: 3333 CLUBS K DIAMONDS 10 TWO_PAIR 
1: 8888 SPADES 6 SPADES 5 FLUSH 
/showdown 

---Allocate pot---
pot-win/ 
8888: 2033 
/pot-win 
it is player 4444's turn to be button

-----38 Hand-----

----- clean player data in socket -----
seat/ 
button: 4444 13339 8000 
small blind: 7777 2000 6032 
big blind: 6666 1525 6078 
3333 19354 0 
8888 11505 0 
2222 205 6000 
1111 1950 4011 
/seat 
blind/ 
7777: 50 
6666: 100 
/blind 
player 7777:hold/ 
CLUBS 4 
HEARTS 7 
/hold 
player 6666:hold/ 
DIAMONDS 4 
CLUBS 3 
/hold 
player 3333:hold/ 
HEARTS J 
CLUBS 10 
/hold 
player 8888:hold/ 
HEARTS Q 
CLUBS 7 
/hold 
player 2222:hold/ 
SPADES 3 
HEARTS 5 
/hold 
player 1111:hold/ 
HEARTS 8 
SPADES A 
/hold 
player 4444:hold/ 
HEARTS 3 
HEARTS 10 
/hold 

---pre flop round bet---
valid player: 7, all in player: 0, fold player: 0
send inquire msg to player 3333 
inquire/ 
6666 1425 6078 100 blind 
7777 1950 6032 50 blind 
total pot: 150 
/inquire 
recv from player 3333: check
send inquire msg to player 8888 
inquire/ 
3333 19254 0 100 call 
6666 1425 6078 100 blind 
7777 1950 6032 50 blind 
total pot: 250 
/inquire 
recv from player 8888: check
send inquire msg to player 2222 
inquire/ 
8888 11405 0 100 call 
3333 19254 0 100 call 
6666 1425 6078 100 blind 
7777 1950 6032 50 blind 
total pot: 350 
/inquire 
recv from player 2222: fold
send inquire msg to player 1111 
inquire/ 
2222 205 6000 0 fold 
8888 11405 0 100 call 
3333 19254 0 100 call 
6666 1425 6078 100 blind 
7777 1950 6032 50 blind 
total pot: 350 
/inquire 
recv from player 1111: check
send inquire msg to player 4444 
inquire/ 
1111 1850 4011 100 call 
2222 205 6000 0 fold 
8888 11405 0 100 call 
3333 19254 0 100 call 
6666 1425 6078 100 blind 
7777 1950 6032 50 blind 
total pot: 450 
/inquire 
recv from player 4444: raise 604
send inquire msg to player 7777 
inquire/ 
4444 12635 8000 704 raise 
1111 1850 4011 100 call 
2222 205 6000 0 fold 
8888 11405 0 100 call 
3333 19254 0 100 call 
6666 1425 6078 100 blind 
7777 1950 6032 50 blind 
total pot: 1154 
/inquire 
recv from player 7777: fold
send inquire msg to player 6666 
inquire/ 
7777 1950 6032 50 fold 
4444 12635 8000 704 raise 
1111 1850 4011 100 call 
2222 205 6000 0 fold 
8888 11405 0 100 call 
3333 19254 0 100 call 
6666 1425 6078 100 blind 
total pot: 1154 
/inquire 
recv from player 6666: fold
send inquire msg to player 3333 
inquire/ 
6666 1425 6078 100 fold 
7777 1950 6032 50 fold 
4444 12635 8000 704 raise 
1111 1850 4011 100 call 
2222 205 6000 0 fold 
8888 11405 0 100 call 
3333 19254 0 100 call 
total pot: 1154 
/inquire 
recv from player 3333: check
send inquire msg to player 8888 
inquire/ 
3333 18650 0 704 call 
6666 1425 6078 100 fold 
7777 1950 6032 50 fold 
4444 12635 8000 704 raise 
1111 1850 4011 100 call 
2222 205 6000 0 fold 
8888 11405 0 100 call 
total pot: 1758 
/inquire 
recv from player 8888: check
send inquire msg to player 2222 
inquire/ 
8888 10801 0 704 call 
3333 18650 0 704 call 
6666 1425 6078 100 fold 
7777 1950 6032 50 fold 
4444 12635 8000 704 raise 
1111 1850 4011 100 call 
2222 205 6000 0 fold 
total pot: 2362 
/inquire 
send inquire msg to player 1111 
inquire/ 
2222 205 6000 0 fold 
8888 10801 0 704 call 
3333 18650 0 704 call 
6666 1425 6078 100 fold 
7777 1950 6032 50 fold 
4444 12635 8000 704 raise 
1111 1850 4011 100 call 
total pot: 2362 
/inquire 
recv from player 1111: fold
flop/ 
DIAMONDS 10 
CLUBS 2 
HEARTS A 
/flop 

---flop round bet---
valid player: 7, all in player: 0, fold player: 4
send inquire msg to player 7777 
inquire/ 
4444 12635 8000 704 raise 
1111 1850 4011 100 fold 
2222 205 6000 0 fold 
8888 10801 0 704 call 
3333 18650 0 704 call 
6666 1425 6078 100 fold 
7777 1950 6032 50 fold 
total pot: 2362 
/inquire 
send inquire msg to player 6666 
inquire/ 
7777 1950 6032 50 fold 
4444 12635 8000 704 raise 
1111 1850 4011 100 fold 
2222 205 6000 0 fold 
8888 10801 0 704 call 
3333 18650 0 704 call 
6666 1425 6078 100 fold 
total pot: 2362 
/inquire 
send inquire msg to player 3333 
inquire/ 
6666 1425 6078 100 fold 
7777 1950 6032 50 fold 
4444 12635 8000 704 raise 
1111 1850 4011 100 fold 
2222 205 6000 0 fold 
8888 10801 0 704 call 
3333 18650 0 704 call 
total pot: 2362 
/inquire 
recv from player 3333: check
send inquire msg to player 8888 
inquire/ 
3333 18650 0 704 check 
6666 1425 6078 100 fold 
7777 1950 6032 50 fold 
4444 12635 8000 704 raise 
1111 1850 4011 100 fold 
2222 205 6000 0 fold 
8888 10801 0 704 call 
total pot: 2362 
/inquire 
recv from player 8888: check
send inquire msg to player 2222 
inquire/ 
8888 10801 0 704 check 
3333 18650 0 704 check 
6666 1425 6078 100 fold 
7777 1950 6032 50 fold 
4444 12635 8000 704 raise 
1111 1850 4011 100 fold 
2222 205 6000 0 fold 
total pot: 2362 
/inquire 
send inquire msg to player 1111 
inquire/ 
2222 205 6000 0 fold 
8888 10801 0 704 check 
3333 18650 0 704 check 
6666 1425 6078 100 fold 
7777 1950 6032 50 fold 
4444 12635 8000 704 raise 
1111 1850 4011 100 fold 
total pot: 2362 
/inquire 
send inquire msg to player 4444 
inquire/ 
1111 1850 4011 100 fold 
2222 205 6000 0 fold 
8888 10801 0 704 check 
3333 18650 0 704 check 
6666 1425 6078 100 fold 
7777 1950 6032 50 fold 
4444 12635 8000 704 raise 
total pot: 2362 
/inquire 
recv from player 4444: raise 1141
send inquire msg to player 7777 
inquire/ 
4444 11494 8000 1845 raise 
1111 1850 4011 100 fold 
2222 205 6000 0 fold 
8888 10801 0 704 check 
3333 18650 0 704 check 
6666 1425 6078 100 fold 
7777 1950 6032 50 fold 
total pot: 3503 
/inquire 
send inquire msg to player 6666 
inquire/ 
7777 1950 6032 50 fold 
4444 11494 8000 1845 raise 
1111 1850 4011 100 fold 
2222 205 6000 0 fold 
8888 10801 0 704 check 
3333 18650 0 704 check 
6666 1425 6078 100 fold 
total pot: 3503 
/inquire 
send inquire msg to player 3333 
inquire/ 
6666 1425 6078 100 fold 
7777 1950 6032 50 fold 
4444 11494 8000 1845 raise 
1111 1850 4011 100 fold 
2222 205 6000 0 fold 
8888 10801 0 704 check 
3333 18650 0 704 check 
total pot: 3503 
/inquire 
recv from player 3333: check
send inquire msg to player 8888 
inquire/ 
3333 17509 0 1845 call 
6666 1425 6078 100 fold 
7777 1950 6032 50 fold 
4444 11494 8000 1845 raise 
1111 1850 4011 100 fold 
2222 205 6000 0 fold 
8888 10801 0 704 check 
total pot: 4644 
/inquire 
recv from player 8888: check
turn/ 
DIAMONDS 5 
/turn 

---turn round bet---
valid player: 7, all in player: 0, fold player: 4
send inquire msg to player 7777 
inquire/ 
4444 11494 8000 1845 raise 
1111 1850 4011 100 fold 
2222 205 6000 0 fold 
8888 9660 0 1845 call 
3333 17509 0 1845 call 
6666 1425 6078 100 fold 
7777 1950 6032 50 fold 
total pot: 5785 
/inquire 
send inquire msg to player 6666 
inquire/ 
7777 1950 6032 50 fold 
4444 11494 8000 1845 raise 
1111 1850 4011 100 fold 
2222 205 6000 0 fold 
8888 9660 0 1845 call 
3333 17509 0 1845 call 
6666 1425 6078 100 fold 
total pot: 5785 
/inquire 
send inquire msg to player 3333 
inquire/ 
6666 1425 6078 100 fold 
7777 1950 6032 50 fold 
4444 11494 8000 1845 raise 
1111 1850 4011 100 fold 
2222 205 6000 0 fold 
8888 9660 0 1845 call 
3333 17509 0 1845 call 
total pot: 5785 
/inquire 
recv from player 3333: check
send inquire msg to player 8888 
inquire/ 
3333 17509 0 1845 check 
6666 1425 6078 100 fold 
7777 1950 6032 50 fold 
4444 11494 8000 1845 raise 
1111 1850 4011 100 fold 
2222 205 6000 0 fold 
8888 9660 0 1845 call 
total pot: 5785 
/inquire 
recv from player 8888: check
send inquire msg to player 2222 
inquire/ 
8888 9660 0 1845 check 
3333 17509 0 1845 check 
6666 1425 6078 100 fold 
7777 1950 6032 50 fold 
4444 11494 8000 1845 raise 
1111 1850 4011 100 fold 
2222 205 6000 0 fold 
total pot: 5785 
/inquire 
send inquire msg to player 1111 
inquire/ 
2222 205 6000 0 fold 
8888 9660 0 1845 check 
3333 17509 0 1845 check 
6666 1425 6078 100 fold 
7777 1950 6032 50 fold 
4444 11494 8000 1845 raise 
1111 1850 4011 100 fold 
total pot: 5785 
/inquire 
send inquire msg to player 4444 
inquire/ 
1111 1850 4011 100 fold 
2222 205 6000 0 fold 
8888 9660 0 1845 check 
3333 17509 0 1845 check 
6666 1425 6078 100 fold 
7777 1950 6032 50 fold 
4444 11494 8000 1845 raise 
total pot: 5785 
/inquire 
recv from player 4444: check
river/ 
DIAMONDS J 
/river 

---river round bet---
valid player: 7, all in player: 0, fold player: 4
send inquire msg to player 7777 
inquire/ 
4444 11494 8000 1845 check 
1111 1850 4011 100 fold 
2222 205 6000 0 fold 
8888 9660 0 1845 check 
3333 17509 0 1845 check 
6666 1425 6078 100 fold 
7777 1950 6032 50 fold 
total pot: 5785 
/inquire 
send inquire msg to player 6666 
inquire/ 
7777 1950 6032 50 fold 
4444 11494 8000 1845 check 
1111 1850 4011 100 fold 
2222 205 6000 0 fold 
8888 9660 0 1845 check 
3333 17509 0 1845 check 
6666 1425 6078 100 fold 
total pot: 5785 
/inquire 
send inquire msg to player 3333 
inquire/ 
6666 1425 6078 100 fold 
7777 1950 6032 50 fold 
4444 11494 8000 1845 check 
1111 1850 4011 100 fold 
2222 205 6000 0 fold 
8888 9660 0 1845 check 
3333 17509 0 1845 check 
total pot: 5785 
/inquire 
recv from player 3333: check
send inquire msg to player 8888 
inquire/ 
3333 17509 0 1845 check 
6666 1425 6078 100 fold 
7777 1950 6032 50 fold 
4444 11494 8000 1845 check 
1111 1850 4011 100 fold 
2222 205 6000 0 fold 
8888 9660 0 1845 check 
total pot: 5785 
/inquire 
recv from player 8888: check
send inquire msg to player 2222 
inquire/ 
8888 9660 0 1845 check 
3333 17509 0 1845 check 
6666 1425 6078 100 fold 
7777 1950 6032 50 fold 
4444 11494 8000 1845 check 
1111 1850 4011 100 fold 
2222 205 6000 0 fold 
total pot: 5785 
/inquire 
send inquire msg to player 1111 
inquire/ 
2222 205 6000 0 fold 
8888 9660 0 1845 check 
3333 17509 0 1845 check 
6666 1425 6078 100 fold 
7777 1950 6032 50 fold 
4444 11494 8000 1845 check 
1111 1850 4011 100 fold 
total pot: 5785 
/inquire 
send inquire msg to player 4444 
inquire/ 
1111 1850 4011 100 fold 
2222 205 6000 0 fold 
8888 9660 0 1845 check 
3333 17509 0 1845 check 
6666 1425 6078 100 fold 
7777 1950 6032 50 fold 
4444 11494 8000 1845 check 
total pot: 5785 
/inquire 
recv from player 4444: check

---show down---
showdown/ 
common/ 
DIAMONDS 10 
CLUBS 2 
HEARTS A 
DIAMONDS 5 
DIAMONDS J 
/common 
1: 3333 HEARTS J CLUBS 10 TWO_PAIR 
3: 8888 HEARTS Q CLUBS 7 HIGH_CARD 
2: 4444 HEARTS 3 HEARTS 10 ONE_PAIR 
/showdown 

---Allocate pot---
pot-win/ 
3333: 5785 
/pot-win 
it is player 7777's turn to be button

-----39 Hand-----

----- clean player data in socket -----
seat/ 
button: 7777 1950 6032 
small blind: 6666 1425 6078 
big blind: 3333 23294 0 
8888 9660 0 
2222 205 6000 
1111 1850 4011 
4444 11494 8000 
/seat 
blind/ 
6666: 50 
3333: 100 
/blind 
player 6666:hold/ 
CLUBS 8 
DIAMONDS 8 
/hold 
player 3333:hold/ 
HEARTS 7 
SPADES 6 
/hold 
player 8888:hold/ 
DIAMONDS 6 
DIAMONDS 5 
/hold 
player 2222:hold/ 
CLUBS Q 
DIAMONDS 9 
/hold 
player 1111:hold/ 
DIAMONDS J 
HEARTS 9 
/hold 
player 4444:hold/ 
DIAMONDS 10 
CLUBS 10 
/hold 
player 7777:hold/ 
HEARTS 5 
SPADES 4 
/hold 

---pre flop round bet---
valid player: 7, all in player: 0, fold player: 0
send inquire msg to player 8888 
inquire/ 
3333 23194 0 100 blind 
6666 1375 6078 50 blind 
total pot: 150 
/inquire 
recv from player 8888: check
send inquire msg to player 2222 
inquire/ 
8888 9560 0 100 call 
3333 23194 0 100 blind 
6666 1375 6078 50 blind 
total pot: 250 
/inquire 
recv from player 2222: fold
send inquire msg to player 1111 
inquire/ 
2222 205 6000 0 fold 
8888 9560 0 100 call 
3333 23194 0 100 blind 
6666 1375 6078 50 blind 
total pot: 250 
/inquire 
recv from player 1111: fold
send inquire msg to player 4444 
inquire/ 
1111 1850 4011 0 fold 
2222 205 6000 0 fold 
8888 9560 0 100 call 
3333 23194 0 100 blind 
6666 1375 6078 50 blind 
total pot: 250 
/inquire 
recv from player 4444: raise 1968
send inquire msg to player 7777 
inquire/ 
4444 9426 8000 2068 raise 
1111 1850 4011 0 fold 
2222 205 6000 0 fold 
8888 9560 0 100 call 
3333 23194 0 100 blind 
6666 1375 6078 50 blind 
total pot: 2318 
/inquire 
recv from player 7777: fold
send inquire msg to player 6666 
inquire/ 
7777 1950 6032 0 fold 
4444 9426 8000 2068 raise 
1111 1850 4011 0 fold 
2222 205 6000 0 fold 
8888 9560 0 100 call 
3333 23194 0 100 blind 
6666 1375 6078 50 blind 
total pot: 2318 
/inquire 
recv from player 6666: fold
send inquire msg to player 3333 
inquire/ 
6666 1375 6078 50 fold 
7777 1950 6032 0 fold 
4444 9426 8000 2068 raise 
1111 1850 4011 0 fold 
2222 205 6000 0 fold 
8888 9560 0 100 call 
3333 23194 0 100 blind 
total pot: 2318 
/inquire 
recv from player 3333: check
send inquire msg to player 8888 
inquire/ 
3333 21226 0 2068 call 
6666 1375 6078 50 fold 
7777 1950 6032 0 fold 
4444 9426 8000 2068 raise 
1111 1850 4011 0 fold 
2222 205 6000 0 fold 
8888 9560 0 100 call 
total pot: 4286 
/inquire 
recv from player 8888: check
flop/ 
CLUBS 3 
DIAMONDS A 
DIAMONDS 7 
/flop 

---flop round bet---
valid player: 7, all in player: 0, fold player: 4
send inquire msg to player 6666 
inquire/ 
7777 1950 6032 0 fold 
4444 9426 8000 2068 raise 
1111 1850 4011 0 fold 
2222 205 6000 0 fold 
8888 7592 0 2068 call 
3333 21226 0 2068 call 
6666 1375 6078 50 fold 
total pot: 6254 
/inquire 
send inquire msg to player 3333 
inquire/ 
6666 1375 6078 50 fold 
7777 1950 6032 0 fold 
4444 9426 8000 2068 raise 
1111 1850 4011 0 fold 
2222 205 6000 0 fold 
8888 7592 0 2068 call 
3333 21226 0 2068 call 
total pot: 6254 
/inquire 
recv from player 3333: check
send inquire msg to player 8888 
inquire/ 
3333 21226 0 2068 check 
6666 1375 6078 50 fold 
7777 1950 6032 0 fold 
4444 9426 8000 2068 raise 
1111 1850 4011 0 fold 
2222 205 6000 0 fold 
8888 7592 0 2068 call 
total pot: 6254 
/inquire 
recv from player 8888: check
send inquire msg to player 2222 
inquire/ 
8888 7592 0 2068 check 
3333 21226 0 2068 check 
6666 1375 6078 50 fold 
7777 1950 6032 0 fold 
4444 9426 8000 2068 raise 
1111 1850 4011 0 fold 
2222 205 6000 0 fold 
total pot: 6254 
/inquire 
send inquire msg to player 1111 
inquire/ 
2222 205 6000 0 fold 
8888 7592 0 2068 check 
3333 21226 0 2068 check 
6666 1375 6078 50 fold 
7777 1950 6032 0 fold 
4444 9426 8000 2068 raise 
1111 1850 4011 0 fold 
total pot: 6254 
/inquire 
send inquire msg to player 4444 
inquire/ 
1111 1850 4011 0 fold 
2222 205 6000 0 fold 
8888 7592 0 2068 check 
3333 21226 0 2068 check 
6666 1375 6078 50 fold 
7777 1950 6032 0 fold 
4444 9426 8000 2068 raise 
total pot: 6254 
/inquire 
recv from player 4444: check
turn/ 
CLUBS 6 
/turn 

---turn round bet---
valid player: 7, all in player: 0, fold player: 4
send inquire msg to player 6666 
inquire/ 
7777 1950 6032 0 fold 
4444 9426 8000 2068 check 
1111 1850 4011 0 fold 
2222 205 6000 0 fold 
8888 7592 0 2068 check 
3333 21226 0 2068 check 
6666 1375 6078 50 fold 
total pot: 6254 
/inquire 
send inquire msg to player 3333 
inquire/ 
6666 1375 6078 50 fold 
7777 1950 6032 0 fold 
4444 9426 8000 2068 check 
1111 1850 4011 0 fold 
2222 205 6000 0 fold 
8888 7592 0 2068 check 
3333 21226 0 2068 check 
total pot: 6254 
/inquire 
recv from player 3333: check
send inquire msg to player 8888 
inquire/ 
3333 21226 0 2068 check 
6666 1375 6078 50 fold 
7777 1950 6032 0 fold 
4444 9426 8000 2068 check 
1111 1850 4011 0 fold 
2222 205 6000 0 fold 
8888 7592 0 2068 check 
total pot: 6254 
/inquire 
recv from player 8888: check
send inquire msg to player 2222 
inquire/ 
8888 7592 0 2068 check 
3333 21226 0 2068 check 
6666 1375 6078 50 fold 
7777 1950 6032 0 fold 
4444 9426 8000 2068 check 
1111 1850 4011 0 fold 
2222 205 6000 0 fold 
total pot: 6254 
/inquire 
send inquire msg to player 1111 
inquire/ 
2222 205 6000 0 fold 
8888 7592 0 2068 check 
3333 21226 0 2068 check 
6666 1375 6078 50 fold 
7777 1950 6032 0 fold 
4444 9426 8000 2068 check 
1111 1850 4011 0 fold 
total pot: 6254 
/inquire 
send inquire msg to player 4444 
inquire/ 
1111 1850 4011 0 fold 
2222 205 6000 0 fold 
8888 7592 0 2068 check 
3333 21226 0 2068 check 
6666 1375 6078 50 fold 
7777 1950 6032 0 fold 
4444 9426 8000 2068 check 
total pot: 6254 
/inquire 
recv from player 4444: check
river/ 
CLUBS K 
/river 

---river round bet---
valid player: 7, all in player: 0, fold player: 4
send inquire msg to player 6666 
inquire/ 
7777 1950 6032 0 fold 
4444 9426 8000 2068 check 
1111 1850 4011 0 fold 
2222 205 6000 0 fold 
8888 7592 0 2068 check 
3333 21226 0 2068 check 
6666 1375 6078 50 fold 
total pot: 6254 
/inquire 
send inquire msg to player 3333 
inquire/ 
6666 1375 6078 50 fold 
7777 1950 6032 0 fold 
4444 9426 8000 2068 check 
1111 1850 4011 0 fold 
2222 205 6000 0 fold 
8888 7592 0 2068 check 
3333 21226 0 2068 check 
total pot: 6254 
/inquire 
recv from player 3333: check
send inquire msg to player 8888 
inquire/ 
3333 21226 0 2068 check 
6666 1375 6078 50 fold 
7777 1950 6032 0 fold 
4444 9426 8000 2068 check 
1111 1850 4011 0 fold 
2222 205 6000 0 fold 
8888 7592 0 2068 check 
total pot: 6254 
/inquire 
recv from player 8888: check
send inquire msg to player 2222 
inquire/ 
8888 7592 0 2068 check 
3333 21226 0 2068 check 
6666 1375 6078 50 fold 
7777 1950 6032 0 fold 
4444 9426 8000 2068 check 
1111 1850 4011 0 fold 
2222 205 6000 0 fold 
total pot: 6254 
/inquire 
send inquire msg to player 1111 
inquire/ 
2222 205 6000 0 fold 
8888 7592 0 2068 check 
3333 21226 0 2068 check 
6666 1375 6078 50 fold 
7777 1950 6032 0 fold 
4444 9426 8000 2068 check 
1111 1850 4011 0 fold 
total pot: 6254 
/inquire 
send inquire msg to player 4444 
inquire/ 
1111 1850 4011 0 fold 
2222 205 6000 0 fold 
8888 7592 0 2068 check 
3333 21226 0 2068 check 
6666 1375 6078 50 fold 
7777 1950 6032 0 fold 
4444 9426 8000 2068 check 
total pot: 6254 
/inquire 
recv from player 4444: check

---show down---
showdown/ 
common/ 
CLUBS 3 
DIAMONDS A 
DIAMONDS 7 
CLUBS 6 
CLUBS K 
/common 
1: 3333 HEARTS 7 SPADES 6 TWO_PAIR 
3: 8888 DIAMONDS 6 DIAMONDS 5 ONE_PAIR 
2: 4444 DIAMONDS 10 CLUBS 10 ONE_PAIR 
/showdown 

---Allocate pot---
pot-win/ 
3333: 6254 
/pot-win 
it is player 6666's turn to be button

-----40 Hand-----

----- clean player data in socket -----
seat/ 
button: 6666 1375 6078 
small blind: 3333 27480 0 
big blind: 8888 7592 0 
2222 205 6000 
1111 1850 4011 
4444 9426 8000 
7777 1950 6032 
/seat 
blind/ 
3333: 50 
8888: 100 
/blind 
player 3333:hold/ 
DIAMONDS 7 
SPADES 8 
/hold 
player 8888:hold/ 
DIAMONDS A 
SPADES 9 
/hold 
player 2222:hold/ 
CLUBS 3 
SPADES Q 
/hold 
player 1111:hold/ 
SPADES K 
CLUBS 6 
/hold 
player 4444:hold/ 
CLUBS A 
SPADES 4 
/hold 
player 7777:hold/ 
CLUBS 4 
SPADES 5 
/hold 
player 6666:hold/ 
HEARTS 5 
SPADES 3 
/hold 

---pre flop round bet---
valid player: 7, all in player: 0, fold player: 0
send inquire msg to player 2222 
inquire/ 
8888 7492 0 100 blind 
3333 27430 0 50 blind 
total pot: 150 
/inquire 
recv from player 2222: check
send inquire msg to player 1111 
inquire/ 
2222 105 6000 100 call 
8888 7492 0 100 blind 
3333 27430 0 50 blind 
total pot: 250 
/inquire 
recv from player 1111: fold
send inquire msg to player 4444 
inquire/ 
1111 1850 4011 0 fold 
2222 105 6000 100 call 
8888 7492 0 100 blind 
3333 27430 0 50 blind 
total pot: 250 
/inquire 
recv from player 4444: raise 561
send inquire msg to player 7777 
inquire/ 
4444 8765 8000 661 raise 
1111 1850 4011 0 fold 
2222 105 6000 100 call 
8888 7492 0 100 blind 
3333 27430 0 50 blind 
total pot: 911 
/inquire 
recv from player 7777: fold
send inquire msg to player 6666 
inquire/ 
7777 1950 6032 0 fold 
4444 8765 8000 661 raise 
1111 1850 4011 0 fold 
2222 105 6000 100 call 
8888 7492 0 100 blind 
3333 27430 0 50 blind 
total pot: 911 
/inquire 
recv from player 6666: fold
send inquire msg to player 3333 
inquire/ 
6666 1375 6078 0 fold 
7777 1950 6032 0 fold 
4444 8765 8000 661 raise 
1111 1850 4011 0 fold 
2222 105 6000 100 call 
8888 7492 0 100 blind 
3333 27430 0 50 blind 
total pot: 911 
/inquire 
recv from player 3333: check
send inquire msg to player 8888 
inquire/ 
3333 26819 0 661 call 
6666 1375 6078 0 fold 
7777 1950 6032 0 fold 
4444 8765 8000 661 raise 
1111 1850 4011 0 fold 
2222 105 6000 100 call 
8888 7492 0 100 blind 
total pot: 1522 
/inquire 
recv from player 8888: check
send inquire msg to player 2222 
inquire/ 
8888 6931 0 661 call 
3333 26819 0 661 call 
6666 1375 6078 0 fold 
7777 1950 6032 0 fold 
4444 8765 8000 661 raise 
1111 1850 4011 0 fold 
2222 105 6000 100 call 
total pot: 2083 
/inquire 
recv from player 2222: fold
flop/ 
SPADES J 
HEARTS 4 
HEARTS Q 
/flop 

---flop round bet---
valid player: 7, all in player: 0, fold player: 4
send inquire msg to player 3333 
inquire/ 
6666 1375 6078 0 fold 
7777 1950 6032 0 fold 
4444 8765 8000 661 raise 
1111 1850 4011 0 fold 
2222 105 6000 100 fold 
8888 6931 0 661 call 
3333 26819 0 661 call 
total pot: 2083 
/inquire 
recv from player 3333: check
send inquire msg to player 8888 
inquire/ 
3333 26819 0 661 check 
6666 1375 6078 0 fold 
7777 1950 6032 0 fold 
4444 8765 8000 661 raise 
1111 1850 4011 0 fold 
2222 105 6000 100 fold 
8888 6931 0 661 call 
total pot: 2083 
/inquire 
recv from player 8888: check
send inquire msg to player 2222 
inquire/ 
8888 6931 0 661 check 
3333 26819 0 661 check 
6666 1375 6078 0 fold 
7777 1950 6032 0 fold 
4444 8765 8000 661 raise 
1111 1850 4011 0 fold 
2222 105 6000 100 fold 
total pot: 2083 
/inquire 
send inquire msg to player 1111 
inquire/ 
2222 105 6000 100 fold 
8888 6931 0 661 check 
3333 26819 0 661 check 
6666 1375 6078 0 fold 
7777 1950 6032 0 fold 
4444 8765 8000 661 raise 
1111 1850 4011 0 fold 
total pot: 2083 
/inquire 
send inquire msg to player 4444 
inquire/ 
1111 1850 4011 0 fold 
2222 105 6000 100 fold 
8888 6931 0 661 check 
3333 26819 0 661 check 
6666 1375 6078 0 fold 
7777 1950 6032 0 fold 
4444 8765 8000 661 raise 
total pot: 2083 
/inquire 
recv from player 4444: check
turn/ 
SPADES A 
/turn 

---turn round bet---
valid player: 7, all in player: 0, fold player: 4
send inquire msg to player 3333 
inquire/ 
6666 1375 6078 0 fold 
7777 1950 6032 0 fold 
4444 8765 8000 661 check 
1111 1850 4011 0 fold 
2222 105 6000 100 fold 
8888 6931 0 661 check 
3333 26819 0 661 check 
total pot: 2083 
/inquire 
recv from player 3333: check
send inquire msg to player 8888 
inquire/ 
3333 26819 0 661 check 
6666 1375 6078 0 fold 
7777 1950 6032 0 fold 
4444 8765 8000 661 check 
1111 1850 4011 0 fold 
2222 105 6000 100 fold 
8888 6931 0 661 check 
total pot: 2083 
/inquire 
recv from player 8888: check
send inquire msg to player 2222 
inquire/ 
8888 6931 0 661 check 
3333 26819 0 661 check 
6666 1375 6078 0 fold 
7777 1950 6032 0 fold 
4444 8765 8000 661 check 
1111 1850 4011 0 fold 
2222 105 6000 100 fold 
total pot: 2083 
/inquire 
send inquire msg to player 1111 
inquire/ 
2222 105 6000 100 fold 
8888 6931 0 661 check 
3333 26819 0 661 check 
6666 1375 6078 0 fold 
7777 1950 6032 0 fold 
4444 8765 8000 661 check 
1111 1850 4011 0 fold 
total pot: 2083 
/inquire 
send inquire msg to player 4444 
inquire/ 
1111 1850 4011 0 fold 
2222 105 6000 100 fold 
8888 6931 0 661 check 
3333 26819 0 661 check 
6666 1375 6078 0 fold 
7777 1950 6032 0 fold 
4444 8765 8000 661 check 
total pot: 2083 
/inquire 
recv from player 4444: raise 3433
send inquire msg to player 7777 
inquire/ 
4444 5332 8000 4094 raise 
1111 1850 4011 0 fold 
2222 105 6000 100 fold 
8888 6931 0 661 check 
3333 26819 0 661 check 
6666 1375 6078 0 fold 
7777 1950 6032 0 fold 
total pot: 5516 
/inquire 
send inquire msg to player 6666 
inquire/ 
7777 1950 6032 0 fold 
4444 5332 8000 4094 raise 
1111 1850 4011 0 fold 
2222 105 6000 100 fold 
8888 6931 0 661 check 
3333 26819 0 661 check 
6666 1375 6078 0 fold 
total pot: 5516 
/inquire 
send inquire msg to player 3333 
inquire/ 
6666 1375 6078 0 fold 
7777 1950 6032 0 fold 
4444 5332 8000 4094 raise 
1111 1850 4011 0 fold 
2222 105 6000 100 fold 
8888 6931 0 661 check 
3333 26819 0 661 check 
total pot: 5516 
/inquire 
recv from player 3333: check
send inquire msg to player 8888 
inquire/ 
3333 23386 0 4094 call 
6666 1375 6078 0 fold 
7777 1950 6032 0 fold 
4444 5332 8000 4094 raise 
1111 1850 4011 0 fold 
2222 105 6000 100 fold 
8888 6931 0 661 check 
total pot: 8949 
/inquire 
recv from player 8888: check
river/ 
DIAMONDS 10 
/river 

---river round bet---
valid player: 7, all in player: 0, fold player: 4
send inquire msg to player 3333 
inquire/ 
6666 1375 6078 0 fold 
7777 1950 6032 0 fold 
4444 5332 8000 4094 raise 
1111 1850 4011 0 fold 
2222 105 6000 100 fold 
8888 3498 0 4094 call 
3333 23386 0 4094 call 
total pot: 12382 
/inquire 
recv from player 3333: check
send inquire msg to player 8888 
inquire/ 
3333 23386 0 4094 check 
6666 1375 6078 0 fold 
7777 1950 6032 0 fold 
4444 5332 8000 4094 raise 
1111 1850 4011 0 fold 
2222 105 6000 100 fold 
8888 3498 0 4094 call 
total pot: 12382 
/inquire 
recv from player 8888: check
send inquire msg to player 2222 
inquire/ 
8888 3498 0 4094 check 
3333 23386 0 4094 check 
6666 1375 6078 0 fold 
7777 1950 6032 0 fold 
4444 5332 8000 4094 raise 
1111 1850 4011 0 fold 
2222 105 6000 100 fold 
total pot: 12382 
/inquire 
send inquire msg to player 1111 
inquire/ 
2222 105 6000 100 fold 
8888 3498 0 4094 check 
3333 23386 0 4094 check 
6666 1375 6078 0 fold 
7777 1950 6032 0 fold 
4444 5332 8000 4094 raise 
1111 1850 4011 0 fold 
total pot: 12382 
/inquire 
send inquire msg to player 4444 
inquire/ 
1111 1850 4011 0 fold 
2222 105 6000 100 fold 
8888 3498 0 4094 check 
3333 23386 0 4094 check 
6666 1375 6078 0 fold 
7777 1950 6032 0 fold 
4444 5332 8000 4094 raise 
total pot: 12382 
/inquire 
recv from player 4444: check

---show down---
showdown/ 
common/ 
SPADES J 
HEARTS 4 
HEARTS Q 
SPADES A 
DIAMONDS 10 
/common 
3: 3333 DIAMONDS 7 SPADES 8 HIGH_CARD 
2: 8888 DIAMONDS A SPADES 9 ONE_PAIR 
1: 4444 CLUBS A SPADES 4 TWO_PAIR 
/showdown 

---Allocate pot---
pot-win/ 
4444: 12382 
/pot-win 
it is player 3333's turn to be button

-----41 Hand-----

----- clean player data in socket -----
seat/ 
button: 3333 23386 0 
small blind: 8888 3498 0 
big blind: 2222 105 6000 
1111 1850 4011 
4444 17714 8000 
7777 1950 6032 
6666 1375 6078 
/seat 
blind/ 
8888: 50 
2222: 100 
/blind 
player 8888:hold/ 
SPADES 5 
SPADES 9 
/hold 
player 2222:hold/ 
CLUBS A 
CLUBS 9 
/hold 
player 1111:hold/ 
SPADES 8 
CLUBS 2 
/hold 
player 4444:hold/ 
CLUBS 7 
DIAMONDS 9 
/hold 
player 7777:hold/ 
CLUBS 8 
CLUBS 6 
/hold 
player 6666:hold/ 
HEARTS 3 
HEARTS 10 
/hold 
player 3333:hold/ 
SPADES Q 
SPADES J 
/hold 

---pre flop round bet---
valid player: 7, all in player: 0, fold player: 0
send inquire msg to player 1111 
inquire/ 
2222 5 6000 100 blind 
8888 3448 0 50 blind 
total pot: 150 
/inquire 
recv from player 1111: fold
send inquire msg to player 4444 
inquire/ 
1111 1850 4011 0 fold 
2222 5 6000 100 blind 
8888 3448 0 50 blind 
total pot: 150 
/inquire 
recv from player 4444: raise 749
send inquire msg to player 7777 
inquire/ 
4444 16865 8000 849 raise 
1111 1850 4011 0 fold 
2222 5 6000 100 blind 
8888 3448 0 50 blind 
total pot: 999 
/inquire 
recv from player 7777: fold
send inquire msg to player 6666 
inquire/ 
7777 1950 6032 0 fold 
4444 16865 8000 849 raise 
1111 1850 4011 0 fold 
2222 5 6000 100 blind 
8888 3448 0 50 blind 
total pot: 999 
/inquire 
recv from player 6666: fold
send inquire msg to player 3333 
inquire/ 
6666 1375 6078 0 fold 
7777 1950 6032 0 fold 
4444 16865 8000 849 raise 
1111 1850 4011 0 fold 
2222 5 6000 100 blind 
8888 3448 0 50 blind 
total pot: 999 
/inquire 
recv from player 3333: check
send inquire msg to player 8888 
inquire/ 
3333 22537 0 849 call 
6666 1375 6078 0 fold 
7777 1950 6032 0 fold 
4444 16865 8000 849 raise 
1111 1850 4011 0 fold 
2222 5 6000 100 blind 
8888 3448 0 50 blind 
total pot: 1848 
/inquire 
recv from player 8888: check
send inquire msg to player 2222 
inquire/ 
8888 2649 0 849 call 
3333 22537 0 849 call 
6666 1375 6078 0 fold 
7777 1950 6032 0 fold 
4444 16865 8000 849 raise 
1111 1850 4011 0 fold 
2222 5 6000 100 blind 
total pot: 2647 
/inquire 
recv from player 2222: fold
flop/ 
DIAMONDS 3 
HEARTS J 
SPADES 3 
/flop 

---flop round bet---
valid player: 7, all in player: 0, fold player: 4
send inquire msg to player 8888 
inquire/ 
3333 22537 0 849 call 
6666 1375 6078 0 fold 
7777 1950 6032 0 fold 
4444 16865 8000 849 raise 
1111 1850 4011 0 fold 
2222 5 6000 100 fold 
8888 2649 0 849 call 
total pot: 2647 
/inquire 
recv from player 8888: check
send inquire msg to player 2222 
inquire/ 
8888 2649 0 849 check 
3333 22537 0 849 call 
6666 1375 6078 0 fold 
7777 1950 6032 0 fold 
4444 16865 8000 849 raise 
1111 1850 4011 0 fold 
2222 5 6000 100 fold 
total pot: 2647 
/inquire 
send inquire msg to player 1111 
inquire/ 
2222 5 6000 100 fold 
8888 2649 0 849 check 
3333 22537 0 849 call 
6666 1375 6078 0 fold 
7777 1950 6032 0 fold 
4444 16865 8000 849 raise 
1111 1850 4011 0 fold 
total pot: 2647 
/inquire 
send inquire msg to player 4444 
inquire/ 
1111 1850 4011 0 fold 
2222 5 6000 100 fold 
8888 2649 0 849 check 
3333 22537 0 849 call 
6666 1375 6078 0 fold 
7777 1950 6032 0 fold 
4444 16865 8000 849 raise 
total pot: 2647 
/inquire 
recv from player 4444: check
send inquire msg to player 7777 
inquire/ 
4444 16865 8000 849 check 
1111 1850 4011 0 fold 
2222 5 6000 100 fold 
8888 2649 0 849 check 
3333 22537 0 849 call 
6666 1375 6078 0 fold 
7777 1950 6032 0 fold 
total pot: 2647 
/inquire 
send inquire msg to player 6666 
inquire/ 
7777 1950 6032 0 fold 
4444 16865 8000 849 check 
1111 1850 4011 0 fold 
2222 5 6000 100 fold 
8888 2649 0 849 check 
3333 22537 0 849 call 
6666 1375 6078 0 fold 
total pot: 2647 
/inquire 
send inquire msg to player 3333 
inquire/ 
6666 1375 6078 0 fold 
7777 1950 6032 0 fold 
4444 16865 8000 849 check 
1111 1850 4011 0 fold 
2222 5 6000 100 fold 
8888 2649 0 849 check 
3333 22537 0 849 call 
total pot: 2647 
/inquire 
recv from player 3333: check
turn/ 
CLUBS 10 
/turn 

---turn round bet---
valid player: 7, all in player: 0, fold player: 4
send inquire msg to player 8888 
inquire/ 
3333 22537 0 849 check 
6666 1375 6078 0 fold 
7777 1950 6032 0 fold 
4444 16865 8000 849 check 
1111 1850 4011 0 fold 
2222 5 6000 100 fold 
8888 2649 0 849 check 
total pot: 2647 
/inquire 
recv from player 8888: check
send inquire msg to player 2222 
inquire/ 
8888 2649 0 849 check 
3333 22537 0 849 check 
6666 1375 6078 0 fold 
7777 1950 6032 0 fold 
4444 16865 8000 849 check 
1111 1850 4011 0 fold 
2222 5 6000 100 fold 
total pot: 2647 
/inquire 
send inquire msg to player 1111 
inquire/ 
2222 5 6000 100 fold 
8888 2649 0 849 check 
3333 22537 0 849 check 
6666 1375 6078 0 fold 
7777 1950 6032 0 fold 
4444 16865 8000 849 check 
1111 1850 4011 0 fold 
total pot: 2647 
/inquire 
send inquire msg to player 4444 
inquire/ 
1111 1850 4011 0 fold 
2222 5 6000 100 fold 
8888 2649 0 849 check 
3333 22537 0 849 check 
6666 1375 6078 0 fold 
7777 1950 6032 0 fold 
4444 16865 8000 849 check 
total pot: 2647 
/inquire 
recv from player 4444: check
send inquire msg to player 7777 
inquire/ 
4444 16865 8000 849 check 
1111 1850 4011 0 fold 
2222 5 6000 100 fold 
8888 2649 0 849 check 
3333 22537 0 849 check 
6666 1375 6078 0 fold 
7777 1950 6032 0 fold 
total pot: 2647 
/inquire 
send inquire msg to player 6666 
inquire/ 
7777 1950 6032 0 fold 
4444 16865 8000 849 check 
1111 1850 4011 0 fold 
2222 5 6000 100 fold 
8888 2649 0 849 check 
3333 22537 0 849 check 
6666 1375 6078 0 fold 
total pot: 2647 
/inquire 
send inquire msg to player 3333 
inquire/ 
6666 1375 6078 0 fold 
7777 1950 6032 0 fold 
4444 16865 8000 849 check 
1111 1850 4011 0 fold 
2222 5 6000 100 fold 
8888 2649 0 849 check 
3333 22537 0 849 check 
total pot: 2647 
/inquire 
recv from player 3333: check
river/ 
DIAMONDS 7 
/river 

---river round bet---
valid player: 7, all in player: 0, fold player: 4
send inquire msg to player 8888 
inquire/ 
3333 22537 0 849 check 
6666 1375 6078 0 fold 
7777 1950 6032 0 fold 
4444 16865 8000 849 check 
1111 1850 4011 0 fold 
2222 5 6000 100 fold 
8888 2649 0 849 check 
total pot: 2647 
/inquire 
recv from player 8888: check
send inquire msg to player 2222 
inquire/ 
8888 2649 0 849 check 
3333 22537 0 849 check 
6666 1375 6078 0 fold 
7777 1950 6032 0 fold 
4444 16865 8000 849 check 
1111 1850 4011 0 fold 
2222 5 6000 100 fold 
total pot: 2647 
/inquire 
send inquire msg to player 1111 
inquire/ 
2222 5 6000 100 fold 
8888 2649 0 849 check 
3333 22537 0 849 check 
6666 1375 6078 0 fold 
7777 1950 6032 0 fold 
4444 16865 8000 849 check 
1111 1850 4011 0 fold 
total pot: 2647 
/inquire 
send inquire msg to player 4444 
inquire/ 
1111 1850 4011 0 fold 
2222 5 6000 100 fold 
8888 2649 0 849 check 
3333 22537 0 849 check 
6666 1375 6078 0 fold 
7777 1950 6032 0 fold 
4444 16865 8000 849 check 
total pot: 2647 
/inquire 
recv from player 4444: check
send inquire msg to player 7777 
inquire/ 
4444 16865 8000 849 check 
1111 1850 4011 0 fold 
2222 5 6000 100 fold 
8888 2649 0 849 check 
3333 22537 0 849 check 
6666 1375 6078 0 fold 
7777 1950 6032 0 fold 
total pot: 2647 
/inquire 
send inquire msg to player 6666 
inquire/ 
7777 1950 6032 0 fold 
4444 16865 8000 849 check 
1111 1850 4011 0 fold 
2222 5 6000 100 fold 
8888 2649 0 849 check 
3333 22537 0 849 check 
6666 1375 6078 0 fold 
total pot: 2647 
/inquire 
send inquire msg to player 3333 
inquire/ 
6666 1375 6078 0 fold 
7777 1950 6032 0 fold 
4444 16865 8000 849 check 
1111 1850 4011 0 fold 
2222 5 6000 100 fold 
8888 2649 0 849 check 
3333 22537 0 849 check 
total pot: 2647 
/inquire 
recv from player 3333: check

---show down---
showdown/ 
common/ 
DIAMONDS 3 
HEARTS J 
SPADES 3 
CLUBS 10 
DIAMONDS 7 
/common 
3: 8888 SPADES 5 SPADES 9 ONE_PAIR 
2: 4444 CLUBS 7 DIAMONDS 9 TWO_PAIR 
1: 3333 SPADES Q SPADES J TWO_PAIR 
/showdown 

---Allocate pot---
pot-win/ 
3333: 2647 
/pot-win 
it is player 8888's turn to be button

-----42 Hand-----

----- clean player data in socket -----
seat/ 
button: 8888 2649 0 
small blind: 2222 2000 4005 
big blind: 1111 1850 4011 
4444 16865 8000 
7777 1950 6032 
6666 1375 6078 
3333 25184 0 
/seat 
blind/ 
2222: 50 
1111: 100 
/blind 
player 2222:hold/ 
CLUBS 6 
SPADES 6 
/hold 
player 1111:hold/ 
DIAMONDS 6 
SPADES 10 
/hold 
player 4444:hold/ 
DIAMONDS 4 
DIAMONDS Q 
/hold 
player 7777:hold/ 
DIAMONDS 7 
CLUBS K 
/hold 
player 6666:hold/ 
CLUBS 4 
DIAMONDS 3 
/hold 
player 3333:hold/ 
CLUBS 3 
HEARTS 3 
/hold 
player 8888:hold/ 
DIAMONDS J 
CLUBS 8 
/hold 

---pre flop round bet---
valid player: 7, all in player: 0, fold player: 0
send inquire msg to player 4444 
inquire/ 
1111 1750 4011 100 blind 
2222 1950 4005 50 blind 
total pot: 150 
/inquire 
recv from player 4444: raise 1178
send inquire msg to player 7777 
inquire/ 
4444 15587 8000 1278 raise 
1111 1750 4011 100 blind 
2222 1950 4005 50 blind 
total pot: 1428 
/inquire 
recv from player 7777: fold
send inquire msg to player 6666 
inquire/ 
7777 1950 6032 0 fold 
4444 15587 8000 1278 raise 
1111 1750 4011 100 blind 
2222 1950 4005 50 blind 
total pot: 1428 
/inquire 
recv from player 6666: fold
send inquire msg to player 3333 
inquire/ 
6666 1375 6078 0 fold 
7777 1950 6032 0 fold 
4444 15587 8000 1278 raise 
1111 1750 4011 100 blind 
2222 1950 4005 50 blind 
total pot: 1428 
/inquire 
recv from player 3333: check
send inquire msg to player 8888 
inquire/ 
3333 23906 0 1278 call 
6666 1375 6078 0 fold 
7777 1950 6032 0 fold 
4444 15587 8000 1278 raise 
1111 1750 4011 100 blind 
2222 1950 4005 50 blind 
total pot: 2706 
/inquire 
recv from player 8888: check
send inquire msg to player 2222 
inquire/ 
8888 1371 0 1278 call 
3333 23906 0 1278 call 
6666 1375 6078 0 fold 
7777 1950 6032 0 fold 
4444 15587 8000 1278 raise 
1111 1750 4011 100 blind 
2222 1950 4005 50 blind 
total pot: 3984 
/inquire 
recv from player 2222: check
send inquire msg to player 1111 
inquire/ 
2222 722 4005 1278 call 
8888 1371 0 1278 call 
3333 23906 0 1278 call 
6666 1375 6078 0 fold 
7777 1950 6032 0 fold 
4444 15587 8000 1278 raise 
1111 1750 4011 100 blind 
total pot: 5212 
/inquire 
recv from player 1111: fold
flop/ 
SPADES 4 
DIAMONDS 10 
SPADES 8 
/flop 

---flop round bet---
valid player: 7, all in player: 0, fold player: 3
send inquire msg to player 2222 
inquire/ 
8888 1371 0 1278 call 
3333 23906 0 1278 call 
6666 1375 6078 0 fold 
7777 1950 6032 0 fold 
4444 15587 8000 1278 raise 
1111 1750 4011 100 fold 
2222 722 4005 1278 call 
total pot: 5212 
/inquire 
recv from player 2222: fold
send inquire msg to player 1111 
inquire/ 
2222 722 4005 1278 fold 
8888 1371 0 1278 call 
3333 23906 0 1278 call 
6666 1375 6078 0 fold 
7777 1950 6032 0 fold 
4444 15587 8000 1278 raise 
1111 1750 4011 100 fold 
total pot: 5212 
/inquire 
send inquire msg to player 4444 
inquire/ 
1111 1750 4011 100 fold 
2222 722 4005 1278 fold 
8888 1371 0 1278 call 
3333 23906 0 1278 call 
6666 1375 6078 0 fold 
7777 1950 6032 0 fold 
4444 15587 8000 1278 raise 
total pot: 5212 
/inquire 
recv from player 4444: check
send inquire msg to player 7777 
inquire/ 
4444 15587 8000 1278 check 
1111 1750 4011 100 fold 
2222 722 4005 1278 fold 
8888 1371 0 1278 call 
3333 23906 0 1278 call 
6666 1375 6078 0 fold 
7777 1950 6032 0 fold 
total pot: 5212 
/inquire 
send inquire msg to player 6666 
inquire/ 
7777 1950 6032 0 fold 
4444 15587 8000 1278 check 
1111 1750 4011 100 fold 
2222 722 4005 1278 fold 
8888 1371 0 1278 call 
3333 23906 0 1278 call 
6666 1375 6078 0 fold 
total pot: 5212 
/inquire 
send inquire msg to player 3333 
inquire/ 
6666 1375 6078 0 fold 
7777 1950 6032 0 fold 
4444 15587 8000 1278 check 
1111 1750 4011 100 fold 
2222 722 4005 1278 fold 
8888 1371 0 1278 call 
3333 23906 0 1278 call 
total pot: 5212 
/inquire 
recv from player 3333: check
send inquire msg to player 8888 
inquire/ 
3333 23906 0 1278 check 
6666 1375 6078 0 fold 
7777 1950 6032 0 fold 
4444 15587 8000 1278 check 
1111 1750 4011 100 fold 
2222 722 4005 1278 fold 
8888 1371 0 1278 call 
total pot: 5212 
/inquire 
recv from player 8888: check
turn/ 
DIAMONDS 2 
/turn 

---turn round bet---
valid player: 7, all in player: 0, fold player: 4
send inquire msg to player 2222 
inquire/ 
8888 1371 0 1278 check 
3333 23906 0 1278 check 
6666 1375 6078 0 fold 
7777 1950 6032 0 fold 
4444 15587 8000 1278 check 
1111 1750 4011 100 fold 
2222 722 4005 1278 fold 
total pot: 5212 
/inquire 
send inquire msg to player 1111 
inquire/ 
2222 722 4005 1278 fold 
8888 1371 0 1278 check 
3333 23906 0 1278 check 
6666 1375 6078 0 fold 
7777 1950 6032 0 fold 
4444 15587 8000 1278 check 
1111 1750 4011 100 fold 
total pot: 5212 
/inquire 
send inquire msg to player 4444 
inquire/ 
1111 1750 4011 100 fold 
2222 722 4005 1278 fold 
8888 1371 0 1278 check 
3333 23906 0 1278 check 
6666 1375 6078 0 fold 
7777 1950 6032 0 fold 
4444 15587 8000 1278 check 
total pot: 5212 
/inquire 
recv from player 4444: check
send inquire msg to player 7777 
inquire/ 
4444 15587 8000 1278 check 
1111 1750 4011 100 fold 
2222 722 4005 1278 fold 
8888 1371 0 1278 check 
3333 23906 0 1278 check 
6666 1375 6078 0 fold 
7777 1950 6032 0 fold 
total pot: 5212 
/inquire 
send inquire msg to player 6666 
inquire/ 
7777 1950 6032 0 fold 
4444 15587 8000 1278 check 
1111 1750 4011 100 fold 
2222 722 4005 1278 fold 
8888 1371 0 1278 check 
3333 23906 0 1278 check 
6666 1375 6078 0 fold 
total pot: 5212 
/inquire 
send inquire msg to player 3333 
inquire/ 
6666 1375 6078 0 fold 
7777 1950 6032 0 fold 
4444 15587 8000 1278 check 
1111 1750 4011 100 fold 
2222 722 4005 1278 fold 
8888 1371 0 1278 check 
3333 23906 0 1278 check 
total pot: 5212 
/inquire 
recv from player 3333: check
send inquire msg to player 8888 
inquire/ 
3333 23906 0 1278 check 
6666 1375 6078 0 fold 
7777 1950 6032 0 fold 
4444 15587 8000 1278 check 
1111 1750 4011 100 fold 
2222 722 4005 1278 fold 
8888 1371 0 1278 check 
total pot: 5212 
/inquire 
recv from player 8888: check
river/ 
HEARTS 7 
/river 

---river round bet---
valid player: 7, all in player: 0, fold player: 4
send inquire msg to player 2222 
inquire/ 
8888 1371 0 1278 check 
3333 23906 0 1278 check 
6666 1375 6078 0 fold 
7777 1950 6032 0 fold 
4444 15587 8000 1278 check 
1111 1750 4011 100 fold 
2222 722 4005 1278 fold 
total pot: 5212 
/inquire 
send inquire msg to player 1111 
inquire/ 
2222 722 4005 1278 fold 
8888 1371 0 1278 check 
3333 23906 0 1278 check 
6666 1375 6078 0 fold 
7777 1950 6032 0 fold 
4444 15587 8000 1278 check 
1111 1750 4011 100 fold 
total pot: 5212 
/inquire 
send inquire msg to player 4444 
inquire/ 
1111 1750 4011 100 fold 
2222 722 4005 1278 fold 
8888 1371 0 1278 check 
3333 23906 0 1278 check 
6666 1375 6078 0 fold 
7777 1950 6032 0 fold 
4444 15587 8000 1278 check 
total pot: 5212 
/inquire 
recv from player 4444: check
send inquire msg to player 7777 
inquire/ 
4444 15587 8000 1278 check 
1111 1750 4011 100 fold 
2222 722 4005 1278 fold 
8888 1371 0 1278 check 
3333 23906 0 1278 check 
6666 1375 6078 0 fold 
7777 1950 6032 0 fold 
total pot: 5212 
/inquire 
send inquire msg to player 6666 
inquire/ 
7777 1950 6032 0 fold 
4444 15587 8000 1278 check 
1111 1750 4011 100 fold 
2222 722 4005 1278 fold 
8888 1371 0 1278 check 
3333 23906 0 1278 check 
6666 1375 6078 0 fold 
total pot: 5212 
/inquire 
send inquire msg to player 3333 
inquire/ 
6666 1375 6078 0 fold 
7777 1950 6032 0 fold 
4444 15587 8000 1278 check 
1111 1750 4011 100 fold 
2222 722 4005 1278 fold 
8888 1371 0 1278 check 
3333 23906 0 1278 check 
total pot: 5212 
/inquire 
recv from player 3333: check
send inquire msg to player 8888 
inquire/ 
3333 23906 0 1278 check 
6666 1375 6078 0 fold 
7777 1950 6032 0 fold 
4444 15587 8000 1278 check 
1111 1750 4011 100 fold 
2222 722 4005 1278 fold 
8888 1371 0 1278 check 
total pot: 5212 
/inquire 
recv from player 8888: check

---show down---
showdown/ 
common/ 
SPADES 4 
DIAMONDS 10 
SPADES 8 
DIAMONDS 2 
HEARTS 7 
/common 
2: 4444 DIAMONDS 4 DIAMONDS Q ONE_PAIR 
3: 3333 CLUBS 3 HEARTS 3 ONE_PAIR 
1: 8888 DIAMONDS J CLUBS 8 ONE_PAIR 
/showdown 

---Allocate pot---
pot-win/ 
8888: 5212 
/pot-win 
it is player 2222's turn to be button

-----43 Hand-----

----- clean player data in socket -----
seat/ 
button: 2222 722 4005 
small blind: 1111 1750 4011 
big blind: 4444 15587 8000 
7777 1950 6032 
6666 1375 6078 
3333 23906 0 
8888 6583 0 
/seat 
blind/ 
1111: 50 
4444: 100 
/blind 
player 1111:hold/ 
CLUBS J 
DIAMONDS 4 
/hold 
player 4444:hold/ 
HEARTS Q 
SPADES K 
/hold 
player 7777:hold/ 
SPADES 7 
HEARTS A 
/hold 
player 6666:hold/ 
SPADES 10 
DIAMONDS 10 
/hold 
player 3333:hold/ 
HEARTS K 
DIAMONDS 5 
/hold 
player 8888:hold/ 
CLUBS 6 
CLUBS A 
/hold 
player 2222:hold/ 
CLUBS K 
DIAMONDS 6 
/hold 

---pre flop round bet---
valid player: 7, all in player: 0, fold player: 0
send inquire msg to player 7777 
inquire/ 
4444 15487 8000 100 blind 
1111 1700 4011 50 blind 
total pot: 150 
/inquire 
recv from player 7777: check
send inquire msg to player 6666 
inquire/ 
7777 1850 6032 100 call 
4444 15487 8000 100 blind 
1111 1700 4011 50 blind 
total pot: 250 
/inquire 
recv from player 6666: raise 194
send inquire msg to player 3333 
inquire/ 
6666 1081 6078 294 raise 
7777 1850 6032 100 call 
4444 15487 8000 100 blind 
1111 1700 4011 50 blind 
total pot: 544 
/inquire 
recv from player 3333: check
send inquire msg to player 8888 
inquire/ 
3333 23612 0 294 call 
6666 1081 6078 294 raise 
7777 1850 6032 100 call 
4444 15487 8000 100 blind 
1111 1700 4011 50 blind 
total pot: 838 
/inquire 
recv from player 8888: check
send inquire msg to player 2222 
inquire/ 
8888 6289 0 294 call 
3333 23612 0 294 call 
6666 1081 6078 294 raise 
7777 1850 6032 100 call 
4444 15487 8000 100 blind 
1111 1700 4011 50 blind 
total pot: 1132 
/inquire 
recv from player 2222: fold
send inquire msg to player 1111 
inquire/ 
2222 722 4005 0 fold 
8888 6289 0 294 call 
3333 23612 0 294 call 
6666 1081 6078 294 raise 
7777 1850 6032 100 call 
4444 15487 8000 100 blind 
1111 1700 4011 50 blind 
total pot: 1132 
/inquire 
recv from player 1111: fold
send inquire msg to player 4444 
inquire/ 
1111 1700 4011 50 fold 
2222 722 4005 0 fold 
8888 6289 0 294 call 
3333 23612 0 294 call 
6666 1081 6078 294 raise 
7777 1850 6032 100 call 
4444 15487 8000 100 blind 
total pot: 1132 
/inquire 
recv from player 4444: check
send inquire msg to player 7777 
inquire/ 
4444 15293 8000 294 call 
1111 1700 4011 50 fold 
2222 722 4005 0 fold 
8888 6289 0 294 call 
3333 23612 0 294 call 
6666 1081 6078 294 raise 
7777 1850 6032 100 call 
total pot: 1326 
/inquire 
recv from player 7777: check
flop/ 
DIAMONDS K 
CLUBS 7 
CLUBS 3 
/flop 

---flop round bet---
valid player: 7, all in player: 0, fold player: 2
send inquire msg to player 1111 
inquire/ 
2222 722 4005 0 fold 
8888 6289 0 294 call 
3333 23612 0 294 call 
6666 1081 6078 294 raise 
7777 1656 6032 294 call 
4444 15293 8000 294 call 
1111 1700 4011 50 fold 
total pot: 1520 
/inquire 
send inquire msg to player 4444 
inquire/ 
1111 1700 4011 50 fold 
2222 722 4005 0 fold 
8888 6289 0 294 call 
3333 23612 0 294 call 
6666 1081 6078 294 raise 
7777 1656 6032 294 call 
4444 15293 8000 294 call 
total pot: 1520 
/inquire 
recv from player 4444: raise 3762
send inquire msg to player 7777 
inquire/ 
4444 11531 8000 4056 raise 
1111 1700 4011 50 fold 
2222 722 4005 0 fold 
8888 6289 0 294 call 
3333 23612 0 294 call 
6666 1081 6078 294 raise 
7777 1656 6032 294 call 
total pot: 5282 
/inquire 
recv from player 7777: fold
send inquire msg to player 6666 
inquire/ 
7777 1656 6032 294 fold 
4444 11531 8000 4056 raise 
1111 1700 4011 50 fold 
2222 722 4005 0 fold 
8888 6289 0 294 call 
3333 23612 0 294 call 
6666 1081 6078 294 raise 
total pot: 5282 
/inquire 
recv from player 6666: fold
send inquire msg to player 3333 
inquire/ 
6666 1081 6078 294 fold 
7777 1656 6032 294 fold 
4444 11531 8000 4056 raise 
1111 1700 4011 50 fold 
2222 722 4005 0 fold 
8888 6289 0 294 call 
3333 23612 0 294 call 
total pot: 5282 
/inquire 
recv from player 3333: check
send inquire msg to player 8888 
inquire/ 
3333 19850 0 4056 call 
6666 1081 6078 294 fold 
7777 1656 6032 294 fold 
4444 11531 8000 4056 raise 
1111 1700 4011 50 fold 
2222 722 4005 0 fold 
8888 6289 0 294 call 
total pot: 9044 
/inquire 
recv from player 8888: check
turn/ 
HEARTS 9 
/turn 

---turn round bet---
valid player: 7, all in player: 0, fold player: 4
send inquire msg to player 1111 
inquire/ 
2222 722 4005 0 fold 
8888 2527 0 4056 call 
3333 19850 0 4056 call 
6666 1081 6078 294 fold 
7777 1656 6032 294 fold 
4444 11531 8000 4056 raise 
1111 1700 4011 50 fold 
total pot: 12806 
/inquire 
send inquire msg to player 4444 
inquire/ 
1111 1700 4011 50 fold 
2222 722 4005 0 fold 
8888 2527 0 4056 call 
3333 19850 0 4056 call 
6666 1081 6078 294 fold 
7777 1656 6032 294 fold 
4444 11531 8000 4056 raise 
total pot: 12806 
/inquire 
recv from player 4444: raise 395
send inquire msg to player 7777 
inquire/ 
4444 11136 8000 4451 raise 
1111 1700 4011 50 fold 
2222 722 4005 0 fold 
8888 2527 0 4056 call 
3333 19850 0 4056 call 
6666 1081 6078 294 fold 
7777 1656 6032 294 fold 
total pot: 13201 
/inquire 
send inquire msg to player 6666 
inquire/ 
7777 1656 6032 294 fold 
4444 11136 8000 4451 raise 
1111 1700 4011 50 fold 
2222 722 4005 0 fold 
8888 2527 0 4056 call 
3333 19850 0 4056 call 
6666 1081 6078 294 fold 
total pot: 13201 
/inquire 
send inquire msg to player 3333 
inquire/ 
6666 1081 6078 294 fold 
7777 1656 6032 294 fold 
4444 11136 8000 4451 raise 
1111 1700 4011 50 fold 
2222 722 4005 0 fold 
8888 2527 0 4056 call 
3333 19850 0 4056 call 
total pot: 13201 
/inquire 
recv from player 3333: check
send inquire msg to player 8888 
inquire/ 
3333 19455 0 4451 call 
6666 1081 6078 294 fold 
7777 1656 6032 294 fold 
4444 11136 8000 4451 raise 
1111 1700 4011 50 fold 
2222 722 4005 0 fold 
8888 2527 0 4056 call 
total pot: 13596 
/inquire 
recv from player 8888: check
river/ 
SPADES J 
/river 

---river round bet---
valid player: 7, all in player: 0, fold player: 4
send inquire msg to player 1111 
inquire/ 
2222 722 4005 0 fold 
8888 2132 0 4451 call 
3333 19455 0 4451 call 
6666 1081 6078 294 fold 
7777 1656 6032 294 fold 
4444 11136 8000 4451 raise 
1111 1700 4011 50 fold 
total pot: 13991 
/inquire 
send inquire msg to player 4444 
inquire/ 
1111 1700 4011 50 fold 
2222 722 4005 0 fold 
8888 2132 0 4451 call 
3333 19455 0 4451 call 
6666 1081 6078 294 fold 
7777 1656 6032 294 fold 
4444 11136 8000 4451 raise 
total pot: 13991 
/inquire 
recv from player 4444: check
send inquire msg to player 7777 
inquire/ 
4444 11136 8000 4451 check 
1111 1700 4011 50 fold 
2222 722 4005 0 fold 
8888 2132 0 4451 call 
3333 19455 0 4451 call 
6666 1081 6078 294 fold 
7777 1656 6032 294 fold 
total pot: 13991 
/inquire 
send inquire msg to player 6666 
inquire/ 
7777 1656 6032 294 fold 
4444 11136 8000 4451 check 
1111 1700 4011 50 fold 
2222 722 4005 0 fold 
8888 2132 0 4451 call 
3333 19455 0 4451 call 
6666 1081 6078 294 fold 
total pot: 13991 
/inquire 
send inquire msg to player 3333 
inquire/ 
6666 1081 6078 294 fold 
7777 1656 6032 294 fold 
4444 11136 8000 4451 check 
1111 1700 4011 50 fold 
2222 722 4005 0 fold 
8888 2132 0 4451 call 
3333 19455 0 4451 call 
total pot: 13991 
/inquire 
recv from player 3333: check
send inquire msg to player 8888 
inquire/ 
3333 19455 0 4451 check 
6666 1081 6078 294 fold 
7777 1656 6032 294 fold 
4444 11136 8000 4451 check 
1111 1700 4011 50 fold 
2222 722 4005 0 fold 
8888 2132 0 4451 call 
total pot: 13991 
/inquire 
recv from player 8888: check

---show down---
showdown/ 
common/ 
DIAMONDS K 
CLUBS 7 
CLUBS 3 
HEARTS 9 
SPADES J 
/common 
1: 4444 HEARTS Q SPADES K ONE_PAIR 
2: 3333 HEARTS K DIAMONDS 5 ONE_PAIR 
3: 8888 CLUBS 6 CLUBS A HIGH_CARD 
/showdown 

---Allocate pot---
pot-win/ 
4444: 13991 
/pot-win 
it is player 1111's turn to be button

-----44 Hand-----

----- clean player data in socket -----
seat/ 
button: 1111 1700 4011 
small blind: 4444 25127 8000 
big blind: 7777 1656 6032 
6666 1081 6078 
3333 19455 0 
8888 2132 0 
2222 722 4005 
/seat 
blind/ 
4444: 50 
7777: 100 
/blind 
player 4444:hold/ 
HEARTS A 
DIAMONDS 4 
/hold 
player 7777:hold/ 
SPADES Q 
DIAMONDS 6 
/hold 
player 6666:hold/ 
SPADES A 
DIAMONDS K 
/hold 
player 3333:hold/ 
SPADES J 
SPADES 2 
/hold 
player 8888:hold/ 
DIAMONDS 10 
SPADES 3 
/hold 
player 2222:hold/ 
DIAMONDS 7 
SPADES K 
/hold 
player 1111:hold/ 
HEARTS 3 
CLUBS 5 
/hold 

---pre flop round bet---
valid player: 7, all in player: 0, fold player: 0
send inquire msg to player 6666 
inquire/ 
7777 1556 6032 100 blind 
4444 25077 8000 50 blind 
total pot: 150 
/inquire 
recv from player 6666: raise 150
send inquire msg to player 3333 
inquire/ 
6666 831 6078 250 raise 
7777 1556 6032 100 blind 
4444 25077 8000 50 blind 
total pot: 400 
/inquire 
recv from player 3333: check
send inquire msg to player 8888 
inquire/ 
3333 19205 0 250 call 
6666 831 6078 250 raise 
7777 1556 6032 100 blind 
4444 25077 8000 50 blind 
total pot: 650 
/inquire 
recv from player 8888: check
send inquire msg to player 2222 
inquire/ 
8888 1882 0 250 call 
3333 19205 0 250 call 
6666 831 6078 250 raise 
7777 1556 6032 100 blind 
4444 25077 8000 50 blind 
total pot: 900 
/inquire 
recv from player 2222: fold
send inquire msg to player 1111 
inquire/ 
2222 722 4005 0 fold 
8888 1882 0 250 call 
3333 19205 0 250 call 
6666 831 6078 250 raise 
7777 1556 6032 100 blind 
4444 25077 8000 50 blind 
total pot: 900 
/inquire 
recv from player 1111: check
send inquire msg to player 4444 
inquire/ 
1111 1450 4011 250 call 
2222 722 4005 0 fold 
8888 1882 0 250 call 
3333 19205 0 250 call 
6666 831 6078 250 raise 
7777 1556 6032 100 blind 
4444 25077 8000 50 blind 
total pot: 1150 
/inquire 
recv from player 4444: check
send inquire msg to player 7777 
inquire/ 
4444 24877 8000 250 call 
1111 1450 4011 250 call 
2222 722 4005 0 fold 
8888 1882 0 250 call 
3333 19205 0 250 call 
6666 831 6078 250 raise 
7777 1556 6032 100 blind 
total pot: 1350 
/inquire 
recv from player 7777: check
flop/ 
HEARTS 10 
DIAMONDS 2 
CLUBS K 
/flop 

---flop round bet---
valid player: 7, all in player: 0, fold player: 1
send inquire msg to player 4444 
inquire/ 
1111 1450 4011 250 call 
2222 722 4005 0 fold 
8888 1882 0 250 call 
3333 19205 0 250 call 
6666 831 6078 250 raise 
7777 1406 6032 250 call 
4444 24877 8000 250 call 
total pot: 1500 
/inquire 
recv from player 4444: check
send inquire msg to player 7777 
inquire/ 
4444 24877 8000 250 check 
1111 1450 4011 250 call 
2222 722 4005 0 fold 
8888 1882 0 250 call 
3333 19205 0 250 call 
6666 831 6078 250 raise 
7777 1406 6032 250 call 
total pot: 1500 
/inquire 
recv from player 7777: check
send inquire msg to player 6666 
inquire/ 
7777 1406 6032 250 check 
4444 24877 8000 250 check 
1111 1450 4011 250 call 
2222 722 4005 0 fold 
8888 1882 0 250 call 
3333 19205 0 250 call 
6666 831 6078 250 raise 
total pot: 1500 
/inquire 
recv from player 6666: raise 14
send inquire msg to player 3333 
inquire/ 
6666 731 6078 350 raise 
7777 1406 6032 250 check 
4444 24877 8000 250 check 
1111 1450 4011 250 call 
2222 722 4005 0 fold 
8888 1882 0 250 call 
3333 19205 0 250 call 
total pot: 1600 
/inquire 
recv from player 3333: check
send inquire msg to player 8888 
inquire/ 
3333 19105 0 350 call 
6666 731 6078 350 raise 
7777 1406 6032 250 check 
4444 24877 8000 250 check 
1111 1450 4011 250 call 
2222 722 4005 0 fold 
8888 1882 0 250 call 
total pot: 1700 
/inquire 
recv from player 8888: check
send inquire msg to player 2222 
inquire/ 
8888 1782 0 350 call 
3333 19105 0 350 call 
6666 731 6078 350 raise 
7777 1406 6032 250 check 
4444 24877 8000 250 check 
1111 1450 4011 250 call 
2222 722 4005 0 fold 
total pot: 1800 
/inquire 
send inquire msg to player 1111 
inquire/ 
2222 722 4005 0 fold 
8888 1782 0 350 call 
3333 19105 0 350 call 
6666 731 6078 350 raise 
7777 1406 6032 250 check 
4444 24877 8000 250 check 
1111 1450 4011 250 call 
total pot: 1800 
/inquire 
recv from player 1111: fold
send inquire msg to player 4444 
inquire/ 
1111 1450 4011 250 fold 
2222 722 4005 0 fold 
8888 1782 0 350 call 
3333 19105 0 350 call 
6666 731 6078 350 raise 
7777 1406 6032 250 check 
4444 24877 8000 250 check 
total pot: 1800 
/inquire 
recv from player 4444: check
send inquire msg to player 7777 
inquire/ 
4444 24777 8000 350 call 
1111 1450 4011 250 fold 
2222 722 4005 0 fold 
8888 1782 0 350 call 
3333 19105 0 350 call 
6666 731 6078 350 raise 
7777 1406 6032 250 check 
total pot: 1900 
/inquire 
recv from player 7777: check
turn/ 
CLUBS 3 
/turn 

---turn round bet---
valid player: 7, all in player: 0, fold player: 2
send inquire msg to player 4444 
inquire/ 
1111 1450 4011 250 fold 
2222 722 4005 0 fold 
8888 1782 0 350 call 
3333 19105 0 350 call 
6666 731 6078 350 raise 
7777 1306 6032 350 call 
4444 24777 8000 350 call 
total pot: 2000 
/inquire 
recv from player 4444: check
send inquire msg to player 7777 
inquire/ 
4444 24777 8000 350 check 
1111 1450 4011 250 fold 
2222 722 4005 0 fold 
8888 1782 0 350 call 
3333 19105 0 350 call 
6666 731 6078 350 raise 
7777 1306 6032 350 call 
total pot: 2000 
/inquire 
recv from player 7777: check
send inquire msg to player 6666 
inquire/ 
7777 1306 6032 350 check 
4444 24777 8000 350 check 
1111 1450 4011 250 fold 
2222 722 4005 0 fold 
8888 1782 0 350 call 
3333 19105 0 350 call 
6666 731 6078 350 raise 
total pot: 2000 
/inquire 
recv from player 6666: check
send inquire msg to player 3333 
inquire/ 
6666 731 6078 350 check 
7777 1306 6032 350 check 
4444 24777 8000 350 check 
1111 1450 4011 250 fold 
2222 722 4005 0 fold 
8888 1782 0 350 call 
3333 19105 0 350 call 
total pot: 2000 
/inquire 
recv from player 3333: check
send inquire msg to player 8888 
inquire/ 
3333 19105 0 350 check 
6666 731 6078 350 check 
7777 1306 6032 350 check 
4444 24777 8000 350 check 
1111 1450 4011 250 fold 
2222 722 4005 0 fold 
8888 1782 0 350 call 
total pot: 2000 
/inquire 
recv from player 8888: check
river/ 
HEARTS 2 
/river 

---river round bet---
valid player: 7, all in player: 0, fold player: 2
send inquire msg to player 4444 
inquire/ 
1111 1450 4011 250 fold 
2222 722 4005 0 fold 
8888 1782 0 350 check 
3333 19105 0 350 check 
6666 731 6078 350 check 
7777 1306 6032 350 check 
4444 24777 8000 350 check 
total pot: 2000 
/inquire 
recv from player 4444: check
send inquire msg to player 7777 
inquire/ 
4444 24777 8000 350 check 
1111 1450 4011 250 fold 
2222 722 4005 0 fold 
8888 1782 0 350 check 
3333 19105 0 350 check 
6666 731 6078 350 check 
7777 1306 6032 350 check 
total pot: 2000 
/inquire 
recv from player 7777: check
send inquire msg to player 6666 
inquire/ 
7777 1306 6032 350 check 
4444 24777 8000 350 check 
1111 1450 4011 250 fold 
2222 722 4005 0 fold 
8888 1782 0 350 check 
3333 19105 0 350 check 
6666 731 6078 350 check 
total pot: 2000 
/inquire 
recv from player 6666: check
send inquire msg to player 3333 
inquire/ 
6666 731 6078 350 check 
7777 1306 6032 350 check 
4444 24777 8000 350 check 
1111 1450 4011 250 fold 
2222 722 4005 0 fold 
8888 1782 0 350 check 
3333 19105 0 350 check 
total pot: 2000 
/inquire 
recv from player 3333: check
send inquire msg to player 8888 
inquire/ 
3333 19105 0 350 check 
6666 731 6078 350 check 
7777 1306 6032 350 check 
4444 24777 8000 350 check 
1111 1450 4011 250 fold 
2222 722 4005 0 fold 
8888 1782 0 350 check 
total pot: 2000 
/inquire 
recv from player 8888: check

---show down---
showdown/ 
common/ 
HEARTS 10 
DIAMONDS 2 
CLUBS K 
CLUBS 3 
HEARTS 2 
/common 
4: 4444 HEARTS A DIAMONDS 4 ONE_PAIR 
5: 7777 SPADES Q DIAMONDS 6 ONE_PAIR 
2: 6666 SPADES A DIAMONDS K TWO_PAIR 
1: 3333 SPADES J SPADES 2 THREE_OF_A_KIND 
3: 8888 DIAMONDS 10 SPADES 3 TWO_PAIR 
/showdown 

---Allocate pot---
pot-win/ 
3333: 2000 
/pot-win 
it is player 4444's turn to be button

-----45 Hand-----

----- clean player data in socket -----
seat/ 
button: 4444 24777 8000 
small blind: 7777 1306 6032 
big blind: 6666 731 6078 
3333 21105 0 
8888 1782 0 
2222 722 4005 
1111 1450 4011 
/seat 
blind/ 
7777: 50 
6666: 100 
/blind 
player 7777:hold/ 
SPADES 6 
DIAMONDS K 
/hold 
player 6666:hold/ 
CLUBS 2 
CLUBS K 
/hold 
player 3333:hold/ 
DIAMONDS A 
CLUBS J 
/hold 
player 8888:hold/ 
HEARTS 10 
DIAMONDS 5 
/hold 
player 2222:hold/ 
CLUBS 10 
HEARTS 8 
/hold 
player 1111:hold/ 
CLUBS 7 
SPADES 2 
/hold 
player 4444:hold/ 
DIAMONDS 9 
DIAMONDS 8 
/hold 

---pre flop round bet---
valid player: 7, all in player: 0, fold player: 0
send inquire msg to player 3333 
inquire/ 
6666 631 6078 100 blind 
7777 1256 6032 50 blind 
total pot: 150 
/inquire 
recv from player 3333: check
send inquire msg to player 8888 
inquire/ 
3333 21005 0 100 call 
6666 631 6078 100 blind 
7777 1256 6032 50 blind 
total pot: 250 
/inquire 
recv from player 8888: check
send inquire msg to player 2222 
inquire/ 
8888 1682 0 100 call 
3333 21005 0 100 call 
6666 631 6078 100 blind 
7777 1256 6032 50 blind 
total pot: 350 
/inquire 
recv from player 2222: fold
send inquire msg to player 1111 
inquire/ 
2222 722 4005 0 fold 
8888 1682 0 100 call 
3333 21005 0 100 call 
6666 631 6078 100 blind 
7777 1256 6032 50 blind 
total pot: 350 
/inquire 
recv from player 1111: fold
send inquire msg to player 4444 
inquire/ 
1111 1450 4011 0 fold 
2222 722 4005 0 fold 
8888 1682 0 100 call 
3333 21005 0 100 call 
6666 631 6078 100 blind 
7777 1256 6032 50 blind 
total pot: 350 
/inquire 
recv from player 4444: raise 1893
send inquire msg to player 7777 
inquire/ 
4444 22784 8000 1993 raise 
1111 1450 4011 0 fold 
2222 722 4005 0 fold 
8888 1682 0 100 call 
3333 21005 0 100 call 
6666 631 6078 100 blind 
7777 1256 6032 50 blind 
total pot: 2343 
/inquire 
recv from player 7777: fold
send inquire msg to player 6666 
inquire/ 
7777 1256 6032 50 fold 
4444 22784 8000 1993 raise 
1111 1450 4011 0 fold 
2222 722 4005 0 fold 
8888 1682 0 100 call 
3333 21005 0 100 call 
6666 631 6078 100 blind 
total pot: 2343 
/inquire 
recv from player 6666: fold
send inquire msg to player 3333 
inquire/ 
6666 631 6078 100 fold 
7777 1256 6032 50 fold 
4444 22784 8000 1993 raise 
1111 1450 4011 0 fold 
2222 722 4005 0 fold 
8888 1682 0 100 call 
3333 21005 0 100 call 
total pot: 2343 
/inquire 
recv from player 3333: check
send inquire msg to player 8888 
inquire/ 
3333 19112 0 1993 call 
6666 631 6078 100 fold 
7777 1256 6032 50 fold 
4444 22784 8000 1993 raise 
1111 1450 4011 0 fold 
2222 722 4005 0 fold 
8888 1682 0 100 call 
total pot: 4236 
/inquire 
recv from player 8888: check
flop/ 
HEARTS J 
SPADES Q 
DIAMONDS 10 
/flop 

---flop round bet---
valid player: 7, all in player: 1, fold player: 4
send inquire msg to player 7777 
inquire/ 
4444 22784 8000 1993 raise 
1111 1450 4011 0 fold 
2222 722 4005 0 fold 
8888 0 0 1782 all_in 
3333 19112 0 1993 call 
6666 631 6078 100 fold 
7777 1256 6032 50 fold 
total pot: 5918 
/inquire 
send inquire msg to player 6666 
inquire/ 
7777 1256 6032 50 fold 
4444 22784 8000 1993 raise 
1111 1450 4011 0 fold 
2222 722 4005 0 fold 
8888 0 0 1782 all_in 
3333 19112 0 1993 call 
6666 631 6078 100 fold 
total pot: 5918 
/inquire 
send inquire msg to player 3333 
inquire/ 
6666 631 6078 100 fold 
7777 1256 6032 50 fold 
4444 22784 8000 1993 raise 
1111 1450 4011 0 fold 
2222 722 4005 0 fold 
8888 0 0 1782 all_in 
3333 19112 0 1993 call 
total pot: 5918 
/inquire 
recv from player 3333: check
send inquire msg to player 8888 
inquire/ 
3333 19112 0 1993 check 
6666 631 6078 100 fold 
7777 1256 6032 50 fold 
4444 22784 8000 1993 raise 
1111 1450 4011 0 fold 
2222 722 4005 0 fold 
8888 0 0 1782 all_in 
total pot: 5918 
/inquire 
send inquire msg to player 2222 
inquire/ 
8888 0 0 1782 all_in 
3333 19112 0 1993 check 
6666 631 6078 100 fold 
7777 1256 6032 50 fold 
4444 22784 8000 1993 raise 
1111 1450 4011 0 fold 
2222 722 4005 0 fold 
total pot: 5918 
/inquire 
send inquire msg to player 1111 
inquire/ 
2222 722 4005 0 fold 
8888 0 0 1782 all_in 
3333 19112 0 1993 check 
6666 631 6078 100 fold 
7777 1256 6032 50 fold 
4444 22784 8000 1993 raise 
1111 1450 4011 0 fold 
total pot: 5918 
/inquire 
send inquire msg to player 4444 
inquire/ 
1111 1450 4011 0 fold 
2222 722 4005 0 fold 
8888 0 0 1782 all_in 
3333 19112 0 1993 check 
6666 631 6078 100 fold 
7777 1256 6032 50 fold 
4444 22784 8000 1993 raise 
total pot: 5918 
/inquire 
recv from player 4444: raise 6982
send inquire msg to player 7777 
inquire/ 
4444 15802 8000 8975 raise 
1111 1450 4011 0 fold 
2222 722 4005 0 fold 
8888 0 0 1782 all_in 
3333 19112 0 1993 check 
6666 631 6078 100 fold 
7777 1256 6032 50 fold 
total pot: 12900 
/inquire 
send inquire msg to player 6666 
inquire/ 
7777 1256 6032 50 fold 
4444 15802 8000 8975 raise 
1111 1450 4011 0 fold 
2222 722 4005 0 fold 
8888 0 0 1782 all_in 
3333 19112 0 1993 check 
6666 631 6078 100 fold 
total pot: 12900 
/inquire 
send inquire msg to player 3333 
inquire/ 
6666 631 6078 100 fold 
7777 1256 6032 50 fold 
4444 15802 8000 8975 raise 
1111 1450 4011 0 fold 
2222 722 4005 0 fold 
8888 0 0 1782 all_in 
3333 19112 0 1993 check 
total pot: 12900 
/inquire 
recv from player 3333: check
turn/ 
DIAMONDS 3 
/turn 

---turn round bet---
valid player: 7, all in player: 1, fold player: 4
send inquire msg to player 7777 
inquire/ 
4444 15802 8000 8975 raise 
1111 1450 4011 0 fold 
2222 722 4005 0 fold 
8888 0 0 1782 all_in 
3333 12130 0 8975 call 
6666 631 6078 100 fold 
7777 1256 6032 50 fold 
total pot: 19882 
/inquire 
send inquire msg to player 6666 
inquire/ 
7777 1256 6032 50 fold 
4444 15802 8000 8975 raise 
1111 1450 4011 0 fold 
2222 722 4005 0 fold 
8888 0 0 1782 all_in 
3333 12130 0 8975 call 
6666 631 6078 100 fold 
total pot: 19882 
/inquire 
send inquire msg to player 3333 
inquire/ 
6666 631 6078 100 fold 
7777 1256 6032 50 fold 
4444 15802 8000 8975 raise 
1111 1450 4011 0 fold 
2222 722 4005 0 fold 
8888 0 0 1782 all_in 
3333 12130 0 8975 call 
total pot: 19882 
/inquire 
recv from player 3333: check
send inquire msg to player 8888 
inquire/ 
3333 12130 0 8975 check 
6666 631 6078 100 fold 
7777 1256 6032 50 fold 
4444 15802 8000 8975 raise 
1111 1450 4011 0 fold 
2222 722 4005 0 fold 
8888 0 0 1782 all_in 
total pot: 19882 
/inquire 
send inquire msg to player 2222 
inquire/ 
8888 0 0 1782 all_in 
3333 12130 0 8975 check 
6666 631 6078 100 fold 
7777 1256 6032 50 fold 
4444 15802 8000 8975 raise 
1111 1450 4011 0 fold 
2222 722 4005 0 fold 
total pot: 19882 
/inquire 
send inquire msg to player 1111 
inquire/ 
2222 722 4005 0 fold 
8888 0 0 1782 all_in 
3333 12130 0 8975 check 
6666 631 6078 100 fold 
7777 1256 6032 50 fold 
4444 15802 8000 8975 raise 
1111 1450 4011 0 fold 
total pot: 19882 
/inquire 
send inquire msg to player 4444 
inquire/ 
1111 1450 4011 0 fold 
2222 722 4005 0 fold 
8888 0 0 1782 all_in 
3333 12130 0 8975 check 
6666 631 6078 100 fold 
7777 1256 6032 50 fold 
4444 15802 8000 8975 raise 
total pot: 19882 
/inquire 
recv from player 4444: check
river/ 
HEARTS 6 
/river 

---river round bet---
valid player: 7, all in player: 1, fold player: 4
send inquire msg to player 7777 
inquire/ 
4444 15802 8000 8975 check 
1111 1450 4011 0 fold 
2222 722 4005 0 fold 
8888 0 0 1782 all_in 
3333 12130 0 8975 check 
6666 631 6078 100 fold 
7777 1256 6032 50 fold 
total pot: 19882 
/inquire 
send inquire msg to player 6666 
inquire/ 
7777 1256 6032 50 fold 
4444 15802 8000 8975 check 
1111 1450 4011 0 fold 
2222 722 4005 0 fold 
8888 0 0 1782 all_in 
3333 12130 0 8975 check 
6666 631 6078 100 fold 
total pot: 19882 
/inquire 
send inquire msg to player 3333 
inquire/ 
6666 631 6078 100 fold 
7777 1256 6032 50 fold 
4444 15802 8000 8975 check 
1111 1450 4011 0 fold 
2222 722 4005 0 fold 
8888 0 0 1782 all_in 
3333 12130 0 8975 check 
total pot: 19882 
/inquire 
recv from player 3333: check
send inquire msg to player 8888 
inquire/ 
3333 12130 0 8975 check 
6666 631 6078 100 fold 
7777 1256 6032 50 fold 
4444 15802 8000 8975 check 
1111 1450 4011 0 fold 
2222 722 4005 0 fold 
8888 0 0 1782 all_in 
total pot: 19882 
/inquire 
send inquire msg to player 2222 
inquire/ 
8888 0 0 1782 all_in 
3333 12130 0 8975 check 
6666 631 6078 100 fold 
7777 1256 6032 50 fold 
4444 15802 8000 8975 check 
1111 1450 4011 0 fold 
2222 722 4005 0 fold 
total pot: 19882 
/inquire 
send inquire msg to player 1111 
inquire/ 
2222 722 4005 0 fold 
8888 0 0 1782 all_in 
3333 12130 0 8975 check 
6666 631 6078 100 fold 
7777 1256 6032 50 fold 
4444 15802 8000 8975 check 
1111 1450 4011 0 fold 
total pot: 19882 
/inquire 
send inquire msg to player 4444 
inquire/ 
1111 1450 4011 0 fold 
2222 722 4005 0 fold 
8888 0 0 1782 all_in 
3333 12130 0 8975 check 
6666 631 6078 100 fold 
7777 1256 6032 50 fold 
4444 15802 8000 8975 check 
total pot: 19882 
/inquire 
recv from player 4444: check

---show down---
showdown/ 
common/ 
HEARTS J 
SPADES Q 
DIAMONDS 10 
DIAMONDS 3 
HEARTS 6 
/common 
2: 3333 DIAMONDS A CLUBS J ONE_PAIR 
3: 8888 HEARTS 10 DIAMONDS 5 ONE_PAIR 
1: 4444 DIAMONDS 9 DIAMONDS 8 STRAIGHT 
/showdown 

---Allocate pot---
pot-win/ 
4444: 19882 
/pot-win 
it is player 7777's turn to be button

-----46 Hand-----

----- clean player data in socket -----
seat/ 
button: 7777 1256 6032 
small blind: 6666 631 6078 
big blind: 3333 12130 0 
2222 722 4005 
1111 1450 4011 
4444 35684 8000 
/seat 
blind/ 
6666: 50 
3333: 100 
/blind 
player 6666:hold/ 
HEARTS 3 
HEARTS 9 
/hold 
player 3333:hold/ 
CLUBS 3 
DIAMONDS 6 
/hold 
player 2222:hold/ 
CLUBS 9 
DIAMONDS K 
/hold 
player 1111:hold/ 
DIAMONDS 5 
SPADES 4 
/hold 
player 4444:hold/ 
SPADES 8 
DIAMONDS 9 
/hold 
player 7777:hold/ 
HEARTS 10 
CLUBS 6 
/hold 

---pre flop round bet---
valid player: 6, all in player: 0, fold player: 0
send inquire msg to player 2222 
inquire/ 
3333 12030 0 100 blind 
6666 581 6078 50 blind 
total pot: 150 
/inquire 
recv from player 2222: check
send inquire msg to player 1111 
inquire/ 
2222 622 4005 100 call 
3333 12030 0 100 blind 
6666 581 6078 50 blind 
total pot: 250 
/inquire 
recv from player 1111: fold
send inquire msg to player 4444 
inquire/ 
1111 1450 4011 0 fold 
2222 622 4005 100 call 
3333 12030 0 100 blind 
6666 581 6078 50 blind 
total pot: 250 
/inquire 
recv from player 4444: raise 1665
send inquire msg to player 7777 
inquire/ 
4444 33919 8000 1765 raise 
1111 1450 4011 0 fold 
2222 622 4005 100 call 
3333 12030 0 100 blind 
6666 581 6078 50 blind 
total pot: 2015 
/inquire 
recv from player 7777: fold
send inquire msg to player 6666 
inquire/ 
7777 1256 6032 0 fold 
4444 33919 8000 1765 raise 
1111 1450 4011 0 fold 
2222 622 4005 100 call 
3333 12030 0 100 blind 
6666 581 6078 50 blind 
total pot: 2015 
/inquire 
recv from player 6666: fold
send inquire msg to player 3333 
inquire/ 
6666 581 6078 50 fold 
7777 1256 6032 0 fold 
4444 33919 8000 1765 raise 
1111 1450 4011 0 fold 
2222 622 4005 100 call 
3333 12030 0 100 blind 
total pot: 2015 
/inquire 
recv from player 3333: check
send inquire msg to player 2222 
inquire/ 
3333 10365 0 1765 call 
6666 581 6078 50 fold 
7777 1256 6032 0 fold 
4444 33919 8000 1765 raise 
1111 1450 4011 0 fold 
2222 622 4005 100 call 
total pot: 3680 
/inquire 
recv from player 2222: check
flop/ 
CLUBS K 
CLUBS A 
HEARTS 7 
/flop 

---flop round bet---
valid player: 6, all in player: 1, fold player: 3
send inquire msg to player 6666 
inquire/ 
7777 1256 6032 0 fold 
4444 33919 8000 1765 raise 
1111 1450 4011 0 fold 
2222 0 4005 722 all_in 
3333 10365 0 1765 call 
6666 581 6078 50 fold 
total pot: 4302 
/inquire 
send inquire msg to player 3333 
inquire/ 
6666 581 6078 50 fold 
7777 1256 6032 0 fold 
4444 33919 8000 1765 raise 
1111 1450 4011 0 fold 
2222 0 4005 722 all_in 
3333 10365 0 1765 call 
total pot: 4302 
/inquire 
recv from player 3333: check
send inquire msg to player 2222 
inquire/ 
3333 10365 0 1765 check 
6666 581 6078 50 fold 
7777 1256 6032 0 fold 
4444 33919 8000 1765 raise 
1111 1450 4011 0 fold 
2222 0 4005 722 all_in 
total pot: 4302 
/inquire 
send inquire msg to player 1111 
inquire/ 
2222 0 4005 722 all_in 
3333 10365 0 1765 check 
6666 581 6078 50 fold 
7777 1256 6032 0 fold 
4444 33919 8000 1765 raise 
1111 1450 4011 0 fold 
total pot: 4302 
/inquire 
send inquire msg to player 4444 
inquire/ 
1111 1450 4011 0 fold 
2222 0 4005 722 all_in 
3333 10365 0 1765 check 
6666 581 6078 50 fold 
7777 1256 6032 0 fold 
4444 33919 8000 1765 raise 
total pot: 4302 
/inquire 
recv from player 4444: check
turn/ 
DIAMONDS J 
/turn 

---turn round bet---
valid player: 6, all in player: 1, fold player: 3
send inquire msg to player 6666 
inquire/ 
7777 1256 6032 0 fold 
4444 33919 8000 1765 check 
1111 1450 4011 0 fold 
2222 0 4005 722 all_in 
3333 10365 0 1765 check 
6666 581 6078 50 fold 
total pot: 4302 
/inquire 
send inquire msg to player 3333 
inquire/ 
6666 581 6078 50 fold 
7777 1256 6032 0 fold 
4444 33919 8000 1765 check 
1111 1450 4011 0 fold 
2222 0 4005 722 all_in 
3333 10365 0 1765 check 
total pot: 4302 
/inquire 
recv from player 3333: check
send inquire msg to player 2222 
inquire/ 
3333 10365 0 1765 check 
6666 581 6078 50 fold 
7777 1256 6032 0 fold 
4444 33919 8000 1765 check 
1111 1450 4011 0 fold 
2222 0 4005 722 all_in 
total pot: 4302 
/inquire 
send inquire msg to player 1111 
inquire/ 
2222 0 4005 722 all_in 
3333 10365 0 1765 check 
6666 581 6078 50 fold 
7777 1256 6032 0 fold 
4444 33919 8000 1765 check 
1111 1450 4011 0 fold 
total pot: 4302 
/inquire 
send inquire msg to player 4444 
inquire/ 
1111 1450 4011 0 fold 
2222 0 4005 722 all_in 
3333 10365 0 1765 check 
6666 581 6078 50 fold 
7777 1256 6032 0 fold 
4444 33919 8000 1765 check 
total pot: 4302 
/inquire 
recv from player 4444: check
river/ 
HEARTS K 
/river 

---river round bet---
valid player: 6, all in player: 1, fold player: 3
send inquire msg to player 6666 
inquire/ 
7777 1256 6032 0 fold 
4444 33919 8000 1765 check 
1111 1450 4011 0 fold 
2222 0 4005 722 all_in 
3333 10365 0 1765 check 
6666 581 6078 50 fold 
total pot: 4302 
/inquire 
send inquire msg to player 3333 
inquire/ 
6666 581 6078 50 fold 
7777 1256 6032 0 fold 
4444 33919 8000 1765 check 
1111 1450 4011 0 fold 
2222 0 4005 722 all_in 
3333 10365 0 1765 check 
total pot: 4302 
/inquire 
recv from player 3333: check
send inquire msg to player 2222 
inquire/ 
3333 10365 0 1765 check 
6666 581 6078 50 fold 
7777 1256 6032 0 fold 
4444 33919 8000 1765 check 
1111 1450 4011 0 fold 
2222 0 4005 722 all_in 
total pot: 4302 
/inquire 
send inquire msg to player 1111 
inquire/ 
2222 0 4005 722 all_in 
3333 10365 0 1765 check 
6666 581 6078 50 fold 
7777 1256 6032 0 fold 
4444 33919 8000 1765 check 
1111 1450 4011 0 fold 
total pot: 4302 
/inquire 
send inquire msg to player 4444 
inquire/ 
1111 1450 4011 0 fold 
2222 0 4005 722 all_in 
3333 10365 0 1765 check 
6666 581 6078 50 fold 
7777 1256 6032 0 fold 
4444 33919 8000 1765 check 
total pot: 4302 
/inquire 
recv from player 4444: check

---show down---
showdown/ 
common/ 
CLUBS K 
CLUBS A 
HEARTS 7 
DIAMONDS J 
HEARTS K 
/common 
3: 3333 CLUBS 3 DIAMONDS 6 ONE_PAIR 
1: 2222 CLUBS 9 DIAMONDS K THREE_OF_A_KIND 
2: 4444 SPADES 8 DIAMONDS 9 ONE_PAIR 
/showdown 

---Allocate pot---
pot-win/ 
2222: 2216 
4444: 2086 
/pot-win 
it is player 6666's turn to be button

-----47 Hand-----

----- clean player data in socket -----
seat/ 
button: 6666 581 6078 
small blind: 3333 10365 0 
big blind: 2222 2216 4005 
1111 1450 4011 
4444 36005 8000 
7777 1256 6032 
/seat 
blind/ 
3333: 50 
2222: 100 
/blind 
player 3333:hold/ 
SPADES 7 
SPADES K 
/hold 
player 2222:hold/ 
HEARTS 6 
DIAMONDS 9 
/hold 
player 1111:hold/ 
DIAMONDS K 
DIAMONDS A 
/hold 
player 4444:hold/ 
DIAMONDS 7 
SPADES 5 
/hold 
player 7777:hold/ 
DIAMONDS 2 
SPADES J 
/hold 
player 6666:hold/ 
SPADES A 
HEARTS A 
/hold 

---pre flop round bet---
valid player: 6, all in player: 0, fold player: 0
send inquire msg to player 1111 
inquire/ 
2222 2116 4005 100 blind 
3333 10315 0 50 blind 
total pot: 150 
/inquire 
recv from player 1111: check
send inquire msg to player 4444 
inquire/ 
1111 1350 4011 100 call 
2222 2116 4005 100 blind 
3333 10315 0 50 blind 
total pot: 250 
/inquire 
recv from player 4444: raise 926
send inquire msg to player 7777 
inquire/ 
4444 34979 8000 1026 raise 
1111 1350 4011 100 call 
2222 2116 4005 100 blind 
3333 10315 0 50 blind 
total pot: 1276 
/inquire 
recv from player 7777: fold
send inquire msg to player 6666 
inquire/ 
7777 1256 6032 0 fold 
4444 34979 8000 1026 raise 
1111 1350 4011 100 call 
2222 2116 4005 100 blind 
3333 10315 0 50 blind 
total pot: 1276 
/inquire 
recv from player 6666: fold
send inquire msg to player 3333 
inquire/ 
6666 581 6078 0 fold 
7777 1256 6032 0 fold 
4444 34979 8000 1026 raise 
1111 1350 4011 100 call 
2222 2116 4005 100 blind 
3333 10315 0 50 blind 
total pot: 1276 
/inquire 
recv from player 3333: check
send inquire msg to player 2222 
inquire/ 
3333 9339 0 1026 call 
6666 581 6078 0 fold 
7777 1256 6032 0 fold 
4444 34979 8000 1026 raise 
1111 1350 4011 100 call 
2222 2116 4005 100 blind 
total pot: 2252 
/inquire 
recv from player 2222: fold
send inquire msg to player 1111 
inquire/ 
2222 2116 4005 100 fold 
3333 9339 0 1026 call 
6666 581 6078 0 fold 
7777 1256 6032 0 fold 
4444 34979 8000 1026 raise 
1111 1350 4011 100 call 
total pot: 2252 
/inquire 
recv from player 1111: check
flop/ 
CLUBS 10 
CLUBS 6 
DIAMONDS 10 
/flop 

---flop round bet---
valid player: 6, all in player: 0, fold player: 3
send inquire msg to player 3333 
inquire/ 
6666 581 6078 0 fold 
7777 1256 6032 0 fold 
4444 34979 8000 1026 raise 
1111 424 4011 1026 call 
2222 2116 4005 100 fold 
3333 9339 0 1026 call 
total pot: 3178 
/inquire 
recv from player 3333: check
send inquire msg to player 2222 
inquire/ 
3333 9339 0 1026 check 
6666 581 6078 0 fold 
7777 1256 6032 0 fold 
4444 34979 8000 1026 raise 
1111 424 4011 1026 call 
2222 2116 4005 100 fold 
total pot: 3178 
/inquire 
send inquire msg to player 1111 
inquire/ 
2222 2116 4005 100 fold 
3333 9339 0 1026 check 
6666 581 6078 0 fold 
7777 1256 6032 0 fold 
4444 34979 8000 1026 raise 
1111 424 4011 1026 call 
total pot: 3178 
/inquire 
recv from player 1111: fold
send inquire msg to player 4444 
inquire/ 
1111 424 4011 1026 fold 
2222 2116 4005 100 fold 
3333 9339 0 1026 check 
6666 581 6078 0 fold 
7777 1256 6032 0 fold 
4444 34979 8000 1026 raise 
total pot: 3178 
/inquire 
recv from player 4444: check
turn/ 
CLUBS J 
/turn 

---turn round bet---
valid player: 6, all in player: 0, fold player: 4
send inquire msg to player 3333 
inquire/ 
6666 581 6078 0 fold 
7777 1256 6032 0 fold 
4444 34979 8000 1026 check 
1111 424 4011 1026 fold 
2222 2116 4005 100 fold 
3333 9339 0 1026 check 
total pot: 3178 
/inquire 
recv from player 3333: check
send inquire msg to player 2222 
inquire/ 
3333 9339 0 1026 check 
6666 581 6078 0 fold 
7777 1256 6032 0 fold 
4444 34979 8000 1026 check 
1111 424 4011 1026 fold 
2222 2116 4005 100 fold 
total pot: 3178 
/inquire 
send inquire msg to player 1111 
inquire/ 
2222 2116 4005 100 fold 
3333 9339 0 1026 check 
6666 581 6078 0 fold 
7777 1256 6032 0 fold 
4444 34979 8000 1026 check 
1111 424 4011 1026 fold 
total pot: 3178 
/inquire 
send inquire msg to player 4444 
inquire/ 
1111 424 4011 1026 fold 
2222 2116 4005 100 fold 
3333 9339 0 1026 check 
6666 581 6078 0 fold 
7777 1256 6032 0 fold 
4444 34979 8000 1026 check 
total pot: 3178 
/inquire 
recv from player 4444: check
river/ 
HEARTS K 
/river 

---river round bet---
valid player: 6, all in player: 0, fold player: 4
send inquire msg to player 3333 
inquire/ 
6666 581 6078 0 fold 
7777 1256 6032 0 fold 
4444 34979 8000 1026 check 
1111 424 4011 1026 fold 
2222 2116 4005 100 fold 
3333 9339 0 1026 check 
total pot: 3178 
/inquire 
recv from player 3333: check
send inquire msg to player 2222 
inquire/ 
3333 9339 0 1026 check 
6666 581 6078 0 fold 
7777 1256 6032 0 fold 
4444 34979 8000 1026 check 
1111 424 4011 1026 fold 
2222 2116 4005 100 fold 
total pot: 3178 
/inquire 
send inquire msg to player 1111 
inquire/ 
2222 2116 4005 100 fold 
3333 9339 0 1026 check 
6666 581 6078 0 fold 
7777 1256 6032 0 fold 
4444 34979 8000 1026 check 
1111 424 4011 1026 fold 
total pot: 3178 
/inquire 
send inquire msg to player 4444 
inquire/ 
1111 424 4011 1026 fold 
2222 2116 4005 100 fold 
3333 9339 0 1026 check 
6666 581 6078 0 fold 
7777 1256 6032 0 fold 
4444 34979 8000 1026 check 
total pot: 3178 
/inquire 
recv from player 4444: check

---show down---
showdown/ 
common/ 
CLUBS 10 
CLUBS 6 
DIAMONDS 10 
CLUBS J 
HEARTS K 
/common 
1: 3333 SPADES 7 SPADES K TWO_PAIR 
2: 4444 DIAMONDS 7 SPADES 5 ONE_PAIR 
/showdown 

---Allocate pot---
pot-win/ 
3333: 3178 
/pot-win 
it is player 3333's turn to be button

-----48 Hand-----

----- clean player data in socket -----
seat/ 
button: 3333 12517 0 
small blind: 2222 2116 4005 
big blind: 1111 424 4011 
4444 34979 8000 
7777 1256 6032 
6666 581 6078 
/seat 
blind/ 
2222: 50 
1111: 100 
/blind 
player 2222:hold/ 
SPADES 8 
HEARTS 2 
/hold 
player 1111:hold/ 
DIAMONDS 3 
SPADES J 
/hold 
player 4444:hold/ 
DIAMONDS K 
SPADES K 
/hold 
player 7777:hold/ 
DIAMONDS 8 
DIAMONDS 2 
/hold 
player 6666:hold/ 
CLUBS 10 
SPADES 5 
/hold 
player 3333:hold/ 
CLUBS 5 
SPADES A 
/hold 

---pre flop round bet---
valid player: 6, all in player: 0, fold player: 0
send inquire msg to player 4444 
inquire/ 
1111 324 4011 100 blind 
2222 2066 4005 50 blind 
total pot: 150 
/inquire 
recv from player 4444: raise 8892
send inquire msg to player 7777 
inquire/ 
4444 25987 8000 8992 raise 
1111 324 4011 100 blind 
2222 2066 4005 50 blind 
total pot: 9142 
/inquire 
recv from player 7777: fold
send inquire msg to player 6666 
inquire/ 
7777 1256 6032 0 fold 
4444 25987 8000 8992 raise 
1111 324 4011 100 blind 
2222 2066 4005 50 blind 
total pot: 9142 
/inquire 
recv from player 6666: fold
send inquire msg to player 3333 
inquire/ 
6666 581 6078 0 fold 
7777 1256 6032 0 fold 
4444 25987 8000 8992 raise 
1111 324 4011 100 blind 
2222 2066 4005 50 blind 
total pot: 9142 
/inquire 
recv from player 3333: check
send inquire msg to player 2222 
inquire/ 
3333 3525 0 8992 call 
6666 581 6078 0 fold 
7777 1256 6032 0 fold 
4444 25987 8000 8992 raise 
1111 324 4011 100 blind 
2222 2066 4005 50 blind 
total pot: 18134 
/inquire 
recv from player 2222: fold
send inquire msg to player 1111 
inquire/ 
2222 2066 4005 50 fold 
3333 3525 0 8992 call 
6666 581 6078 0 fold 
7777 1256 6032 0 fold 
4444 25987 8000 8992 raise 
1111 324 4011 100 blind 
total pot: 18134 
/inquire 
recv from player 1111: check
flop/ 
HEARTS K 
DIAMONDS 4 
HEARTS 9 
/flop 

---flop round bet---
valid player: 6, all in player: 1, fold player: 3
send inquire msg to player 2222 
inquire/ 
3333 3525 0 8992 call 
6666 581 6078 0 fold 
7777 1256 6032 0 fold 
4444 25987 8000 8992 raise 
1111 0 4011 424 all_in 
2222 2066 4005 50 fold 
total pot: 18458 
/inquire 
send inquire msg to player 1111 
inquire/ 
2222 2066 4005 50 fold 
3333 3525 0 8992 call 
6666 581 6078 0 fold 
7777 1256 6032 0 fold 
4444 25987 8000 8992 raise 
1111 0 4011 424 all_in 
total pot: 18458 
/inquire 
send inquire msg to player 4444 
inquire/ 
1111 0 4011 424 all_in 
2222 2066 4005 50 fold 
3333 3525 0 8992 call 
6666 581 6078 0 fold 
7777 1256 6032 0 fold 
4444 25987 8000 8992 raise 
total pot: 18458 
/inquire 
recv from player 4444: check
send inquire msg to player 7777 
inquire/ 
4444 25987 8000 8992 check 
1111 0 4011 424 all_in 
2222 2066 4005 50 fold 
3333 3525 0 8992 call 
6666 581 6078 0 fold 
7777 1256 6032 0 fold 
total pot: 18458 
/inquire 
send inquire msg to player 6666 
inquire/ 
7777 1256 6032 0 fold 
4444 25987 8000 8992 check 
1111 0 4011 424 all_in 
2222 2066 4005 50 fold 
3333 3525 0 8992 call 
6666 581 6078 0 fold 
total pot: 18458 
/inquire 
send inquire msg to player 3333 
inquire/ 
6666 581 6078 0 fold 
7777 1256 6032 0 fold 
4444 25987 8000 8992 check 
1111 0 4011 424 all_in 
2222 2066 4005 50 fold 
3333 3525 0 8992 call 
total pot: 18458 
/inquire 
recv from player 3333: check
turn/ 
CLUBS 2 
/turn 

---turn round bet---
valid player: 6, all in player: 1, fold player: 3
send inquire msg to player 2222 
inquire/ 
3333 3525 0 8992 check 
6666 581 6078 0 fold 
7777 1256 6032 0 fold 
4444 25987 8000 8992 check 
1111 0 4011 424 all_in 
2222 2066 4005 50 fold 
total pot: 18458 
/inquire 
send inquire msg to player 1111 
inquire/ 
2222 2066 4005 50 fold 
3333 3525 0 8992 check 
6666 581 6078 0 fold 
7777 1256 6032 0 fold 
4444 25987 8000 8992 check 
1111 0 4011 424 all_in 
total pot: 18458 
/inquire 
send inquire msg to player 4444 
inquire/ 
1111 0 4011 424 all_in 
2222 2066 4005 50 fold 
3333 3525 0 8992 check 
6666 581 6078 0 fold 
7777 1256 6032 0 fold 
4444 25987 8000 8992 check 
total pot: 18458 
/inquire 
recv from player 4444: check
send inquire msg to player 7777 
inquire/ 
4444 25987 8000 8992 check 
1111 0 4011 424 all_in 
2222 2066 4005 50 fold 
3333 3525 0 8992 check 
6666 581 6078 0 fold 
7777 1256 6032 0 fold 
total pot: 18458 
/inquire 
send inquire msg to player 6666 
inquire/ 
7777 1256 6032 0 fold 
4444 25987 8000 8992 check 
1111 0 4011 424 all_in 
2222 2066 4005 50 fold 
3333 3525 0 8992 check 
6666 581 6078 0 fold 
total pot: 18458 
/inquire 
send inquire msg to player 3333 
inquire/ 
6666 581 6078 0 fold 
7777 1256 6032 0 fold 
4444 25987 8000 8992 check 
1111 0 4011 424 all_in 
2222 2066 4005 50 fold 
3333 3525 0 8992 check 
total pot: 18458 
/inquire 
recv from player 3333: check
river/ 
CLUBS 9 
/river 

---river round bet---
valid player: 6, all in player: 1, fold player: 3
send inquire msg to player 2222 
inquire/ 
3333 3525 0 8992 check 
6666 581 6078 0 fold 
7777 1256 6032 0 fold 
4444 25987 8000 8992 check 
1111 0 4011 424 all_in 
2222 2066 4005 50 fold 
total pot: 18458 
/inquire 
send inquire msg to player 1111 
inquire/ 
2222 2066 4005 50 fold 
3333 3525 0 8992 check 
6666 581 6078 0 fold 
7777 1256 6032 0 fold 
4444 25987 8000 8992 check 
1111 0 4011 424 all_in 
total pot: 18458 
/inquire 
send inquire msg to player 4444 
inquire/ 
1111 0 4011 424 all_in 
2222 2066 4005 50 fold 
3333 3525 0 8992 check 
6666 581 6078 0 fold 
7777 1256 6032 0 fold 
4444 25987 8000 8992 check 
total pot: 18458 
/inquire 
recv from player 4444: check
send inquire msg to player 7777 
inquire/ 
4444 25987 8000 8992 check 
1111 0 4011 424 all_in 
2222 2066 4005 50 fold 
3333 3525 0 8992 check 
6666 581 6078 0 fold 
7777 1256 6032 0 fold 
total pot: 18458 
/inquire 
send inquire msg to player 6666 
inquire/ 
7777 1256 6032 0 fold 
4444 25987 8000 8992 check 
1111 0 4011 424 all_in 
2222 2066 4005 50 fold 
3333 3525 0 8992 check 
6666 581 6078 0 fold 
total pot: 18458 
/inquire 
send inquire msg to player 3333 
inquire/ 
6666 581 6078 0 fold 
7777 1256 6032 0 fold 
4444 25987 8000 8992 check 
1111 0 4011 424 all_in 
2222 2066 4005 50 fold 
3333 3525 0 8992 check 
total pot: 18458 
/inquire 
recv from player 3333: check

---show down---
showdown/ 
common/ 
HEARTS K 
DIAMONDS 4 
HEARTS 9 
CLUBS 2 
CLUBS 9 
/common 
3: 1111 DIAMONDS 3 SPADES J ONE_PAIR 
1: 4444 DIAMONDS K SPADES K FULL_HOUSE 
2: 3333 CLUBS 5 SPADES A ONE_PAIR 
/showdown 

---Allocate pot---
pot-win/ 
4444: 18458 
/pot-win 
it is player 2222's turn to be button

-----49 Hand-----

----- clean player data in socket -----
seat/ 
button: 2222 2066 4005 
small blind: 1111 2000 2011 
big blind: 4444 44445 8000 
7777 1256 6032 
6666 581 6078 
3333 3525 0 
/seat 
blind/ 
1111: 50 
4444: 100 
/blind 
player 1111:hold/ 
HEARTS 3 
CLUBS K 
/hold 
player 4444:hold/ 
SPADES A 
DIAMONDS 4 
/hold 
player 7777:hold/ 
SPADES 6 
DIAMONDS 5 
/hold 
player 6666:hold/ 
DIAMONDS 2 
DIAMONDS 6 
/hold 
player 3333:hold/ 
CLUBS J 
HEARTS 4 
/hold 
player 2222:hold/ 
CLUBS 7 
SPADES 10 
/hold 

---pre flop round bet---
valid player: 6, all in player: 0, fold player: 0
send inquire msg to player 7777 
inquire/ 
4444 44345 8000 100 blind 
1111 1950 2011 50 blind 
total pot: 150 
/inquire 
recv from player 7777: check
send inquire msg to player 6666 
inquire/ 
7777 1156 6032 100 call 
4444 44345 8000 100 blind 
1111 1950 2011 50 blind 
total pot: 250 
/inquire 
recv from player 6666: fold
send inquire msg to player 3333 
inquire/ 
6666 581 6078 0 fold 
7777 1156 6032 100 call 
4444 44345 8000 100 blind 
1111 1950 2011 50 blind 
total pot: 250 
/inquire 
recv from player 3333: check
send inquire msg to player 2222 
inquire/ 
3333 3425 0 100 call 
6666 581 6078 0 fold 
7777 1156 6032 100 call 
4444 44345 8000 100 blind 
1111 1950 2011 50 blind 
total pot: 350 
/inquire 
recv from player 2222: check
send inquire msg to player 1111 
inquire/ 
2222 1966 4005 100 call 
3333 3425 0 100 call 
6666 581 6078 0 fold 
7777 1156 6032 100 call 
4444 44345 8000 100 blind 
1111 1950 2011 50 blind 
total pot: 450 
/inquire 
recv from player 1111: fold
send inquire msg to player 4444 
inquire/ 
1111 1950 2011 50 fold 
2222 1966 4005 100 call 
3333 3425 0 100 call 
6666 581 6078 0 fold 
7777 1156 6032 100 call 
4444 44345 8000 100 blind 
total pot: 450 
/inquire 
recv from player 4444: raise 1487
send inquire msg to player 7777 
inquire/ 
4444 42858 8000 1587 raise 
1111 1950 2011 50 fold 
2222 1966 4005 100 call 
3333 3425 0 100 call 
6666 581 6078 0 fold 
7777 1156 6032 100 call 
total pot: 1937 
/inquire 
recv from player 7777: fold
send inquire msg to player 6666 
inquire/ 
7777 1156 6032 100 fold 
4444 42858 8000 1587 raise 
1111 1950 2011 50 fold 
2222 1966 4005 100 call 
3333 3425 0 100 call 
6666 581 6078 0 fold 
total pot: 1937 
/inquire 
send inquire msg to player 3333 
inquire/ 
6666 581 6078 0 fold 
7777 1156 6032 100 fold 
4444 42858 8000 1587 raise 
1111 1950 2011 50 fold 
2222 1966 4005 100 call 
3333 3425 0 100 call 
total pot: 1937 
/inquire 
recv from player 3333: check
send inquire msg to player 2222 
inquire/ 
3333 1938 0 1587 call 
6666 581 6078 0 fold 
7777 1156 6032 100 fold 
4444 42858 8000 1587 raise 
1111 1950 2011 50 fold 
2222 1966 4005 100 call 
total pot: 3424 
/inquire 
recv from player 2222: fold
flop/ 
SPADES Q 
DIAMONDS 3 
HEARTS Q 
/flop 

---flop round bet---
valid player: 6, all in player: 0, fold player: 4
send inquire msg to player 1111 
inquire/ 
2222 1966 4005 100 fold 
3333 1938 0 1587 call 
6666 581 6078 0 fold 
7777 1156 6032 100 fold 
4444 42858 8000 1587 raise 
1111 1950 2011 50 fold 
total pot: 3424 
/inquire 
send inquire msg to player 4444 
inquire/ 
1111 1950 2011 50 fold 
2222 1966 4005 100 fold 
3333 1938 0 1587 call 
6666 581 6078 0 fold 
7777 1156 6032 100 fold 
4444 42858 8000 1587 raise 
total pot: 3424 
/inquire 
recv from player 4444: check
send inquire msg to player 7777 
inquire/ 
4444 42858 8000 1587 check 
1111 1950 2011 50 fold 
2222 1966 4005 100 fold 
3333 1938 0 1587 call 
6666 581 6078 0 fold 
7777 1156 6032 100 fold 
total pot: 3424 
/inquire 
send inquire msg to player 6666 
inquire/ 
7777 1156 6032 100 fold 
4444 42858 8000 1587 check 
1111 1950 2011 50 fold 
2222 1966 4005 100 fold 
3333 1938 0 1587 call 
6666 581 6078 0 fold 
total pot: 3424 
/inquire 
send inquire msg to player 3333 
inquire/ 
6666 581 6078 0 fold 
7777 1156 6032 100 fold 
4444 42858 8000 1587 check 
1111 1950 2011 50 fold 
2222 1966 4005 100 fold 
3333 1938 0 1587 call 
total pot: 3424 
/inquire 
recv from player 3333: check
turn/ 
HEARTS 2 
/turn 

---turn round bet---
valid player: 6, all in player: 0, fold player: 4
send inquire msg to player 1111 
inquire/ 
2222 1966 4005 100 fold 
3333 1938 0 1587 check 
6666 581 6078 0 fold 
7777 1156 6032 100 fold 
4444 42858 8000 1587 check 
1111 1950 2011 50 fold 
total pot: 3424 
/inquire 
send inquire msg to player 4444 
inquire/ 
1111 1950 2011 50 fold 
2222 1966 4005 100 fold 
3333 1938 0 1587 check 
6666 581 6078 0 fold 
7777 1156 6032 100 fold 
4444 42858 8000 1587 check 
total pot: 3424 
/inquire 
recv from player 4444: check
send inquire msg to player 7777 
inquire/ 
4444 42858 8000 1587 check 
1111 1950 2011 50 fold 
2222 1966 4005 100 fold 
3333 1938 0 1587 check 
6666 581 6078 0 fold 
7777 1156 6032 100 fold 
total pot: 3424 
/inquire 
send inquire msg to player 6666 
inquire/ 
7777 1156 6032 100 fold 
4444 42858 8000 1587 check 
1111 1950 2011 50 fold 
2222 1966 4005 100 fold 
3333 1938 0 1587 check 
6666 581 6078 0 fold 
total pot: 3424 
/inquire 
send inquire msg to player 3333 
inquire/ 
6666 581 6078 0 fold 
7777 1156 6032 100 fold 
4444 42858 8000 1587 check 
1111 1950 2011 50 fold 
2222 1966 4005 100 fold 
3333 1938 0 1587 check 
total pot: 3424 
/inquire 
recv from player 3333: check
river/ 
HEARTS K 
/river 

---river round bet---
valid player: 6, all in player: 0, fold player: 4
send inquire msg to player 1111 
inquire/ 
2222 1966 4005 100 fold 
3333 1938 0 1587 check 
6666 581 6078 0 fold 
7777 1156 6032 100 fold 
4444 42858 8000 1587 check 
1111 1950 2011 50 fold 
total pot: 3424 
/inquire 
send inquire msg to player 4444 
inquire/ 
1111 1950 2011 50 fold 
2222 1966 4005 100 fold 
3333 1938 0 1587 check 
6666 581 6078 0 fold 
7777 1156 6032 100 fold 
4444 42858 8000 1587 check 
total pot: 3424 
/inquire 
recv from player 4444: check
send inquire msg to player 7777 
inquire/ 
4444 42858 8000 1587 check 
1111 1950 2011 50 fold 
2222 1966 4005 100 fold 
3333 1938 0 1587 check 
6666 581 6078 0 fold 
7777 1156 6032 100 fold 
total pot: 3424 
/inquire 
send inquire msg to player 6666 
inquire/ 
7777 1156 6032 100 fold 
4444 42858 8000 1587 check 
1111 1950 2011 50 fold 
2222 1966 4005 100 fold 
3333 1938 0 1587 check 
6666 581 6078 0 fold 
total pot: 3424 
/inquire 
send inquire msg to player 3333 
inquire/ 
6666 581 6078 0 fold 
7777 1156 6032 100 fold 
4444 42858 8000 1587 check 
1111 1950 2011 50 fold 
2222 1966 4005 100 fold 
3333 1938 0 1587 check 
total pot: 3424 
/inquire 
recv from player 3333: check

---show down---
showdown/ 
common/ 
SPADES Q 
DIAMONDS 3 
HEARTS Q 
HEARTS 2 
HEARTS K 
/common 
1: 4444 SPADES A DIAMONDS 4 ONE_PAIR 
2: 3333 CLUBS J HEARTS 4 ONE_PAIR 
/showdown 

---Allocate pot---
pot-win/ 
4444: 3424 
/pot-win 
it is player 1111's turn to be button

-----50 Hand-----

----- clean player data in socket -----
seat/ 
button: 1111 1950 2011 
small blind: 4444 46282 8000 
big blind: 7777 1156 6032 
6666 581 6078 
3333 1938 0 
2222 1966 4005 
/seat 
blind/ 
4444: 50 
7777: 100 
/blind 
player 4444:hold/ 
HEARTS 4 
DIAMONDS 7 
/hold 
player 7777:hold/ 
SPADES A 
DIAMONDS 6 
/hold 
player 6666:hold/ 
DIAMONDS 9 
CLUBS 6 
/hold 
player 3333:hold/ 
SPADES Q 
CLUBS 9 
/hold 
player 2222:hold/ 
DIAMONDS 3 
HEARTS 8 
/hold 
player 1111:hold/ 
SPADES 5 
SPADES K 
/hold 

---pre flop round bet---
valid player: 6, all in player: 0, fold player: 0
send inquire msg to player 6666 
inquire/ 
7777 1056 6032 100 blind 
4444 46232 8000 50 blind 
total pot: 150 
/inquire 
recv from player 6666: fold
send inquire msg to player 3333 
inquire/ 
6666 581 6078 0 fold 
7777 1056 6032 100 blind 
4444 46232 8000 50 blind 
total pot: 150 
/inquire 
recv from player 3333: check
send inquire msg to player 2222 
inquire/ 
3333 1838 0 100 call 
6666 581 6078 0 fold 
7777 1056 6032 100 blind 
4444 46232 8000 50 blind 
total pot: 250 
/inquire 
recv from player 2222: check
send inquire msg to player 1111 
inquire/ 
2222 1866 4005 100 call 
3333 1838 0 100 call 
6666 581 6078 0 fold 
7777 1056 6032 100 blind 
4444 46232 8000 50 blind 
total pot: 350 
/inquire 
recv from player 1111: fold
send inquire msg to player 4444 
inquire/ 
1111 1950 2011 0 fold 
2222 1866 4005 100 call 
3333 1838 0 100 call 
6666 581 6078 0 fold 
7777 1056 6032 100 blind 
4444 46232 8000 50 blind 
total pot: 350 
/inquire 
recv from player 4444: check
send inquire msg to player 7777 
inquire/ 
4444 46182 8000 100 call 
1111 1950 2011 0 fold 
2222 1866 4005 100 call 
3333 1838 0 100 call 
6666 581 6078 0 fold 
7777 1056 6032 100 blind 
total pot: 400 
/inquire 
recv from player 7777: check
flop/ 
HEARTS 2 
DIAMONDS 4 
CLUBS 4 
/flop 

---flop round bet---
valid player: 6, all in player: 0, fold player: 2
send inquire msg to player 4444 
inquire/ 
1111 1950 2011 0 fold 
2222 1866 4005 100 call 
3333 1838 0 100 call 
6666 581 6078 0 fold 
7777 1056 6032 100 check 
4444 46182 8000 100 call 
total pot: 400 
/inquire 
recv from player 4444: raise 25441
send inquire msg to player 7777 
inquire/ 
4444 20741 8000 25541 raise 
1111 1950 2011 0 fold 
2222 1866 4005 100 call 
3333 1838 0 100 call 
6666 581 6078 0 fold 
7777 1056 6032 100 check 
total pot: 25841 
/inquire 
recv from player 7777: fold
send inquire msg to player 6666 
inquire/ 
7777 1056 6032 100 fold 
4444 20741 8000 25541 raise 
1111 1950 2011 0 fold 
2222 1866 4005 100 call 
3333 1838 0 100 call 
6666 581 6078 0 fold 
total pot: 25841 
/inquire 
send inquire msg to player 3333 
inquire/ 
6666 581 6078 0 fold 
7777 1056 6032 100 fold 
4444 20741 8000 25541 raise 
1111 1950 2011 0 fold 
2222 1866 4005 100 call 
3333 1838 0 100 call 
total pot: 25841 
/inquire 
recv from player 3333: check
send inquire msg to player 2222 
inquire/ 
3333 0 0 1938 all_in 
6666 581 6078 0 fold 
7777 1056 6032 100 fold 
4444 20741 8000 25541 raise 
1111 1950 2011 0 fold 
2222 1866 4005 100 call 
total pot: 27679 
/inquire 
recv from player 2222: fold
turn/ 
HEARTS 6 
/turn 

---turn round bet---
valid player: 6, all in player: 1, fold player: 4
river/ 
SPADES 6 
/river 

---river round bet---
valid player: 6, all in player: 1, fold player: 4

---show down---
showdown/ 
common/ 
HEARTS 2 
DIAMONDS 4 
CLUBS 4 
HEARTS 6 
SPADES 6 
/common 
1: 4444 HEARTS 4 DIAMONDS 7 FULL_HOUSE 
2: 3333 SPADES Q CLUBS 9 TWO_PAIR 
/showdown 

---Allocate pot---
pot-win/ 
4444: 27679 
/pot-win 
it is player 4444's turn to be button

-----51 Hand-----

----- clean player data in socket -----
seat/ 
button: 4444 48420 8000 
small blind: 7777 1056 6032 
big blind: 6666 581 6078 
2222 1866 4005 
1111 1950 2011 
/seat 
blind/ 
7777: 50 
6666: 100 
/blind 
player 7777:hold/ 
SPADES 4 
CLUBS Q 
/hold 
player 6666:hold/ 
DIAMONDS 5 
SPADES 7 
/hold 
player 2222:hold/ 
CLUBS 5 
DIAMONDS 9 
/hold 
player 1111:hold/ 
SPADES 9 
CLUBS 9 
/hold 
player 4444:hold/ 
SPADES Q 
DIAMONDS 3 
/hold 

---pre flop round bet---
valid player: 5, all in player: 0, fold player: 0
send inquire msg to player 2222 
inquire/ 
6666 481 6078 100 blind 
7777 1006 6032 50 blind 
total pot: 150 
/inquire 
recv from player 2222: fold
send inquire msg to player 1111 
inquire/ 
2222 1866 4005 0 fold 
6666 481 6078 100 blind 
7777 1006 6032 50 blind 
total pot: 150 
/inquire 
recv from player 1111: fold
send inquire msg to player 4444 
inquire/ 
1111 1950 2011 0 fold 
2222 1866 4005 0 fold 
6666 481 6078 100 blind 
7777 1006 6032 50 blind 
total pot: 150 
/inquire 
recv from player 4444: fold
send inquire msg to player 7777 
inquire/ 
4444 48420 8000 0 fold 
1111 1950 2011 0 fold 
2222 1866 4005 0 fold 
6666 481 6078 100 blind 
7777 1006 6032 50 blind 
total pot: 150 
/inquire 
recv from player 7777: check
send inquire msg to player 6666 
inquire/ 
7777 956 6032 100 call 
4444 48420 8000 0 fold 
1111 1950 2011 0 fold 
2222 1866 4005 0 fold 
6666 481 6078 100 blind 
total pot: 200 
/inquire 
recv from player 6666: check
flop/ 
DIAMONDS 2 
HEARTS 8 
DIAMONDS 10 
/flop 

---flop round bet---
valid player: 5, all in player: 0, fold player: 3
send inquire msg to player 7777 
inquire/ 
4444 48420 8000 0 fold 
1111 1950 2011 0 fold 
2222 1866 4005 0 fold 
6666 481 6078 100 check 
7777 956 6032 100 call 
total pot: 200 
/inquire 
recv from player 7777: check
send inquire msg to player 6666 
inquire/ 
7777 956 6032 100 check 
4444 48420 8000 0 fold 
1111 1950 2011 0 fold 
2222 1866 4005 0 fold 
6666 481 6078 100 check 
total pot: 200 
/inquire 
recv from player 6666: check
turn/ 
SPADES 8 
/turn 

---turn round bet---
valid player: 5, all in player: 0, fold player: 3
send inquire msg to player 7777 
inquire/ 
4444 48420 8000 0 fold 
1111 1950 2011 0 fold 
2222 1866 4005 0 fold 
6666 481 6078 100 check 
7777 956 6032 100 check 
total pot: 200 
/inquire 
recv from player 7777: check
send inquire msg to player 6666 
inquire/ 
7777 956 6032 100 check 
4444 48420 8000 0 fold 
1111 1950 2011 0 fold 
2222 1866 4005 0 fold 
6666 481 6078 100 check 
total pot: 200 
/inquire 
recv from player 6666: check
river/ 
SPADES 10 
/river 

---river round bet---
valid player: 5, all in player: 0, fold player: 3
send inquire msg to player 7777 
inquire/ 
4444 48420 8000 0 fold 
1111 1950 2011 0 fold 
2222 1866 4005 0 fold 
6666 481 6078 100 check 
7777 956 6032 100 check 
total pot: 200 
/inquire 
recv from player 7777: check
send inquire msg to player 6666 
inquire/ 
7777 956 6032 100 check 
4444 48420 8000 0 fold 
1111 1950 2011 0 fold 
2222 1866 4005 0 fold 
6666 481 6078 100 check 
total pot: 200 
/inquire 
recv from player 6666: check

---show down---
showdown/ 
common/ 
DIAMONDS 2 
HEARTS 8 
DIAMONDS 10 
SPADES 8 
SPADES 10 
/common 
1: 7777 SPADES 4 CLUBS Q TWO_PAIR 
2: 6666 DIAMONDS 5 SPADES 7 TWO_PAIR 
/showdown 

---Allocate pot---
pot-win/ 
7777: 200 
/pot-win 
it is player 7777's turn to be button

-----52 Hand-----

----- clean player data in socket -----
seat/ 
button: 7777 1156 6032 
small blind: 6666 481 6078 
big blind: 2222 1866 4005 
1111 1950 2011 
4444 48420 8000 
/seat 
blind/ 
6666: 50 
2222: 100 
/blind 
player 6666:hold/ 
DIAMONDS 2 
CLUBS 2 
/hold 
player 2222:hold/ 
HEARTS J 
DIAMONDS 10 
/hold 
player 1111:hold/ 
HEARTS 3 
SPADES 2 
/hold 
player 4444:hold/ 
HEARTS 2 
HEARTS 4 
/hold 
player 7777:hold/ 
HEARTS A 
SPADES K 
/hold 

---pre flop round bet---
valid player: 5, all in player: 0, fold player: 0
send inquire msg to player 1111 
inquire/ 
2222 1766 4005 100 blind 
6666 431 6078 50 blind 
total pot: 150 
/inquire 
recv from player 1111: fold
send inquire msg to player 4444 
inquire/ 
1111 1950 2011 0 fold 
2222 1766 4005 100 blind 
6666 431 6078 50 blind 
total pot: 150 
/inquire 
recv from player 4444: fold
send inquire msg to player 7777 
inquire/ 
4444 48420 8000 0 fold 
1111 1950 2011 0 fold 
2222 1766 4005 100 blind 
6666 431 6078 50 blind 
total pot: 150 
/inquire 
recv from player 7777: check
send inquire msg to player 6666 
inquire/ 
7777 1056 6032 100 call 
4444 48420 8000 0 fold 
1111 1950 2011 0 fold 
2222 1766 4005 100 blind 
6666 431 6078 50 blind 
total pot: 250 
/inquire 
recv from player 6666: check
send inquire msg to player 2222 
inquire/ 
6666 381 6078 100 call 
7777 1056 6032 100 call 
4444 48420 8000 0 fold 
1111 1950 2011 0 fold 
2222 1766 4005 100 blind 
total pot: 300 
/inquire 
recv from player 2222: fold
flop/ 
CLUBS A 
SPADES A 
SPADES 3 
/flop 

---flop round bet---
valid player: 5, all in player: 0, fold player: 3
send inquire msg to player 6666 
inquire/ 
7777 1056 6032 100 call 
4444 48420 8000 0 fold 
1111 1950 2011 0 fold 
2222 1766 4005 100 fold 
6666 381 6078 100 call 
total pot: 300 
/inquire 
recv from player 6666: check
send inquire msg to player 2222 
inquire/ 
6666 381 6078 100 check 
7777 1056 6032 100 call 
4444 48420 8000 0 fold 
1111 1950 2011 0 fold 
2222 1766 4005 100 fold 
total pot: 300 
/inquire 
send inquire msg to player 1111 
inquire/ 
2222 1766 4005 100 fold 
6666 381 6078 100 check 
7777 1056 6032 100 call 
4444 48420 8000 0 fold 
1111 1950 2011 0 fold 
total pot: 300 
/inquire 
send inquire msg to player 4444 
inquire/ 
1111 1950 2011 0 fold 
2222 1766 4005 100 fold 
6666 381 6078 100 check 
7777 1056 6032 100 call 
4444 48420 8000 0 fold 
total pot: 300 
/inquire 
send inquire msg to player 7777 
inquire/ 
4444 48420 8000 0 fold 
1111 1950 2011 0 fold 
2222 1766 4005 100 fold 
6666 381 6078 100 check 
7777 1056 6032 100 call 
total pot: 300 
/inquire 
recv from player 7777: check
turn/ 
CLUBS 9 
/turn 

---turn round bet---
valid player: 5, all in player: 0, fold player: 3
send inquire msg to player 6666 
inquire/ 
7777 1056 6032 100 check 
4444 48420 8000 0 fold 
1111 1950 2011 0 fold 
2222 1766 4005 100 fold 
6666 381 6078 100 check 
total pot: 300 
/inquire 
recv from player 6666: check
send inquire msg to player 2222 
inquire/ 
6666 381 6078 100 check 
7777 1056 6032 100 check 
4444 48420 8000 0 fold 
1111 1950 2011 0 fold 
2222 1766 4005 100 fold 
total pot: 300 
/inquire 
send inquire msg to player 1111 
inquire/ 
2222 1766 4005 100 fold 
6666 381 6078 100 check 
7777 1056 6032 100 check 
4444 48420 8000 0 fold 
1111 1950 2011 0 fold 
total pot: 300 
/inquire 
send inquire msg to player 4444 
inquire/ 
1111 1950 2011 0 fold 
2222 1766 4005 100 fold 
6666 381 6078 100 check 
7777 1056 6032 100 check 
4444 48420 8000 0 fold 
total pot: 300 
/inquire 
send inquire msg to player 7777 
inquire/ 
4444 48420 8000 0 fold 
1111 1950 2011 0 fold 
2222 1766 4005 100 fold 
6666 381 6078 100 check 
7777 1056 6032 100 check 
total pot: 300 
/inquire 
recv from player 7777: check
river/ 
CLUBS 8 
/river 

---river round bet---
valid player: 5, all in player: 0, fold player: 3
send inquire msg to player 6666 
inquire/ 
7777 1056 6032 100 check 
4444 48420 8000 0 fold 
1111 1950 2011 0 fold 
2222 1766 4005 100 fold 
6666 381 6078 100 check 
total pot: 300 
/inquire 
recv from player 6666: check
send inquire msg to player 2222 
inquire/ 
6666 381 6078 100 check 
7777 1056 6032 100 check 
4444 48420 8000 0 fold 
1111 1950 2011 0 fold 
2222 1766 4005 100 fold 
total pot: 300 
/inquire 
send inquire msg to player 1111 
inquire/ 
2222 1766 4005 100 fold 
6666 381 6078 100 check 
7777 1056 6032 100 check 
4444 48420 8000 0 fold 
1111 1950 2011 0 fold 
total pot: 300 
/inquire 
send inquire msg to player 4444 
inquire/ 
1111 1950 2011 0 fold 
2222 1766 4005 100 fold 
6666 381 6078 100 check 
7777 1056 6032 100 check 
4444 48420 8000 0 fold 
total pot: 300 
/inquire 
send inquire msg to player 7777 
inquire/ 
4444 48420 8000 0 fold 
1111 1950 2011 0 fold 
2222 1766 4005 100 fold 
6666 381 6078 100 check 
7777 1056 6032 100 check 
total pot: 300 
/inquire 
recv from player 7777: check

---show down---
showdown/ 
common/ 
CLUBS A 
SPADES A 
SPADES 3 
CLUBS 9 
CLUBS 8 
/common 
2: 6666 DIAMONDS 2 CLUBS 2 TWO_PAIR 
1: 7777 HEARTS A SPADES K THREE_OF_A_KIND 
/showdown 

---Allocate pot---
pot-win/ 
7777: 300 
/pot-win 
it is player 6666's turn to be button

-----53 Hand-----

----- clean player data in socket -----
seat/ 
button: 6666 381 6078 
small blind: 2222 1766 4005 
big blind: 1111 1950 2011 
4444 48420 8000 
7777 1356 6032 
/seat 
blind/ 
2222: 50 
1111: 100 
/blind 
player 2222:hold/ 
DIAMONDS 2 
CLUBS 9 
/hold 
player 1111:hold/ 
CLUBS 3 
DIAMONDS 10 
/hold 
player 4444:hold/ 
CLUBS 5 
SPADES 3 
/hold 
player 7777:hold/ 
SPADES 2 
HEARTS 2 
/hold 
player 6666:hold/ 
HEARTS 7 
SPADES 7 
/hold 

---pre flop round bet---
valid player: 5, all in player: 0, fold player: 0
send inquire msg to player 4444 
inquire/ 
1111 1850 2011 100 blind 
2222 1716 4005 50 blind 
total pot: 150 
/inquire 
recv from player 4444: fold
send inquire msg to player 7777 
inquire/ 
4444 48420 8000 0 fold 
1111 1850 2011 100 blind 
2222 1716 4005 50 blind 
total pot: 150 
/inquire 
recv from player 7777: fold
send inquire msg to player 6666 
inquire/ 
7777 1356 6032 0 fold 
4444 48420 8000 0 fold 
1111 1850 2011 100 blind 
2222 1716 4005 50 blind 
total pot: 150 
/inquire 
recv from player 6666: fold
send inquire msg to player 2222 
inquire/ 
6666 381 6078 0 fold 
7777 1356 6032 0 fold 
4444 48420 8000 0 fold 
1111 1850 2011 100 blind 
2222 1716 4005 50 blind 
total pot: 150 
/inquire 
recv from player 2222: check
send inquire msg to player 1111 
inquire/ 
2222 1666 4005 100 call 
6666 381 6078 0 fold 
7777 1356 6032 0 fold 
4444 48420 8000 0 fold 
1111 1850 2011 100 blind 
total pot: 200 
/inquire 
recv from player 1111: fold

---flop round bet---
valid player: 5, all in player: 0, fold player: 4

---turn round bet---
valid player: 5, all in player: 0, fold player: 4

---river round bet---
valid player: 5, all in player: 0, fold player: 4

--- 1 players not fold, don't need show down---

---Allocate pot---
Only player at seat 0 not fold, win all the pot 200
pot-win/ 
2222: 200 
/pot-win 
it is player 2222's turn to be button

-----54 Hand-----

----- clean player data in socket -----
seat/ 
button: 2222 1866 4005 
small blind: 1111 1850 2011 
big blind: 4444 48420 8000 
7777 1356 6032 
6666 381 6078 
/seat 
blind/ 
1111: 50 
4444: 100 
/blind 
player 1111:hold/ 
DIAMONDS 8 
CLUBS J 
/hold 
player 4444:hold/ 
DIAMONDS 7 
SPADES Q 
/hold 
player 7777:hold/ 
CLUBS 4 
HEARTS 3 
/hold 
player 6666:hold/ 
DIAMONDS 4 
HEARTS 4 
/hold 
player 2222:hold/ 
SPADES 7 
CLUBS 3 
/hold 

---pre flop round bet---
valid player: 5, all in player: 0, fold player: 0
send inquire msg to player 7777 
inquire/ 
4444 48320 8000 100 blind 
1111 1800 2011 50 blind 
total pot: 150 
/inquire 
recv from player 7777: fold
send inquire msg to player 6666 
inquire/ 
7777 1356 6032 0 fold 
4444 48320 8000 100 blind 
1111 1800 2011 50 blind 
total pot: 150 
/inquire 
recv from player 6666: fold
send inquire msg to player 2222 
inquire/ 
6666 381 6078 0 fold 
7777 1356 6032 0 fold 
4444 48320 8000 100 blind 
1111 1800 2011 50 blind 
total pot: 150 
/inquire 
recv from player 2222: fold
send inquire msg to player 1111 
inquire/ 
2222 1866 4005 0 fold 
6666 381 6078 0 fold 
7777 1356 6032 0 fold 
4444 48320 8000 100 blind 
1111 1800 2011 50 blind 
total pot: 150 
/inquire 
recv from player 1111: fold
send inquire msg to player 4444 
inquire/ 
1111 1800 2011 50 fold 
2222 1866 4005 0 fold 
6666 381 6078 0 fold 
7777 1356 6032 0 fold 
4444 48320 8000 100 blind 
total pot: 150 
/inquire 
recv from player 4444: check

---flop round bet---
valid player: 5, all in player: 0, fold player: 4

---turn round bet---
valid player: 5, all in player: 0, fold player: 4

---river round bet---
valid player: 5, all in player: 0, fold player: 4

--- 1 players not fold, don't need show down---

---Allocate pot---
Only player at seat 1 not fold, win all the pot 150
pot-win/ 
4444: 150 
/pot-win 
it is player 1111's turn to be button

-----55 Hand-----

----- clean player data in socket -----
seat/ 
button: 1111 1800 2011 
small blind: 4444 48470 8000 
big blind: 7777 1356 6032 
6666 381 6078 
2222 1866 4005 
/seat 
blind/ 
4444: 50 
7777: 100 
/blind 
player 4444:hold/ 
SPADES 2 
SPADES 4 
/hold 
player 7777:hold/ 
CLUBS A 
SPADES 5 
/hold 
player 6666:hold/ 
HEARTS 10 
CLUBS 7 
/hold 
player 2222:hold/ 
HEARTS A 
DIAMONDS 4 
/hold 
player 1111:hold/ 
DIAMONDS 2 
DIAMONDS 3 
/hold 

---pre flop round bet---
valid player: 5, all in player: 0, fold player: 0
send inquire msg to player 6666 
inquire/ 
7777 1256 6032 100 blind 
4444 48420 8000 50 blind 
total pot: 150 
/inquire 
recv from player 6666: fold
send inquire msg to player 2222 
inquire/ 
6666 381 6078 0 fold 
7777 1256 6032 100 blind 
4444 48420 8000 50 blind 
total pot: 150 
/inquire 
recv from player 2222: fold
send inquire msg to player 1111 
inquire/ 
2222 1866 4005 0 fold 
6666 381 6078 0 fold 
7777 1256 6032 100 blind 
4444 48420 8000 50 blind 
total pot: 150 
/inquire 
recv from player 1111: check
send inquire msg to player 4444 
inquire/ 
1111 1700 2011 100 call 
2222 1866 4005 0 fold 
6666 381 6078 0 fold 
7777 1256 6032 100 blind 
4444 48420 8000 50 blind 
total pot: 250 
/inquire 
recv from player 4444: check
send inquire msg to player 7777 
inquire/ 
4444 48370 8000 100 call 
1111 1700 2011 100 call 
2222 1866 4005 0 fold 
6666 381 6078 0 fold 
7777 1256 6032 100 blind 
total pot: 300 
/inquire 
recv from player 7777: check
flop/ 
HEARTS 4 
DIAMONDS 5 
CLUBS J 
/flop 

---flop round bet---
valid player: 5, all in player: 0, fold player: 2
send inquire msg to player 4444 
inquire/ 
1111 1700 2011 100 call 
2222 1866 4005 0 fold 
6666 381 6078 0 fold 
7777 1256 6032 100 check 
4444 48370 8000 100 call 
total pot: 300 
/inquire 
recv from player 4444: check
send inquire msg to player 7777 
inquire/ 
4444 48370 8000 100 check 
1111 1700 2011 100 call 
2222 1866 4005 0 fold 
6666 381 6078 0 fold 
7777 1256 6032 100 check 
total pot: 300 
/inquire 
recv from player 7777: check
send inquire msg to player 6666 
inquire/ 
7777 1256 6032 100 check 
4444 48370 8000 100 check 
1111 1700 2011 100 call 
2222 1866 4005 0 fold 
6666 381 6078 0 fold 
total pot: 300 
/inquire 
send inquire msg to player 2222 
inquire/ 
6666 381 6078 0 fold 
7777 1256 6032 100 check 
4444 48370 8000 100 check 
1111 1700 2011 100 call 
2222 1866 4005 0 fold 
total pot: 300 
/inquire 
send inquire msg to player 1111 
inquire/ 
2222 1866 4005 0 fold 
6666 381 6078 0 fold 
7777 1256 6032 100 check 
4444 48370 8000 100 check 
1111 1700 2011 100 call 
total pot: 300 
/inquire 
recv from player 1111: fold
turn/ 
DIAMONDS 10 
/turn 

---turn round bet---
valid player: 5, all in player: 0, fold player: 3
send inquire msg to player 4444 
inquire/ 
1111 1700 2011 100 fold 
2222 1866 4005 0 fold 
6666 381 6078 0 fold 
7777 1256 6032 100 check 
4444 48370 8000 100 check 
total pot: 300 
/inquire 
recv from player 4444: check
send inquire msg to player 7777 
inquire/ 
4444 48370 8000 100 check 
1111 1700 2011 100 fold 
2222 1866 4005 0 fold 
6666 381 6078 0 fold 
7777 1256 6032 100 check 
total pot: 300 
/inquire 
recv from player 7777: check
river/ 
SPADES 6 
/river 

---river round bet---
valid player: 5, all in player: 0, fold player: 3
send inquire msg to player 4444 
inquire/ 
1111 1700 2011 100 fold 
2222 1866 4005 0 fold 
6666 381 6078 0 fold 
7777 1256 6032 100 check 
4444 48370 8000 100 check 
total pot: 300 
/inquire 
recv from player 4444: check
send inquire msg to player 7777 
inquire/ 
4444 48370 8000 100 check 
1111 1700 2011 100 fold 
2222 1866 4005 0 fold 
6666 381 6078 0 fold 
7777 1256 6032 100 check 
total pot: 300 
/inquire 
recv from player 7777: check

---show down---
showdown/ 
common/ 
HEARTS 4 
DIAMONDS 5 
CLUBS J 
DIAMONDS 10 
SPADES 6 
/common 
2: 4444 SPADES 2 SPADES 4 ONE_PAIR 
1: 7777 CLUBS A SPADES 5 ONE_PAIR 
/showdown 

---Allocate pot---
pot-win/ 
7777: 300 
/pot-win 
it is player 4444's turn to be button

-----56 Hand-----

----- clean player data in socket -----
seat/ 
button: 4444 48370 8000 
small blind: 7777 1556 6032 
big blind: 6666 381 6078 
2222 1866 4005 
1111 1700 2011 
/seat 
blind/ 
7777: 50 
6666: 100 
/blind 
player 7777:hold/ 
HEARTS 8 
SPADES 10 
/hold 
player 6666:hold/ 
DIAMONDS 4 
DIAMONDS 7 
/hold 
player 2222:hold/ 
SPADES 8 
CLUBS 8 
/hold 
player 1111:hold/ 
DIAMONDS 2 
HEARTS 7 
/hold 
player 4444:hold/ 
CLUBS 5 
SPADES 5 
/hold 

---pre flop round bet---
valid player: 5, all in player: 0, fold player: 0
send inquire msg to player 2222 
inquire/ 
6666 281 6078 100 blind 
7777 1506 6032 50 blind 
total pot: 150 
/inquire 
recv from player 2222: fold
send inquire msg to player 1111 
inquire/ 
2222 1866 4005 0 fold 
6666 281 6078 100 blind 
7777 1506 6032 50 blind 
total pot: 150 
/inquire 
recv from player 1111: check
send inquire msg to player 4444 
inquire/ 
1111 1600 2011 100 call 
2222 1866 4005 0 fold 
6666 281 6078 100 blind 
7777 1506 6032 50 blind 
total pot: 250 
/inquire 
recv from player 4444: check
send inquire msg to player 7777 
inquire/ 
4444 48270 8000 100 call 
1111 1600 2011 100 call 
2222 1866 4005 0 fold 
6666 281 6078 100 blind 
7777 1506 6032 50 blind 
total pot: 350 
/inquire 
recv from player 7777: check
send inquire msg to player 6666 
inquire/ 
7777 1456 6032 100 call 
4444 48270 8000 100 call 
1111 1600 2011 100 call 
2222 1866 4005 0 fold 
6666 281 6078 100 blind 
total pot: 400 
/inquire 
recv from player 6666: check
flop/ 
SPADES 2 
CLUBS 7 
DIAMONDS J 
/flop 

---flop round bet---
valid player: 5, all in player: 0, fold player: 1
send inquire msg to player 7777 
inquire/ 
4444 48270 8000 100 call 
1111 1600 2011 100 call 
2222 1866 4005 0 fold 
6666 281 6078 100 check 
7777 1456 6032 100 call 
total pot: 400 
/inquire 
recv from player 7777: check
send inquire msg to player 6666 
inquire/ 
7777 1456 6032 100 check 
4444 48270 8000 100 call 
1111 1600 2011 100 call 
2222 1866 4005 0 fold 
6666 281 6078 100 check 
total pot: 400 
/inquire 
recv from player 6666: check
send inquire msg to player 2222 
inquire/ 
6666 281 6078 100 check 
7777 1456 6032 100 check 
4444 48270 8000 100 call 
1111 1600 2011 100 call 
2222 1866 4005 0 fold 
total pot: 400 
/inquire 
send inquire msg to player 1111 
inquire/ 
2222 1866 4005 0 fold 
6666 281 6078 100 check 
7777 1456 6032 100 check 
4444 48270 8000 100 call 
1111 1600 2011 100 call 
total pot: 400 
/inquire 
recv from player 1111: fold
send inquire msg to player 4444 
inquire/ 
1111 1600 2011 100 fold 
2222 1866 4005 0 fold 
6666 281 6078 100 check 
7777 1456 6032 100 check 
4444 48270 8000 100 call 
total pot: 400 
/inquire 
recv from player 4444: check
turn/ 
SPADES 7 
/turn 

---turn round bet---
valid player: 5, all in player: 0, fold player: 2
send inquire msg to player 7777 
inquire/ 
4444 48270 8000 100 check 
1111 1600 2011 100 fold 
2222 1866 4005 0 fold 
6666 281 6078 100 check 
7777 1456 6032 100 check 
total pot: 400 
/inquire 
recv from player 7777: check
send inquire msg to player 6666 
inquire/ 
7777 1456 6032 100 check 
4444 48270 8000 100 check 
1111 1600 2011 100 fold 
2222 1866 4005 0 fold 
6666 281 6078 100 check 
total pot: 400 
/inquire 
recv from player 6666: raise 56
send inquire msg to player 2222 
inquire/ 
6666 181 6078 200 raise 
7777 1456 6032 100 check 
4444 48270 8000 100 check 
1111 1600 2011 100 fold 
2222 1866 4005 0 fold 
total pot: 500 
/inquire 
send inquire msg to player 1111 
inquire/ 
2222 1866 4005 0 fold 
6666 181 6078 200 raise 
7777 1456 6032 100 check 
4444 48270 8000 100 check 
1111 1600 2011 100 fold 
total pot: 500 
/inquire 
send inquire msg to player 4444 
inquire/ 
1111 1600 2011 100 fold 
2222 1866 4005 0 fold 
6666 181 6078 200 raise 
7777 1456 6032 100 check 
4444 48270 8000 100 check 
total pot: 500 
/inquire 
recv from player 4444: check
send inquire msg to player 7777 
inquire/ 
4444 48170 8000 200 call 
1111 1600 2011 100 fold 
2222 1866 4005 0 fold 
6666 181 6078 200 raise 
7777 1456 6032 100 check 
total pot: 600 
/inquire 
recv from player 7777: fold
river/ 
HEARTS 10 
/river 

---river round bet---
valid player: 5, all in player: 0, fold player: 3
send inquire msg to player 7777 
inquire/ 
4444 48170 8000 200 call 
1111 1600 2011 100 fold 
2222 1866 4005 0 fold 
6666 181 6078 200 raise 
7777 1456 6032 100 fold 
total pot: 600 
/inquire 
send inquire msg to player 6666 
inquire/ 
7777 1456 6032 100 fold 
4444 48170 8000 200 call 
1111 1600 2011 100 fold 
2222 1866 4005 0 fold 
6666 181 6078 200 raise 
total pot: 600 
/inquire 
recv from player 6666: fold
send inquire msg to player 2222 
inquire/ 
6666 181 6078 200 fold 
7777 1456 6032 100 fold 
4444 48170 8000 200 call 
1111 1600 2011 100 fold 
2222 1866 4005 0 fold 
total pot: 600 
/inquire 
send inquire msg to player 1111 
inquire/ 
2222 1866 4005 0 fold 
6666 181 6078 200 fold 
7777 1456 6032 100 fold 
4444 48170 8000 200 call 
1111 1600 2011 100 fold 
total pot: 600 
/inquire 
send inquire msg to player 4444 
inquire/ 
1111 1600 2011 100 fold 
2222 1866 4005 0 fold 
6666 181 6078 200 fold 
7777 1456 6032 100 fold 
4444 48170 8000 200 call 
total pot: 600 
/inquire 
recv from player 4444: check

--- 1 players not fold, don't need show down---

---Allocate pot---
Only player at seat 7 not fold, win all the pot 600
pot-win/ 
4444: 600 
/pot-win 
it is player 7777's turn to be button

-----57 Hand-----

----- clean player data in socket -----
seat/ 
button: 7777 1456 6032 
small blind: 6666 181 6078 
big blind: 2222 1866 4005 
1111 1600 2011 
4444 48770 8000 
/seat 
blind/ 
6666: 50 
2222: 100 
/blind 
player 6666:hold/ 
CLUBS 6 
CLUBS 5 
/hold 
player 2222:hold/ 
CLUBS 7 
DIAMONDS 4 
/hold 
player 1111:hold/ 
HEARTS 7 
HEARTS 9 
/hold 
player 4444:hold/ 
CLUBS 8 
SPADES 2 
/hold 
player 7777:hold/ 
CLUBS K 
SPADES 9 
/hold 

---pre flop round bet---
valid player: 5, all in player: 0, fold player: 0
send inquire msg to player 1111 
inquire/ 
2222 1766 4005 100 blind 
6666 131 6078 50 blind 
total pot: 150 
/inquire 
recv from player 1111: fold
send inquire msg to player 4444 
inquire/ 
1111 1600 2011 0 fold 
2222 1766 4005 100 blind 
6666 131 6078 50 blind 
total pot: 150 
/inquire 
recv from player 4444: fold
send inquire msg to player 7777 
inquire/ 
4444 48770 8000 0 fold 
1111 1600 2011 0 fold 
2222 1766 4005 100 blind 
6666 131 6078 50 blind 
total pot: 150 
/inquire 
recv from player 7777: check
send inquire msg to player 6666 
inquire/ 
7777 1356 6032 100 call 
4444 48770 8000 0 fold 
1111 1600 2011 0 fold 
2222 1766 4005 100 blind 
6666 131 6078 50 blind 
total pot: 250 
/inquire 
recv from player 6666: fold
send inquire msg to player 2222 
inquire/ 
6666 131 6078 50 fold 
7777 1356 6032 100 call 
4444 48770 8000 0 fold 
1111 1600 2011 0 fold 
2222 1766 4005 100 blind 
total pot: 250 
/inquire 
recv from player 2222: fold

---flop round bet---
valid player: 5, all in player: 0, fold player: 4

---turn round bet---
valid player: 5, all in player: 0, fold player: 4

---river round bet---
valid player: 5, all in player: 0, fold player: 4

--- 1 players not fold, don't need show down---

---Allocate pot---
Only player at seat 7 not fold, win all the pot 250
pot-win/ 
7777: 250 
/pot-win 
it is player 6666's turn to be button

-----58 Hand-----

----- clean player data in socket -----
seat/ 
button: 6666 131 6078 
small blind: 2222 1766 4005 
big blind: 1111 1600 2011 
4444 48770 8000 
7777 1606 6032 
/seat 
blind/ 
2222: 50 
1111: 100 
/blind 
player 2222:hold/ 
CLUBS 3 
CLUBS 6 
/hold 
player 1111:hold/ 
SPADES Q 
DIAMONDS 3 
/hold 
player 4444:hold/ 
DIAMONDS 5 
CLUBS A 
/hold 
player 7777:hold/ 
DIAMONDS 10 
CLUBS 9 
/hold 
player 6666:hold/ 
SPADES A 
CLUBS 10 
/hold 

---pre flop round bet---
valid player: 5, all in player: 0, fold player: 0
send inquire msg to player 4444 
inquire/ 
1111 1500 2011 100 blind 
2222 1716 4005 50 blind 
total pot: 150 
/inquire 
recv from player 4444: check
send inquire msg to player 7777 
inquire/ 
4444 48670 8000 100 call 
1111 1500 2011 100 blind 
2222 1716 4005 50 blind 
total pot: 250 
/inquire 
recv from player 7777: check
send inquire msg to player 6666 
inquire/ 
7777 1506 6032 100 call 
4444 48670 8000 100 call 
1111 1500 2011 100 blind 
2222 1716 4005 50 blind 
total pot: 350 
/inquire 
recv from player 6666: fold
send inquire msg to player 2222 
inquire/ 
6666 131 6078 0 fold 
7777 1506 6032 100 call 
4444 48670 8000 100 call 
1111 1500 2011 100 blind 
2222 1716 4005 50 blind 
total pot: 350 
/inquire 
recv from player 2222: fold
send inquire msg to player 1111 
inquire/ 
2222 1716 4005 50 fold 
6666 131 6078 0 fold 
7777 1506 6032 100 call 
4444 48670 8000 100 call 
1111 1500 2011 100 blind 
total pot: 350 
/inquire 
recv from player 1111: fold
flop/ 
HEARTS 6 
HEARTS 7 
CLUBS 8 
/flop 

---flop round bet---
valid player: 5, all in player: 0, fold player: 3
send inquire msg to player 2222 
inquire/ 
6666 131 6078 0 fold 
7777 1506 6032 100 call 
4444 48670 8000 100 call 
1111 1500 2011 100 fold 
2222 1716 4005 50 fold 
total pot: 350 
/inquire 
send inquire msg to player 1111 
inquire/ 
2222 1716 4005 50 fold 
6666 131 6078 0 fold 
7777 1506 6032 100 call 
4444 48670 8000 100 call 
1111 1500 2011 100 fold 
total pot: 350 
/inquire 
send inquire msg to player 4444 
inquire/ 
1111 1500 2011 100 fold 
2222 1716 4005 50 fold 
6666 131 6078 0 fold 
7777 1506 6032 100 call 
4444 48670 8000 100 call 
total pot: 350 
/inquire 
recv from player 4444: check
send inquire msg to player 7777 
inquire/ 
4444 48670 8000 100 check 
1111 1500 2011 100 fold 
2222 1716 4005 50 fold 
6666 131 6078 0 fold 
7777 1506 6032 100 call 
total pot: 350 
/inquire 
recv from player 7777: check
turn/ 
DIAMONDS J 
/turn 

---turn round bet---
valid player: 5, all in player: 0, fold player: 3
send inquire msg to player 2222 
inquire/ 
6666 131 6078 0 fold 
7777 1506 6032 100 check 
4444 48670 8000 100 check 
1111 1500 2011 100 fold 
2222 1716 4005 50 fold 
total pot: 350 
/inquire 
send inquire msg to player 1111 
inquire/ 
2222 1716 4005 50 fold 
6666 131 6078 0 fold 
7777 1506 6032 100 check 
4444 48670 8000 100 check 
1111 1500 2011 100 fold 
total pot: 350 
/inquire 
send inquire msg to player 4444 
inquire/ 
1111 1500 2011 100 fold 
2222 1716 4005 50 fold 
6666 131 6078 0 fold 
7777 1506 6032 100 check 
4444 48670 8000 100 check 
total pot: 350 
/inquire 
recv from player 4444: check
send inquire msg to player 7777 
inquire/ 
4444 48670 8000 100 check 
1111 1500 2011 100 fold 
2222 1716 4005 50 fold 
6666 131 6078 0 fold 
7777 1506 6032 100 check 
total pot: 350 
/inquire 
recv from player 7777: check
river/ 
SPADES 6 
/river 

---river round bet---
valid player: 5, all in player: 0, fold player: 3
send inquire msg to player 2222 
inquire/ 
6666 131 6078 0 fold 
7777 1506 6032 100 check 
4444 48670 8000 100 check 
1111 1500 2011 100 fold 
2222 1716 4005 50 fold 
total pot: 350 
/inquire 
send inquire msg to player 1111 
inquire/ 
2222 1716 4005 50 fold 
6666 131 6078 0 fold 
7777 1506 6032 100 check 
4444 48670 8000 100 check 
1111 1500 2011 100 fold 
total pot: 350 
/inquire 
send inquire msg to player 4444 
inquire/ 
1111 1500 2011 100 fold 
2222 1716 4005 50 fold 
6666 131 6078 0 fold 
7777 1506 6032 100 check 
4444 48670 8000 100 check 
total pot: 350 
/inquire 
recv from player 4444: check
send inquire msg to player 7777 
inquire/ 
4444 48670 8000 100 check 
1111 1500 2011 100 fold 
2222 1716 4005 50 fold 
6666 131 6078 0 fold 
7777 1506 6032 100 check 
total pot: 350 
/inquire 
recv from player 7777: check

---show down---
showdown/ 
common/ 
HEARTS 6 
HEARTS 7 
CLUBS 8 
DIAMONDS J 
SPADES 6 
/common 
2: 4444 DIAMONDS 5 CLUBS A ONE_PAIR 
1: 7777 DIAMONDS 10 CLUBS 9 STRAIGHT 
/showdown 

---Allocate pot---
pot-win/ 
7777: 350 
/pot-win 
it is player 2222's turn to be button

-----59 Hand-----

----- clean player data in socket -----
seat/ 
button: 2222 1716 4005 
small blind: 1111 1500 2011 
big blind: 4444 48670 8000 
7777 1856 6032 
6666 131 6078 
/seat 
blind/ 
1111: 50 
4444: 100 
/blind 
player 1111:hold/ 
HEARTS 7 
CLUBS 6 
/hold 
player 4444:hold/ 
CLUBS K 
DIAMONDS J 
/hold 
player 7777:hold/ 
DIAMONDS 7 
DIAMONDS K 
/hold 
player 6666:hold/ 
DIAMONDS Q 
CLUBS J 
/hold 
player 2222:hold/ 
HEARTS 8 
SPADES 9 
/hold 

---pre flop round bet---
valid player: 5, all in player: 0, fold player: 0
send inquire msg to player 7777 
inquire/ 
4444 48570 8000 100 blind 
1111 1450 2011 50 blind 
total pot: 150 
/inquire 
recv from player 7777: check
send inquire msg to player 6666 
inquire/ 
7777 1756 6032 100 call 
4444 48570 8000 100 blind 
1111 1450 2011 50 blind 
total pot: 250 
/inquire 
recv from player 6666: fold
send inquire msg to player 2222 
inquire/ 
6666 131 6078 0 fold 
7777 1756 6032 100 call 
4444 48570 8000 100 blind 
1111 1450 2011 50 blind 
total pot: 250 
/inquire 
recv from player 2222: check
send inquire msg to player 1111 
inquire/ 
2222 1616 4005 100 call 
6666 131 6078 0 fold 
7777 1756 6032 100 call 
4444 48570 8000 100 blind 
1111 1450 2011 50 blind 
total pot: 350 
/inquire 
recv from player 1111: fold
send inquire msg to player 4444 
inquire/ 
1111 1450 2011 50 fold 
2222 1616 4005 100 call 
6666 131 6078 0 fold 
7777 1756 6032 100 call 
4444 48570 8000 100 blind 
total pot: 350 
/inquire 
recv from player 4444: check
flop/ 
CLUBS Q 
DIAMONDS 9 
CLUBS A 
/flop 

---flop round bet---
valid player: 5, all in player: 0, fold player: 2
send inquire msg to player 1111 
inquire/ 
2222 1616 4005 100 call 
6666 131 6078 0 fold 
7777 1756 6032 100 call 
4444 48570 8000 100 check 
1111 1450 2011 50 fold 
total pot: 350 
/inquire 
send inquire msg to player 4444 
inquire/ 
1111 1450 2011 50 fold 
2222 1616 4005 100 call 
6666 131 6078 0 fold 
7777 1756 6032 100 call 
4444 48570 8000 100 check 
total pot: 350 
/inquire 
recv from player 4444: raise 987
send inquire msg to player 7777 
inquire/ 
4444 47583 8000 1087 raise 
1111 1450 2011 50 fold 
2222 1616 4005 100 call 
6666 131 6078 0 fold 
7777 1756 6032 100 call 
total pot: 1337 
/inquire 
recv from player 7777: fold
send inquire msg to player 6666 
inquire/ 
7777 1756 6032 100 fold 
4444 47583 8000 1087 raise 
1111 1450 2011 50 fold 
2222 1616 4005 100 call 
6666 131 6078 0 fold 
total pot: 1337 
/inquire 
send inquire msg to player 2222 
inquire/ 
6666 131 6078 0 fold 
7777 1756 6032 100 fold 
4444 47583 8000 1087 raise 
1111 1450 2011 50 fold 
2222 1616 4005 100 call 
total pot: 1337 
/inquire 
recv from player 2222: fold

---turn round bet---
valid player: 5, all in player: 0, fold player: 4

---river round bet---
valid player: 5, all in player: 0, fold player: 4

--- 1 players not fold, don't need show down---

---Allocate pot---
Only player at seat 1 not fold, win all the pot 1337
pot-win/ 
4444: 1337 
/pot-win 
it is player 1111's turn to be button

-----60 Hand-----

----- clean player data in socket -----
seat/ 
button: 1111 1450 2011 
small blind: 4444 48920 8000 
big blind: 7777 1756 6032 
6666 131 6078 
2222 1616 4005 
/seat 
blind/ 
4444: 50 
7777: 100 
/blind 
player 4444:hold/ 
DIAMONDS J 
HEARTS K 
/hold 
player 7777:hold/ 
HEARTS 7 
CLUBS A 
/hold 
player 6666:hold/ 
DIAMONDS 2 
CLUBS 2 
/hold 
player 2222:hold/ 
CLUBS K 
DIAMONDS 3 
/hold 
player 1111:hold/ 
DIAMONDS A 
CLUBS 10 
/hold 

---pre flop round bet---
valid player: 5, all in player: 0, fold player: 0
send inquire msg to player 6666 
inquire/ 
7777 1656 6032 100 blind 
4444 48870 8000 50 blind 
total pot: 150 
/inquire 
recv from player 6666: fold
send inquire msg to player 2222 
inquire/ 
6666 131 6078 0 fold 
7777 1656 6032 100 blind 
4444 48870 8000 50 blind 
total pot: 150 
/inquire 
recv from player 2222: check
send inquire msg to player 1111 
inquire/ 
2222 1516 4005 100 call 
6666 131 6078 0 fold 
7777 1656 6032 100 blind 
4444 48870 8000 50 blind 
total pot: 250 
/inquire 
recv from player 1111: check
send inquire msg to player 4444 
inquire/ 
1111 1350 2011 100 call 
2222 1516 4005 100 call 
6666 131 6078 0 fold 
7777 1656 6032 100 blind 
4444 48870 8000 50 blind 
total pot: 350 
/inquire 
recv from player 4444: check
send inquire msg to player 7777 
inquire/ 
4444 48820 8000 100 call 
1111 1350 2011 100 call 
2222 1516 4005 100 call 
6666 131 6078 0 fold 
7777 1656 6032 100 blind 
total pot: 400 
/inquire 
recv from player 7777: check
flop/ 
SPADES Q 
SPADES K 
DIAMONDS Q 
/flop 

---flop round bet---
valid player: 5, all in player: 0, fold player: 1
send inquire msg to player 4444 
inquire/ 
1111 1350 2011 100 call 
2222 1516 4005 100 call 
6666 131 6078 0 fold 
7777 1656 6032 100 check 
4444 48820 8000 100 call 
total pot: 400 
/inquire 
recv from player 4444: raise 12643
send inquire msg to player 7777 
inquire/ 
4444 36177 8000 12743 raise 
1111 1350 2011 100 call 
2222 1516 4005 100 call 
6666 131 6078 0 fold 
7777 1656 6032 100 check 
total pot: 13043 
/inquire 
recv from player 7777: fold
send inquire msg to player 6666 
inquire/ 
7777 1656 6032 100 fold 
4444 36177 8000 12743 raise 
1111 1350 2011 100 call 
2222 1516 4005 100 call 
6666 131 6078 0 fold 
total pot: 13043 
/inquire 
send inquire msg to player 2222 
inquire/ 
6666 131 6078 0 fold 
7777 1656 6032 100 fold 
4444 36177 8000 12743 raise 
1111 1350 2011 100 call 
2222 1516 4005 100 call 
total pot: 13043 
/inquire 
recv from player 2222: fold
send inquire msg to player 1111 
inquire/ 
2222 1516 4005 100 fold 
6666 131 6078 0 fold 
7777 1656 6032 100 fold 
4444 36177 8000 12743 raise 
1111 1350 2011 100 call 
total pot: 13043 
/inquire 
recv from player 1111: fold

---turn round bet---
valid player: 5, all in player: 0, fold player: 4

---river round bet---
valid player: 5, all in player: 0, fold player: 4

--- 1 players not fold, don't need show down---

---Allocate pot---
Only player at seat 0 not fold, win all the pot 13043
pot-win/ 
4444: 13043 
/pot-win 
it is player 4444's turn to be button

-----61 Hand-----

----- clean player data in socket -----
seat/ 
button: 4444 49220 8000 
small blind: 7777 1656 6032 
big blind: 6666 131 6078 
2222 1516 4005 
1111 1350 2011 
/seat 
blind/ 
7777: 50 
6666: 100 
/blind 
player 7777:hold/ 
CLUBS 6 
HEARTS 2 
/hold 
player 6666:hold/ 
DIAMONDS 8 
CLUBS 8 
/hold 
player 2222:hold/ 
CLUBS 2 
DIAMONDS 6 
/hold 
player 1111:hold/ 
CLUBS 7 
CLUBS 5 
/hold 
player 4444:hold/ 
DIAMONDS 9 
HEARTS 8 
/hold 

---pre flop round bet---
valid player: 5, all in player: 0, fold player: 0
send inquire msg to player 2222 
inquire/ 
6666 31 6078 100 blind 
7777 1606 6032 50 blind 
total pot: 150 
/inquire 
recv from player 2222: check
send inquire msg to player 1111 
inquire/ 
2222 1416 4005 100 call 
6666 31 6078 100 blind 
7777 1606 6032 50 blind 
total pot: 250 
/inquire 
recv from player 1111: fold
send inquire msg to player 4444 
inquire/ 
1111 1350 2011 0 fold 
2222 1416 4005 100 call 
6666 31 6078 100 blind 
7777 1606 6032 50 blind 
total pot: 250 
/inquire 
recv from player 4444: raise 1502
send inquire msg to player 7777 
inquire/ 
4444 47618 8000 1602 raise 
1111 1350 2011 0 fold 
2222 1416 4005 100 call 
6666 31 6078 100 blind 
7777 1606 6032 50 blind 
total pot: 1852 
/inquire 
recv from player 7777: fold
send inquire msg to player 6666 
inquire/ 
7777 1606 6032 50 fold 
4444 47618 8000 1602 raise 
1111 1350 2011 0 fold 
2222 1416 4005 100 call 
6666 31 6078 100 blind 
total pot: 1852 
/inquire 
recv from player 6666: fold
send inquire msg to player 2222 
inquire/ 
6666 31 6078 100 fold 
7777 1606 6032 50 fold 
4444 47618 8000 1602 raise 
1111 1350 2011 0 fold 
2222 1416 4005 100 call 
total pot: 1852 
/inquire 
recv from player 2222: fold

---flop round bet---
valid player: 5, all in player: 0, fold player: 4

---turn round bet---
valid player: 5, all in player: 0, fold player: 4

---river round bet---
valid player: 5, all in player: 0, fold player: 4

--- 1 players not fold, don't need show down---

---Allocate pot---
Only player at seat 7 not fold, win all the pot 1852
pot-win/ 
4444: 1852 
/pot-win 
it is player 7777's turn to be button

-----62 Hand-----

----- clean player data in socket -----
seat/ 
button: 7777 1606 6032 
small blind: 6666 2000 4109 
big blind: 2222 1416 4005 
1111 1350 2011 
4444 49470 8000 
/seat 
blind/ 
6666: 50 
2222: 100 
/blind 
player 6666:hold/ 
SPADES K 
SPADES 8 
/hold 
player 2222:hold/ 
DIAMONDS 2 
CLUBS 8 
/hold 
player 1111:hold/ 
HEARTS J 
HEARTS A 
/hold 
player 4444:hold/ 
DIAMONDS 6 
HEARTS K 
/hold 
player 7777:hold/ 
DIAMONDS 8 
HEARTS 9 
/hold 

---pre flop round bet---
valid player: 5, all in player: 0, fold player: 0
send inquire msg to player 1111 
inquire/ 
2222 1316 4005 100 blind 
6666 1950 4109 50 blind 
total pot: 150 
/inquire 
recv from player 1111: fold
send inquire msg to player 4444 
inquire/ 
1111 1350 2011 0 fold 
2222 1316 4005 100 blind 
6666 1950 4109 50 blind 
total pot: 150 
/inquire 
recv from player 4444: check
send inquire msg to player 7777 
inquire/ 
4444 49370 8000 100 call 
1111 1350 2011 0 fold 
2222 1316 4005 100 blind 
6666 1950 4109 50 blind 
total pot: 250 
/inquire 
recv from player 7777: check
send inquire msg to player 6666 
inquire/ 
7777 1506 6032 100 call 
4444 49370 8000 100 call 
1111 1350 2011 0 fold 
2222 1316 4005 100 blind 
6666 1950 4109 50 blind 
total pot: 350 
/inquire 
recv from player 6666: raise 100
send inquire msg to player 2222 
inquire/ 
6666 1800 4109 200 raise 
7777 1506 6032 100 call 
4444 49370 8000 100 call 
1111 1350 2011 0 fold 
2222 1316 4005 100 blind 
total pot: 500 
/inquire 
recv from player 2222: check
send inquire msg to player 1111 
inquire/ 
2222 1216 4005 200 call 
6666 1800 4109 200 raise 
7777 1506 6032 100 call 
4444 49370 8000 100 call 
1111 1350 2011 0 fold 
total pot: 600 
/inquire 
send inquire msg to player 4444 
inquire/ 
1111 1350 2011 0 fold 
2222 1216 4005 200 call 
6666 1800 4109 200 raise 
7777 1506 6032 100 call 
4444 49370 8000 100 call 
total pot: 600 
/inquire 
recv from player 4444: raise 848
send inquire msg to player 7777 
inquire/ 
4444 48422 8000 1048 raise 
1111 1350 2011 0 fold 
2222 1216 4005 200 call 
6666 1800 4109 200 raise 
7777 1506 6032 100 call 
total pot: 1548 
/inquire 
recv from player 7777: fold
send inquire msg to player 6666 
inquire/ 
7777 1506 6032 100 fold 
4444 48422 8000 1048 raise 
1111 1350 2011 0 fold 
2222 1216 4005 200 call 
6666 1800 4109 200 raise 
total pot: 1548 
/inquire 
recv from player 6666: fold
send inquire msg to player 2222 
inquire/ 
6666 1800 4109 200 fold 
7777 1506 6032 100 fold 
4444 48422 8000 1048 raise 
1111 1350 2011 0 fold 
2222 1216 4005 200 call 
total pot: 1548 
/inquire 
recv from player 2222: fold

---flop round bet---
valid player: 5, all in player: 0, fold player: 4

---turn round bet---
valid player: 5, all in player: 0, fold player: 4

---river round bet---
valid player: 5, all in player: 0, fold player: 4

--- 1 players not fold, don't need show down---

---Allocate pot---
Only player at seat 3 not fold, win all the pot 1548
pot-win/ 
4444: 1548 
/pot-win 
it is player 6666's turn to be button

-----63 Hand-----

----- clean player data in socket -----
seat/ 
button: 6666 1800 4109 
small blind: 2222 1216 4005 
big blind: 1111 1350 2011 
4444 49970 8000 
7777 1506 6032 
/seat 
blind/ 
2222: 50 
1111: 100 
/blind 
player 2222:hold/ 
DIAMONDS 6 
CLUBS 9 
/hold 
player 1111:hold/ 
HEARTS 7 
HEARTS A 
/hold 
player 4444:hold/ 
HEARTS 8 
CLUBS 10 
/hold 
player 7777:hold/ 
DIAMONDS J 
DIAMONDS 2 
/hold 
player 6666:hold/ 
SPADES 10 
CLUBS A 
/hold 

---pre flop round bet---
valid player: 5, all in player: 0, fold player: 0
send inquire msg to player 4444 
inquire/ 
1111 1250 2011 100 blind 
2222 1166 4005 50 blind 
total pot: 150 
/inquire 
recv from player 4444: raise 2336
send inquire msg to player 7777 
inquire/ 
4444 47534 8000 2436 raise 
1111 1250 2011 100 blind 
2222 1166 4005 50 blind 
total pot: 2586 
/inquire 
recv from player 7777: fold
send inquire msg to player 6666 
inquire/ 
7777 1506 6032 0 fold 
4444 47534 8000 2436 raise 
1111 1250 2011 100 blind 
2222 1166 4005 50 blind 
total pot: 2586 
/inquire 
recv from player 6666: fold
send inquire msg to player 2222 
inquire/ 
6666 1800 4109 0 fold 
7777 1506 6032 0 fold 
4444 47534 8000 2436 raise 
1111 1250 2011 100 blind 
2222 1166 4005 50 blind 
total pot: 2586 
/inquire 
recv from player 2222: check
send inquire msg to player 1111 
inquire/ 
2222 0 4005 1216 all_in 
6666 1800 4109 0 fold 
7777 1506 6032 0 fold 
4444 47534 8000 2436 raise 
1111 1250 2011 100 blind 
total pot: 3752 
/inquire 
recv from player 1111: fold
flop/ 
SPADES 2 
SPADES 3 
DIAMONDS 4 
/flop 

---flop round bet---
valid player: 5, all in player: 1, fold player: 3
turn/ 
HEARTS 3 
/turn 

---turn round bet---
valid player: 5, all in player: 1, fold player: 3
river/ 
CLUBS Q 
/river 

---river round bet---
valid player: 5, all in player: 1, fold player: 3

---show down---
showdown/ 
common/ 
SPADES 2 
SPADES 3 
DIAMONDS 4 
HEARTS 3 
CLUBS Q 
/common 
2: 2222 DIAMONDS 6 CLUBS 9 ONE_PAIR 
1: 4444 HEARTS 8 CLUBS 10 ONE_PAIR 
/showdown 

---Allocate pot---
pot-win/ 
4444: 3752 
/pot-win 
it is player 2222's turn to be button

-----64 Hand-----

----- clean player data in socket -----
seat/ 
button: 2222 2000 2005 
small blind: 1111 1250 2011 
big blind: 4444 51286 8000 
7777 1506 6032 
6666 1800 4109 
/seat 
blind/ 
1111: 50 
4444: 100 
/blind 
player 1111:hold/ 
CLUBS A 
SPADES 2 
/hold 
player 4444:hold/ 
HEARTS 6 
DIAMONDS 6 
/hold 
player 7777:hold/ 
HEARTS 3 
HEARTS K 
/hold 
player 6666:hold/ 
SPADES 9 
HEARTS J 
/hold 
player 2222:hold/ 
CLUBS Q 
SPADES 10 
/hold 

---pre flop round bet---
valid player: 5, all in player: 0, fold player: 0
send inquire msg to player 7777 
inquire/ 
4444 51186 8000 100 blind 
1111 1200 2011 50 blind 
total pot: 150 
/inquire 
recv from player 7777: check
send inquire msg to player 6666 
inquire/ 
7777 1406 6032 100 call 
4444 51186 8000 100 blind 
1111 1200 2011 50 blind 
total pot: 250 
/inquire 
recv from player 6666: raise 116
send inquire msg to player 2222 
inquire/ 
6666 1584 4109 216 raise 
7777 1406 6032 100 call 
4444 51186 8000 100 blind 
1111 1200 2011 50 blind 
total pot: 466 
/inquire 
recv from player 2222: fold
send inquire msg to player 1111 
inquire/ 
2222 2000 2005 0 fold 
6666 1584 4109 216 raise 
7777 1406 6032 100 call 
4444 51186 8000 100 blind 
1111 1200 2011 50 blind 
total pot: 466 
/inquire 
recv from player 1111: check
send inquire msg to player 4444 
inquire/ 
1111 1034 2011 216 call 
2222 2000 2005 0 fold 
6666 1584 4109 216 raise 
7777 1406 6032 100 call 
4444 51186 8000 100 blind 
total pot: 632 
/inquire 
recv from player 4444: check
send inquire msg to player 7777 
inquire/ 
4444 51070 8000 216 call 
1111 1034 2011 216 call 
2222 2000 2005 0 fold 
6666 1584 4109 216 raise 
7777 1406 6032 100 call 
total pot: 748 
/inquire 
recv from player 7777: check
flop/ 
SPADES 5 
SPADES A 
HEARTS 7 
/flop 

---flop round bet---
valid player: 5, all in player: 0, fold player: 1
send inquire msg to player 1111 
inquire/ 
2222 2000 2005 0 fold 
6666 1584 4109 216 raise 
7777 1290 6032 216 call 
4444 51070 8000 216 call 
1111 1034 2011 216 call 
total pot: 864 
/inquire 
recv from player 1111: fold
send inquire msg to player 4444 
inquire/ 
1111 1034 2011 216 fold 
2222 2000 2005 0 fold 
6666 1584 4109 216 raise 
7777 1290 6032 216 call 
4444 51070 8000 216 call 
total pot: 864 
/inquire 
recv from player 4444: check
send inquire msg to player 7777 
inquire/ 
4444 51070 8000 216 check 
1111 1034 2011 216 fold 
2222 2000 2005 0 fold 
6666 1584 4109 216 raise 
7777 1290 6032 216 call 
total pot: 864 
/inquire 
recv from player 7777: check
send inquire msg to player 6666 
inquire/ 
7777 1290 6032 216 check 
4444 51070 8000 216 check 
1111 1034 2011 216 fold 
2222 2000 2005 0 fold 
6666 1584 4109 216 raise 
total pot: 864 
/inquire 
recv from player 6666: check
turn/ 
DIAMONDS 3 
/turn 

---turn round bet---
valid player: 5, all in player: 0, fold player: 2
send inquire msg to player 1111 
inquire/ 
2222 2000 2005 0 fold 
6666 1584 4109 216 check 
7777 1290 6032 216 check 
4444 51070 8000 216 check 
1111 1034 2011 216 fold 
total pot: 864 
/inquire 
send inquire msg to player 4444 
inquire/ 
1111 1034 2011 216 fold 
2222 2000 2005 0 fold 
6666 1584 4109 216 check 
7777 1290 6032 216 check 
4444 51070 8000 216 check 
total pot: 864 
/inquire 
recv from player 4444: check
send inquire msg to player 7777 
inquire/ 
4444 51070 8000 216 check 
1111 1034 2011 216 fold 
2222 2000 2005 0 fold 
6666 1584 4109 216 check 
7777 1290 6032 216 check 
total pot: 864 
/inquire 
recv from player 7777: check
send inquire msg to player 6666 
inquire/ 
7777 1290 6032 216 check 
4444 51070 8000 216 check 
1111 1034 2011 216 fold 
2222 2000 2005 0 fold 
6666 1584 4109 216 check 
total pot: 864 
/inquire 
recv from player 6666: check
river/ 
HEARTS 9 
/river 

---river round bet---
valid player: 5, all in player: 0, fold player: 2
send inquire msg to player 1111 
inquire/ 
2222 2000 2005 0 fold 
6666 1584 4109 216 check 
7777 1290 6032 216 check 
4444 51070 8000 216 check 
1111 1034 2011 216 fold 
total pot: 864 
/inquire 
send inquire msg to player 4444 
inquire/ 
1111 1034 2011 216 fold 
2222 2000 2005 0 fold 
6666 1584 4109 216 check 
7777 1290 6032 216 check 
4444 51070 8000 216 check 
total pot: 864 
/inquire 
recv from player 4444: check
send inquire msg to player 7777 
inquire/ 
4444 51070 8000 216 check 
1111 1034 2011 216 fold 
2222 2000 2005 0 fold 
6666 1584 4109 216 check 
7777 1290 6032 216 check 
total pot: 864 
/inquire 
recv from player 7777: check
send inquire msg to player 6666 
inquire/ 
7777 1290 6032 216 check 
4444 51070 8000 216 check 
1111 1034 2011 216 fold 
2222 2000 2005 0 fold 
6666 1584 4109 216 check 
total pot: 864 
/inquire 
recv from player 6666: check

---show down---
showdown/ 
common/ 
SPADES 5 
SPADES A 
HEARTS 7 
DIAMONDS 3 
HEARTS 9 
/common 
2: 4444 HEARTS 6 DIAMONDS 6 ONE_PAIR 
3: 7777 HEARTS 3 HEARTS K ONE_PAIR 
1: 6666 SPADES 9 HEARTS J ONE_PAIR 
/showdown 

---Allocate pot---
pot-win/ 
6666: 864 
/pot-win 
it is player 1111's turn to be button

-----65 Hand-----

----- clean player data in socket -----
seat/ 
button: 1111 1034 2011 
small blind: 4444 51070 8000 
big blind: 7777 1290 6032 
6666 2448 4109 
2222 2000 2005 
/seat 
blind/ 
4444: 50 
7777: 100 
/blind 
player 4444:hold/ 
SPADES 7 
DIAMONDS K 
/hold 
player 7777:hold/ 
SPADES Q 
DIAMONDS 3 
/hold 
player 6666:hold/ 
DIAMONDS 7 
SPADES 9 
/hold 
player 2222:hold/ 
DIAMONDS 4 
HEARTS 8 
/hold 
player 1111:hold/ 
CLUBS 8 
SPADES 6 
/hold 

---pre flop round bet---
valid player: 5, all in player: 0, fold player: 0
send inquire msg to player 6666 
inquire/ 
7777 1190 6032 100 blind 
4444 51020 8000 50 blind 
total pot: 150 
/inquire 
recv from player 6666: check
send inquire msg to player 2222 
inquire/ 
6666 2348 4109 100 call 
7777 1190 6032 100 blind 
4444 51020 8000 50 blind 
total pot: 250 
/inquire 
recv from player 2222: fold
send inquire msg to player 1111 
inquire/ 
2222 2000 2005 0 fold 
6666 2348 4109 100 call 
7777 1190 6032 100 blind 
4444 51020 8000 50 blind 
total pot: 250 
/inquire 
recv from player 1111: fold
send inquire msg to player 4444 
inquire/ 
1111 1034 2011 0 fold 
2222 2000 2005 0 fold 
6666 2348 4109 100 call 
7777 1190 6032 100 blind 
4444 51020 8000 50 blind 
total pot: 250 
/inquire 
recv from player 4444: check
send inquire msg to player 7777 
inquire/ 
4444 50970 8000 100 call 
1111 1034 2011 0 fold 
2222 2000 2005 0 fold 
6666 2348 4109 100 call 
7777 1190 6032 100 blind 
total pot: 300 
/inquire 
recv from player 7777: check
flop/ 
HEARTS 2 
CLUBS 10 
DIAMONDS J 
/flop 

---flop round bet---
valid player: 5, all in player: 0, fold player: 2
send inquire msg to player 4444 
inquire/ 
1111 1034 2011 0 fold 
2222 2000 2005 0 fold 
6666 2348 4109 100 call 
7777 1190 6032 100 check 
4444 50970 8000 100 call 
total pot: 300 
/inquire 
recv from player 4444: check
send inquire msg to player 7777 
inquire/ 
4444 50970 8000 100 check 
1111 1034 2011 0 fold 
2222 2000 2005 0 fold 
6666 2348 4109 100 call 
7777 1190 6032 100 check 
total pot: 300 
/inquire 
recv from player 7777: check
send inquire msg to player 6666 
inquire/ 
7777 1190 6032 100 check 
4444 50970 8000 100 check 
1111 1034 2011 0 fold 
2222 2000 2005 0 fold 
6666 2348 4109 100 call 
total pot: 300 
/inquire 
recv from player 6666: check
turn/ 
SPADES A 
/turn 

---turn round bet---
valid player: 5, all in player: 0, fold player: 2
send inquire msg to player 4444 
inquire/ 
1111 1034 2011 0 fold 
2222 2000 2005 0 fold 
6666 2348 4109 100 check 
7777 1190 6032 100 check 
4444 50970 8000 100 check 
total pot: 300 
/inquire 
recv from player 4444: check
send inquire msg to player 7777 
inquire/ 
4444 50970 8000 100 check 
1111 1034 2011 0 fold 
2222 2000 2005 0 fold 
6666 2348 4109 100 check 
7777 1190 6032 100 check 
total pot: 300 
/inquire 
recv from player 7777: check
send inquire msg to player 6666 
inquire/ 
7777 1190 6032 100 check 
4444 50970 8000 100 check 
1111 1034 2011 0 fold 
2222 2000 2005 0 fold 
6666 2348 4109 100 check 
total pot: 300 
/inquire 
recv from player 6666: check
river/ 
DIAMONDS A 
/river 

---river round bet---
valid player: 5, all in player: 0, fold player: 2
send inquire msg to player 4444 
inquire/ 
1111 1034 2011 0 fold 
2222 2000 2005 0 fold 
6666 2348 4109 100 check 
7777 1190 6032 100 check 
4444 50970 8000 100 check 
total pot: 300 
/inquire 
recv from player 4444: check
send inquire msg to player 7777 
inquire/ 
4444 50970 8000 100 check 
1111 1034 2011 0 fold 
2222 2000 2005 0 fold 
6666 2348 4109 100 check 
7777 1190 6032 100 check 
total pot: 300 
/inquire 
recv from player 7777: check
send inquire msg to player 6666 
inquire/ 
7777 1190 6032 100 check 
4444 50970 8000 100 check 
1111 1034 2011 0 fold 
2222 2000 2005 0 fold 
6666 2348 4109 100 check 
total pot: 300 
/inquire 
recv from player 6666: check

---show down---
showdown/ 
common/ 
HEARTS 2 
CLUBS 10 
DIAMONDS J 
SPADES A 
DIAMONDS A 
/common 
1: 4444 SPADES 7 DIAMONDS K ONE_PAIR 
2: 7777 SPADES Q DIAMONDS 3 ONE_PAIR 
3: 6666 DIAMONDS 7 SPADES 9 ONE_PAIR 
/showdown 

---Allocate pot---
pot-win/ 
4444: 300 
/pot-win 
it is player 4444's turn to be button

-----66 Hand-----

----- clean player data in socket -----
seat/ 
button: 4444 51270 8000 
small blind: 7777 1190 6032 
big blind: 6666 2348 4109 
2222 2000 2005 
1111 1034 2011 
/seat 
blind/ 
7777: 50 
6666: 100 
/blind 
player 7777:hold/ 
SPADES 4 
DIAMONDS 5 
/hold 
player 6666:hold/ 
DIAMONDS 2 
HEARTS J 
/hold 
player 2222:hold/ 
DIAMONDS 7 
DIAMONDS Q 
/hold 
player 1111:hold/ 
CLUBS 2 
DIAMONDS 4 
/hold 
player 4444:hold/ 
SPADES A 
DIAMONDS 3 
/hold 

---pre flop round bet---
valid player: 5, all in player: 0, fold player: 0
send inquire msg to player 2222 
inquire/ 
6666 2248 4109 100 blind 
7777 1140 6032 50 blind 
total pot: 150 
/inquire 
recv from player 2222: fold
send inquire msg to player 1111 
inquire/ 
2222 2000 2005 0 fold 
6666 2248 4109 100 blind 
7777 1140 6032 50 blind 
total pot: 150 
/inquire 
recv from player 1111: fold
send inquire msg to player 4444 
inquire/ 
1111 1034 2011 0 fold 
2222 2000 2005 0 fold 
6666 2248 4109 100 blind 
7777 1140 6032 50 blind 
total pot: 150 
/inquire 
recv from player 4444: fold
send inquire msg to player 7777 
inquire/ 
4444 51270 8000 0 fold 
1111 1034 2011 0 fold 
2222 2000 2005 0 fold 
6666 2248 4109 100 blind 
7777 1140 6032 50 blind 
total pot: 150 
/inquire 
recv from player 7777: check
send inquire msg to player 6666 
inquire/ 
7777 1090 6032 100 call 
4444 51270 8000 0 fold 
1111 1034 2011 0 fold 
2222 2000 2005 0 fold 
6666 2248 4109 100 blind 
total pot: 200 
/inquire 
recv from player 6666: check
flop/ 
SPADES K 
HEARTS 4 
DIAMONDS 9 
/flop 

---flop round bet---
valid player: 5, all in player: 0, fold player: 3
send inquire msg to player 7777 
inquire/ 
4444 51270 8000 0 fold 
1111 1034 2011 0 fold 
2222 2000 2005 0 fold 
6666 2248 4109 100 check 
7777 1090 6032 100 call 
total pot: 200 
/inquire 
recv from player 7777: check
send inquire msg to player 6666 
inquire/ 
7777 1090 6032 100 check 
4444 51270 8000 0 fold 
1111 1034 2011 0 fold 
2222 2000 2005 0 fold 
6666 2248 4109 100 check 
total pot: 200 
/inquire 
recv from player 6666: check
turn/ 
HEARTS 10 
/turn 

---turn round bet---
valid player: 5, all in player: 0, fold player: 3
send inquire msg to player 7777 
inquire/ 
4444 51270 8000 0 fold 
1111 1034 2011 0 fold 
2222 2000 2005 0 fold 
6666 2248 4109 100 check 
7777 1090 6032 100 check 
total pot: 200 
/inquire 
recv from player 7777: check
send inquire msg to player 6666 
inquire/ 
7777 1090 6032 100 check 
4444 51270 8000 0 fold 
1111 1034 2011 0 fold 
2222 2000 2005 0 fold 
6666 2248 4109 100 check 
total pot: 200 
/inquire 
recv from player 6666: check
river/ 
HEARTS Q 
/river 

---river round bet---
valid player: 5, all in player: 0, fold player: 3
send inquire msg to player 7777 
inquire/ 
4444 51270 8000 0 fold 
1111 1034 2011 0 fold 
2222 2000 2005 0 fold 
6666 2248 4109 100 check 
7777 1090 6032 100 check 
total pot: 200 
/inquire 
recv from player 7777: check
send inquire msg to player 6666 
inquire/ 
7777 1090 6032 100 check 
4444 51270 8000 0 fold 
1111 1034 2011 0 fold 
2222 2000 2005 0 fold 
6666 2248 4109 100 check 
total pot: 200 
/inquire 
recv from player 6666: check

---show down---
showdown/ 
common/ 
SPADES K 
HEARTS 4 
DIAMONDS 9 
HEARTS 10 
HEARTS Q 
/common 
2: 7777 SPADES 4 DIAMONDS 5 ONE_PAIR 
1: 6666 DIAMONDS 2 HEARTS J STRAIGHT 
/showdown 

---Allocate pot---
pot-win/ 
6666: 200 
/pot-win 
it is player 7777's turn to be button

-----67 Hand-----

----- clean player data in socket -----
seat/ 
button: 7777 1090 6032 
small blind: 6666 2448 4109 
big blind: 2222 2000 2005 
1111 1034 2011 
4444 51270 8000 
/seat 
blind/ 
6666: 50 
2222: 100 
/blind 
player 6666:hold/ 
HEARTS A 
CLUBS K 
/hold 
player 2222:hold/ 
CLUBS 2 
DIAMONDS J 
/hold 
player 1111:hold/ 
CLUBS 3 
SPADES 3 
/hold 
player 4444:hold/ 
CLUBS 6 
SPADES 8 
/hold 
player 7777:hold/ 
CLUBS 10 
SPADES 5 
/hold 

---pre flop round bet---
valid player: 5, all in player: 0, fold player: 0
send inquire msg to player 1111 
inquire/ 
2222 1900 2005 100 blind 
6666 2398 4109 50 blind 
total pot: 150 
/inquire 
recv from player 1111: fold
send inquire msg to player 4444 
inquire/ 
1111 1034 2011 0 fold 
2222 1900 2005 100 blind 
6666 2398 4109 50 blind 
total pot: 150 
/inquire 
recv from player 4444: fold
send inquire msg to player 7777 
inquire/ 
4444 51270 8000 0 fold 
1111 1034 2011 0 fold 
2222 1900 2005 100 blind 
6666 2398 4109 50 blind 
total pot: 150 
/inquire 
recv from player 7777: fold
send inquire msg to player 6666 
inquire/ 
7777 1090 6032 0 fold 
4444 51270 8000 0 fold 
1111 1034 2011 0 fold 
2222 1900 2005 100 blind 
6666 2398 4109 50 blind 
total pot: 150 
/inquire 
recv from player 6666: check
send inquire msg to player 2222 
inquire/ 
6666 2348 4109 100 call 
7777 1090 6032 0 fold 
4444 51270 8000 0 fold 
1111 1034 2011 0 fold 
2222 1900 2005 100 blind 
total pot: 200 
/inquire 
recv from player 2222: fold

---flop round bet---
valid player: 5, all in player: 0, fold player: 4

---turn round bet---
valid player: 5, all in player: 0, fold player: 4

---river round bet---
valid player: 5, all in player: 0, fold player: 4

--- 1 players not fold, don't need show down---

---Allocate pot---
Only player at seat 0 not fold, win all the pot 200
pot-win/ 
6666: 200 
/pot-win 
it is player 6666's turn to be button

-----68 Hand-----

----- clean player data in socket -----
seat/ 
button: 6666 2548 4109 
small blind: 2222 1900 2005 
big blind: 1111 1034 2011 
4444 51270 8000 
7777 1090 6032 
/seat 
blind/ 
2222: 50 
1111: 100 
/blind 
player 2222:hold/ 
SPADES 7 
SPADES 9 
/hold 
player 1111:hold/ 
CLUBS 7 
CLUBS 9 
/hold 
player 4444:hold/ 
CLUBS 8 
HEARTS 3 
/hold 
player 7777:hold/ 
SPADES 3 
DIAMONDS 9 
/hold 
player 6666:hold/ 
CLUBS 5 
SPADES 2 
/hold 

---pre flop round bet---
valid player: 5, all in player: 0, fold player: 0
send inquire msg to player 4444 
inquire/ 
1111 934 2011 100 blind 
2222 1850 2005 50 blind 
total pot: 150 
/inquire 
recv from player 4444: fold
send inquire msg to player 7777 
inquire/ 
4444 51270 8000 0 fold 
1111 934 2011 100 blind 
2222 1850 2005 50 blind 
total pot: 150 
/inquire 
recv from player 7777: fold
send inquire msg to player 6666 
inquire/ 
7777 1090 6032 0 fold 
4444 51270 8000 0 fold 
1111 934 2011 100 blind 
2222 1850 2005 50 blind 
total pot: 150 
/inquire 
recv from player 6666: fold
send inquire msg to player 2222 
inquire/ 
6666 2548 4109 0 fold 
7777 1090 6032 0 fold 
4444 51270 8000 0 fold 
1111 934 2011 100 blind 
2222 1850 2005 50 blind 
total pot: 150 
/inquire 
recv from player 2222: fold
send inquire msg to player 1111 
inquire/ 
2222 1850 2005 50 fold 
6666 2548 4109 0 fold 
7777 1090 6032 0 fold 
4444 51270 8000 0 fold 
1111 934 2011 100 blind 
total pot: 150 
/inquire 
recv from player 1111: fold

---flop round bet---
valid player: 5, all in player: 0, fold player: 5

---turn round bet---
valid player: 5, all in player: 0, fold player: 5

---river round bet---
valid player: 5, all in player: 0, fold player: 5

--- 0 players not fold, don't need show down---

---Allocate pot---
pot-win/ 
/pot-win 
it is player 2222's turn to be button

-----69 Hand-----

----- clean player data in socket -----
seat/ 
button: 2222 1850 2005 
small blind: 1111 934 2011 
big blind: 4444 51270 8000 
7777 1090 6032 
6666 2548 4109 
/seat 
blind/ 
1111: 50 
4444: 100 
/blind 
player 1111:hold/ 
SPADES 7 
SPADES 9 
/hold 
player 4444:hold/ 
CLUBS 7 
CLUBS 9 
/hold 
player 7777:hold/ 
CLUBS 8 
HEARTS 3 
/hold 
player 6666:hold/ 
SPADES 3 
DIAMONDS 9 
/hold 
player 2222:hold/ 
CLUBS 5 
SPADES 2 
/hold 

---pre flop round bet---
valid player: 5, all in player: 0, fold player: 0
send inquire msg to player 7777 
inquire/ 
4444 51170 8000 100 blind 
1111 884 2011 50 blind 
total pot: 150 
/inquire 
recv from player 7777: fold
send inquire msg to player 6666 
inquire/ 
7777 1090 6032 0 fold 
4444 51170 8000 100 blind 
1111 884 2011 50 blind 
total pot: 150 
/inquire 
recv from player 6666: fold
send inquire msg to player 2222 
inquire/ 
6666 2548 4109 0 fold 
7777 1090 6032 0 fold 
4444 51170 8000 100 blind 
1111 884 2011 50 blind 
total pot: 150 
/inquire 
recv from player 2222: fold
send inquire msg to player 1111 
inquire/ 
2222 1850 2005 0 fold 
6666 2548 4109 0 fold 
7777 1090 6032 0 fold 
4444 51170 8000 100 blind 
1111 884 2011 50 blind 
total pot: 150 
/inquire 
recv from player 1111: fold
send inquire msg to player 4444 
inquire/ 
1111 884 2011 50 fold 
2222 1850 2005 0 fold 
6666 2548 4109 0 fold 
7777 1090 6032 0 fold 
4444 51170 8000 100 blind 
total pot: 150 
/inquire 
recv from player 4444: check

---flop round bet---
valid player: 5, all in player: 0, fold player: 4

---turn round bet---
valid player: 5, all in player: 0, fold player: 4

---river round bet---
valid player: 5, all in player: 0, fold player: 4

--- 1 players not fold, don't need show down---

---Allocate pot---
Only player at seat 1 not fold, win all the pot 150
pot-win/ 
4444: 150 
/pot-win 
it is player 1111's turn to be button

-----70 Hand-----

----- clean player data in socket -----
seat/ 
button: 1111 884 2011 
small blind: 4444 51320 8000 
big blind: 7777 1090 6032 
6666 2548 4109 
2222 1850 2005 
/seat 
blind/ 
4444: 50 
7777: 100 
/blind 
player 4444:hold/ 
CLUBS 9 
DIAMONDS J 
/hold 
player 7777:hold/ 
CLUBS 3 
DIAMONDS 10 
/hold 
player 6666:hold/ 
CLUBS 10 
DIAMONDS 2 
/hold 
player 2222:hold/ 
HEARTS J 
DIAMONDS 8 
/hold 
player 1111:hold/ 
SPADES 10 
SPADES J 
/hold 

---pre flop round bet---
valid player: 5, all in player: 0, fold player: 0
send inquire msg to player 6666 
inquire/ 
7777 990 6032 100 blind 
4444 51270 8000 50 blind 
total pot: 150 
/inquire 
recv from player 6666: fold
send inquire msg to player 2222 
inquire/ 
6666 2548 4109 0 fold 
7777 990 6032 100 blind 
4444 51270 8000 50 blind 
total pot: 150 
/inquire 
recv from player 2222: check
send inquire msg to player 1111 
inquire/ 
2222 1750 2005 100 call 
6666 2548 4109 0 fold 
7777 990 6032 100 blind 
4444 51270 8000 50 blind 
total pot: 250 
/inquire 
recv from player 1111: fold
send inquire msg to player 4444 
inquire/ 
1111 884 2011 0 fold 
2222 1750 2005 100 call 
6666 2548 4109 0 fold 
7777 990 6032 100 blind 
4444 51270 8000 50 blind 
total pot: 250 
/inquire 
recv from player 4444: raise 760
send inquire msg to player 7777 
inquire/ 
4444 50460 8000 860 raise 
1111 884 2011 0 fold 
2222 1750 2005 100 call 
6666 2548 4109 0 fold 
7777 990 6032 100 blind 
total pot: 1060 
/inquire 
recv from player 7777: fold
send inquire msg to player 6666 
inquire/ 
7777 990 6032 100 fold 
4444 50460 8000 860 raise 
1111 884 2011 0 fold 
2222 1750 2005 100 call 
6666 2548 4109 0 fold 
total pot: 1060 
/inquire 
send inquire msg to player 2222 
inquire/ 
6666 2548 4109 0 fold 
7777 990 6032 100 fold 
4444 50460 8000 860 raise 
1111 884 2011 0 fold 
2222 1750 2005 100 call 
total pot: 1060 
/inquire 
recv from player 2222: fold

---flop round bet---
valid player: 5, all in player: 0, fold player: 4

---turn round bet---
valid player: 5, all in player: 0, fold player: 4

---river round bet---
valid player: 5, all in player: 0, fold player: 4

--- 1 players not fold, don't need show down---

---Allocate pot---
Only player at seat 0 not fold, win all the pot 1060
pot-win/ 
4444: 1060 
/pot-win 
it is player 4444's turn to be button

-----71 Hand-----

----- clean player data in socket -----
seat/ 
button: 4444 51520 8000 
small blind: 7777 990 6032 
big blind: 6666 2548 4109 
2222 1750 2005 
1111 884 2011 
/seat 
blind/ 
7777: 50 
6666: 100 
/blind 
player 7777:hold/ 
DIAMONDS 7 
HEARTS 3 
/hold 
player 6666:hold/ 
SPADES K 
HEARTS K 
/hold 
player 2222:hold/ 
CLUBS 9 
CLUBS 6 
/hold 
player 1111:hold/ 
SPADES 5 
CLUBS 10 
/hold 
player 4444:hold/ 
HEARTS 6 
DIAMONDS 2 
/hold 

---pre flop round bet---
valid player: 5, all in player: 0, fold player: 0
send inquire msg to player 2222 
inquire/ 
6666 2448 4109 100 blind 
7777 940 6032 50 blind 
total pot: 150 
/inquire 
recv from player 2222: check
send inquire msg to player 1111 
inquire/ 
2222 1650 2005 100 call 
6666 2448 4109 100 blind 
7777 940 6032 50 blind 
total pot: 250 
/inquire 
recv from player 1111: fold
send inquire msg to player 4444 
inquire/ 
1111 884 2011 0 fold 
2222 1650 2005 100 call 
6666 2448 4109 100 blind 
7777 940 6032 50 blind 
total pot: 250 
/inquire 
recv from player 4444: fold
send inquire msg to player 7777 
inquire/ 
4444 51520 8000 0 fold 
1111 884 2011 0 fold 
2222 1650 2005 100 call 
6666 2448 4109 100 blind 
7777 940 6032 50 blind 
total pot: 250 
/inquire 
recv from player 7777: check
send inquire msg to player 6666 
inquire/ 
7777 890 6032 100 call 
4444 51520 8000 0 fold 
1111 884 2011 0 fold 
2222 1650 2005 100 call 
6666 2448 4109 100 blind 
total pot: 300 
/inquire 
recv from player 6666: check
flop/ 
DIAMONDS 6 
CLUBS J 
DIAMONDS Q 
/flop 

---flop round bet---
valid player: 5, all in player: 0, fold player: 2
send inquire msg to player 7777 
inquire/ 
4444 51520 8000 0 fold 
1111 884 2011 0 fold 
2222 1650 2005 100 call 
6666 2448 4109 100 check 
7777 890 6032 100 call 
total pot: 300 
/inquire 
recv from player 7777: check
send inquire msg to player 6666 
inquire/ 
7777 890 6032 100 check 
4444 51520 8000 0 fold 
1111 884 2011 0 fold 
2222 1650 2005 100 call 
6666 2448 4109 100 check 
total pot: 300 
/inquire 
recv from player 6666: check
send inquire msg to player 2222 
inquire/ 
6666 2448 4109 100 check 
7777 890 6032 100 check 
4444 51520 8000 0 fold 
1111 884 2011 0 fold 
2222 1650 2005 100 call 
total pot: 300 
/inquire 
recv from player 2222: check
turn/ 
HEARTS 10 
/turn 

---turn round bet---
valid player: 5, all in player: 0, fold player: 2
send inquire msg to player 7777 
inquire/ 
4444 51520 8000 0 fold 
1111 884 2011 0 fold 
2222 1650 2005 100 check 
6666 2448 4109 100 check 
7777 890 6032 100 check 
total pot: 300 
/inquire 
recv from player 7777: check
send inquire msg to player 6666 
inquire/ 
7777 890 6032 100 check 
4444 51520 8000 0 fold 
1111 884 2011 0 fold 
2222 1650 2005 100 check 
6666 2448 4109 100 check 
total pot: 300 
/inquire 
recv from player 6666: check
send inquire msg to player 2222 
inquire/ 
6666 2448 4109 100 check 
7777 890 6032 100 check 
4444 51520 8000 0 fold 
1111 884 2011 0 fold 
2222 1650 2005 100 check 
total pot: 300 
/inquire 
recv from player 2222: fold
river/ 
HEARTS J 
/river 

---river round bet---
valid player: 5, all in player: 0, fold player: 3
send inquire msg to player 7777 
inquire/ 
4444 51520 8000 0 fold 
1111 884 2011 0 fold 
2222 1650 2005 100 fold 
6666 2448 4109 100 check 
7777 890 6032 100 check 
total pot: 300 
/inquire 
recv from player 7777: check
send inquire msg to player 6666 
inquire/ 
7777 890 6032 100 check 
4444 51520 8000 0 fold 
1111 884 2011 0 fold 
2222 1650 2005 100 fold 
6666 2448 4109 100 check 
total pot: 300 
/inquire 
recv from player 6666: check

---show down---
showdown/ 
common/ 
DIAMONDS 6 
CLUBS J 
DIAMONDS Q 
HEARTS 10 
HEARTS J 
/common 
2: 7777 DIAMONDS 7 HEARTS 3 ONE_PAIR 
1: 6666 SPADES K HEARTS K TWO_PAIR 
/showdown 

---Allocate pot---
pot-win/ 
6666: 300 
/pot-win 
it is player 7777's turn to be button

-----72 Hand-----

----- clean player data in socket -----
seat/ 
button: 7777 890 6032 
small blind: 6666 2748 4109 
big blind: 2222 1650 2005 
1111 884 2011 
4444 51520 8000 
/seat 
blind/ 
6666: 50 
2222: 100 
/blind 
player 6666:hold/ 
HEARTS Q 
SPADES 10 
/hold 
player 2222:hold/ 
CLUBS A 
HEARTS 6 
/hold 
player 1111:hold/ 
HEARTS 9 
CLUBS 6 
/hold 
player 4444:hold/ 
SPADES 4 
HEARTS 3 
/hold 
player 7777:hold/ 
CLUBS K 
CLUBS J 
/hold 

---pre flop round bet---
valid player: 5, all in player: 0, fold player: 0
send inquire msg to player 1111 
inquire/ 
2222 1550 2005 100 blind 
6666 2698 4109 50 blind 
total pot: 150 
/inquire 
recv from player 1111: check
send inquire msg to player 4444 
inquire/ 
1111 784 2011 100 call 
2222 1550 2005 100 blind 
6666 2698 4109 50 blind 
total pot: 250 
/inquire 
recv from player 4444: fold
send inquire msg to player 7777 
inquire/ 
4444 51520 8000 0 fold 
1111 784 2011 100 call 
2222 1550 2005 100 blind 
6666 2698 4109 50 blind 
total pot: 250 
/inquire 
recv from player 7777: check
send inquire msg to player 6666 
inquire/ 
7777 790 6032 100 call 
4444 51520 8000 0 fold 
1111 784 2011 100 call 
2222 1550 2005 100 blind 
6666 2698 4109 50 blind 
total pot: 350 
/inquire 
recv from player 6666: raise 170
send inquire msg to player 2222 
inquire/ 
6666 2478 4109 270 raise 
7777 790 6032 100 call 
4444 51520 8000 0 fold 
1111 784 2011 100 call 
2222 1550 2005 100 blind 
total pot: 570 
/inquire 
recv from player 2222: check
send inquire msg to player 1111 
inquire/ 
2222 1380 2005 270 call 
6666 2478 4109 270 raise 
7777 790 6032 100 call 
4444 51520 8000 0 fold 
1111 784 2011 100 call 
total pot: 740 
/inquire 
recv from player 1111: fold
send inquire msg to player 4444 
inquire/ 
1111 784 2011 100 fold 
2222 1380 2005 270 call 
6666 2478 4109 270 raise 
7777 790 6032 100 call 
4444 51520 8000 0 fold 
total pot: 740 
/inquire 
send inquire msg to player 7777 
inquire/ 
4444 51520 8000 0 fold 
1111 784 2011 100 fold 
2222 1380 2005 270 call 
6666 2478 4109 270 raise 
7777 790 6032 100 call 
total pot: 740 
/inquire 
recv from player 7777: check
flop/ 
DIAMONDS K 
SPADES 9 
SPADES 8 
/flop 

---flop round bet---
valid player: 5, all in player: 0, fold player: 2
send inquire msg to player 6666 
inquire/ 
7777 620 6032 270 call 
4444 51520 8000 0 fold 
1111 784 2011 100 fold 
2222 1380 2005 270 call 
6666 2478 4109 270 raise 
total pot: 910 
/inquire 
recv from player 6666: check
send inquire msg to player 2222 
inquire/ 
6666 2478 4109 270 check 
7777 620 6032 270 call 
4444 51520 8000 0 fold 
1111 784 2011 100 fold 
2222 1380 2005 270 call 
total pot: 910 
/inquire 
recv from player 2222: check
send inquire msg to player 1111 
inquire/ 
2222 1380 2005 270 check 
6666 2478 4109 270 check 
7777 620 6032 270 call 
4444 51520 8000 0 fold 
1111 784 2011 100 fold 
total pot: 910 
/inquire 
send inquire msg to player 4444 
inquire/ 
1111 784 2011 100 fold 
2222 1380 2005 270 check 
6666 2478 4109 270 check 
7777 620 6032 270 call 
4444 51520 8000 0 fold 
total pot: 910 
/inquire 
send inquire msg to player 7777 
inquire/ 
4444 51520 8000 0 fold 
1111 784 2011 100 fold 
2222 1380 2005 270 check 
6666 2478 4109 270 check 
7777 620 6032 270 call 
total pot: 910 
/inquire 
recv from player 7777: check
turn/ 
DIAMONDS 9 
/turn 

---turn round bet---
valid player: 5, all in player: 0, fold player: 2
send inquire msg to player 6666 
inquire/ 
7777 620 6032 270 check 
4444 51520 8000 0 fold 
1111 784 2011 100 fold 
2222 1380 2005 270 check 
6666 2478 4109 270 check 
total pot: 910 
/inquire 
recv from player 6666: check
send inquire msg to player 2222 
inquire/ 
6666 2478 4109 270 check 
7777 620 6032 270 check 
4444 51520 8000 0 fold 
1111 784 2011 100 fold 
2222 1380 2005 270 check 
total pot: 910 
/inquire 
recv from player 2222: fold
send inquire msg to player 1111 
inquire/ 
2222 1380 2005 270 fold 
6666 2478 4109 270 check 
7777 620 6032 270 check 
4444 51520 8000 0 fold 
1111 784 2011 100 fold 
total pot: 910 
/inquire 
send inquire msg to player 4444 
inquire/ 
1111 784 2011 100 fold 
2222 1380 2005 270 fold 
6666 2478 4109 270 check 
7777 620 6032 270 check 
4444 51520 8000 0 fold 
total pot: 910 
/inquire 
send inquire msg to player 7777 
inquire/ 
4444 51520 8000 0 fold 
1111 784 2011 100 fold 
2222 1380 2005 270 fold 
6666 2478 4109 270 check 
7777 620 6032 270 check 
total pot: 910 
/inquire 
recv from player 7777: check
river/ 
HEARTS 8 
/river 

---river round bet---
valid player: 5, all in player: 0, fold player: 3
send inquire msg to player 6666 
inquire/ 
7777 620 6032 270 check 
4444 51520 8000 0 fold 
1111 784 2011 100 fold 
2222 1380 2005 270 fold 
6666 2478 4109 270 check 
total pot: 910 
/inquire 
recv from player 6666: check
send inquire msg to player 2222 
inquire/ 
6666 2478 4109 270 check 
7777 620 6032 270 check 
4444 51520 8000 0 fold 
1111 784 2011 100 fold 
2222 1380 2005 270 fold 
total pot: 910 
/inquire 
send inquire msg to player 1111 
inquire/ 
2222 1380 2005 270 fold 
6666 2478 4109 270 check 
7777 620 6032 270 check 
4444 51520 8000 0 fold 
1111 784 2011 100 fold 
total pot: 910 
/inquire 
send inquire msg to player 4444 
inquire/ 
1111 784 2011 100 fold 
2222 1380 2005 270 fold 
6666 2478 4109 270 check 
7777 620 6032 270 check 
4444 51520 8000 0 fold 
total pot: 910 
/inquire 
send inquire msg to player 7777 
inquire/ 
4444 51520 8000 0 fold 
1111 784 2011 100 fold 
2222 1380 2005 270 fold 
6666 2478 4109 270 check 
7777 620 6032 270 check 
total pot: 910 
/inquire 
recv from player 7777: check

---show down---
showdown/ 
common/ 
DIAMONDS K 
SPADES 9 
SPADES 8 
DIAMONDS 9 
HEARTS 8 
/common 
2: 6666 HEARTS Q SPADES 10 TWO_PAIR 
1: 7777 CLUBS K CLUBS J TWO_PAIR 
/showdown 

---Allocate pot---
pot-win/ 
7777: 910 
/pot-win 
it is player 6666's turn to be button

-----73 Hand-----

----- clean player data in socket -----
seat/ 
button: 6666 2478 4109 
small blind: 2222 1380 2005 
big blind: 1111 784 2011 
4444 51520 8000 
7777 1530 6032 
/seat 
blind/ 
2222: 50 
1111: 100 
/blind 
player 2222:hold/ 
HEARTS 10 
HEARTS Q 
/hold 
player 1111:hold/ 
DIAMONDS 8 
HEARTS 8 
/hold 
player 4444:hold/ 
CLUBS 4 
DIAMONDS A 
/hold 
player 7777:hold/ 
SPADES 9 
CLUBS 5 
/hold 
player 6666:hold/ 
SPADES 5 
CLUBS Q 
/hold 

---pre flop round bet---
valid player: 5, all in player: 0, fold player: 0
send inquire msg to player 4444 
inquire/ 
1111 684 2011 100 blind 
2222 1330 2005 50 blind 
total pot: 150 
/inquire 
recv from player 4444: raise 2421
send inquire msg to player 7777 
inquire/ 
4444 48999 8000 2521 raise 
1111 684 2011 100 blind 
2222 1330 2005 50 blind 
total pot: 2671 
/inquire 
recv from player 7777: fold
send inquire msg to player 6666 
inquire/ 
7777 1530 6032 0 fold 
4444 48999 8000 2521 raise 
1111 684 2011 100 blind 
2222 1330 2005 50 blind 
total pot: 2671 
/inquire 
recv from player 6666: fold
send inquire msg to player 2222 
inquire/ 
6666 2478 4109 0 fold 
7777 1530 6032 0 fold 
4444 48999 8000 2521 raise 
1111 684 2011 100 blind 
2222 1330 2005 50 blind 
total pot: 2671 
/inquire 
recv from player 2222: fold
send inquire msg to player 1111 
inquire/ 
2222 1330 2005 50 fold 
6666 2478 4109 0 fold 
7777 1530 6032 0 fold 
4444 48999 8000 2521 raise 
1111 684 2011 100 blind 
total pot: 2671 
/inquire 
recv from player 1111: check
flop/ 
DIAMONDS 4 
CLUBS 10 
HEARTS 2 
/flop 

---flop round bet---
valid player: 5, all in player: 1, fold player: 3
turn/ 
DIAMONDS 2 
/turn 

---turn round bet---
valid player: 5, all in player: 1, fold player: 3
river/ 
DIAMONDS 5 
/river 

---river round bet---
valid player: 5, all in player: 1, fold player: 3

---show down---
showdown/ 
common/ 
DIAMONDS 4 
CLUBS 10 
HEARTS 2 
DIAMONDS 2 
DIAMONDS 5 
/common 
1: 1111 DIAMONDS 8 HEARTS 8 TWO_PAIR 
2: 4444 CLUBS 4 DIAMONDS A TWO_PAIR 
/showdown 

---Allocate pot---
pot-win/ 
1111: 1618 
4444: 1737 
/pot-win 
it is player 2222's turn to be button

-----74 Hand-----

----- clean player data in socket -----
seat/ 
button: 2222 1330 2005 
small blind: 1111 1618 2011 
big blind: 4444 50736 8000 
7777 1530 6032 
6666 2478 4109 
/seat 
blind/ 
1111: 50 
4444: 100 
/blind 
player 1111:hold/ 
CLUBS 6 
DIAMONDS 6 
/hold 
player 4444:hold/ 
HEARTS A 
DIAMONDS 10 
/hold 
player 7777:hold/ 
DIAMONDS A 
SPADES 6 
/hold 
player 6666:hold/ 
HEARTS 2 
SPADES 10 
/hold 
player 2222:hold/ 
HEARTS 3 
HEARTS 6 
/hold 

---pre flop round bet---
valid player: 5, all in player: 0, fold player: 0
send inquire msg to player 7777 
inquire/ 
4444 50636 8000 100 blind 
1111 1568 2011 50 blind 
total pot: 150 
/inquire 
recv from player 7777: check
send inquire msg to player 6666 
inquire/ 
7777 1430 6032 100 call 
4444 50636 8000 100 blind 
1111 1568 2011 50 blind 
total pot: 250 
/inquire 
recv from player 6666: fold
send inquire msg to player 2222 
inquire/ 
6666 2478 4109 0 fold 
7777 1430 6032 100 call 
4444 50636 8000 100 blind 
1111 1568 2011 50 blind 
total pot: 250 
/inquire 
recv from player 2222: fold
send inquire msg to player 1111 
inquire/ 
2222 1330 2005 0 fold 
6666 2478 4109 0 fold 
7777 1430 6032 100 call 
4444 50636 8000 100 blind 
1111 1568 2011 50 blind 
total pot: 250 
/inquire 
recv from player 1111: fold
send inquire msg to player 4444 
inquire/ 
1111 1568 2011 50 fold 
2222 1330 2005 0 fold 
6666 2478 4109 0 fold 
7777 1430 6032 100 call 
4444 50636 8000 100 blind 
total pot: 250 
/inquire 
recv from player 4444: check
flop/ 
CLUBS 8 
CLUBS Q 
CLUBS 4 
/flop 

---flop round bet---
valid player: 5, all in player: 0, fold player: 3
send inquire msg to player 1111 
inquire/ 
2222 1330 2005 0 fold 
6666 2478 4109 0 fold 
7777 1430 6032 100 call 
4444 50636 8000 100 check 
1111 1568 2011 50 fold 
total pot: 250 
/inquire 
send inquire msg to player 4444 
inquire/ 
1111 1568 2011 50 fold 
2222 1330 2005 0 fold 
6666 2478 4109 0 fold 
7777 1430 6032 100 call 
4444 50636 8000 100 check 
total pot: 250 
/inquire 
recv from player 4444: check
send inquire msg to player 7777 
inquire/ 
4444 50636 8000 100 check 
1111 1568 2011 50 fold 
2222 1330 2005 0 fold 
6666 2478 4109 0 fold 
7777 1430 6032 100 call 
total pot: 250 
/inquire 
recv from player 7777: check
turn/ 
SPADES K 
/turn 

---turn round bet---
valid player: 5, all in player: 0, fold player: 3
send inquire msg to player 1111 
inquire/ 
2222 1330 2005 0 fold 
6666 2478 4109 0 fold 
7777 1430 6032 100 check 
4444 50636 8000 100 check 
1111 1568 2011 50 fold 
total pot: 250 
/inquire 
send inquire msg to player 4444 
inquire/ 
1111 1568 2011 50 fold 
2222 1330 2005 0 fold 
6666 2478 4109 0 fold 
7777 1430 6032 100 check 
4444 50636 8000 100 check 
total pot: 250 
/inquire 
recv from player 4444: check
send inquire msg to player 7777 
inquire/ 
4444 50636 8000 100 check 
1111 1568 2011 50 fold 
2222 1330 2005 0 fold 
6666 2478 4109 0 fold 
7777 1430 6032 100 check 
total pot: 250 
/inquire 
recv from player 7777: check
river/ 
SPADES 7 
/river 

---river round bet---
valid player: 5, all in player: 0, fold player: 3
send inquire msg to player 1111 
inquire/ 
2222 1330 2005 0 fold 
6666 2478 4109 0 fold 
7777 1430 6032 100 check 
4444 50636 8000 100 check 
1111 1568 2011 50 fold 
total pot: 250 
/inquire 
send inquire msg to player 4444 
inquire/ 
1111 1568 2011 50 fold 
2222 1330 2005 0 fold 
6666 2478 4109 0 fold 
7777 1430 6032 100 check 
4444 50636 8000 100 check 
total pot: 250 
/inquire 
recv from player 4444: check
send inquire msg to player 7777 
inquire/ 
4444 50636 8000 100 check 
1111 1568 2011 50 fold 
2222 1330 2005 0 fold 
6666 2478 4109 0 fold 
7777 1430 6032 100 check 
total pot: 250 
/inquire 
recv from player 7777: check

---show down---
showdown/ 
common/ 
CLUBS 8 
CLUBS Q 
CLUBS 4 
SPADES K 
SPADES 7 
/common 
1: 4444 HEARTS A DIAMONDS 10 HIGH_CARD 
2: 7777 DIAMONDS A SPADES 6 HIGH_CARD 
/showdown 

---Allocate pot---
pot-win/ 
4444: 250 
/pot-win 
it is player 1111's turn to be button

-----75 Hand-----

----- clean player data in socket -----
seat/ 
button: 1111 1568 2011 
small blind: 4444 50886 8000 
big blind: 7777 1430 6032 
6666 2478 4109 
2222 1330 2005 
/seat 
blind/ 
4444: 50 
7777: 100 
/blind 
player 4444:hold/ 
CLUBS 10 
DIAMONDS A 
/hold 
player 7777:hold/ 
CLUBS A 
CLUBS 7 
/hold 
player 6666:hold/ 
CLUBS 4 
SPADES A 
/hold 
player 2222:hold/ 
SPADES 6 
SPADES K 
/hold 
player 1111:hold/ 
DIAMONDS 3 
HEARTS 9 
/hold 

---pre flop round bet---
valid player: 5, all in player: 0, fold player: 0
send inquire msg to player 6666 
inquire/ 
7777 1330 6032 100 blind 
4444 50836 8000 50 blind 
total pot: 150 
/inquire 
recv from player 6666: check
send inquire msg to player 2222 
inquire/ 
6666 2378 4109 100 call 
7777 1330 6032 100 blind 
4444 50836 8000 50 blind 
total pot: 250 
/inquire 
recv from player 2222: check
send inquire msg to player 1111 
inquire/ 
2222 1230 2005 100 call 
6666 2378 4109 100 call 
7777 1330 6032 100 blind 
4444 50836 8000 50 blind 
total pot: 350 
/inquire 
recv from player 1111: check
send inquire msg to player 4444 
inquire/ 
1111 1468 2011 100 call 
2222 1230 2005 100 call 
6666 2378 4109 100 call 
7777 1330 6032 100 blind 
4444 50836 8000 50 blind 
total pot: 450 
/inquire 
recv from player 4444: check
send inquire msg to player 7777 
inquire/ 
4444 50786 8000 100 call 
1111 1468 2011 100 call 
2222 1230 2005 100 call 
6666 2378 4109 100 call 
7777 1330 6032 100 blind 
total pot: 500 
/inquire 
recv from player 7777: check
flop/ 
DIAMONDS 9 
HEARTS 5 
SPADES Q 
/flop 

---flop round bet---
valid player: 5, all in player: 0, fold player: 0
send inquire msg to player 4444 
inquire/ 
1111 1468 2011 100 call 
2222 1230 2005 100 call 
6666 2378 4109 100 call 
7777 1330 6032 100 check 
4444 50786 8000 100 call 
total pot: 500 
/inquire 
recv from player 4444: check
send inquire msg to player 7777 
inquire/ 
4444 50786 8000 100 check 
1111 1468 2011 100 call 
2222 1230 2005 100 call 
6666 2378 4109 100 call 
7777 1330 6032 100 check 
total pot: 500 
/inquire 
recv from player 7777: check
send inquire msg to player 6666 
inquire/ 
7777 1330 6032 100 check 
4444 50786 8000 100 check 
1111 1468 2011 100 call 
2222 1230 2005 100 call 
6666 2378 4109 100 call 
total pot: 500 
/inquire 
recv from player 6666: check
send inquire msg to player 2222 
inquire/ 
6666 2378 4109 100 check 
7777 1330 6032 100 check 
4444 50786 8000 100 check 
1111 1468 2011 100 call 
2222 1230 2005 100 call 
total pot: 500 
/inquire 
recv from player 2222: check
send inquire msg to player 1111 
inquire/ 
2222 1230 2005 100 check 
6666 2378 4109 100 check 
7777 1330 6032 100 check 
4444 50786 8000 100 check 
1111 1468 2011 100 call 
total pot: 500 
/inquire 
recv from player 1111: check
turn/ 
HEARTS A 
/turn 

---turn round bet---
valid player: 5, all in player: 0, fold player: 0
send inquire msg to player 4444 
inquire/ 
1111 1468 2011 100 check 
2222 1230 2005 100 check 
6666 2378 4109 100 check 
7777 1330 6032 100 check 
4444 50786 8000 100 check 
total pot: 500 
/inquire 
recv from player 4444: raise 15505
send inquire msg to player 7777 
inquire/ 
4444 35281 8000 15605 raise 
1111 1468 2011 100 check 
2222 1230 2005 100 check 
6666 2378 4109 100 check 
7777 1330 6032 100 check 
total pot: 16005 
/inquire 
recv from player 7777: fold
send inquire msg to player 6666 
inquire/ 
7777 1330 6032 100 fold 
4444 35281 8000 15605 raise 
1111 1468 2011 100 check 
2222 1230 2005 100 check 
6666 2378 4109 100 check 
total pot: 16005 
/inquire 
recv from player 6666: fold
send inquire msg to player 2222 
inquire/ 
6666 2378 4109 100 fold 
7777 1330 6032 100 fold 
4444 35281 8000 15605 raise 
1111 1468 2011 100 check 
2222 1230 2005 100 check 
total pot: 16005 
/inquire 
recv from player 2222: check
send inquire msg to player 1111 
inquire/ 
2222 0 2005 1330 all_in 
6666 2378 4109 100 fold 
7777 1330 6032 100 fold 
4444 35281 8000 15605 raise 
1111 1468 2011 100 check 
total pot: 17235 
/inquire 
recv from player 1111: check
river/ 
HEARTS J 
/river 

---river round bet---
valid player: 5, all in player: 2, fold player: 2

---show down---
showdown/ 
common/ 
DIAMONDS 9 
HEARTS 5 
SPADES Q 
HEARTS A 
HEARTS J 
/common 
1: 4444 CLUBS 10 DIAMONDS A ONE_PAIR 
3: 2222 SPADES 6 SPADES K HIGH_CARD 
2: 1111 DIAMONDS 3 HEARTS 9 ONE_PAIR 
/showdown 

---Allocate pot---
pot-win/ 
4444: 18703 
/pot-win 
it is player 4444's turn to be button

-----76 Hand-----

----- clean player data in socket -----
seat/ 
button: 4444 53984 8000 
small blind: 7777 1330 6032 
big blind: 6666 2378 4109 
2222 2000 5 
1111 2000 11 
/seat 
blind/ 
7777: 50 
6666: 100 
/blind 
player 7777:hold/ 
CLUBS 3 
HEARTS K 
/hold 
player 6666:hold/ 
SPADES K 
HEARTS 2 
/hold 
player 2222:hold/ 
DIAMONDS A 
HEARTS 4 
/hold 
player 1111:hold/ 
HEARTS A 
SPADES 7 
/hold 
player 4444:hold/ 
SPADES 2 
DIAMONDS 6 
/hold 

---pre flop round bet---
valid player: 5, all in player: 0, fold player: 0
send inquire msg to player 2222 
inquire/ 
6666 2278 4109 100 blind 
7777 1280 6032 50 blind 
total pot: 150 
/inquire 
recv from player 2222: fold
send inquire msg to player 1111 
inquire/ 
2222 2000 5 0 fold 
6666 2278 4109 100 blind 
7777 1280 6032 50 blind 
total pot: 150 
/inquire 
recv from player 1111: check
send inquire msg to player 4444 
inquire/ 
1111 1900 11 100 call 
2222 2000 5 0 fold 
6666 2278 4109 100 blind 
7777 1280 6032 50 blind 
total pot: 250 
/inquire 
recv from player 4444: fold
send inquire msg to player 7777 
inquire/ 
4444 53984 8000 0 fold 
1111 1900 11 100 call 
2222 2000 5 0 fold 
6666 2278 4109 100 blind 
7777 1280 6032 50 blind 
total pot: 250 
/inquire 
recv from player 7777: check
send inquire msg to player 6666 
inquire/ 
7777 1230 6032 100 call 
4444 53984 8000 0 fold 
1111 1900 11 100 call 
2222 2000 5 0 fold 
6666 2278 4109 100 blind 
total pot: 300 
/inquire 
recv from player 6666: check
flop/ 
DIAMONDS 7 
DIAMONDS K 
DIAMONDS 10 
/flop 

---flop round bet---
valid player: 5, all in player: 0, fold player: 2
send inquire msg to player 7777 
inquire/ 
4444 53984 8000 0 fold 
1111 1900 11 100 call 
2222 2000 5 0 fold 
6666 2278 4109 100 check 
7777 1230 6032 100 call 
total pot: 300 
/inquire 
recv from player 7777: check
send inquire msg to player 6666 
inquire/ 
7777 1230 6032 100 check 
4444 53984 8000 0 fold 
1111 1900 11 100 call 
2222 2000 5 0 fold 
6666 2278 4109 100 check 
total pot: 300 
/inquire 
recv from player 6666: check
send inquire msg to player 2222 
inquire/ 
6666 2278 4109 100 check 
7777 1230 6032 100 check 
4444 53984 8000 0 fold 
1111 1900 11 100 call 
2222 2000 5 0 fold 
total pot: 300 
/inquire 
send inquire msg to player 1111 
inquire/ 
2222 2000 5 0 fold 
6666 2278 4109 100 check 
7777 1230 6032 100 check 
4444 53984 8000 0 fold 
1111 1900 11 100 call 
total pot: 300 
/inquire 
recv from player 1111: fold
turn/ 
HEARTS 6 
/turn 

---turn round bet---
valid player: 5, all in player: 0, fold player: 3
send inquire msg to player 7777 
inquire/ 
4444 53984 8000 0 fold 
1111 1900 11 100 fold 
2222 2000 5 0 fold 
6666 2278 4109 100 check 
7777 1230 6032 100 check 
total pot: 300 
/inquire 
recv from player 7777: check
send inquire msg to player 6666 
inquire/ 
7777 1230 6032 100 check 
4444 53984 8000 0 fold 
1111 1900 11 100 fold 
2222 2000 5 0 fold 
6666 2278 4109 100 check 
total pot: 300 
/inquire 
recv from player 6666: check
river/ 
HEARTS 9 
/river 

---river round bet---
valid player: 5, all in player: 0, fold player: 3
send inquire msg to player 7777 
inquire/ 
4444 53984 8000 0 fold 
1111 1900 11 100 fold 
2222 2000 5 0 fold 
6666 2278 4109 100 check 
7777 1230 6032 100 check 
total pot: 300 
/inquire 
recv from player 7777: check
send inquire msg to player 6666 
inquire/ 
7777 1230 6032 100 check 
4444 53984 8000 0 fold 
1111 1900 11 100 fold 
2222 2000 5 0 fold 
6666 2278 4109 100 check 
total pot: 300 
/inquire 
recv from player 6666: check

---show down---
showdown/ 
common/ 
DIAMONDS 7 
DIAMONDS K 
DIAMONDS 10 
HEARTS 6 
HEARTS 9 
/common 
1: 7777 CLUBS 3 HEARTS K ONE_PAIR 
1: 6666 SPADES K HEARTS 2 ONE_PAIR 
/showdown 

---Allocate pot---
pot-win/ 
7777: 150 
6666: 150 
/pot-win 
it is player 7777's turn to be button

-----77 Hand-----

----- clean player data in socket -----
seat/ 
button: 7777 1380 6032 
small blind: 6666 2428 4109 
big blind: 2222 2000 5 
1111 1900 11 
4444 53984 8000 
/seat 
blind/ 
6666: 50 
2222: 100 
/blind 
player 6666:hold/ 
DIAMONDS 5 
SPADES 3 
/hold 
player 2222:hold/ 
DIAMONDS 4 
CLUBS 9 
/hold 
player 1111:hold/ 
SPADES 8 
DIAMONDS 2 
/hold 
player 4444:hold/ 
CLUBS 10 
CLUBS 3 
/hold 
player 7777:hold/ 
CLUBS 8 
DIAMONDS A 
/hold 

---pre flop round bet---
valid player: 5, all in player: 0, fold player: 0
send inquire msg to player 1111 
inquire/ 
2222 1900 5 100 blind 
6666 2378 4109 50 blind 
total pot: 150 
/inquire 
recv from player 1111: fold
send inquire msg to player 4444 
inquire/ 
1111 1900 11 0 fold 
2222 1900 5 100 blind 
6666 2378 4109 50 blind 
total pot: 150 
/inquire 
recv from player 4444: raise 421
send inquire msg to player 7777 
inquire/ 
4444 53463 8000 521 raise 
1111 1900 11 0 fold 
2222 1900 5 100 blind 
6666 2378 4109 50 blind 
total pot: 671 
/inquire 
recv from player 7777: fold
send inquire msg to player 6666 
inquire/ 
7777 1380 6032 0 fold 
4444 53463 8000 521 raise 
1111 1900 11 0 fold 
2222 1900 5 100 blind 
6666 2378 4109 50 blind 
total pot: 671 
/inquire 
recv from player 6666: fold
send inquire msg to player 2222 
inquire/ 
6666 2378 4109 50 fold 
7777 1380 6032 0 fold 
4444 53463 8000 521 raise 
1111 1900 11 0 fold 
2222 1900 5 100 blind 
total pot: 671 
/inquire 
recv from player 2222: fold

---flop round bet---
valid player: 5, all in player: 0, fold player: 4

---turn round bet---
valid player: 5, all in player: 0, fold player: 4

---river round bet---
valid player: 5, all in player: 0, fold player: 4

--- 1 players not fold, don't need show down---

---Allocate pot---
Only player at seat 3 not fold, win all the pot 671
pot-win/ 
4444: 671 
/pot-win 
it is player 6666's turn to be button

-----78 Hand-----

----- clean player data in socket -----
seat/ 
button: 6666 2378 4109 
small blind: 2222 1900 5 
big blind: 1111 1900 11 
4444 54134 8000 
7777 1380 6032 
/seat 
blind/ 
2222: 50 
1111: 100 
/blind 
player 2222:hold/ 
DIAMONDS 5 
SPADES 3 
/hold 
player 1111:hold/ 
DIAMONDS 4 
CLUBS 9 
/hold 
player 4444:hold/ 
SPADES 8 
DIAMONDS 2 
/hold 
player 7777:hold/ 
CLUBS 10 
CLUBS 3 
/hold 
player 6666:hold/ 
CLUBS 8 
DIAMONDS A 
/hold 

---pre flop round bet---
valid player: 5, all in player: 0, fold player: 0
send inquire msg to player 4444 
inquire/ 
1111 1800 11 100 blind 
2222 1850 5 50 blind 
total pot: 150 
/inquire 
recv from player 4444: fold
send inquire msg to player 7777 
inquire/ 
4444 54134 8000 0 fold 
1111 1800 11 100 blind 
2222 1850 5 50 blind 
total pot: 150 
/inquire 
recv from player 7777: fold
send inquire msg to player 6666 
inquire/ 
7777 1380 6032 0 fold 
4444 54134 8000 0 fold 
1111 1800 11 100 blind 
2222 1850 5 50 blind 
total pot: 150 
/inquire 
recv from player 6666: check
send inquire msg to player 2222 
inquire/ 
6666 2278 4109 100 call 
7777 1380 6032 0 fold 
4444 54134 8000 0 fold 
1111 1800 11 100 blind 
2222 1850 5 50 blind 
total pot: 250 
/inquire 
recv from player 2222: fold
send inquire msg to player 1111 
inquire/ 
2222 1850 5 50 fold 
6666 2278 4109 100 call 
7777 1380 6032 0 fold 
4444 54134 8000 0 fold 
1111 1800 11 100 blind 
total pot: 250 
/inquire 
recv from player 1111: check
flop/ 
SPADES K 
HEARTS 5 
CLUBS 7 
/flop 

---flop round bet---
valid player: 5, all in player: 0, fold player: 3
send inquire msg to player 2222 
inquire/ 
6666 2278 4109 100 call 
7777 1380 6032 0 fold 
4444 54134 8000 0 fold 
1111 1800 11 100 check 
2222 1850 5 50 fold 
total pot: 250 
/inquire 
send inquire msg to player 1111 
inquire/ 
2222 1850 5 50 fold 
6666 2278 4109 100 call 
7777 1380 6032 0 fold 
4444 54134 8000 0 fold 
1111 1800 11 100 check 
total pot: 250 
/inquire 
recv from player 1111: fold
send inquire msg to player 4444 
inquire/ 
1111 1800 11 100 fold 
2222 1850 5 50 fold 
6666 2278 4109 100 call 
7777 1380 6032 0 fold 
4444 54134 8000 0 fold 
total pot: 250 
/inquire 
send inquire msg to player 7777 
inquire/ 
4444 54134 8000 0 fold 
1111 1800 11 100 fold 
2222 1850 5 50 fold 
6666 2278 4109 100 call 
7777 1380 6032 0 fold 
total pot: 250 
/inquire 
send inquire msg to player 6666 
inquire/ 
7777 1380 6032 0 fold 
4444 54134 8000 0 fold 
1111 1800 11 100 fold 
2222 1850 5 50 fold 
6666 2278 4109 100 call 
total pot: 250 
/inquire 
recv from player 6666: check

---turn round bet---
valid player: 5, all in player: 0, fold player: 4

---river round bet---
valid player: 5, all in player: 0, fold player: 4

--- 1 players not fold, don't need show down---

---Allocate pot---
Only player at seat 7 not fold, win all the pot 250
pot-win/ 
6666: 250 
/pot-win 
it is player 2222's turn to be button

-----79 Hand-----

----- clean player data in socket -----
seat/ 
button: 2222 1850 5 
small blind: 1111 1800 11 
big blind: 4444 54134 8000 
7777 1380 6032 
6666 2528 4109 
/seat 
blind/ 
1111: 50 
4444: 100 
/blind 
player 1111:hold/ 
CLUBS J 
HEARTS 10 
/hold 
player 4444:hold/ 
DIAMONDS A 
CLUBS 6 
/hold 
player 7777:hold/ 
SPADES 3 
DIAMONDS Q 
/hold 
player 6666:hold/ 
DIAMONDS 6 
HEARTS 8 
/hold 
player 2222:hold/ 
CLUBS 4 
CLUBS 3 
/hold 

---pre flop round bet---
valid player: 5, all in player: 0, fold player: 0
send inquire msg to player 7777 
inquire/ 
4444 54034 8000 100 blind 
1111 1750 11 50 blind 
total pot: 150 
/inquire 
recv from player 7777: fold
send inquire msg to player 6666 
inquire/ 
7777 1380 6032 0 fold 
4444 54034 8000 100 blind 
1111 1750 11 50 blind 
total pot: 150 
/inquire 
recv from player 6666: fold
send inquire msg to player 2222 
inquire/ 
6666 2528 4109 0 fold 
7777 1380 6032 0 fold 
4444 54034 8000 100 blind 
1111 1750 11 50 blind 
total pot: 150 
/inquire 
recv from player 2222: fold
send inquire msg to player 1111 
inquire/ 
2222 1850 5 0 fold 
6666 2528 4109 0 fold 
7777 1380 6032 0 fold 
4444 54034 8000 100 blind 
1111 1750 11 50 blind 
total pot: 150 
/inquire 
recv from player 1111: fold
send inquire msg to player 4444 
inquire/ 
1111 1750 11 50 fold 
2222 1850 5 0 fold 
6666 2528 4109 0 fold 
7777 1380 6032 0 fold 
4444 54034 8000 100 blind 
total pot: 150 
/inquire 
recv from player 4444: check

---flop round bet---
valid player: 5, all in player: 0, fold player: 4

---turn round bet---
valid player: 5, all in player: 0, fold player: 4

---river round bet---
valid player: 5, all in player: 0, fold player: 4

--- 1 players not fold, don't need show down---

---Allocate pot---
Only player at seat 1 not fold, win all the pot 150
pot-win/ 
4444: 150 
/pot-win 
it is player 1111's turn to be button

-----80 Hand-----

----- clean player data in socket -----
seat/ 
button: 1111 1750 11 
small blind: 4444 54184 8000 
big blind: 7777 1380 6032 
6666 2528 4109 
2222 1850 5 
/seat 
blind/ 
4444: 50 
7777: 100 
/blind 
player 4444:hold/ 
DIAMONDS 5 
SPADES A 
/hold 
player 7777:hold/ 
HEARTS 3 
DIAMONDS J 
/hold 
player 6666:hold/ 
DIAMONDS 8 
SPADES 8 
/hold 
player 2222:hold/ 
HEARTS 2 
CLUBS A 
/hold 
player 1111:hold/ 
HEARTS 8 
SPADES K 
/hold 

---pre flop round bet---
valid player: 5, all in player: 0, fold player: 0
send inquire msg to player 6666 
inquire/ 
7777 1280 6032 100 blind 
4444 54134 8000 50 blind 
total pot: 150 
/inquire 
recv from player 6666: raise 284
send inquire msg to player 2222 
inquire/ 
6666 2144 4109 384 raise 
7777 1280 6032 100 blind 
4444 54134 8000 50 blind 
total pot: 534 
/inquire 
recv from player 2222: fold
send inquire msg to player 1111 
inquire/ 
2222 1850 5 0 fold 
6666 2144 4109 384 raise 
7777 1280 6032 100 blind 
4444 54134 8000 50 blind 
total pot: 534 
/inquire 
recv from player 1111: fold
send inquire msg to player 4444 
inquire/ 
1111 1750 11 0 fold 
2222 1850 5 0 fold 
6666 2144 4109 384 raise 
7777 1280 6032 100 blind 
4444 54134 8000 50 blind 
total pot: 534 
/inquire 
recv from player 4444: check
send inquire msg to player 7777 
inquire/ 
4444 53800 8000 384 call 
1111 1750 11 0 fold 
2222 1850 5 0 fold 
6666 2144 4109 384 raise 
7777 1280 6032 100 blind 
total pot: 868 
/inquire 
recv from player 7777: fold
flop/ 
HEARTS K 
DIAMONDS 4 
HEARTS 4 
/flop 

---flop round bet---
valid player: 5, all in player: 0, fold player: 3
send inquire msg to player 4444 
inquire/ 
1111 1750 11 0 fold 
2222 1850 5 0 fold 
6666 2144 4109 384 raise 
7777 1280 6032 100 fold 
4444 53800 8000 384 call 
total pot: 868 
/inquire 
recv from player 4444: check
send inquire msg to player 7777 
inquire/ 
4444 53800 8000 384 check 
1111 1750 11 0 fold 
2222 1850 5 0 fold 
6666 2144 4109 384 raise 
7777 1280 6032 100 fold 
total pot: 868 
/inquire 
send inquire msg to player 6666 
inquire/ 
7777 1280 6032 100 fold 
4444 53800 8000 384 check 
1111 1750 11 0 fold 
2222 1850 5 0 fold 
6666 2144 4109 384 raise 
total pot: 868 
/inquire 
recv from player 6666: check
turn/ 
HEARTS J 
/turn 

---turn round bet---
valid player: 5, all in player: 0, fold player: 3
send inquire msg to player 4444 
inquire/ 
1111 1750 11 0 fold 
2222 1850 5 0 fold 
6666 2144 4109 384 check 
7777 1280 6032 100 fold 
4444 53800 8000 384 check 
total pot: 868 
/inquire 
recv from player 4444: check
send inquire msg to player 7777 
inquire/ 
4444 53800 8000 384 check 
1111 1750 11 0 fold 
2222 1850 5 0 fold 
6666 2144 4109 384 check 
7777 1280 6032 100 fold 
total pot: 868 
/inquire 
send inquire msg to player 6666 
inquire/ 
7777 1280 6032 100 fold 
4444 53800 8000 384 check 
1111 1750 11 0 fold 
2222 1850 5 0 fold 
6666 2144 4109 384 check 
total pot: 868 
/inquire 
recv from player 6666: check
river/ 
DIAMONDS Q 
/river 

---river round bet---
valid player: 5, all in player: 0, fold player: 3
send inquire msg to player 4444 
inquire/ 
1111 1750 11 0 fold 
2222 1850 5 0 fold 
6666 2144 4109 384 check 
7777 1280 6032 100 fold 
4444 53800 8000 384 check 
total pot: 868 
/inquire 
recv from player 4444: check
send inquire msg to player 7777 
inquire/ 
4444 53800 8000 384 check 
1111 1750 11 0 fold 
2222 1850 5 0 fold 
6666 2144 4109 384 check 
7777 1280 6032 100 fold 
total pot: 868 
/inquire 
send inquire msg to player 6666 
inquire/ 
7777 1280 6032 100 fold 
4444 53800 8000 384 check 
1111 1750 11 0 fold 
2222 1850 5 0 fold 
6666 2144 4109 384 check 
total pot: 868 
/inquire 
recv from player 6666: check

---show down---
showdown/ 
common/ 
HEARTS K 
DIAMONDS 4 
HEARTS 4 
HEARTS J 
DIAMONDS Q 
/common 
2: 4444 DIAMONDS 5 SPADES A ONE_PAIR 
1: 6666 DIAMONDS 8 SPADES 8 TWO_PAIR 
/showdown 

---Allocate pot---
pot-win/ 
6666: 868 
/pot-win 
it is player 4444's turn to be button

-----81 Hand-----

----- clean player data in socket -----
seat/ 
button: 4444 53800 8000 
small blind: 7777 1280 6032 
big blind: 6666 3012 4109 
2222 1850 5 
1111 1750 11 
/seat 
blind/ 
7777: 50 
6666: 100 
/blind 
player 7777:hold/ 
HEARTS 3 
DIAMONDS 6 
/hold 
player 6666:hold/ 
SPADES 6 
DIAMONDS 9 
/hold 
player 2222:hold/ 
HEARTS 5 
CLUBS J 
/hold 
player 1111:hold/ 
SPADES 4 
SPADES A 
/hold 
player 4444:hold/ 
CLUBS 2 
SPADES 7 
/hold 

---pre flop round bet---
valid player: 5, all in player: 0, fold player: 0
send inquire msg to player 2222 
inquire/ 
6666 2912 4109 100 blind 
7777 1230 6032 50 blind 
total pot: 150 
/inquire 
recv from player 2222: fold
send inquire msg to player 1111 
inquire/ 
2222 1850 5 0 fold 
6666 2912 4109 100 blind 
7777 1230 6032 50 blind 
total pot: 150 
/inquire 
recv from player 1111: check
send inquire msg to player 4444 
inquire/ 
1111 1650 11 100 call 
2222 1850 5 0 fold 
6666 2912 4109 100 blind 
7777 1230 6032 50 blind 
total pot: 250 
/inquire 
recv from player 4444: fold
send inquire msg to player 7777 
inquire/ 
4444 53800 8000 0 fold 
1111 1650 11 100 call 
2222 1850 5 0 fold 
6666 2912 4109 100 blind 
7777 1230 6032 50 blind 
total pot: 250 
/inquire 
recv from player 7777: check
send inquire msg to player 6666 
inquire/ 
7777 1180 6032 100 call 
4444 53800 8000 0 fold 
1111 1650 11 100 call 
2222 1850 5 0 fold 
6666 2912 4109 100 blind 
total pot: 300 
/inquire 
recv from player 6666: check
flop/ 
SPADES 10 
SPADES 5 
CLUBS 5 
/flop 

---flop round bet---
valid player: 5, all in player: 0, fold player: 2
send inquire msg to player 7777 
inquire/ 
4444 53800 8000 0 fold 
1111 1650 11 100 call 
2222 1850 5 0 fold 
6666 2912 4109 100 check 
7777 1180 6032 100 call 
total pot: 300 
/inquire 
recv from player 7777: check
send inquire msg to player 6666 
inquire/ 
7777 1180 6032 100 check 
4444 53800 8000 0 fold 
1111 1650 11 100 call 
2222 1850 5 0 fold 
6666 2912 4109 100 check 
total pot: 300 
/inquire 
recv from player 6666: check
send inquire msg to player 2222 
inquire/ 
6666 2912 4109 100 check 
7777 1180 6032 100 check 
4444 53800 8000 0 fold 
1111 1650 11 100 call 
2222 1850 5 0 fold 
total pot: 300 
/inquire 
send inquire msg to player 1111 
inquire/ 
2222 1850 5 0 fold 
6666 2912 4109 100 check 
7777 1180 6032 100 check 
4444 53800 8000 0 fold 
1111 1650 11 100 call 
total pot: 300 
/inquire 
recv from player 1111: fold
turn/ 
SPADES 9 
/turn 

---turn round bet---
valid player: 5, all in player: 0, fold player: 3
send inquire msg to player 7777 
inquire/ 
4444 53800 8000 0 fold 
1111 1650 11 100 fold 
2222 1850 5 0 fold 
6666 2912 4109 100 check 
7777 1180 6032 100 check 
total pot: 300 
/inquire 
recv from player 7777: check
send inquire msg to player 6666 
inquire/ 
7777 1180 6032 100 check 
4444 53800 8000 0 fold 
1111 1650 11 100 fold 
2222 1850 5 0 fold 
6666 2912 4109 100 check 
total pot: 300 
/inquire 
recv from player 6666: check
river/ 
SPADES K 
/river 

---river round bet---
valid player: 5, all in player: 0, fold player: 3
send inquire msg to player 7777 
inquire/ 
4444 53800 8000 0 fold 
1111 1650 11 100 fold 
2222 1850 5 0 fold 
6666 2912 4109 100 check 
7777 1180 6032 100 check 
total pot: 300 
/inquire 
recv from player 7777: check
send inquire msg to player 6666 
inquire/ 
7777 1180 6032 100 check 
4444 53800 8000 0 fold 
1111 1650 11 100 fold 
2222 1850 5 0 fold 
6666 2912 4109 100 check 
total pot: 300 
/inquire 
recv from player 6666: check

---show down---
showdown/ 
common/ 
SPADES 10 
SPADES 5 
CLUBS 5 
SPADES 9 
SPADES K 
/common 
2: 7777 HEARTS 3 DIAMONDS 6 ONE_PAIR 
1: 6666 SPADES 6 DIAMONDS 9 FLUSH 
/showdown 

---Allocate pot---
pot-win/ 
6666: 300 
/pot-win 
it is player 7777's turn to be button

-----82 Hand-----

----- clean player data in socket -----
seat/ 
button: 7777 1180 6032 
small blind: 6666 3212 4109 
big blind: 2222 1850 5 
1111 1650 11 
4444 53800 8000 
/seat 
blind/ 
6666: 50 
2222: 100 
/blind 
player 6666:hold/ 
HEARTS Q 
DIAMONDS Q 
/hold 
player 2222:hold/ 
CLUBS 9 
SPADES 7 
/hold 
player 1111:hold/ 
CLUBS A 
DIAMONDS 9 
/hold 
player 4444:hold/ 
HEARTS 2 
HEARTS 8 
/hold 
player 7777:hold/ 
CLUBS 7 
SPADES 5 
/hold 

---pre flop round bet---
valid player: 5, all in player: 0, fold player: 0
send inquire msg to player 1111 
inquire/ 
2222 1750 5 100 blind 
6666 3162 4109 50 blind 
total pot: 150 
/inquire 
recv from player 1111: fold
send inquire msg to player 4444 
inquire/ 
1111 1650 11 0 fold 
2222 1750 5 100 blind 
6666 3162 4109 50 blind 
total pot: 150 
/inquire 
recv from player 4444: fold
send inquire msg to player 7777 
inquire/ 
4444 53800 8000 0 fold 
1111 1650 11 0 fold 
2222 1750 5 100 blind 
6666 3162 4109 50 blind 
total pot: 150 
/inquire 
recv from player 7777: fold
send inquire msg to player 6666 
inquire/ 
7777 1180 6032 0 fold 
4444 53800 8000 0 fold 
1111 1650 11 0 fold 
2222 1750 5 100 blind 
6666 3162 4109 50 blind 
total pot: 150 
/inquire 
recv from player 6666: check
send inquire msg to player 2222 
inquire/ 
6666 3112 4109 100 call 
7777 1180 6032 0 fold 
4444 53800 8000 0 fold 
1111 1650 11 0 fold 
2222 1750 5 100 blind 
total pot: 200 
/inquire 
recv from player 2222: check
flop/ 
SPADES 8 
CLUBS 4 
HEARTS K 
/flop 

---flop round bet---
valid player: 5, all in player: 0, fold player: 3
send inquire msg to player 6666 
inquire/ 
7777 1180 6032 0 fold 
4444 53800 8000 0 fold 
1111 1650 11 0 fold 
2222 1750 5 100 check 
6666 3112 4109 100 call 
total pot: 200 
/inquire 
recv from player 6666: check
send inquire msg to player 2222 
inquire/ 
6666 3112 4109 100 check 
7777 1180 6032 0 fold 
4444 53800 8000 0 fold 
1111 1650 11 0 fold 
2222 1750 5 100 check 
total pot: 200 
/inquire 
recv from player 2222: check
turn/ 
DIAMONDS 4 
/turn 

---turn round bet---
valid player: 5, all in player: 0, fold player: 3
send inquire msg to player 6666 
inquire/ 
7777 1180 6032 0 fold 
4444 53800 8000 0 fold 
1111 1650 11 0 fold 
2222 1750 5 100 check 
6666 3112 4109 100 check 
total pot: 200 
/inquire 
recv from player 6666: check
send inquire msg to player 2222 
inquire/ 
6666 3112 4109 100 check 
7777 1180 6032 0 fold 
4444 53800 8000 0 fold 
1111 1650 11 0 fold 
2222 1750 5 100 check 
total pot: 200 
/inquire 
recv from player 2222: fold

---river round bet---
valid player: 5, all in player: 0, fold player: 4

--- 1 players not fold, don't need show down---

---Allocate pot---
Only player at seat 0 not fold, win all the pot 200
pot-win/ 
6666: 200 
/pot-win 
it is player 6666's turn to be button

-----83 Hand-----

----- clean player data in socket -----
seat/ 
button: 6666 3312 4109 
small blind: 2222 1750 5 
big blind: 1111 1650 11 
4444 53800 8000 
7777 1180 6032 
/seat 
blind/ 
2222: 50 
1111: 100 
/blind 
player 2222:hold/ 
HEARTS K 
DIAMONDS 7 
/hold 
player 1111:hold/ 
HEARTS 6 
HEARTS A 
/hold 
player 4444:hold/ 
HEARTS 7 
SPADES 9 
/hold 
player 7777:hold/ 
SPADES 7 
CLUBS A 
/hold 
player 6666:hold/ 
CLUBS 4 
DIAMONDS 4 
/hold 

---pre flop round bet---
valid player: 5, all in player: 0, fold player: 0
send inquire msg to player 4444 
inquire/ 
1111 1550 11 100 blind 
2222 1700 5 50 blind 
total pot: 150 
/inquire 
recv from player 4444: raise 1694
send inquire msg to player 7777 
inquire/ 
4444 52006 8000 1794 raise 
1111 1550 11 100 blind 
2222 1700 5 50 blind 
total pot: 1944 
/inquire 
recv from player 7777: fold
send inquire msg to player 6666 
inquire/ 
7777 1180 6032 0 fold 
4444 52006 8000 1794 raise 
1111 1550 11 100 blind 
2222 1700 5 50 blind 
total pot: 1944 
/inquire 
recv from player 6666: fold
send inquire msg to player 2222 
inquire/ 
6666 3312 4109 0 fold 
7777 1180 6032 0 fold 
4444 52006 8000 1794 raise 
1111 1550 11 100 blind 
2222 1700 5 50 blind 
total pot: 1944 
/inquire 
recv from player 2222: fold
send inquire msg to player 1111 
inquire/ 
2222 1700 5 50 fold 
6666 3312 4109 0 fold 
7777 1180 6032 0 fold 
4444 52006 8000 1794 raise 
1111 1550 11 100 blind 
total pot: 1944 
/inquire 
recv from player 1111: fold

---flop round bet---
valid player: 5, all in player: 0, fold player: 4

---turn round bet---
valid player: 5, all in player: 0, fold player: 4

---river round bet---
valid player: 5, all in player: 0, fold player: 4

--- 1 players not fold, don't need show down---

---Allocate pot---
Only player at seat 2 not fold, win all the pot 1944
pot-win/ 
4444: 1944 
/pot-win 
it is player 2222's turn to be button

-----84 Hand-----

----- clean player data in socket -----
seat/ 
button: 2222 1700 5 
small blind: 1111 1550 11 
big blind: 4444 53950 8000 
7777 1180 6032 
6666 3312 4109 
/seat 
blind/ 
1111: 50 
4444: 100 
/blind 
player 1111:hold/ 
SPADES 10 
SPADES Q 
/hold 
player 4444:hold/ 
DIAMONDS A 
HEARTS J 
/hold 
player 7777:hold/ 
SPADES J 
HEARTS K 
/hold 
player 6666:hold/ 
CLUBS 5 
HEARTS 10 
/hold 
player 2222:hold/ 
DIAMONDS 10 
SPADES 4 
/hold 

---pre flop round bet---
valid player: 5, all in player: 0, fold player: 0
send inquire msg to player 7777 
inquire/ 
4444 53850 8000 100 blind 
1111 1500 11 50 blind 
total pot: 150 
/inquire 
recv from player 7777: check
send inquire msg to player 6666 
inquire/ 
7777 1080 6032 100 call 
4444 53850 8000 100 blind 
1111 1500 11 50 blind 
total pot: 250 
/inquire 
recv from player 6666: fold
send inquire msg to player 2222 
inquire/ 
6666 3312 4109 0 fold 
7777 1080 6032 100 call 
4444 53850 8000 100 blind 
1111 1500 11 50 blind 
total pot: 250 
/inquire 
recv from player 2222: fold
send inquire msg to player 1111 
inquire/ 
2222 1700 5 0 fold 
6666 3312 4109 0 fold 
7777 1080 6032 100 call 
4444 53850 8000 100 blind 
1111 1500 11 50 blind 
total pot: 250 
/inquire 
recv from player 1111: fold
send inquire msg to player 4444 
inquire/ 
1111 1500 11 50 fold 
2222 1700 5 0 fold 
6666 3312 4109 0 fold 
7777 1080 6032 100 call 
4444 53850 8000 100 blind 
total pot: 250 
/inquire 
recv from player 4444: check
flop/ 
DIAMONDS 2 
HEARTS 3 
CLUBS 9 
/flop 

---flop round bet---
valid player: 5, all in player: 0, fold player: 3
send inquire msg to player 1111 
inquire/ 
2222 1700 5 0 fold 
6666 3312 4109 0 fold 
7777 1080 6032 100 call 
4444 53850 8000 100 check 
1111 1500 11 50 fold 
total pot: 250 
/inquire 
send inquire msg to player 4444 
inquire/ 
1111 1500 11 50 fold 
2222 1700 5 0 fold 
6666 3312 4109 0 fold 
7777 1080 6032 100 call 
4444 53850 8000 100 check 
total pot: 250 
/inquire 
recv from player 4444: check
send inquire msg to player 7777 
inquire/ 
4444 53850 8000 100 check 
1111 1500 11 50 fold 
2222 1700 5 0 fold 
6666 3312 4109 0 fold 
7777 1080 6032 100 call 
total pot: 250 
/inquire 
recv from player 7777: check
turn/ 
DIAMONDS K 
/turn 

---turn round bet---
valid player: 5, all in player: 0, fold player: 3
send inquire msg to player 1111 
inquire/ 
2222 1700 5 0 fold 
6666 3312 4109 0 fold 
7777 1080 6032 100 check 
4444 53850 8000 100 check 
1111 1500 11 50 fold 
total pot: 250 
/inquire 
send inquire msg to player 4444 
inquire/ 
1111 1500 11 50 fold 
2222 1700 5 0 fold 
6666 3312 4109 0 fold 
7777 1080 6032 100 check 
4444 53850 8000 100 check 
total pot: 250 
/inquire 
recv from player 4444: check
send inquire msg to player 7777 
inquire/ 
4444 53850 8000 100 check 
1111 1500 11 50 fold 
2222 1700 5 0 fold 
6666 3312 4109 0 fold 
7777 1080 6032 100 check 
total pot: 250 
/inquire 
recv from player 7777: check
river/ 
SPADES K 
/river 

---river round bet---
valid player: 5, all in player: 0, fold player: 3
send inquire msg to player 1111 
inquire/ 
2222 1700 5 0 fold 
6666 3312 4109 0 fold 
7777 1080 6032 100 check 
4444 53850 8000 100 check 
1111 1500 11 50 fold 
total pot: 250 
/inquire 
send inquire msg to player 4444 
inquire/ 
1111 1500 11 50 fold 
2222 1700 5 0 fold 
6666 3312 4109 0 fold 
7777 1080 6032 100 check 
4444 53850 8000 100 check 
total pot: 250 
/inquire 
recv from player 4444: check
send inquire msg to player 7777 
inquire/ 
4444 53850 8000 100 check 
1111 1500 11 50 fold 
2222 1700 5 0 fold 
6666 3312 4109 0 fold 
7777 1080 6032 100 check 
total pot: 250 
/inquire 
recv from player 7777: check

---show down---
showdown/ 
common/ 
DIAMONDS 2 
HEARTS 3 
CLUBS 9 
DIAMONDS K 
SPADES K 
/common 
2: 4444 DIAMONDS A HEARTS J ONE_PAIR 
1: 7777 SPADES J HEARTS K THREE_OF_A_KIND 
/showdown 

---Allocate pot---
pot-win/ 
7777: 250 
/pot-win 
it is player 1111's turn to be button

-----85 Hand-----

----- clean player data in socket -----
seat/ 
button: 1111 1500 11 
small blind: 4444 53850 8000 
big blind: 7777 1330 6032 
6666 3312 4109 
2222 1700 5 
/seat 
blind/ 
4444: 50 
7777: 100 
/blind 
player 4444:hold/ 
CLUBS 7 
SPADES 8 
/hold 
player 7777:hold/ 
CLUBS 10 
DIAMONDS 7 
/hold 
player 6666:hold/ 
HEARTS K 
DIAMONDS 8 
/hold 
player 2222:hold/ 
DIAMONDS Q 
HEARTS J 
/hold 
player 1111:hold/ 
CLUBS 2 
CLUBS 5 
/hold 

---pre flop round bet---
valid player: 5, all in player: 0, fold player: 0
send inquire msg to player 6666 
inquire/ 
7777 1230 6032 100 blind 
4444 53800 8000 50 blind 
total pot: 150 
/inquire 
recv from player 6666: raise 164
send inquire msg to player 2222 
inquire/ 
6666 3048 4109 264 raise 
7777 1230 6032 100 blind 
4444 53800 8000 50 blind 
total pot: 414 
/inquire 
recv from player 2222: fold
send inquire msg to player 1111 
inquire/ 
2222 1700 5 0 fold 
6666 3048 4109 264 raise 
7777 1230 6032 100 blind 
4444 53800 8000 50 blind 
total pot: 414 
/inquire 
recv from player 1111: check
send inquire msg to player 4444 
inquire/ 
1111 1236 11 264 call 
2222 1700 5 0 fold 
6666 3048 4109 264 raise 
7777 1230 6032 100 blind 
4444 53800 8000 50 blind 
total pot: 678 
/inquire 
recv from player 4444: check
send inquire msg to player 7777 
inquire/ 
4444 53586 8000 264 call 
1111 1236 11 264 call 
2222 1700 5 0 fold 
6666 3048 4109 264 raise 
7777 1230 6032 100 blind 
total pot: 892 
/inquire 
recv from player 7777: check
flop/ 
HEARTS 7 
HEARTS 5 
HEARTS 2 
/flop 

---flop round bet---
valid player: 5, all in player: 0, fold player: 1
send inquire msg to player 4444 
inquire/ 
1111 1236 11 264 call 
2222 1700 5 0 fold 
6666 3048 4109 264 raise 
7777 1066 6032 264 call 
4444 53586 8000 264 call 
total pot: 1056 
/inquire 
recv from player 4444: check
send inquire msg to player 7777 
inquire/ 
4444 53586 8000 264 check 
1111 1236 11 264 call 
2222 1700 5 0 fold 
6666 3048 4109 264 raise 
7777 1066 6032 264 call 
total pot: 1056 
/inquire 
recv from player 7777: check
send inquire msg to player 6666 
inquire/ 
7777 1066 6032 264 check 
4444 53586 8000 264 check 
1111 1236 11 264 call 
2222 1700 5 0 fold 
6666 3048 4109 264 raise 
total pot: 1056 
/inquire 
recv from player 6666: raise 212
send inquire msg to player 2222 
inquire/ 
6666 2836 4109 476 raise 
7777 1066 6032 264 check 
4444 53586 8000 264 check 
1111 1236 11 264 call 
2222 1700 5 0 fold 
total pot: 1268 
/inquire 
send inquire msg to player 1111 
inquire/ 
2222 1700 5 0 fold 
6666 2836 4109 476 raise 
7777 1066 6032 264 check 
4444 53586 8000 264 check 
1111 1236 11 264 call 
total pot: 1268 
/inquire 
recv from player 1111: fold
send inquire msg to player 4444 
inquire/ 
1111 1236 11 264 fold 
2222 1700 5 0 fold 
6666 2836 4109 476 raise 
7777 1066 6032 264 check 
4444 53586 8000 264 check 
total pot: 1268 
/inquire 
recv from player 4444: check
send inquire msg to player 7777 
inquire/ 
4444 53374 8000 476 call 
1111 1236 11 264 fold 
2222 1700 5 0 fold 
6666 2836 4109 476 raise 
7777 1066 6032 264 check 
total pot: 1480 
/inquire 
recv from player 7777: check
turn/ 
SPADES 10 
/turn 

---turn round bet---
valid player: 5, all in player: 0, fold player: 2
send inquire msg to player 4444 
inquire/ 
1111 1236 11 264 fold 
2222 1700 5 0 fold 
6666 2836 4109 476 raise 
7777 854 6032 476 call 
4444 53374 8000 476 call 
total pot: 1692 
/inquire 
recv from player 4444: check
send inquire msg to player 7777 
inquire/ 
4444 53374 8000 476 check 
1111 1236 11 264 fold 
2222 1700 5 0 fold 
6666 2836 4109 476 raise 
7777 854 6032 476 call 
total pot: 1692 
/inquire 
recv from player 7777: check
send inquire msg to player 6666 
inquire/ 
7777 854 6032 476 check 
4444 53374 8000 476 check 
1111 1236 11 264 fold 
2222 1700 5 0 fold 
6666 2836 4109 476 raise 
total pot: 1692 
/inquire 
recv from player 6666: check
river/ 
HEARTS Q 
/river 

---river round bet---
valid player: 5, all in player: 0, fold player: 2
send inquire msg to player 4444 
inquire/ 
1111 1236 11 264 fold 
2222 1700 5 0 fold 
6666 2836 4109 476 check 
7777 854 6032 476 check 
4444 53374 8000 476 check 
total pot: 1692 
/inquire 
recv from player 4444: check
send inquire msg to player 7777 
inquire/ 
4444 53374 8000 476 check 
1111 1236 11 264 fold 
2222 1700 5 0 fold 
6666 2836 4109 476 check 
7777 854 6032 476 check 
total pot: 1692 
/inquire 
recv from player 7777: check
send inquire msg to player 6666 
inquire/ 
7777 854 6032 476 check 
4444 53374 8000 476 check 
1111 1236 11 264 fold 
2222 1700 5 0 fold 
6666 2836 4109 476 check 
total pot: 1692 
/inquire 
recv from player 6666: raise 1099
send inquire msg to player 2222 
inquire/ 
6666 1737 4109 1575 raise 
7777 854 6032 476 check 
4444 53374 8000 476 check 
1111 1236 11 264 fold 
2222 1700 5 0 fold 
total pot: 2791 
/inquire 
send inquire msg to player 1111 
inquire/ 
2222 1700 5 0 fold 
6666 1737 4109 1575 raise 
7777 854 6032 476 check 
4444 53374 8000 476 check 
1111 1236 11 264 fold 
total pot: 2791 
/inquire 
send inquire msg to player 4444 
inquire/ 
1111 1236 11 264 fold 
2222 1700 5 0 fold 
6666 1737 4109 1575 raise 
7777 854 6032 476 check 
4444 53374 8000 476 check 
total pot: 2791 
/inquire 
recv from player 4444: fold
send inquire msg to player 7777 
inquire/ 
4444 53374 8000 476 fold 
1111 1236 11 264 fold 
2222 1700 5 0 fold 
6666 1737 4109 1575 raise 
7777 854 6032 476 check 
total pot: 2791 
/inquire 
recv from player 7777: fold

--- 1 players not fold, don't need show down---

---Allocate pot---
Only player at seat 2 not fold, win all the pot 2791
pot-win/ 
6666: 2791 
/pot-win 
it is player 4444's turn to be button

-----86 Hand-----

----- clean player data in socket -----
seat/ 
button: 4444 53374 8000 
small blind: 7777 854 6032 
big blind: 6666 4528 4109 
2222 1700 5 
1111 1236 11 
/seat 
blind/ 
7777: 50 
6666: 100 
/blind 
player 7777:hold/ 
CLUBS 4 
SPADES K 
/hold 
player 6666:hold/ 
HEARTS 7 
HEARTS 8 
/hold 
player 2222:hold/ 
HEARTS 6 
DIAMONDS 5 
/hold 
player 1111:hold/ 
SPADES 5 
DIAMONDS 9 
/hold 
player 4444:hold/ 
HEARTS K 
DIAMONDS J 
/hold 

---pre flop round bet---
valid player: 5, all in player: 0, fold player: 0
send inquire msg to player 2222 
inquire/ 
6666 4428 4109 100 blind 
7777 804 6032 50 blind 
total pot: 150 
/inquire 
recv from player 2222: fold
send inquire msg to player 1111 
inquire/ 
2222 1700 5 0 fold 
6666 4428 4109 100 blind 
7777 804 6032 50 blind 
total pot: 150 
/inquire 
recv from player 1111: fold
send inquire msg to player 4444 
inquire/ 
1111 1236 11 0 fold 
2222 1700 5 0 fold 
6666 4428 4109 100 blind 
7777 804 6032 50 blind 
total pot: 150 
/inquire 
recv from player 4444: raise 4226
send inquire msg to player 7777 
inquire/ 
4444 49048 8000 4326 raise 
1111 1236 11 0 fold 
2222 1700 5 0 fold 
6666 4428 4109 100 blind 
7777 804 6032 50 blind 
total pot: 4476 
/inquire 
recv from player 7777: fold
send inquire msg to player 6666 
inquire/ 
7777 804 6032 50 fold 
4444 49048 8000 4326 raise 
1111 1236 11 0 fold 
2222 1700 5 0 fold 
6666 4428 4109 100 blind 
total pot: 4476 
/inquire 
recv from player 6666: fold

---flop round bet---
valid player: 5, all in player: 0, fold player: 4

---turn round bet---
valid player: 5, all in player: 0, fold player: 4

---river round bet---
valid player: 5, all in player: 0, fold player: 4

--- 1 players not fold, don't need show down---

---Allocate pot---
Only player at seat 7 not fold, win all the pot 4476
pot-win/ 
4444: 4476 
/pot-win 
it is player 7777's turn to be button

-----87 Hand-----

----- clean player data in socket -----
seat/ 
button: 7777 804 6032 
small blind: 6666 4428 4109 
big blind: 2222 1700 5 
1111 1236 11 
4444 53524 8000 
/seat 
blind/ 
6666: 50 
2222: 100 
/blind 
player 6666:hold/ 
CLUBS Q 
CLUBS 6 
/hold 
player 2222:hold/ 
CLUBS J 
HEARTS 2 
/hold 
player 1111:hold/ 
HEARTS A 
SPADES J 
/hold 
player 4444:hold/ 
HEARTS 6 
SPADES 6 
/hold 
player 7777:hold/ 
SPADES 9 
CLUBS 3 
/hold 

---pre flop round bet---
valid player: 5, all in player: 0, fold player: 0
send inquire msg to player 1111 
inquire/ 
2222 1600 5 100 blind 
6666 4378 4109 50 blind 
total pot: 150 
/inquire 
recv from player 1111: fold
send inquire msg to player 4444 
inquire/ 
1111 1236 11 0 fold 
2222 1600 5 100 blind 
6666 4378 4109 50 blind 
total pot: 150 
/inquire 
recv from player 4444: check
send inquire msg to player 7777 
inquire/ 
4444 53424 8000 100 call 
1111 1236 11 0 fold 
2222 1600 5 100 blind 
6666 4378 4109 50 blind 
total pot: 250 
/inquire 
recv from player 7777: fold
send inquire msg to player 6666 
inquire/ 
7777 804 6032 0 fold 
4444 53424 8000 100 call 
1111 1236 11 0 fold 
2222 1600 5 100 blind 
6666 4378 4109 50 blind 
total pot: 250 
/inquire 
recv from player 6666: check
send inquire msg to player 2222 
inquire/ 
6666 4328 4109 100 call 
7777 804 6032 0 fold 
4444 53424 8000 100 call 
1111 1236 11 0 fold 
2222 1600 5 100 blind 
total pot: 300 
/inquire 
recv from player 2222: fold
flop/ 
CLUBS K 
CLUBS 2 
DIAMONDS Q 
/flop 

---flop round bet---
valid player: 5, all in player: 0, fold player: 3
send inquire msg to player 6666 
inquire/ 
7777 804 6032 0 fold 
4444 53424 8000 100 call 
1111 1236 11 0 fold 
2222 1600 5 100 fold 
6666 4328 4109 100 call 
total pot: 300 
/inquire 
recv from player 6666: check
send inquire msg to player 2222 
inquire/ 
6666 4328 4109 100 check 
7777 804 6032 0 fold 
4444 53424 8000 100 call 
1111 1236 11 0 fold 
2222 1600 5 100 fold 
total pot: 300 
/inquire 
send inquire msg to player 1111 
inquire/ 
2222 1600 5 100 fold 
6666 4328 4109 100 check 
7777 804 6032 0 fold 
4444 53424 8000 100 call 
1111 1236 11 0 fold 
total pot: 300 
/inquire 
send inquire msg to player 4444 
inquire/ 
1111 1236 11 0 fold 
2222 1600 5 100 fold 
6666 4328 4109 100 check 
7777 804 6032 0 fold 
4444 53424 8000 100 call 
total pot: 300 
/inquire 
recv from player 4444: check
turn/ 
DIAMONDS 7 
/turn 

---turn round bet---
valid player: 5, all in player: 0, fold player: 3
send inquire msg to player 6666 
inquire/ 
7777 804 6032 0 fold 
4444 53424 8000 100 check 
1111 1236 11 0 fold 
2222 1600 5 100 fold 
6666 4328 4109 100 check 
total pot: 300 
/inquire 
recv from player 6666: check
send inquire msg to player 2222 
inquire/ 
6666 4328 4109 100 check 
7777 804 6032 0 fold 
4444 53424 8000 100 check 
1111 1236 11 0 fold 
2222 1600 5 100 fold 
total pot: 300 
/inquire 
send inquire msg to player 1111 
inquire/ 
2222 1600 5 100 fold 
6666 4328 4109 100 check 
7777 804 6032 0 fold 
4444 53424 8000 100 check 
1111 1236 11 0 fold 
total pot: 300 
/inquire 
send inquire msg to player 4444 
inquire/ 
1111 1236 11 0 fold 
2222 1600 5 100 fold 
6666 4328 4109 100 check 
7777 804 6032 0 fold 
4444 53424 8000 100 check 
total pot: 300 
/inquire 
recv from player 4444: check
river/ 
SPADES 5 
/river 

---river round bet---
valid player: 5, all in player: 0, fold player: 3
send inquire msg to player 6666 
inquire/ 
7777 804 6032 0 fold 
4444 53424 8000 100 check 
1111 1236 11 0 fold 
2222 1600 5 100 fold 
6666 4328 4109 100 check 
total pot: 300 
/inquire 
recv from player 6666: check
send inquire msg to player 2222 
inquire/ 
6666 4328 4109 100 check 
7777 804 6032 0 fold 
4444 53424 8000 100 check 
1111 1236 11 0 fold 
2222 1600 5 100 fold 
total pot: 300 
/inquire 
send inquire msg to player 1111 
inquire/ 
2222 1600 5 100 fold 
6666 4328 4109 100 check 
7777 804 6032 0 fold 
4444 53424 8000 100 check 
1111 1236 11 0 fold 
total pot: 300 
/inquire 
send inquire msg to player 4444 
inquire/ 
1111 1236 11 0 fold 
2222 1600 5 100 fold 
6666 4328 4109 100 check 
7777 804 6032 0 fold 
4444 53424 8000 100 check 
total pot: 300 
/inquire 
recv from player 4444: check

---show down---
showdown/ 
common/ 
CLUBS K 
CLUBS 2 
DIAMONDS Q 
DIAMONDS 7 
SPADES 5 
/common 
1: 6666 CLUBS Q CLUBS 6 ONE_PAIR 
2: 4444 HEARTS 6 SPADES 6 ONE_PAIR 
/showdown 

---Allocate pot---
pot-win/ 
6666: 300 
/pot-win 
it is player 6666's turn to be button

-----88 Hand-----

----- clean player data in socket -----
seat/ 
button: 6666 4628 4109 
small blind: 2222 1600 5 
big blind: 1111 1236 11 
4444 53424 8000 
7777 804 6032 
/seat 
blind/ 
2222: 50 
1111: 100 
/blind 
player 2222:hold/ 
HEARTS 3 
CLUBS 5 
/hold 
player 1111:hold/ 
HEARTS 4 
DIAMONDS K 
/hold 
player 4444:hold/ 
CLUBS Q 
SPADES 5 
/hold 
player 7777:hold/ 
DIAMONDS Q 
HEARTS J 
/hold 
player 6666:hold/ 
HEARTS 2 
SPADES 4 
/hold 

---pre flop round bet---
valid player: 5, all in player: 0, fold player: 0
send inquire msg to player 4444 
inquire/ 
1111 1136 11 100 blind 
2222 1550 5 50 blind 
total pot: 150 
/inquire 
recv from player 4444: check
send inquire msg to player 7777 
inquire/ 
4444 53324 8000 100 call 
1111 1136 11 100 blind 
2222 1550 5 50 blind 
total pot: 250 
/inquire 
recv from player 7777: check
send inquire msg to player 6666 
inquire/ 
7777 704 6032 100 call 
4444 53324 8000 100 call 
1111 1136 11 100 blind 
2222 1550 5 50 blind 
total pot: 350 
/inquire 
recv from player 6666: fold
send inquire msg to player 2222 
inquire/ 
6666 4628 4109 0 fold 
7777 704 6032 100 call 
4444 53324 8000 100 call 
1111 1136 11 100 blind 
2222 1550 5 50 blind 
total pot: 350 
/inquire 
recv from player 2222: check
send inquire msg to player 1111 
inquire/ 
2222 1500 5 100 call 
6666 4628 4109 0 fold 
7777 704 6032 100 call 
4444 53324 8000 100 call 
1111 1136 11 100 blind 
total pot: 400 
/inquire 
recv from player 1111: fold
flop/ 
CLUBS 6 
CLUBS 2 
HEARTS Q 
/flop 

---flop round bet---
valid player: 5, all in player: 0, fold player: 2
send inquire msg to player 2222 
inquire/ 
6666 4628 4109 0 fold 
7777 704 6032 100 call 
4444 53324 8000 100 call 
1111 1136 11 100 fold 
2222 1500 5 100 call 
total pot: 400 
/inquire 
recv from player 2222: fold
send inquire msg to player 1111 
inquire/ 
2222 1500 5 100 fold 
6666 4628 4109 0 fold 
7777 704 6032 100 call 
4444 53324 8000 100 call 
1111 1136 11 100 fold 
total pot: 400 
/inquire 
send inquire msg to player 4444 
inquire/ 
1111 1136 11 100 fold 
2222 1500 5 100 fold 
6666 4628 4109 0 fold 
7777 704 6032 100 call 
4444 53324 8000 100 call 
total pot: 400 
/inquire 
recv from player 4444: check
send inquire msg to player 7777 
inquire/ 
4444 53324 8000 100 check 
1111 1136 11 100 fold 
2222 1500 5 100 fold 
6666 4628 4109 0 fold 
7777 704 6032 100 call 
total pot: 400 
/inquire 
recv from player 7777: check
turn/ 
SPADES 8 
/turn 

---turn round bet---
valid player: 5, all in player: 0, fold player: 3
send inquire msg to player 2222 
inquire/ 
6666 4628 4109 0 fold 
7777 704 6032 100 check 
4444 53324 8000 100 check 
1111 1136 11 100 fold 
2222 1500 5 100 fold 
total pot: 400 
/inquire 
send inquire msg to player 1111 
inquire/ 
2222 1500 5 100 fold 
6666 4628 4109 0 fold 
7777 704 6032 100 check 
4444 53324 8000 100 check 
1111 1136 11 100 fold 
total pot: 400 
/inquire 
send inquire msg to player 4444 
inquire/ 
1111 1136 11 100 fold 
2222 1500 5 100 fold 
6666 4628 4109 0 fold 
7777 704 6032 100 check 
4444 53324 8000 100 check 
total pot: 400 
/inquire 
recv from player 4444: check
send inquire msg to player 7777 
inquire/ 
4444 53324 8000 100 check 
1111 1136 11 100 fold 
2222 1500 5 100 fold 
6666 4628 4109 0 fold 
7777 704 6032 100 check 
total pot: 400 
/inquire 
recv from player 7777: check
river/ 
DIAMONDS 9 
/river 

---river round bet---
valid player: 5, all in player: 0, fold player: 3
send inquire msg to player 2222 
inquire/ 
6666 4628 4109 0 fold 
7777 704 6032 100 check 
4444 53324 8000 100 check 
1111 1136 11 100 fold 
2222 1500 5 100 fold 
total pot: 400 
/inquire 
send inquire msg to player 1111 
inquire/ 
2222 1500 5 100 fold 
6666 4628 4109 0 fold 
7777 704 6032 100 check 
4444 53324 8000 100 check 
1111 1136 11 100 fold 
total pot: 400 
/inquire 
send inquire msg to player 4444 
inquire/ 
1111 1136 11 100 fold 
2222 1500 5 100 fold 
6666 4628 4109 0 fold 
7777 704 6032 100 check 
4444 53324 8000 100 check 
total pot: 400 
/inquire 
recv from player 4444: check
send inquire msg to player 7777 
inquire/ 
4444 53324 8000 100 check 
1111 1136 11 100 fold 
2222 1500 5 100 fold 
6666 4628 4109 0 fold 
7777 704 6032 100 check 
total pot: 400 
/inquire 
recv from player 7777: check

---show down---
showdown/ 
common/ 
CLUBS 6 
CLUBS 2 
HEARTS Q 
SPADES 8 
DIAMONDS 9 
/common 
2: 4444 CLUBS Q SPADES 5 ONE_PAIR 
1: 7777 DIAMONDS Q HEARTS J ONE_PAIR 
/showdown 

---Allocate pot---
pot-win/ 
7777: 400 
/pot-win 
it is player 2222's turn to be button

-----89 Hand-----

----- clean player data in socket -----
seat/ 
button: 2222 1500 5 
small blind: 1111 1136 11 
big blind: 4444 53324 8000 
7777 1104 6032 
6666 4628 4109 
/seat 
blind/ 
1111: 50 
4444: 100 
/blind 
player 1111:hold/ 
DIAMONDS 6 
HEARTS J 
/hold 
player 4444:hold/ 
SPADES 2 
CLUBS 5 
/hold 
player 7777:hold/ 
SPADES 4 
DIAMONDS Q 
/hold 
player 6666:hold/ 
DIAMONDS 7 
DIAMONDS 4 
/hold 
player 2222:hold/ 
HEARTS 10 
CLUBS 3 
/hold 

---pre flop round bet---
valid player: 5, all in player: 0, fold player: 0
send inquire msg to player 7777 
inquire/ 
4444 53224 8000 100 blind 
1111 1086 11 50 blind 
total pot: 150 
/inquire 
recv from player 7777: fold
send inquire msg to player 6666 
inquire/ 
7777 1104 6032 0 fold 
4444 53224 8000 100 blind 
1111 1086 11 50 blind 
total pot: 150 
/inquire 
recv from player 6666: check
send inquire msg to player 2222 
inquire/ 
6666 4528 4109 100 call 
7777 1104 6032 0 fold 
4444 53224 8000 100 blind 
1111 1086 11 50 blind 
total pot: 250 
/inquire 
recv from player 2222: fold
send inquire msg to player 1111 
inquire/ 
2222 1500 5 0 fold 
6666 4528 4109 100 call 
7777 1104 6032 0 fold 
4444 53224 8000 100 blind 
1111 1086 11 50 blind 
total pot: 250 
/inquire 
recv from player 1111: check
send inquire msg to player 4444 
inquire/ 
1111 1036 11 100 call 
2222 1500 5 0 fold 
6666 4528 4109 100 call 
7777 1104 6032 0 fold 
4444 53224 8000 100 blind 
total pot: 300 
/inquire 
recv from player 4444: check
flop/ 
CLUBS 9 
DIAMONDS 8 
HEARTS K 
/flop 

---flop round bet---
valid player: 5, all in player: 0, fold player: 2
send inquire msg to player 1111 
inquire/ 
2222 1500 5 0 fold 
6666 4528 4109 100 call 
7777 1104 6032 0 fold 
4444 53224 8000 100 check 
1111 1036 11 100 call 
total pot: 300 
/inquire 
recv from player 1111: fold
send inquire msg to player 4444 
inquire/ 
1111 1036 11 100 fold 
2222 1500 5 0 fold 
6666 4528 4109 100 call 
7777 1104 6032 0 fold 
4444 53224 8000 100 check 
total pot: 300 
/inquire 
recv from player 4444: check
send inquire msg to player 7777 
inquire/ 
4444 53224 8000 100 check 
1111 1036 11 100 fold 
2222 1500 5 0 fold 
6666 4528 4109 100 call 
7777 1104 6032 0 fold 
total pot: 300 
/inquire 
send inquire msg to player 6666 
inquire/ 
7777 1104 6032 0 fold 
4444 53224 8000 100 check 
1111 1036 11 100 fold 
2222 1500 5 0 fold 
6666 4528 4109 100 call 
total pot: 300 
/inquire 
recv from player 6666: check
turn/ 
SPADES 7 
/turn 

---turn round bet---
valid player: 5, all in player: 0, fold player: 3
send inquire msg to player 1111 
inquire/ 
2222 1500 5 0 fold 
6666 4528 4109 100 check 
7777 1104 6032 0 fold 
4444 53224 8000 100 check 
1111 1036 11 100 fold 
total pot: 300 
/inquire 
send inquire msg to player 4444 
inquire/ 
1111 1036 11 100 fold 
2222 1500 5 0 fold 
6666 4528 4109 100 check 
7777 1104 6032 0 fold 
4444 53224 8000 100 check 
total pot: 300 
/inquire 
recv from player 4444: check
send inquire msg to player 7777 
inquire/ 
4444 53224 8000 100 check 
1111 1036 11 100 fold 
2222 1500 5 0 fold 
6666 4528 4109 100 check 
7777 1104 6032 0 fold 
total pot: 300 
/inquire 
send inquire msg to player 6666 
inquire/ 
7777 1104 6032 0 fold 
4444 53224 8000 100 check 
1111 1036 11 100 fold 
2222 1500 5 0 fold 
6666 4528 4109 100 check 
total pot: 300 
/inquire 
recv from player 6666: check
river/ 
CLUBS 2 
/river 

---river round bet---
valid player: 5, all in player: 0, fold player: 3
send inquire msg to player 1111 
inquire/ 
2222 1500 5 0 fold 
6666 4528 4109 100 check 
7777 1104 6032 0 fold 
4444 53224 8000 100 check 
1111 1036 11 100 fold 
total pot: 300 
/inquire 
send inquire msg to player 4444 
inquire/ 
1111 1036 11 100 fold 
2222 1500 5 0 fold 
6666 4528 4109 100 check 
7777 1104 6032 0 fold 
4444 53224 8000 100 check 
total pot: 300 
/inquire 
recv from player 4444: check
send inquire msg to player 7777 
inquire/ 
4444 53224 8000 100 check 
1111 1036 11 100 fold 
2222 1500 5 0 fold 
6666 4528 4109 100 check 
7777 1104 6032 0 fold 
total pot: 300 
/inquire 
send inquire msg to player 6666 
inquire/ 
7777 1104 6032 0 fold 
4444 53224 8000 100 check 
1111 1036 11 100 fold 
2222 1500 5 0 fold 
6666 4528 4109 100 check 
total pot: 300 
/inquire 
recv from player 6666: check

---show down---
showdown/ 
common/ 
CLUBS 9 
DIAMONDS 8 
HEARTS K 
SPADES 7 
CLUBS 2 
/common 
2: 4444 SPADES 2 CLUBS 5 ONE_PAIR 
1: 6666 DIAMONDS 7 DIAMONDS 4 ONE_PAIR 
/showdown 

---Allocate pot---
pot-win/ 
6666: 300 
/pot-win 
it is player 1111's turn to be button

-----90 Hand-----

----- clean player data in socket -----
seat/ 
button: 1111 1036 11 
small blind: 4444 53224 8000 
big blind: 7777 1104 6032 
6666 4828 4109 
2222 1500 5 
/seat 
blind/ 
4444: 50 
7777: 100 
/blind 
player 4444:hold/ 
SPADES 8 
CLUBS Q 
/hold 
player 7777:hold/ 
CLUBS 7 
CLUBS 5 
/hold 
player 6666:hold/ 
CLUBS 9 
CLUBS 4 
/hold 
player 2222:hold/ 
HEARTS Q 
DIAMONDS 4 
/hold 
player 1111:hold/ 
DIAMONDS 10 
SPADES K 
/hold 

---pre flop round bet---
valid player: 5, all in player: 0, fold player: 0
send inquire msg to player 6666 
inquire/ 
7777 1004 6032 100 blind 
4444 53174 8000 50 blind 
total pot: 150 
/inquire 
recv from player 6666: check
send inquire msg to player 2222 
inquire/ 
6666 4728 4109 100 call 
7777 1004 6032 100 blind 
4444 53174 8000 50 blind 
total pot: 250 
/inquire 
recv from player 2222: fold
send inquire msg to player 1111 
inquire/ 
2222 1500 5 0 fold 
6666 4728 4109 100 call 
7777 1004 6032 100 blind 
4444 53174 8000 50 blind 
total pot: 250 
/inquire 
recv from player 1111: fold
send inquire msg to player 4444 
inquire/ 
1111 1036 11 0 fold 
2222 1500 5 0 fold 
6666 4728 4109 100 call 
7777 1004 6032 100 blind 
4444 53174 8000 50 blind 
total pot: 250 
/inquire 
recv from player 4444: check
send inquire msg to player 7777 
inquire/ 
4444 53124 8000 100 call 
1111 1036 11 0 fold 
2222 1500 5 0 fold 
6666 4728 4109 100 call 
7777 1004 6032 100 blind 
total pot: 300 
/inquire 
recv from player 7777: check
flop/ 
HEARTS 8 
DIAMONDS A 
DIAMONDS 9 
/flop 

---flop round bet---
valid player: 5, all in player: 0, fold player: 2
send inquire msg to player 4444 
inquire/ 
1111 1036 11 0 fold 
2222 1500 5 0 fold 
6666 4728 4109 100 call 
7777 1004 6032 100 check 
4444 53124 8000 100 call 
total pot: 300 
/inquire 
recv from player 4444: raise 144
send inquire msg to player 7777 
inquire/ 
4444 52980 8000 244 raise 
1111 1036 11 0 fold 
2222 1500 5 0 fold 
6666 4728 4109 100 call 
7777 1004 6032 100 check 
total pot: 444 
/inquire 
recv from player 7777: fold
send inquire msg to player 6666 
inquire/ 
7777 1004 6032 100 fold 
4444 52980 8000 244 raise 
1111 1036 11 0 fold 
2222 1500 5 0 fold 
6666 4728 4109 100 call 
total pot: 444 
/inquire 
recv from player 6666: check
turn/ 
DIAMONDS J 
/turn 

---turn round bet---
valid player: 5, all in player: 0, fold player: 3
send inquire msg to player 4444 
inquire/ 
1111 1036 11 0 fold 
2222 1500 5 0 fold 
6666 4584 4109 244 call 
7777 1004 6032 100 fold 
4444 52980 8000 244 raise 
total pot: 588 
/inquire 
recv from player 4444: check
send inquire msg to player 7777 
inquire/ 
4444 52980 8000 244 check 
1111 1036 11 0 fold 
2222 1500 5 0 fold 
6666 4584 4109 244 call 
7777 1004 6032 100 fold 
total pot: 588 
/inquire 
send inquire msg to player 6666 
inquire/ 
7777 1004 6032 100 fold 
4444 52980 8000 244 check 
1111 1036 11 0 fold 
2222 1500 5 0 fold 
6666 4584 4109 244 call 
total pot: 588 
/inquire 
recv from player 6666: check
river/ 
CLUBS K 
/river 

---river round bet---
valid player: 5, all in player: 0, fold player: 3
send inquire msg to player 4444 
inquire/ 
1111 1036 11 0 fold 
2222 1500 5 0 fold 
6666 4584 4109 244 check 
7777 1004 6032 100 fold 
4444 52980 8000 244 check 
total pot: 588 
/inquire 
recv from player 4444: check
send inquire msg to player 7777 
inquire/ 
4444 52980 8000 244 check 
1111 1036 11 0 fold 
2222 1500 5 0 fold 
6666 4584 4109 244 check 
7777 1004 6032 100 fold 
total pot: 588 
/inquire 
send inquire msg to player 6666 
inquire/ 
7777 1004 6032 100 fold 
4444 52980 8000 244 check 
1111 1036 11 0 fold 
2222 1500 5 0 fold 
6666 4584 4109 244 check 
total pot: 588 
/inquire 
recv from player 6666: check

---show down---
showdown/ 
common/ 
HEARTS 8 
DIAMONDS A 
DIAMONDS 9 
DIAMONDS J 
CLUBS K 
/common 
2: 4444 SPADES 8 CLUBS Q ONE_PAIR 
1: 6666 CLUBS 9 CLUBS 4 ONE_PAIR 
/showdown 

---Allocate pot---
pot-win/ 
6666: 588 
/pot-win 
it is player 4444's turn to be button

-----91 Hand-----

----- clean player data in socket -----
seat/ 
button: 4444 52980 8000 
small blind: 7777 1004 6032 
big blind: 6666 5172 4109 
2222 1500 5 
1111 1036 11 
/seat 
blind/ 
7777: 50 
6666: 100 
/blind 
player 7777:hold/ 
HEARTS 10 
CLUBS 8 
/hold 
player 6666:hold/ 
SPADES J 
CLUBS J 
/hold 
player 2222:hold/ 
CLUBS 4 
DIAMONDS 10 
/hold 
player 1111:hold/ 
DIAMONDS K 
SPADES 8 
/hold 
player 4444:hold/ 
CLUBS K 
CLUBS 2 
/hold 

---pre flop round bet---
valid player: 5, all in player: 0, fold player: 0
send inquire msg to player 2222 
inquire/ 
6666 5072 4109 100 blind 
7777 954 6032 50 blind 
total pot: 150 
/inquire 
recv from player 2222: fold
send inquire msg to player 1111 
inquire/ 
2222 1500 5 0 fold 
6666 5072 4109 100 blind 
7777 954 6032 50 blind 
total pot: 150 
/inquire 
recv from player 1111: fold
send inquire msg to player 4444 
inquire/ 
1111 1036 11 0 fold 
2222 1500 5 0 fold 
6666 5072 4109 100 blind 
7777 954 6032 50 blind 
total pot: 150 
/inquire 
recv from player 4444: fold
send inquire msg to player 7777 
inquire/ 
4444 52980 8000 0 fold 
1111 1036 11 0 fold 
2222 1500 5 0 fold 
6666 5072 4109 100 blind 
7777 954 6032 50 blind 
total pot: 150 
/inquire 
recv from player 7777: check
send inquire msg to player 6666 
inquire/ 
7777 904 6032 100 call 
4444 52980 8000 0 fold 
1111 1036 11 0 fold 
2222 1500 5 0 fold 
6666 5072 4109 100 blind 
total pot: 200 
/inquire 
recv from player 6666: check
flop/ 
SPADES Q 
HEARTS J 
DIAMONDS 2 
/flop 

---flop round bet---
valid player: 5, all in player: 0, fold player: 3
send inquire msg to player 7777 
inquire/ 
4444 52980 8000 0 fold 
1111 1036 11 0 fold 
2222 1500 5 0 fold 
6666 5072 4109 100 check 
7777 904 6032 100 call 
total pot: 200 
/inquire 
recv from player 7777: check
send inquire msg to player 6666 
inquire/ 
7777 904 6032 100 check 
4444 52980 8000 0 fold 
1111 1036 11 0 fold 
2222 1500 5 0 fold 
6666 5072 4109 100 check 
total pot: 200 
/inquire 
recv from player 6666: check
turn/ 
SPADES 6 
/turn 

---turn round bet---
valid player: 5, all in player: 0, fold player: 3
send inquire msg to player 7777 
inquire/ 
4444 52980 8000 0 fold 
1111 1036 11 0 fold 
2222 1500 5 0 fold 
6666 5072 4109 100 check 
7777 904 6032 100 check 
total pot: 200 
/inquire 
recv from player 7777: check
send inquire msg to player 6666 
inquire/ 
7777 904 6032 100 check 
4444 52980 8000 0 fold 
1111 1036 11 0 fold 
2222 1500 5 0 fold 
6666 5072 4109 100 check 
total pot: 200 
/inquire 
recv from player 6666: check
river/ 
CLUBS 10 
/river 

---river round bet---
valid player: 5, all in player: 0, fold player: 3
send inquire msg to player 7777 
inquire/ 
4444 52980 8000 0 fold 
1111 1036 11 0 fold 
2222 1500 5 0 fold 
6666 5072 4109 100 check 
7777 904 6032 100 check 
total pot: 200 
/inquire 
recv from player 7777: check
send inquire msg to player 6666 
inquire/ 
7777 904 6032 100 check 
4444 52980 8000 0 fold 
1111 1036 11 0 fold 
2222 1500 5 0 fold 
6666 5072 4109 100 check 
total pot: 200 
/inquire 
recv from player 6666: check

---show down---
showdown/ 
common/ 
SPADES Q 
HEARTS J 
DIAMONDS 2 
SPADES 6 
CLUBS 10 
/common 
2: 7777 HEARTS 10 CLUBS 8 ONE_PAIR 
1: 6666 SPADES J CLUBS J THREE_OF_A_KIND 
/showdown 

---Allocate pot---
pot-win/ 
6666: 200 
/pot-win 
it is player 7777's turn to be button

-----92 Hand-----

----- clean player data in socket -----
seat/ 
button: 7777 904 6032 
small blind: 6666 5272 4109 
big blind: 2222 1500 5 
1111 1036 11 
4444 52980 8000 
/seat 
blind/ 
6666: 50 
2222: 100 
/blind 
player 6666:hold/ 
DIAMONDS A 
SPADES 6 
/hold 
player 2222:hold/ 
DIAMONDS J 
HEARTS 8 
/hold 
player 1111:hold/ 
CLUBS 2 
HEARTS 5 
/hold 
player 4444:hold/ 
CLUBS 5 
SPADES 4 
/hold 
player 7777:hold/ 
HEARTS J 
DIAMONDS 2 
/hold 

---pre flop round bet---
valid player: 5, all in player: 0, fold player: 0
send inquire msg to player 1111 
inquire/ 
2222 1400 5 100 blind 
6666 5222 4109 50 blind 
total pot: 150 
/inquire 
recv from player 1111: check
send inquire msg to player 4444 
inquire/ 
1111 936 11 100 call 
2222 1400 5 100 blind 
6666 5222 4109 50 blind 
total pot: 250 
/inquire 
recv from player 4444: raise 599
send inquire msg to player 7777 
inquire/ 
4444 52281 8000 699 raise 
1111 936 11 100 call 
2222 1400 5 100 blind 
6666 5222 4109 50 blind 
total pot: 949 
/inquire 
recv from player 7777: fold
send inquire msg to player 6666 
inquire/ 
7777 904 6032 0 fold 
4444 52281 8000 699 raise 
1111 936 11 100 call 
2222 1400 5 100 blind 
6666 5222 4109 50 blind 
total pot: 949 
/inquire 
recv from player 6666: check
send inquire msg to player 2222 
inquire/ 
6666 4573 4109 699 call 
7777 904 6032 0 fold 
4444 52281 8000 699 raise 
1111 936 11 100 call 
2222 1400 5 100 blind 
total pot: 1598 
/inquire 
recv from player 2222: fold
send inquire msg to player 1111 
inquire/ 
2222 1400 5 100 fold 
6666 4573 4109 699 call 
7777 904 6032 0 fold 
4444 52281 8000 699 raise 
1111 936 11 100 call 
total pot: 1598 
/inquire 
recv from player 1111: check
flop/ 
CLUBS J 
SPADES A 
CLUBS 9 
/flop 

---flop round bet---
valid player: 5, all in player: 0, fold player: 2
send inquire msg to player 6666 
inquire/ 
7777 904 6032 0 fold 
4444 52281 8000 699 raise 
1111 337 11 699 call 
2222 1400 5 100 fold 
6666 4573 4109 699 call 
total pot: 2197 
/inquire 
recv from player 6666: raise 534
send inquire msg to player 2222 
inquire/ 
6666 4039 4109 1233 raise 
7777 904 6032 0 fold 
4444 52281 8000 699 raise 
1111 337 11 699 call 
2222 1400 5 100 fold 
total pot: 2731 
/inquire 
send inquire msg to player 1111 
inquire/ 
2222 1400 5 100 fold 
6666 4039 4109 1233 raise 
7777 904 6032 0 fold 
4444 52281 8000 699 raise 
1111 337 11 699 call 
total pot: 2731 
/inquire 
recv from player 1111: fold
send inquire msg to player 4444 
inquire/ 
1111 337 11 699 fold 
2222 1400 5 100 fold 
6666 4039 4109 1233 raise 
7777 904 6032 0 fold 
4444 52281 8000 699 raise 
total pot: 2731 
/inquire 
recv from player 4444: fold

---turn round bet---
valid player: 5, all in player: 0, fold player: 4

---river round bet---
valid player: 5, all in player: 0, fold player: 4

--- 1 players not fold, don't need show down---

---Allocate pot---
Only player at seat 0 not fold, win all the pot 2731
pot-win/ 
6666: 2731 
/pot-win 
it is player 6666's turn to be button

-----93 Hand-----

----- clean player data in socket -----
seat/ 
button: 6666 6770 4109 
small blind: 2222 1400 5 
big blind: 1111 337 11 
4444 52281 8000 
7777 904 6032 
/seat 
blind/ 
2222: 50 
1111: 100 
/blind 
player 2222:hold/ 
SPADES 7 
SPADES 8 
/hold 
player 1111:hold/ 
DIAMONDS 9 
CLUBS Q 
/hold 
player 4444:hold/ 
CLUBS K 
DIAMONDS 8 
/hold 
player 7777:hold/ 
SPADES 9 
HEARTS 6 
/hold 
player 6666:hold/ 
HEARTS 2 
HEARTS 8 
/hold 

---pre flop round bet---
valid player: 5, all in player: 0, fold player: 0
send inquire msg to player 4444 
inquire/ 
1111 237 11 100 blind 
2222 1350 5 50 blind 
total pot: 150 
/inquire 
recv from player 4444: raise 2555
send inquire msg to player 7777 
inquire/ 
4444 49626 8000 2655 raise 
1111 237 11 100 blind 
2222 1350 5 50 blind 
total pot: 2805 
/inquire 
recv from player 7777: fold
send inquire msg to player 6666 
inquire/ 
7777 904 6032 0 fold 
4444 49626 8000 2655 raise 
1111 237 11 100 blind 
2222 1350 5 50 blind 
total pot: 2805 
/inquire 
recv from player 6666: fold
send inquire msg to player 2222 
inquire/ 
6666 6770 4109 0 fold 
7777 904 6032 0 fold 
4444 49626 8000 2655 raise 
1111 237 11 100 blind 
2222 1350 5 50 blind 
total pot: 2805 
/inquire 
recv from player 2222: fold
send inquire msg to player 1111 
inquire/ 
2222 1350 5 50 fold 
6666 6770 4109 0 fold 
7777 904 6032 0 fold 
4444 49626 8000 2655 raise 
1111 237 11 100 blind 
total pot: 2805 
/inquire 
recv from player 1111: fold

---flop round bet---
valid player: 5, all in player: 0, fold player: 4

---turn round bet---
valid player: 5, all in player: 0, fold player: 4

---river round bet---
valid player: 5, all in player: 0, fold player: 4

--- 1 players not fold, don't need show down---

---Allocate pot---
Only player at seat 2 not fold, win all the pot 2805
pot-win/ 
4444: 2805 
/pot-win 
it is player 2222's turn to be button

-----94 Hand-----

----- clean player data in socket -----
seat/ 
button: 2222 1350 5 
small blind: 1111 237 11 
big blind: 4444 52431 8000 
7777 904 6032 
6666 6770 4109 
/seat 
blind/ 
1111: 50 
4444: 100 
/blind 
player 1111:hold/ 
DIAMONDS 7 
CLUBS 7 
/hold 
player 4444:hold/ 
SPADES 3 
SPADES Q 
/hold 
player 7777:hold/ 
CLUBS 6 
SPADES 4 
/hold 
player 6666:hold/ 
HEARTS K 
SPADES 6 
/hold 
player 2222:hold/ 
DIAMONDS Q 
CLUBS J 
/hold 

---pre flop round bet---
valid player: 5, all in player: 0, fold player: 0
send inquire msg to player 7777 
inquire/ 
4444 52331 8000 100 blind 
1111 187 11 50 blind 
total pot: 150 
/inquire 
recv from player 7777: fold
send inquire msg to player 6666 
inquire/ 
7777 904 6032 0 fold 
4444 52331 8000 100 blind 
1111 187 11 50 blind 
total pot: 150 
/inquire 
recv from player 6666: raise 160
send inquire msg to player 2222 
inquire/ 
6666 6510 4109 260 raise 
7777 904 6032 0 fold 
4444 52331 8000 100 blind 
1111 187 11 50 blind 
total pot: 410 
/inquire 
recv from player 2222: fold
send inquire msg to player 1111 
inquire/ 
2222 1350 5 0 fold 
6666 6510 4109 260 raise 
7777 904 6032 0 fold 
4444 52331 8000 100 blind 
1111 187 11 50 blind 
total pot: 410 
/inquire 
recv from player 1111: fold
send inquire msg to player 4444 
inquire/ 
1111 187 11 50 fold 
2222 1350 5 0 fold 
6666 6510 4109 260 raise 
7777 904 6032 0 fold 
4444 52331 8000 100 blind 
total pot: 410 
/inquire 
recv from player 4444: check
flop/ 
HEARTS 4 
SPADES 5 
HEARTS 8 
/flop 

---flop round bet---
valid player: 5, all in player: 0, fold player: 3
send inquire msg to player 1111 
inquire/ 
2222 1350 5 0 fold 
6666 6510 4109 260 raise 
7777 904 6032 0 fold 
4444 52171 8000 260 call 
1111 187 11 50 fold 
total pot: 570 
/inquire 
send inquire msg to player 4444 
inquire/ 
1111 187 11 50 fold 
2222 1350 5 0 fold 
6666 6510 4109 260 raise 
7777 904 6032 0 fold 
4444 52171 8000 260 call 
total pot: 570 
/inquire 
recv from player 4444: check
send inquire msg to player 7777 
inquire/ 
4444 52171 8000 260 check 
1111 187 11 50 fold 
2222 1350 5 0 fold 
6666 6510 4109 260 raise 
7777 904 6032 0 fold 
total pot: 570 
/inquire 
send inquire msg to player 6666 
inquire/ 
7777 904 6032 0 fold 
4444 52171 8000 260 check 
1111 187 11 50 fold 
2222 1350 5 0 fold 
6666 6510 4109 260 raise 
total pot: 570 
/inquire 
recv from player 6666: check
turn/ 
SPADES 9 
/turn 

---turn round bet---
valid player: 5, all in player: 0, fold player: 3
send inquire msg to player 1111 
inquire/ 
2222 1350 5 0 fold 
6666 6510 4109 260 check 
7777 904 6032 0 fold 
4444 52171 8000 260 check 
1111 187 11 50 fold 
total pot: 570 
/inquire 
send inquire msg to player 4444 
inquire/ 
1111 187 11 50 fold 
2222 1350 5 0 fold 
6666 6510 4109 260 check 
7777 904 6032 0 fold 
4444 52171 8000 260 check 
total pot: 570 
/inquire 
recv from player 4444: check
send inquire msg to player 7777 
inquire/ 
4444 52171 8000 260 check 
1111 187 11 50 fold 
2222 1350 5 0 fold 
6666 6510 4109 260 check 
7777 904 6032 0 fold 
total pot: 570 
/inquire 
send inquire msg to player 6666 
inquire/ 
7777 904 6032 0 fold 
4444 52171 8000 260 check 
1111 187 11 50 fold 
2222 1350 5 0 fold 
6666 6510 4109 260 check 
total pot: 570 
/inquire 
recv from player 6666: check
river/ 
CLUBS 10 
/river 

---river round bet---
valid player: 5, all in player: 0, fold player: 3
send inquire msg to player 1111 
inquire/ 
2222 1350 5 0 fold 
6666 6510 4109 260 check 
7777 904 6032 0 fold 
4444 52171 8000 260 check 
1111 187 11 50 fold 
total pot: 570 
/inquire 
send inquire msg to player 4444 
inquire/ 
1111 187 11 50 fold 
2222 1350 5 0 fold 
6666 6510 4109 260 check 
7777 904 6032 0 fold 
4444 52171 8000 260 check 
total pot: 570 
/inquire 
recv from player 4444: check
send inquire msg to player 7777 
inquire/ 
4444 52171 8000 260 check 
1111 187 11 50 fold 
2222 1350 5 0 fold 
6666 6510 4109 260 check 
7777 904 6032 0 fold 
total pot: 570 
/inquire 
send inquire msg to player 6666 
inquire/ 
7777 904 6032 0 fold 
4444 52171 8000 260 check 
1111 187 11 50 fold 
2222 1350 5 0 fold 
6666 6510 4109 260 check 
total pot: 570 
/inquire 
recv from player 6666: check

---show down---
showdown/ 
common/ 
HEARTS 4 
SPADES 5 
HEARTS 8 
SPADES 9 
CLUBS 10 
/common 
2: 4444 SPADES 3 SPADES Q HIGH_CARD 
1: 6666 HEARTS K SPADES 6 HIGH_CARD 
/showdown 

---Allocate pot---
pot-win/ 
6666: 570 
/pot-win 
it is player 1111's turn to be button

-----95 Hand-----

----- clean player data in socket -----
seat/ 
button: 1111 187 11 
small blind: 4444 52171 8000 
big blind: 7777 904 6032 
6666 7080 4109 
2222 1350 5 
/seat 
blind/ 
4444: 50 
7777: 100 
/blind 
player 4444:hold/ 
HEARTS 5 
HEARTS 9 
/hold 
player 7777:hold/ 
DIAMONDS J 
SPADES 2 
/hold 
player 6666:hold/ 
DIAMONDS 5 
SPADES 8 
/hold 
player 2222:hold/ 
SPADES Q 
CLUBS 9 
/hold 
player 1111:hold/ 
HEARTS 8 
SPADES J 
/hold 

---pre flop round bet---
valid player: 5, all in player: 0, fold player: 0
send inquire msg to player 6666 
inquire/ 
7777 804 6032 100 blind 
4444 52121 8000 50 blind 
total pot: 150 
/inquire 
recv from player 6666: check
send inquire msg to player 2222 
inquire/ 
6666 6980 4109 100 call 
7777 804 6032 100 blind 
4444 52121 8000 50 blind 
total pot: 250 
/inquire 
recv from player 2222: fold
send inquire msg to player 1111 
inquire/ 
2222 1350 5 0 fold 
6666 6980 4109 100 call 
7777 804 6032 100 blind 
4444 52121 8000 50 blind 
total pot: 250 
/inquire 
recv from player 1111: check
send inquire msg to player 4444 
inquire/ 
1111 87 11 100 call 
2222 1350 5 0 fold 
6666 6980 4109 100 call 
7777 804 6032 100 blind 
4444 52121 8000 50 blind 
total pot: 350 
/inquire 
recv from player 4444: check
send inquire msg to player 7777 
inquire/ 
4444 52071 8000 100 call 
1111 87 11 100 call 
2222 1350 5 0 fold 
6666 6980 4109 100 call 
7777 804 6032 100 blind 
total pot: 400 
/inquire 
recv from player 7777: check
flop/ 
CLUBS K 
SPADES 6 
DIAMONDS 9 
/flop 

---flop round bet---
valid player: 5, all in player: 0, fold player: 1
send inquire msg to player 4444 
inquire/ 
1111 87 11 100 call 
2222 1350 5 0 fold 
6666 6980 4109 100 call 
7777 804 6032 100 check 
4444 52071 8000 100 call 
total pot: 400 
/inquire 
recv from player 4444: raise 2826
send inquire msg to player 7777 
inquire/ 
4444 49245 8000 2926 raise 
1111 87 11 100 call 
2222 1350 5 0 fold 
6666 6980 4109 100 call 
7777 804 6032 100 check 
total pot: 3226 
/inquire 
recv from player 7777: fold
send inquire msg to player 6666 
inquire/ 
7777 804 6032 100 fold 
4444 49245 8000 2926 raise 
1111 87 11 100 call 
2222 1350 5 0 fold 
6666 6980 4109 100 call 
total pot: 3226 
/inquire 
recv from player 6666: fold
send inquire msg to player 2222 
inquire/ 
6666 6980 4109 100 fold 
7777 804 6032 100 fold 
4444 49245 8000 2926 raise 
1111 87 11 100 call 
2222 1350 5 0 fold 
total pot: 3226 
/inquire 
send inquire msg to player 1111 
inquire/ 
2222 1350 5 0 fold 
6666 6980 4109 100 fold 
7777 804 6032 100 fold 
4444 49245 8000 2926 raise 
1111 87 11 100 call 
total pot: 3226 
/inquire 
recv from player 1111: check
turn/ 
CLUBS 8 
/turn 

---turn round bet---
valid player: 5, all in player: 1, fold player: 3
river/ 
CLUBS 3 
/river 

---river round bet---
valid player: 5, all in player: 1, fold player: 3

---show down---
showdown/ 
common/ 
CLUBS K 
SPADES 6 
DIAMONDS 9 
CLUBS 8 
CLUBS 3 
/common 
1: 4444 HEARTS 5 HEARTS 9 ONE_PAIR 
2: 1111 HEARTS 8 SPADES J ONE_PAIR 
/showdown 

---Allocate pot---
pot-win/ 
4444: 3313 
/pot-win 
it is player 4444's turn to be button

-----96 Hand-----

----- clean player data in socket -----
seat/ 
button: 4444 52558 8000 
small blind: 7777 804 6032 
big blind: 6666 6980 4109 
2222 1350 5 
/seat 
blind/ 
7777: 50 
6666: 100 
/blind 
player 7777:hold/ 
DIAMONDS Q 
DIAMONDS 2 
/hold 
player 6666:hold/ 
DIAMONDS 10 
HEARTS Q 
/hold 
player 2222:hold/ 
DIAMONDS A 
HEARTS K 
/hold 
player 4444:hold/ 
SPADES 8 
CLUBS 4 
/hold 

---pre flop round bet---
valid player: 4, all in player: 0, fold player: 0
send inquire msg to player 2222 
inquire/ 
6666 6880 4109 100 blind 
7777 754 6032 50 blind 
total pot: 150 
/inquire 
recv from player 2222: fold
send inquire msg to player 4444 
inquire/ 
2222 1350 5 0 fold 
6666 6880 4109 100 blind 
7777 754 6032 50 blind 
total pot: 150 
/inquire 
recv from player 4444: fold
send inquire msg to player 7777 
inquire/ 
4444 52558 8000 0 fold 
2222 1350 5 0 fold 
6666 6880 4109 100 blind 
7777 754 6032 50 blind 
total pot: 150 
/inquire 
recv from player 7777: check
send inquire msg to player 6666 
inquire/ 
7777 704 6032 100 call 
4444 52558 8000 0 fold 
2222 1350 5 0 fold 
6666 6880 4109 100 blind 
total pot: 200 
/inquire 
recv from player 6666: check
flop/ 
HEARTS 5 
DIAMONDS K 
DIAMONDS 3 
/flop 

---flop round bet---
valid player: 4, all in player: 0, fold player: 2
send inquire msg to player 7777 
inquire/ 
4444 52558 8000 0 fold 
2222 1350 5 0 fold 
6666 6880 4109 100 check 
7777 704 6032 100 call 
total pot: 200 
/inquire 
recv from player 7777: check
send inquire msg to player 6666 
inquire/ 
7777 704 6032 100 check 
4444 52558 8000 0 fold 
2222 1350 5 0 fold 
6666 6880 4109 100 check 
total pot: 200 
/inquire 
recv from player 6666: check
turn/ 
DIAMONDS 5 
/turn 

---turn round bet---
valid player: 4, all in player: 0, fold player: 2
send inquire msg to player 7777 
inquire/ 
4444 52558 8000 0 fold 
2222 1350 5 0 fold 
6666 6880 4109 100 check 
7777 704 6032 100 check 
total pot: 200 
/inquire 
recv from player 7777: check
send inquire msg to player 6666 
inquire/ 
7777 704 6032 100 check 
4444 52558 8000 0 fold 
2222 1350 5 0 fold 
6666 6880 4109 100 check 
total pot: 200 
/inquire 
recv from player 6666: check
river/ 
DIAMONDS 4 
/river 

---river round bet---
valid player: 4, all in player: 0, fold player: 2
send inquire msg to player 7777 
inquire/ 
4444 52558 8000 0 fold 
2222 1350 5 0 fold 
6666 6880 4109 100 check 
7777 704 6032 100 check 
total pot: 200 
/inquire 
recv from player 7777: check
send inquire msg to player 6666 
inquire/ 
7777 704 6032 100 check 
4444 52558 8000 0 fold 
2222 1350 5 0 fold 
6666 6880 4109 100 check 
total pot: 200 
/inquire 
recv from player 6666: check

---show down---
showdown/ 
common/ 
HEARTS 5 
DIAMONDS K 
DIAMONDS 3 
DIAMONDS 5 
DIAMONDS 4 
/common 
1: 7777 DIAMONDS Q DIAMONDS 2 FLUSH 
2: 6666 DIAMONDS 10 HEARTS Q FLUSH 
/showdown 

---Allocate pot---
pot-win/ 
7777: 200 
/pot-win 
it is player 7777's turn to be button

-----97 Hand-----

----- clean player data in socket -----
seat/ 
button: 7777 904 6032 
small blind: 6666 6880 4109 
big blind: 2222 1350 5 
4444 52558 8000 
/seat 
blind/ 
6666: 50 
2222: 100 
/blind 
player 6666:hold/ 
CLUBS 8 
CLUBS Q 
/hold 
player 2222:hold/ 
DIAMONDS J 
HEARTS A 
/hold 
player 4444:hold/ 
CLUBS 9 
SPADES 5 
/hold 
player 7777:hold/ 
HEARTS 7 
SPADES 10 
/hold 

---pre flop round bet---
valid player: 4, all in player: 0, fold player: 0
send inquire msg to player 4444 
inquire/ 
2222 1250 5 100 blind 
6666 6830 4109 50 blind 
total pot: 150 
/inquire 
recv from player 4444: fold
send inquire msg to player 7777 
inquire/ 
4444 52558 8000 0 fold 
2222 1250 5 100 blind 
6666 6830 4109 50 blind 
total pot: 150 
/inquire 
recv from player 7777: fold
send inquire msg to player 6666 
inquire/ 
7777 904 6032 0 fold 
4444 52558 8000 0 fold 
2222 1250 5 100 blind 
6666 6830 4109 50 blind 
total pot: 150 
/inquire 
recv from player 6666: check
send inquire msg to player 2222 
inquire/ 
6666 6780 4109 100 call 
7777 904 6032 0 fold 
4444 52558 8000 0 fold 
2222 1250 5 100 blind 
total pot: 200 
/inquire 
recv from player 2222: check
flop/ 
SPADES 6 
CLUBS 4 
CLUBS 5 
/flop 

---flop round bet---
valid player: 4, all in player: 0, fold player: 2
send inquire msg to player 6666 
inquire/ 
7777 904 6032 0 fold 
4444 52558 8000 0 fold 
2222 1250 5 100 check 
6666 6780 4109 100 call 
total pot: 200 
/inquire 
recv from player 6666: check
send inquire msg to player 2222 
inquire/ 
6666 6780 4109 100 check 
7777 904 6032 0 fold 
4444 52558 8000 0 fold 
2222 1250 5 100 check 
total pot: 200 
/inquire 
recv from player 2222: fold

---turn round bet---
valid player: 4, all in player: 0, fold player: 3

---river round bet---
valid player: 4, all in player: 0, fold player: 3

--- 1 players not fold, don't need show down---

---Allocate pot---
Only player at seat 0 not fold, win all the pot 200
pot-win/ 
6666: 200 
/pot-win 
it is player 6666's turn to be button

-----98 Hand-----

----- clean player data in socket -----
seat/ 
button: 6666 6980 4109 
small blind: 2222 1250 5 
big blind: 4444 52558 8000 
7777 904 6032 
/seat 
blind/ 
2222: 50 
4444: 100 
/blind 
player 2222:hold/ 
CLUBS 5 
SPADES 6 
/hold 
player 4444:hold/ 
SPADES 3 
CLUBS J 
/hold 
player 7777:hold/ 
DIAMONDS 3 
DIAMONDS J 
/hold 
player 6666:hold/ 
HEARTS 7 
DIAMONDS 7 
/hold 

---pre flop round bet---
valid player: 4, all in player: 0, fold player: 0
send inquire msg to player 7777 
inquire/ 
4444 52458 8000 100 blind 
2222 1200 5 50 blind 
total pot: 150 
/inquire 
recv from player 7777: fold
send inquire msg to player 6666 
inquire/ 
7777 904 6032 0 fold 
4444 52458 8000 100 blind 
2222 1200 5 50 blind 
total pot: 150 
/inquire 
recv from player 6666: check
send inquire msg to player 2222 
inquire/ 
6666 6880 4109 100 call 
7777 904 6032 0 fold 
4444 52458 8000 100 blind 
2222 1200 5 50 blind 
total pot: 250 
/inquire 
recv from player 2222: fold
send inquire msg to player 4444 
inquire/ 
2222 1200 5 50 fold 
6666 6880 4109 100 call 
7777 904 6032 0 fold 
4444 52458 8000 100 blind 
total pot: 250 
/inquire 
recv from player 4444: check
flop/ 
CLUBS K 
CLUBS A 
HEARTS Q 
/flop 

---flop round bet---
valid player: 4, all in player: 0, fold player: 2
send inquire msg to player 2222 
inquire/ 
6666 6880 4109 100 call 
7777 904 6032 0 fold 
4444 52458 8000 100 check 
2222 1200 5 50 fold 
total pot: 250 
/inquire 
send inquire msg to player 4444 
inquire/ 
2222 1200 5 50 fold 
6666 6880 4109 100 call 
7777 904 6032 0 fold 
4444 52458 8000 100 check 
total pot: 250 
/inquire 
recv from player 4444: check
send inquire msg to player 7777 
inquire/ 
4444 52458 8000 100 check 
2222 1200 5 50 fold 
6666 6880 4109 100 call 
7777 904 6032 0 fold 
total pot: 250 
/inquire 
send inquire msg to player 6666 
inquire/ 
7777 904 6032 0 fold 
4444 52458 8000 100 check 
2222 1200 5 50 fold 
6666 6880 4109 100 call 
total pot: 250 
/inquire 
recv from player 6666: check
turn/ 
CLUBS 8 
/turn 

---turn round bet---
valid player: 4, all in player: 0, fold player: 2
send inquire msg to player 2222 
inquire/ 
6666 6880 4109 100 check 
7777 904 6032 0 fold 
4444 52458 8000 100 check 
2222 1200 5 50 fold 
total pot: 250 
/inquire 
send inquire msg to player 4444 
inquire/ 
2222 1200 5 50 fold 
6666 6880 4109 100 check 
7777 904 6032 0 fold 
4444 52458 8000 100 check 
total pot: 250 
/inquire 
recv from player 4444: check
send inquire msg to player 7777 
inquire/ 
4444 52458 8000 100 check 
2222 1200 5 50 fold 
6666 6880 4109 100 check 
7777 904 6032 0 fold 
total pot: 250 
/inquire 
send inquire msg to player 6666 
inquire/ 
7777 904 6032 0 fold 
4444 52458 8000 100 check 
2222 1200 5 50 fold 
6666 6880 4109 100 check 
total pot: 250 
/inquire 
recv from player 6666: check
river/ 
DIAMONDS K 
/river 

---river round bet---
valid player: 4, all in player: 0, fold player: 2
send inquire msg to player 2222 
inquire/ 
6666 6880 4109 100 check 
7777 904 6032 0 fold 
4444 52458 8000 100 check 
2222 1200 5 50 fold 
total pot: 250 
/inquire 
send inquire msg to player 4444 
inquire/ 
2222 1200 5 50 fold 
6666 6880 4109 100 check 
7777 904 6032 0 fold 
4444 52458 8000 100 check 
total pot: 250 
/inquire 
recv from player 4444: check
send inquire msg to player 7777 
inquire/ 
4444 52458 8000 100 check 
2222 1200 5 50 fold 
6666 6880 4109 100 check 
7777 904 6032 0 fold 
total pot: 250 
/inquire 
send inquire msg to player 6666 
inquire/ 
7777 904 6032 0 fold 
4444 52458 8000 100 check 
2222 1200 5 50 fold 
6666 6880 4109 100 check 
total pot: 250 
/inquire 
recv from player 6666: check

---show down---
showdown/ 
common/ 
CLUBS K 
CLUBS A 
HEARTS Q 
CLUBS 8 
DIAMONDS K 
/common 
2: 4444 SPADES 3 CLUBS J ONE_PAIR 
1: 6666 HEARTS 7 DIAMONDS 7 TWO_PAIR 
/showdown 

---Allocate pot---
pot-win/ 
6666: 250 
/pot-win 
it is player 2222's turn to be button

-----99 Hand-----

----- clean player data in socket -----
seat/ 
button: 2222 1200 5 
small blind: 4444 52458 8000 
big blind: 7777 904 6032 
6666 7130 4109 
/seat 
blind/ 
4444: 50 
7777: 100 
/blind 
player 4444:hold/ 
HEARTS 9 
HEARTS 4 
/hold 
player 7777:hold/ 
SPADES 4 
DIAMONDS 6 
/hold 
player 6666:hold/ 
HEARTS 3 
DIAMONDS 7 
/hold 
player 2222:hold/ 
CLUBS 9 
SPADES 10 
/hold 

---pre flop round bet---
valid player: 4, all in player: 0, fold player: 0
send inquire msg to player 6666 
inquire/ 
7777 804 6032 100 blind 
4444 52408 8000 50 blind 
total pot: 150 
/inquire 
recv from player 6666: fold
send inquire msg to player 2222 
inquire/ 
6666 7130 4109 0 fold 
7777 804 6032 100 blind 
4444 52408 8000 50 blind 
total pot: 150 
/inquire 
recv from player 2222: check
send inquire msg to player 4444 
inquire/ 
2222 1100 5 100 call 
6666 7130 4109 0 fold 
7777 804 6032 100 blind 
4444 52408 8000 50 blind 
total pot: 250 
/inquire 
recv from player 4444: check
send inquire msg to player 7777 
inquire/ 
4444 52358 8000 100 call 
2222 1100 5 100 call 
6666 7130 4109 0 fold 
7777 804 6032 100 blind 
total pot: 300 
/inquire 
recv from player 7777: check
flop/ 
CLUBS A 
SPADES 9 
SPADES 5 
/flop 

---flop round bet---
valid player: 4, all in player: 0, fold player: 1
send inquire msg to player 4444 
inquire/ 
2222 1100 5 100 call 
6666 7130 4109 0 fold 
7777 804 6032 100 check 
4444 52358 8000 100 call 
total pot: 300 
/inquire 
recv from player 4444: check
send inquire msg to player 7777 
inquire/ 
4444 52358 8000 100 check 
2222 1100 5 100 call 
6666 7130 4109 0 fold 
7777 804 6032 100 check 
total pot: 300 
/inquire 
recv from player 7777: check
send inquire msg to player 6666 
inquire/ 
7777 804 6032 100 check 
4444 52358 8000 100 check 
2222 1100 5 100 call 
6666 7130 4109 0 fold 
total pot: 300 
/inquire 
send inquire msg to player 2222 
inquire/ 
6666 7130 4109 0 fold 
7777 804 6032 100 check 
4444 52358 8000 100 check 
2222 1100 5 100 call 
total pot: 300 
/inquire 
recv from player 2222: check
turn/ 
CLUBS J 
/turn 

---turn round bet---
valid player: 4, all in player: 0, fold player: 1
send inquire msg to player 4444 
inquire/ 
2222 1100 5 100 check 
6666 7130 4109 0 fold 
7777 804 6032 100 check 
4444 52358 8000 100 check 
total pot: 300 
/inquire 
recv from player 4444: check
send inquire msg to player 7777 
inquire/ 
4444 52358 8000 100 check 
2222 1100 5 100 check 
6666 7130 4109 0 fold 
7777 804 6032 100 check 
total pot: 300 
/inquire 
recv from player 7777: check
send inquire msg to player 6666 
inquire/ 
7777 804 6032 100 check 
4444 52358 8000 100 check 
2222 1100 5 100 check 
6666 7130 4109 0 fold 
total pot: 300 
/inquire 
send inquire msg to player 2222 
inquire/ 
6666 7130 4109 0 fold 
7777 804 6032 100 check 
4444 52358 8000 100 check 
2222 1100 5 100 check 
total pot: 300 
/inquire 
recv from player 2222: fold
river/ 
DIAMONDS J 
/river 

---river round bet---
valid player: 4, all in player: 0, fold player: 2
send inquire msg to player 4444 
inquire/ 
2222 1100 5 100 fold 
6666 7130 4109 0 fold 
7777 804 6032 100 check 
4444 52358 8000 100 check 
total pot: 300 
/inquire 
recv from player 4444: check
send inquire msg to player 7777 
inquire/ 
4444 52358 8000 100 check 
2222 1100 5 100 fold 
6666 7130 4109 0 fold 
7777 804 6032 100 check 
total pot: 300 
/inquire 
recv from player 7777: check

---show down---
showdown/ 
common/ 
CLUBS A 
SPADES 9 
SPADES 5 
CLUBS J 
DIAMONDS J 
/common 
1: 4444 HEARTS 9 HEARTS 4 TWO_PAIR 
2: 7777 SPADES 4 DIAMONDS 6 ONE_PAIR 
/showdown 

---Allocate pot---
pot-win/ 
4444: 300 
/pot-win 
it is player 4444's turn to be button

-----100 Hand-----

----- clean player data in socket -----
seat/ 
button: 4444 52658 8000 
small blind: 7777 804 6032 
big blind: 6666 7130 4109 
2222 1100 5 
/seat 
blind/ 
7777: 50 
6666: 100 
/blind 
player 7777:hold/ 
SPADES A 
DIAMONDS Q 
/hold 
player 6666:hold/ 
HEARTS 7 
DIAMONDS 7 
/hold 
player 2222:hold/ 
DIAMONDS 9 
DIAMONDS 4 
/hold 
player 4444:hold/ 
DIAMONDS K 
SPADES 5 
/hold 

---pre flop round bet---
valid player: 4, all in player: 0, fold player: 0
send inquire msg to player 2222 
inquire/ 
6666 7030 4109 100 blind 
7777 754 6032 50 blind 
total pot: 150 
/inquire 
recv from player 2222: check
send inquire msg to player 4444 
inquire/ 
2222 1000 5 100 call 
6666 7030 4109 100 blind 
7777 754 6032 50 blind 
total pot: 250 
/inquire 
recv from player 4444: raise 836
send inquire msg to player 7777 
inquire/ 
4444 51722 8000 936 raise 
2222 1000 5 100 call 
6666 7030 4109 100 blind 
7777 754 6032 50 blind 
total pot: 1186 
/inquire 
recv from player 7777: fold
send inquire msg to player 6666 
inquire/ 
7777 754 6032 50 fold 
4444 51722 8000 936 raise 
2222 1000 5 100 call 
6666 7030 4109 100 blind 
total pot: 1186 
/inquire 
recv from player 6666: check
send inquire msg to player 2222 
inquire/ 
6666 6194 4109 936 call 
7777 754 6032 50 fold 
4444 51722 8000 936 raise 
2222 1000 5 100 call 
total pot: 2022 
/inquire 
recv from player 2222: fold
flop/ 
HEARTS 5 
SPADES 3 
CLUBS Q 
/flop 

---flop round bet---
valid player: 4, all in player: 0, fold player: 2
send inquire msg to player 7777 
inquire/ 
4444 51722 8000 936 raise 
2222 1000 5 100 fold 
6666 6194 4109 936 call 
7777 754 6032 50 fold 
total pot: 2022 
/inquire 
send inquire msg to player 6666 
inquire/ 
7777 754 6032 50 fold 
4444 51722 8000 936 raise 
2222 1000 5 100 fold 
6666 6194 4109 936 call 
total pot: 2022 
/inquire 
recv from player 6666: check
send inquire msg to player 2222 
inquire/ 
6666 6194 4109 936 check 
7777 754 6032 50 fold 
4444 51722 8000 936 raise 
2222 1000 5 100 fold 
total pot: 2022 
/inquire 
send inquire msg to player 4444 
inquire/ 
2222 1000 5 100 fold 
6666 6194 4109 936 check 
7777 754 6032 50 fold 
4444 51722 8000 936 raise 
total pot: 2022 
/inquire 
recv from player 4444: check
turn/ 
CLUBS 4 
/turn 

---turn round bet---
valid player: 4, all in player: 0, fold player: 2
send inquire msg to player 7777 
inquire/ 
4444 51722 8000 936 check 
2222 1000 5 100 fold 
6666 6194 4109 936 check 
7777 754 6032 50 fold 
total pot: 2022 
/inquire 
send inquire msg to player 6666 
inquire/ 
7777 754 6032 50 fold 
4444 51722 8000 936 check 
2222 1000 5 100 fold 
6666 6194 4109 936 check 
total pot: 2022 
/inquire 
recv from player 6666: check
send inquire msg to player 2222 
inquire/ 
6666 6194 4109 936 check 
7777 754 6032 50 fold 
4444 51722 8000 936 check 
2222 1000 5 100 fold 
total pot: 2022 
/inquire 
send inquire msg to player 4444 
inquire/ 
2222 1000 5 100 fold 
6666 6194 4109 936 check 
7777 754 6032 50 fold 
4444 51722 8000 936 check 
total pot: 2022 
/inquire 
recv from player 4444: check
river/ 
CLUBS J 
/river 

---river round bet---
valid player: 4, all in player: 0, fold player: 2
send inquire msg to player 7777 
inquire/ 
4444 51722 8000 936 check 
2222 1000 5 100 fold 
6666 6194 4109 936 check 
7777 754 6032 50 fold 
total pot: 2022 
/inquire 
send inquire msg to player 6666 
inquire/ 
7777 754 6032 50 fold 
4444 51722 8000 936 check 
2222 1000 5 100 fold 
6666 6194 4109 936 check 
total pot: 2022 
/inquire 
recv from player 6666: check
send inquire msg to player 2222 
inquire/ 
6666 6194 4109 936 check 
7777 754 6032 50 fold 
4444 51722 8000 936 check 
2222 1000 5 100 fold 
total pot: 2022 
/inquire 
send inquire msg to player 4444 
inquire/ 
2222 1000 5 100 fold 
6666 6194 4109 936 check 
7777 754 6032 50 fold 
4444 51722 8000 936 check 
total pot: 2022 
/inquire 
recv from player 4444: check

---show down---
showdown/ 
common/ 
HEARTS 5 
SPADES 3 
CLUBS Q 
CLUBS 4 
CLUBS J 
/common 
1: 6666 HEARTS 7 DIAMONDS 7 ONE_PAIR 
2: 4444 DIAMONDS K SPADES 5 ONE_PAIR 
/showdown 

---Allocate pot---
pot-win/ 
6666: 2022 
/pot-win 
it is player 7777's turn to be button

-----101 Hand-----

----- clean player data in socket -----
seat/ 
button: 7777 754 6032 
small blind: 6666 8216 4109 
big blind: 2222 1000 5 
4444 51722 8000 
/seat 
blind/ 
6666: 50 
2222: 100 
/blind 
player 6666:hold/ 
SPADES 9 
SPADES 6 
/hold 
player 2222:hold/ 
SPADES 3 
CLUBS 7 
/hold 
player 4444:hold/ 
HEARTS 9 
DIAMONDS 3 
/hold 
player 7777:hold/ 
HEARTS 10 
CLUBS 3 
/hold 

---pre flop round bet---
valid player: 4, all in player: 0, fold player: 0
send inquire msg to player 4444 
inquire/ 
2222 900 5 100 blind 
6666 8166 4109 50 blind 
total pot: 150 
/inquire 
recv from player 4444: fold
send inquire msg to player 7777 
inquire/ 
4444 51722 8000 0 fold 
2222 900 5 100 blind 
6666 8166 4109 50 blind 
total pot: 150 
/inquire 
recv from player 7777: fold
send inquire msg to player 6666 
inquire/ 
7777 754 6032 0 fold 
4444 51722 8000 0 fold 
2222 900 5 100 blind 
6666 8166 4109 50 blind 
total pot: 150 
/inquire 
recv from player 6666: check
send inquire msg to player 2222 
inquire/ 
6666 8116 4109 100 call 
7777 754 6032 0 fold 
4444 51722 8000 0 fold 
2222 900 5 100 blind 
total pot: 200 
/inquire 
recv from player 2222: check
flop/ 
DIAMONDS 6 
HEARTS J 
HEARTS 4 
/flop 

---flop round bet---
valid player: 4, all in player: 0, fold player: 2
send inquire msg to player 6666 
inquire/ 
7777 754 6032 0 fold 
4444 51722 8000 0 fold 
2222 900 5 100 check 
6666 8116 4109 100 call 
total pot: 200 
/inquire 
recv from player 6666: check
send inquire msg to player 2222 
inquire/ 
6666 8116 4109 100 check 
7777 754 6032 0 fold 
4444 51722 8000 0 fold 
2222 900 5 100 check 
total pot: 200 
/inquire 
recv from player 2222: check
turn/ 
CLUBS J 
/turn 

---turn round bet---
valid player: 4, all in player: 0, fold player: 2
send inquire msg to player 6666 
inquire/ 
7777 754 6032 0 fold 
4444 51722 8000 0 fold 
2222 900 5 100 check 
6666 8116 4109 100 check 
total pot: 200 
/inquire 
recv from player 6666: check
send inquire msg to player 2222 
inquire/ 
6666 8116 4109 100 check 
7777 754 6032 0 fold 
4444 51722 8000 0 fold 
2222 900 5 100 check 
total pot: 200 
/inquire 
recv from player 2222: check
river/ 
CLUBS 5 
/river 

---river round bet---
valid player: 4, all in player: 0, fold player: 2
send inquire msg to player 6666 
inquire/ 
7777 754 6032 0 fold 
4444 51722 8000 0 fold 
2222 900 5 100 check 
6666 8116 4109 100 check 
total pot: 200 
/inquire 
recv from player 6666: check
send inquire msg to player 2222 
inquire/ 
6666 8116 4109 100 check 
7777 754 6032 0 fold 
4444 51722 8000 0 fold 
2222 900 5 100 check 
total pot: 200 
/inquire 
recv from player 2222: check

---show down---
showdown/ 
common/ 
DIAMONDS 6 
HEARTS J 
HEARTS 4 
CLUBS J 
CLUBS 5 
/common 
2: 6666 SPADES 9 SPADES 6 TWO_PAIR 
1: 2222 SPADES 3 CLUBS 7 STRAIGHT 
/showdown 

---Allocate pot---
pot-win/ 
2222: 200 
/pot-win 
it is player 6666's turn to be button

-----102 Hand-----

----- clean player data in socket -----
seat/ 
button: 6666 8116 4109 
small blind: 2222 1100 5 
big blind: 4444 51722 8000 
7777 754 6032 
/seat 
blind/ 
2222: 50 
4444: 100 
/blind 
player 2222:hold/ 
SPADES 3 
DIAMONDS 6 
/hold 
player 4444:hold/ 
CLUBS K 
HEARTS 4 
/hold 
player 7777:hold/ 
SPADES 6 
CLUBS 3 
/hold 
player 6666:hold/ 
DIAMONDS J 
SPADES 5 
/hold 

---pre flop round bet---
valid player: 4, all in player: 0, fold player: 0
send inquire msg to player 7777 
inquire/ 
4444 51622 8000 100 blind 
2222 1050 5 50 blind 
total pot: 150 
/inquire 
recv from player 7777: fold
send inquire msg to player 6666 
inquire/ 
7777 754 6032 0 fold 
4444 51622 8000 100 blind 
2222 1050 5 50 blind 
total pot: 150 
/inquire 
recv from player 6666: fold
send inquire msg to player 2222 
inquire/ 
6666 8116 4109 0 fold 
7777 754 6032 0 fold 
4444 51622 8000 100 blind 
2222 1050 5 50 blind 
total pot: 150 
/inquire 
recv from player 2222: check
send inquire msg to player 4444 
inquire/ 
2222 1000 5 100 call 
6666 8116 4109 0 fold 
7777 754 6032 0 fold 
4444 51622 8000 100 blind 
total pot: 200 
/inquire 
recv from player 4444: check
flop/ 
SPADES Q 
HEARTS 3 
DIAMONDS A 
/flop 

---flop round bet---
valid player: 4, all in player: 0, fold player: 2
send inquire msg to player 2222 
inquire/ 
6666 8116 4109 0 fold 
7777 754 6032 0 fold 
4444 51622 8000 100 check 
2222 1000 5 100 call 
total pot: 200 
/inquire 
recv from player 2222: fold
send inquire msg to player 4444 
inquire/ 
2222 1000 5 100 fold 
6666 8116 4109 0 fold 
7777 754 6032 0 fold 
4444 51622 8000 100 check 
total pot: 200 
/inquire 
recv from player 4444: check

---turn round bet---
valid player: 4, all in player: 0, fold player: 3

---river round bet---
valid player: 4, all in player: 0, fold player: 3

--- 1 players not fold, don't need show down---

---Allocate pot---
Only player at seat 1 not fold, win all the pot 200
pot-win/ 
4444: 200 
/pot-win 
it is player 2222's turn to be button

-----103 Hand-----

----- clean player data in socket -----
seat/ 
button: 2222 1000 5 
small blind: 4444 51822 8000 
big blind: 7777 754 6032 
6666 8116 4109 
/seat 
blind/ 
4444: 50 
7777: 100 
/blind 
player 4444:hold/ 
SPADES K 
HEARTS 10 
/hold 
player 7777:hold/ 
CLUBS 4 
SPADES Q 
/hold 
player 6666:hold/ 
CLUBS 2 
SPADES 2 
/hold 
player 2222:hold/ 
HEARTS 2 
SPADES 4 
/hold 

---pre flop round bet---
valid player: 4, all in player: 0, fold player: 0
send inquire msg to player 6666 
inquire/ 
7777 654 6032 100 blind 
4444 51772 8000 50 blind 
total pot: 150 
/inquire 
recv from player 6666: check
send inquire msg to player 2222 
inquire/ 
6666 8016 4109 100 call 
7777 654 6032 100 blind 
4444 51772 8000 50 blind 
total pot: 250 
/inquire 
recv from player 2222: fold
send inquire msg to player 4444 
inquire/ 
2222 1000 5 0 fold 
6666 8016 4109 100 call 
7777 654 6032 100 blind 
4444 51772 8000 50 blind 
total pot: 250 
/inquire 
recv from player 4444: raise 3353
send inquire msg to player 7777 
inquire/ 
4444 48369 8000 3453 raise 
2222 1000 5 0 fold 
6666 8016 4109 100 call 
7777 654 6032 100 blind 
total pot: 3653 
/inquire 
recv from player 7777: fold
send inquire msg to player 6666 
inquire/ 
7777 654 6032 100 fold 
4444 48369 8000 3453 raise 
2222 1000 5 0 fold 
6666 8016 4109 100 call 
total pot: 3653 
/inquire 
recv from player 6666: fold

---flop round bet---
valid player: 4, all in player: 0, fold player: 3

---turn round bet---
valid player: 4, all in player: 0, fold player: 3

---river round bet---
valid player: 4, all in player: 0, fold player: 3

--- 1 players not fold, don't need show down---

---Allocate pot---
Only player at seat 0 not fold, win all the pot 3653
pot-win/ 
4444: 3653 
/pot-win 
it is player 4444's turn to be button

-----104 Hand-----

----- clean player data in socket -----
seat/ 
button: 4444 52022 8000 
small blind: 7777 654 6032 
big blind: 6666 8016 4109 
2222 1000 5 
/seat 
blind/ 
7777: 50 
6666: 100 
/blind 
player 7777:hold/ 
CLUBS 10 
HEARTS 3 
/hold 
player 6666:hold/ 
CLUBS J 
SPADES 5 
/hold 
player 2222:hold/ 
DIAMONDS 2 
CLUBS 9 
/hold 
player 4444:hold/ 
SPADES 2 
DIAMONDS 10 
/hold 

---pre flop round bet---
valid player: 4, all in player: 0, fold player: 0
send inquire msg to player 2222 
inquire/ 
6666 7916 4109 100 blind 
7777 604 6032 50 blind 
total pot: 150 
/inquire 
recv from player 2222: fold
send inquire msg to player 4444 
inquire/ 
2222 1000 5 0 fold 
6666 7916 4109 100 blind 
7777 604 6032 50 blind 
total pot: 150 
/inquire 
recv from player 4444: fold
send inquire msg to player 7777 
inquire/ 
4444 52022 8000 0 fold 
2222 1000 5 0 fold 
6666 7916 4109 100 blind 
7777 604 6032 50 blind 
total pot: 150 
/inquire 
recv from player 7777: check
send inquire msg to player 6666 
inquire/ 
7777 554 6032 100 call 
4444 52022 8000 0 fold 
2222 1000 5 0 fold 
6666 7916 4109 100 blind 
total pot: 200 
/inquire 
recv from player 6666: check
flop/ 
CLUBS 6 
CLUBS 8 
CLUBS 5 
/flop 

---flop round bet---
valid player: 4, all in player: 0, fold player: 2
send inquire msg to player 7777 
inquire/ 
4444 52022 8000 0 fold 
2222 1000 5 0 fold 
6666 7916 4109 100 check 
7777 554 6032 100 call 
total pot: 200 
/inquire 
recv from player 7777: check
send inquire msg to player 6666 
inquire/ 
7777 554 6032 100 check 
4444 52022 8000 0 fold 
2222 1000 5 0 fold 
6666 7916 4109 100 check 
total pot: 200 
/inquire 
recv from player 6666: check
turn/ 
SPADES 3 
/turn 

---turn round bet---
valid player: 4, all in player: 0, fold player: 2
send inquire msg to player 7777 
inquire/ 
4444 52022 8000 0 fold 
2222 1000 5 0 fold 
6666 7916 4109 100 check 
7777 554 6032 100 check 
total pot: 200 
/inquire 
recv from player 7777: check
send inquire msg to player 6666 
inquire/ 
7777 554 6032 100 check 
4444 52022 8000 0 fold 
2222 1000 5 0 fold 
6666 7916 4109 100 check 
total pot: 200 
/inquire 
recv from player 6666: check
river/ 
SPADES A 
/river 

---river round bet---
valid player: 4, all in player: 0, fold player: 2
send inquire msg to player 7777 
inquire/ 
4444 52022 8000 0 fold 
2222 1000 5 0 fold 
6666 7916 4109 100 check 
7777 554 6032 100 check 
total pot: 200 
/inquire 
recv from player 7777: check
send inquire msg to player 6666 
inquire/ 
7777 554 6032 100 check 
4444 52022 8000 0 fold 
2222 1000 5 0 fold 
6666 7916 4109 100 check 
total pot: 200 
/inquire 
recv from player 6666: check

---show down---
showdown/ 
common/ 
CLUBS 6 
CLUBS 8 
CLUBS 5 
SPADES 3 
SPADES A 
/common 
2: 7777 CLUBS 10 HEARTS 3 ONE_PAIR 
1: 6666 CLUBS J SPADES 5 ONE_PAIR 
/showdown 

---Allocate pot---
pot-win/ 
6666: 200 
/pot-win 
it is player 7777's turn to be button

-----105 Hand-----

----- clean player data in socket -----
seat/ 
button: 7777 554 6032 
small blind: 6666 8116 4109 
big blind: 2222 1000 5 
4444 52022 8000 
/seat 
blind/ 
6666: 50 
2222: 100 
/blind 
player 6666:hold/ 
HEARTS J 
DIAMONDS K 
/hold 
player 2222:hold/ 
DIAMONDS 2 
SPADES 10 
/hold 
player 4444:hold/ 
SPADES Q 
HEARTS Q 
/hold 
player 7777:hold/ 
HEARTS A 
CLUBS 9 
/hold 

---pre flop round bet---
valid player: 4, all in player: 0, fold player: 0
send inquire msg to player 4444 
inquire/ 
2222 900 5 100 blind 
6666 8066 4109 50 blind 
total pot: 150 
/inquire 
recv from player 4444: check
send inquire msg to player 7777 
inquire/ 
4444 51922 8000 100 call 
2222 900 5 100 blind 
6666 8066 4109 50 blind 
total pot: 250 
/inquire 
recv from player 7777: fold
send inquire msg to player 6666 
inquire/ 
7777 554 6032 0 fold 
4444 51922 8000 100 call 
2222 900 5 100 blind 
6666 8066 4109 50 blind 
total pot: 250 
/inquire 
recv from player 6666: raise 592
send inquire msg to player 2222 
inquire/ 
6666 7424 4109 692 raise 
7777 554 6032 0 fold 
4444 51922 8000 100 call 
2222 900 5 100 blind 
total pot: 892 
/inquire 
recv from player 2222: fold
send inquire msg to player 4444 
inquire/ 
2222 900 5 100 fold 
6666 7424 4109 692 raise 
7777 554 6032 0 fold 
4444 51922 8000 100 call 
total pot: 892 
/inquire 
recv from player 4444: check
flop/ 
SPADES A 
SPADES 8 
CLUBS Q 
/flop 

---flop round bet---
valid player: 4, all in player: 0, fold player: 2
send inquire msg to player 6666 
inquire/ 
7777 554 6032 0 fold 
4444 51330 8000 692 call 
2222 900 5 100 fold 
6666 7424 4109 692 raise 
total pot: 1484 
/inquire 
recv from player 6666: check
send inquire msg to player 2222 
inquire/ 
6666 7424 4109 692 check 
7777 554 6032 0 fold 
4444 51330 8000 692 call 
2222 900 5 100 fold 
total pot: 1484 
/inquire 
send inquire msg to player 4444 
inquire/ 
2222 900 5 100 fold 
6666 7424 4109 692 check 
7777 554 6032 0 fold 
4444 51330 8000 692 call 
total pot: 1484 
/inquire 
recv from player 4444: check
turn/ 
DIAMONDS 5 
/turn 

---turn round bet---
valid player: 4, all in player: 0, fold player: 2
send inquire msg to player 6666 
inquire/ 
7777 554 6032 0 fold 
4444 51330 8000 692 check 
2222 900 5 100 fold 
6666 7424 4109 692 check 
total pot: 1484 
/inquire 
recv from player 6666: check
send inquire msg to player 2222 
inquire/ 
6666 7424 4109 692 check 
7777 554 6032 0 fold 
4444 51330 8000 692 check 
2222 900 5 100 fold 
total pot: 1484 
/inquire 
send inquire msg to player 4444 
inquire/ 
2222 900 5 100 fold 
6666 7424 4109 692 check 
7777 554 6032 0 fold 
4444 51330 8000 692 check 
total pot: 1484 
/inquire 
recv from player 4444: check
river/ 
CLUBS 8 
/river 

---river round bet---
valid player: 4, all in player: 0, fold player: 2
send inquire msg to player 6666 
inquire/ 
7777 554 6032 0 fold 
4444 51330 8000 692 check 
2222 900 5 100 fold 
6666 7424 4109 692 check 
total pot: 1484 
/inquire 
recv from player 6666: check
send inquire msg to player 2222 
inquire/ 
6666 7424 4109 692 check 
7777 554 6032 0 fold 
4444 51330 8000 692 check 
2222 900 5 100 fold 
total pot: 1484 
/inquire 
send inquire msg to player 4444 
inquire/ 
2222 900 5 100 fold 
6666 7424 4109 692 check 
7777 554 6032 0 fold 
4444 51330 8000 692 check 
total pot: 1484 
/inquire 
recv from player 4444: check

---show down---
showdown/ 
common/ 
SPADES A 
SPADES 8 
CLUBS Q 
DIAMONDS 5 
CLUBS 8 
/common 
2: 6666 HEARTS J DIAMONDS K ONE_PAIR 
1: 4444 SPADES Q HEARTS Q FULL_HOUSE 
/showdown 

---Allocate pot---
pot-win/ 
4444: 1484 
/pot-win 
it is player 6666's turn to be button

-----106 Hand-----

----- clean player data in socket -----
seat/ 
button: 6666 7424 4109 
small blind: 2222 900 5 
big blind: 4444 52814 8000 
7777 554 6032 
/seat 
blind/ 
2222: 50 
4444: 100 
/blind 
player 2222:hold/ 
HEARTS 4 
SPADES J 
/hold 
player 4444:hold/ 
HEARTS J 
HEARTS 7 
/hold 
player 7777:hold/ 
DIAMONDS Q 
DIAMONDS 9 
/hold 
player 6666:hold/ 
CLUBS Q 
SPADES 3 
/hold 

---pre flop round bet---
valid player: 4, all in player: 0, fold player: 0
send inquire msg to player 7777 
inquire/ 
4444 52714 8000 100 blind 
2222 850 5 50 blind 
total pot: 150 
/inquire 
recv from player 7777: check
send inquire msg to player 6666 
inquire/ 
7777 454 6032 100 call 
4444 52714 8000 100 blind 
2222 850 5 50 blind 
total pot: 250 
/inquire 
recv from player 6666: fold
send inquire msg to player 2222 
inquire/ 
6666 7424 4109 0 fold 
7777 454 6032 100 call 
4444 52714 8000 100 blind 
2222 850 5 50 blind 
total pot: 250 
/inquire 
recv from player 2222: fold
send inquire msg to player 4444 
inquire/ 
2222 850 5 50 fold 
6666 7424 4109 0 fold 
7777 454 6032 100 call 
4444 52714 8000 100 blind 
total pot: 250 
/inquire 
recv from player 4444: check
flop/ 
SPADES 10 
DIAMONDS 3 
CLUBS A 
/flop 

---flop round bet---
valid player: 4, all in player: 0, fold player: 2
send inquire msg to player 2222 
inquire/ 
6666 7424 4109 0 fold 
7777 454 6032 100 call 
4444 52714 8000 100 check 
2222 850 5 50 fold 
total pot: 250 
/inquire 
send inquire msg to player 4444 
inquire/ 
2222 850 5 50 fold 
6666 7424 4109 0 fold 
7777 454 6032 100 call 
4444 52714 8000 100 check 
total pot: 250 
/inquire 
recv from player 4444: check
send inquire msg to player 7777 
inquire/ 
4444 52714 8000 100 check 
2222 850 5 50 fold 
6666 7424 4109 0 fold 
7777 454 6032 100 call 
total pot: 250 
/inquire 
recv from player 7777: check
turn/ 
DIAMONDS K 
/turn 

---turn round bet---
valid player: 4, all in player: 0, fold player: 2
send inquire msg to player 2222 
inquire/ 
6666 7424 4109 0 fold 
7777 454 6032 100 check 
4444 52714 8000 100 check 
2222 850 5 50 fold 
total pot: 250 
/inquire 
send inquire msg to player 4444 
inquire/ 
2222 850 5 50 fold 
6666 7424 4109 0 fold 
7777 454 6032 100 check 
4444 52714 8000 100 check 
total pot: 250 
/inquire 
recv from player 4444: check
send inquire msg to player 7777 
inquire/ 
4444 52714 8000 100 check 
2222 850 5 50 fold 
6666 7424 4109 0 fold 
7777 454 6032 100 check 
total pot: 250 
/inquire 
recv from player 7777: check
river/ 
CLUBS 4 
/river 

---river round bet---
valid player: 4, all in player: 0, fold player: 2
send inquire msg to player 2222 
inquire/ 
6666 7424 4109 0 fold 
7777 454 6032 100 check 
4444 52714 8000 100 check 
2222 850 5 50 fold 
total pot: 250 
/inquire 
send inquire msg to player 4444 
inquire/ 
2222 850 5 50 fold 
6666 7424 4109 0 fold 
7777 454 6032 100 check 
4444 52714 8000 100 check 
total pot: 250 
/inquire 
recv from player 4444: check
send inquire msg to player 7777 
inquire/ 
4444 52714 8000 100 check 
2222 850 5 50 fold 
6666 7424 4109 0 fold 
7777 454 6032 100 check 
total pot: 250 
/inquire 
recv from player 7777: check

---show down---
showdown/ 
common/ 
SPADES 10 
DIAMONDS 3 
CLUBS A 
DIAMONDS K 
CLUBS 4 
/common 
2: 4444 HEARTS J HEARTS 7 HIGH_CARD 
1: 7777 DIAMONDS Q DIAMONDS 9 HIGH_CARD 
/showdown 

---Allocate pot---
pot-win/ 
7777: 250 
/pot-win 
it is player 2222's turn to be button

-----107 Hand-----

----- clean player data in socket -----
seat/ 
button: 2222 850 5 
small blind: 4444 52714 8000 
big blind: 7777 704 6032 
6666 7424 4109 
/seat 
blind/ 
4444: 50 
7777: 100 
/blind 
player 4444:hold/ 
HEARTS 2 
DIAMONDS 4 
/hold 
player 7777:hold/ 
HEARTS 10 
CLUBS 7 
/hold 
player 6666:hold/ 
HEARTS A 
SPADES K 
/hold 
player 2222:hold/ 
HEARTS 5 
DIAMONDS Q 
/hold 

---pre flop round bet---
valid player: 4, all in player: 0, fold player: 0
send inquire msg to player 6666 
inquire/ 
7777 604 6032 100 blind 
4444 52664 8000 50 blind 
total pot: 150 
/inquire 
recv from player 6666: raise 1092
send inquire msg to player 2222 
inquire/ 
6666 6232 4109 1192 raise 
7777 604 6032 100 blind 
4444 52664 8000 50 blind 
total pot: 1342 
/inquire 
recv from player 2222: fold
send inquire msg to player 4444 
inquire/ 
2222 850 5 0 fold 
6666 6232 4109 1192 raise 
7777 604 6032 100 blind 
4444 52664 8000 50 blind 
total pot: 1342 
/inquire 
recv from player 4444: fold
send inquire msg to player 7777 
inquire/ 
4444 52664 8000 50 fold 
2222 850 5 0 fold 
6666 6232 4109 1192 raise 
7777 604 6032 100 blind 
total pot: 1342 
/inquire 
recv from player 7777: fold

---flop round bet---
valid player: 4, all in player: 0, fold player: 3

---turn round bet---
valid player: 4, all in player: 0, fold player: 3

---river round bet---
valid player: 4, all in player: 0, fold player: 3

--- 1 players not fold, don't need show down---

---Allocate pot---
Only player at seat 2 not fold, win all the pot 1342
pot-win/ 
6666: 1342 
/pot-win 
it is player 4444's turn to be button

-----108 Hand-----

----- clean player data in socket -----
seat/ 
button: 4444 52664 8000 
small blind: 7777 604 6032 
big blind: 6666 7574 4109 
2222 850 5 
/seat 
blind/ 
7777: 50 
6666: 100 
/blind 
player 7777:hold/ 
SPADES 5 
DIAMONDS A 
/hold 
player 6666:hold/ 
DIAMONDS 9 
HEARTS 5 
/hold 
player 2222:hold/ 
DIAMONDS 10 
HEARTS Q 
/hold 
player 4444:hold/ 
SPADES 6 
SPADES 9 
/hold 

---pre flop round bet---
valid player: 4, all in player: 0, fold player: 0
send inquire msg to player 2222 
inquire/ 
6666 7474 4109 100 blind 
7777 554 6032 50 blind 
total pot: 150 
/inquire 
recv from player 2222: fold
send inquire msg to player 4444 
inquire/ 
2222 850 5 0 fold 
6666 7474 4109 100 blind 
7777 554 6032 50 blind 
total pot: 150 
/inquire 
recv from player 4444: fold
send inquire msg to player 7777 
inquire/ 
4444 52664 8000 0 fold 
2222 850 5 0 fold 
6666 7474 4109 100 blind 
7777 554 6032 50 blind 
total pot: 150 
/inquire 
recv from player 7777: check
send inquire msg to player 6666 
inquire/ 
7777 504 6032 100 call 
4444 52664 8000 0 fold 
2222 850 5 0 fold 
6666 7474 4109 100 blind 
total pot: 200 
/inquire 
recv from player 6666: check
flop/ 
DIAMONDS 5 
DIAMONDS 2 
CLUBS 3 
/flop 

---flop round bet---
valid player: 4, all in player: 0, fold player: 2
send inquire msg to player 7777 
inquire/ 
4444 52664 8000 0 fold 
2222 850 5 0 fold 
6666 7474 4109 100 check 
7777 504 6032 100 call 
total pot: 200 
/inquire 
recv from player 7777: check
send inquire msg to player 6666 
inquire/ 
7777 504 6032 100 check 
4444 52664 8000 0 fold 
2222 850 5 0 fold 
6666 7474 4109 100 check 
total pot: 200 
/inquire 
recv from player 6666: check
turn/ 
SPADES 2 
/turn 

---turn round bet---
valid player: 4, all in player: 0, fold player: 2
send inquire msg to player 7777 
inquire/ 
4444 52664 8000 0 fold 
2222 850 5 0 fold 
6666 7474 4109 100 check 
7777 504 6032 100 check 
total pot: 200 
/inquire 
recv from player 7777: check
send inquire msg to player 6666 
inquire/ 
7777 504 6032 100 check 
4444 52664 8000 0 fold 
2222 850 5 0 fold 
6666 7474 4109 100 check 
total pot: 200 
/inquire 
recv from player 6666: check
river/ 
HEARTS 9 
/river 

---river round bet---
valid player: 4, all in player: 0, fold player: 2
send inquire msg to player 7777 
inquire/ 
4444 52664 8000 0 fold 
2222 850 5 0 fold 
6666 7474 4109 100 check 
7777 504 6032 100 check 
total pot: 200 
/inquire 
recv from player 7777: check
send inquire msg to player 6666 
inquire/ 
7777 504 6032 100 check 
4444 52664 8000 0 fold 
2222 850 5 0 fold 
6666 7474 4109 100 check 
total pot: 200 
/inquire 
recv from player 6666: check

---show down---
showdown/ 
common/ 
DIAMONDS 5 
DIAMONDS 2 
CLUBS 3 
SPADES 2 
HEARTS 9 
/common 
2: 7777 SPADES 5 DIAMONDS A TWO_PAIR 
1: 6666 DIAMONDS 9 HEARTS 5 TWO_PAIR 
/showdown 

---Allocate pot---
pot-win/ 
6666: 200 
/pot-win 
it is player 7777's turn to be button

-----109 Hand-----

----- clean player data in socket -----
seat/ 
button: 7777 504 6032 
small blind: 6666 7674 4109 
big blind: 2222 850 5 
4444 52664 8000 
/seat 
blind/ 
6666: 50 
2222: 100 
/blind 
player 6666:hold/ 
CLUBS 7 
HEARTS A 
/hold 
player 2222:hold/ 
DIAMONDS 6 
SPADES 7 
/hold 
player 4444:hold/ 
DIAMONDS K 
CLUBS 2 
/hold 
player 7777:hold/ 
SPADES 6 
HEARTS 10 
/hold 

---pre flop round bet---
valid player: 4, all in player: 0, fold player: 0
send inquire msg to player 4444 
inquire/ 
2222 750 5 100 blind 
6666 7624 4109 50 blind 
total pot: 150 
/inquire 
recv from player 4444: fold
send inquire msg to player 7777 
inquire/ 
4444 52664 8000 0 fold 
2222 750 5 100 blind 
6666 7624 4109 50 blind 
total pot: 150 
/inquire 
recv from player 7777: fold
send inquire msg to player 6666 
inquire/ 
7777 504 6032 0 fold 
4444 52664 8000 0 fold 
2222 750 5 100 blind 
6666 7624 4109 50 blind 
total pot: 150 
/inquire 
recv from player 6666: check
send inquire msg to player 2222 
inquire/ 
6666 7574 4109 100 call 
7777 504 6032 0 fold 
4444 52664 8000 0 fold 
2222 750 5 100 blind 
total pot: 200 
/inquire 
recv from player 2222: check
flop/ 
CLUBS A 
DIAMONDS 10 
DIAMONDS A 
/flop 

---flop round bet---
valid player: 4, all in player: 0, fold player: 2
send inquire msg to player 6666 
inquire/ 
7777 504 6032 0 fold 
4444 52664 8000 0 fold 
2222 750 5 100 check 
6666 7574 4109 100 call 
total pot: 200 
/inquire 
recv from player 6666: check
send inquire msg to player 2222 
inquire/ 
6666 7574 4109 100 check 
7777 504 6032 0 fold 
4444 52664 8000 0 fold 
2222 750 5 100 check 
total pot: 200 
/inquire 
recv from player 2222: check
turn/ 
HEARTS 7 
/turn 

---turn round bet---
valid player: 4, all in player: 0, fold player: 2
send inquire msg to player 6666 
inquire/ 
7777 504 6032 0 fold 
4444 52664 8000 0 fold 
2222 750 5 100 check 
6666 7574 4109 100 check 
total pot: 200 
/inquire 
recv from player 6666: check
send inquire msg to player 2222 
inquire/ 
6666 7574 4109 100 check 
7777 504 6032 0 fold 
4444 52664 8000 0 fold 
2222 750 5 100 check 
total pot: 200 
/inquire 
recv from player 2222: fold

---river round bet---
valid player: 4, all in player: 0, fold player: 3

--- 1 players not fold, don't need show down---

---Allocate pot---
Only player at seat 0 not fold, win all the pot 200
pot-win/ 
6666: 200 
/pot-win 
it is player 6666's turn to be button

-----110 Hand-----

----- clean player data in socket -----
seat/ 
button: 6666 7774 4109 
small blind: 2222 750 5 
big blind: 4444 52664 8000 
7777 504 6032 
/seat 
blind/ 
2222: 50 
4444: 100 
/blind 
player 2222:hold/ 
SPADES 8 
DIAMONDS 8 
/hold 
player 4444:hold/ 
CLUBS 8 
HEARTS 3 
/hold 
player 7777:hold/ 
SPADES J 
DIAMONDS A 
/hold 
player 6666:hold/ 
DIAMONDS 2 
HEARTS 7 
/hold 

---pre flop round bet---
valid player: 4, all in player: 0, fold player: 0
send inquire msg to player 7777 
inquire/ 
4444 52564 8000 100 blind 
2222 700 5 50 blind 
total pot: 150 
/inquire 
recv from player 7777: check
send inquire msg to player 6666 
inquire/ 
7777 404 6032 100 call 
4444 52564 8000 100 blind 
2222 700 5 50 blind 
total pot: 250 
/inquire 
recv from player 6666: fold
send inquire msg to player 2222 
inquire/ 
6666 7774 4109 0 fold 
7777 404 6032 100 call 
4444 52564 8000 100 blind 
2222 700 5 50 blind 
total pot: 250 
/inquire 
recv from player 2222: fold
send inquire msg to player 4444 
inquire/ 
2222 700 5 50 fold 
6666 7774 4109 0 fold 
7777 404 6032 100 call 
4444 52564 8000 100 blind 
total pot: 250 
/inquire 
recv from player 4444: check
flop/ 
CLUBS 2 
SPADES 2 
DIAMONDS 10 
/flop 

---flop round bet---
valid player: 4, all in player: 0, fold player: 2
send inquire msg to player 2222 
inquire/ 
6666 7774 4109 0 fold 
7777 404 6032 100 call 
4444 52564 8000 100 check 
2222 700 5 50 fold 
total pot: 250 
/inquire 
send inquire msg to player 4444 
inquire/ 
2222 700 5 50 fold 
6666 7774 4109 0 fold 
7777 404 6032 100 call 
4444 52564 8000 100 check 
total pot: 250 
/inquire 
recv from player 4444: check
send inquire msg to player 7777 
inquire/ 
4444 52564 8000 100 check 
2222 700 5 50 fold 
6666 7774 4109 0 fold 
7777 404 6032 100 call 
total pot: 250 
/inquire 
recv from player 7777: check
turn/ 
HEARTS K 
/turn 

---turn round bet---
valid player: 4, all in player: 0, fold player: 2
send inquire msg to player 2222 
inquire/ 
6666 7774 4109 0 fold 
7777 404 6032 100 check 
4444 52564 8000 100 check 
2222 700 5 50 fold 
total pot: 250 
/inquire 
send inquire msg to player 4444 
inquire/ 
2222 700 5 50 fold 
6666 7774 4109 0 fold 
7777 404 6032 100 check 
4444 52564 8000 100 check 
total pot: 250 
/inquire 
recv from player 4444: check
send inquire msg to player 7777 
inquire/ 
4444 52564 8000 100 check 
2222 700 5 50 fold 
6666 7774 4109 0 fold 
7777 404 6032 100 check 
total pot: 250 
/inquire 
recv from player 7777: check
river/ 
DIAMONDS 3 
/river 

---river round bet---
valid player: 4, all in player: 0, fold player: 2
send inquire msg to player 2222 
inquire/ 
6666 7774 4109 0 fold 
7777 404 6032 100 check 
4444 52564 8000 100 check 
2222 700 5 50 fold 
total pot: 250 
/inquire 
send inquire msg to player 4444 
inquire/ 
2222 700 5 50 fold 
6666 7774 4109 0 fold 
7777 404 6032 100 check 
4444 52564 8000 100 check 
total pot: 250 
/inquire 
recv from player 4444: check
send inquire msg to player 7777 
inquire/ 
4444 52564 8000 100 check 
2222 700 5 50 fold 
6666 7774 4109 0 fold 
7777 404 6032 100 check 
total pot: 250 
/inquire 
recv from player 7777: check

---show down---
showdown/ 
common/ 
CLUBS 2 
SPADES 2 
DIAMONDS 10 
HEARTS K 
DIAMONDS 3 
/common 
1: 4444 CLUBS 8 HEARTS 3 TWO_PAIR 
2: 7777 SPADES J DIAMONDS A ONE_PAIR 
/showdown 

---Allocate pot---
pot-win/ 
4444: 250 
/pot-win 
it is player 2222's turn to be button

-----111 Hand-----

----- clean player data in socket -----
seat/ 
button: 2222 700 5 
small blind: 4444 52814 8000 
big blind: 7777 404 6032 
6666 7774 4109 
/seat 
blind/ 
4444: 50 
7777: 100 
/blind 
player 4444:hold/ 
DIAMONDS A 
HEARTS 2 
/hold 
player 7777:hold/ 
SPADES K 
HEARTS Q 
/hold 
player 6666:hold/ 
CLUBS 7 
CLUBS Q 
/hold 
player 2222:hold/ 
HEARTS A 
HEARTS K 
/hold 

---pre flop round bet---
valid player: 4, all in player: 0, fold player: 0
send inquire msg to player 6666 
inquire/ 
7777 304 6032 100 blind 
4444 52764 8000 50 blind 
total pot: 150 
/inquire 
recv from player 6666: raise 408
send inquire msg to player 2222 
inquire/ 
6666 7266 4109 508 raise 
7777 304 6032 100 blind 
4444 52764 8000 50 blind 
total pot: 658 
/inquire 
recv from player 2222: fold
send inquire msg to player 4444 
inquire/ 
2222 700 5 0 fold 
6666 7266 4109 508 raise 
7777 304 6032 100 blind 
4444 52764 8000 50 blind 
total pot: 658 
/inquire 
recv from player 4444: check
send inquire msg to player 7777 
inquire/ 
4444 52306 8000 508 call 
2222 700 5 0 fold 
6666 7266 4109 508 raise 
7777 304 6032 100 blind 
total pot: 1116 
/inquire 
recv from player 7777: fold
flop/ 
HEARTS 8 
HEARTS 3 
DIAMONDS 4 
/flop 

---flop round bet---
valid player: 4, all in player: 0, fold player: 2
send inquire msg to player 4444 
inquire/ 
2222 700 5 0 fold 
6666 7266 4109 508 raise 
7777 304 6032 100 fold 
4444 52306 8000 508 call 
total pot: 1116 
/inquire 
recv from player 4444: check
send inquire msg to player 7777 
inquire/ 
4444 52306 8000 508 check 
2222 700 5 0 fold 
6666 7266 4109 508 raise 
7777 304 6032 100 fold 
total pot: 1116 
/inquire 
send inquire msg to player 6666 
inquire/ 
7777 304 6032 100 fold 
4444 52306 8000 508 check 
2222 700 5 0 fold 
6666 7266 4109 508 raise 
total pot: 1116 
/inquire 
recv from player 6666: check
turn/ 
CLUBS K 
/turn 

---turn round bet---
valid player: 4, all in player: 0, fold player: 2
send inquire msg to player 4444 
inquire/ 
2222 700 5 0 fold 
6666 7266 4109 508 check 
7777 304 6032 100 fold 
4444 52306 8000 508 check 
total pot: 1116 
/inquire 
recv from player 4444: check
send inquire msg to player 7777 
inquire/ 
4444 52306 8000 508 check 
2222 700 5 0 fold 
6666 7266 4109 508 check 
7777 304 6032 100 fold 
total pot: 1116 
/inquire 
send inquire msg to player 6666 
inquire/ 
7777 304 6032 100 fold 
4444 52306 8000 508 check 
2222 700 5 0 fold 
6666 7266 4109 508 check 
total pot: 1116 
/inquire 
recv from player 6666: check
river/ 
DIAMONDS 2 
/river 

---river round bet---
valid player: 4, all in player: 0, fold player: 2
send inquire msg to player 4444 
inquire/ 
2222 700 5 0 fold 
6666 7266 4109 508 check 
7777 304 6032 100 fold 
4444 52306 8000 508 check 
total pot: 1116 
/inquire 
recv from player 4444: check
send inquire msg to player 7777 
inquire/ 
4444 52306 8000 508 check 
2222 700 5 0 fold 
6666 7266 4109 508 check 
7777 304 6032 100 fold 
total pot: 1116 
/inquire 
send inquire msg to player 6666 
inquire/ 
7777 304 6032 100 fold 
4444 52306 8000 508 check 
2222 700 5 0 fold 
6666 7266 4109 508 check 
total pot: 1116 
/inquire 
recv from player 6666: check

---show down---
showdown/ 
common/ 
HEARTS 8 
HEARTS 3 
DIAMONDS 4 
CLUBS K 
DIAMONDS 2 
/common 
1: 4444 DIAMONDS A HEARTS 2 ONE_PAIR 
2: 6666 CLUBS 7 CLUBS Q HIGH_CARD 
/showdown 

---Allocate pot---
pot-win/ 
4444: 1116 
/pot-win 
it is player 4444's turn to be button

-----112 Hand-----

----- clean player data in socket -----
seat/ 
button: 4444 53422 8000 
small blind: 7777 304 6032 
big blind: 6666 7266 4109 
2222 700 5 
/seat 
blind/ 
7777: 50 
6666: 100 
/blind 
player 7777:hold/ 
SPADES 4 
HEARTS Q 
/hold 
player 6666:hold/ 
HEARTS 9 
DIAMONDS K 
/hold 
player 2222:hold/ 
DIAMONDS J 
HEARTS 5 
/hold 
player 4444:hold/ 
CLUBS A 
SPADES 2 
/hold 

---pre flop round bet---
valid player: 4, all in player: 0, fold player: 0
send inquire msg to player 2222 
inquire/ 
6666 7166 4109 100 blind 
7777 254 6032 50 blind 
total pot: 150 
/inquire 
recv from player 2222: check
send inquire msg to player 4444 
inquire/ 
2222 600 5 100 call 
6666 7166 4109 100 blind 
7777 254 6032 50 blind 
total pot: 250 
/inquire 
recv from player 4444: raise 1103
send inquire msg to player 7777 
inquire/ 
4444 52219 8000 1203 raise 
2222 600 5 100 call 
6666 7166 4109 100 blind 
7777 254 6032 50 blind 
total pot: 1453 
/inquire 
recv from player 7777: fold
send inquire msg to player 6666 
inquire/ 
7777 254 6032 50 fold 
4444 52219 8000 1203 raise 
2222 600 5 100 call 
6666 7166 4109 100 blind 
total pot: 1453 
/inquire 
recv from player 6666: check
send inquire msg to player 2222 
inquire/ 
6666 6063 4109 1203 call 
7777 254 6032 50 fold 
4444 52219 8000 1203 raise 
2222 600 5 100 call 
total pot: 2556 
/inquire 
recv from player 2222: check
flop/ 
HEARTS 3 
DIAMONDS 3 
SPADES 6 
/flop 

---flop round bet---
valid player: 4, all in player: 1, fold player: 1
send inquire msg to player 7777 
inquire/ 
4444 52219 8000 1203 raise 
2222 0 5 700 all_in 
6666 6063 4109 1203 call 
7777 254 6032 50 fold 
total pot: 3156 
/inquire 
send inquire msg to player 6666 
inquire/ 
7777 254 6032 50 fold 
4444 52219 8000 1203 raise 
2222 0 5 700 all_in 
6666 6063 4109 1203 call 
total pot: 3156 
/inquire 
recv from player 6666: check
send inquire msg to player 2222 
inquire/ 
6666 6063 4109 1203 check 
7777 254 6032 50 fold 
4444 52219 8000 1203 raise 
2222 0 5 700 all_in 
total pot: 3156 
/inquire 
send inquire msg to player 4444 
inquire/ 
2222 0 5 700 all_in 
6666 6063 4109 1203 check 
7777 254 6032 50 fold 
4444 52219 8000 1203 raise 
total pot: 3156 
/inquire 
recv from player 4444: check
turn/ 
HEARTS K 
/turn 

---turn round bet---
valid player: 4, all in player: 1, fold player: 1
send inquire msg to player 7777 
inquire/ 
4444 52219 8000 1203 check 
2222 0 5 700 all_in 
6666 6063 4109 1203 check 
7777 254 6032 50 fold 
total pot: 3156 
/inquire 
send inquire msg to player 6666 
inquire/ 
7777 254 6032 50 fold 
4444 52219 8000 1203 check 
2222 0 5 700 all_in 
6666 6063 4109 1203 check 
total pot: 3156 
/inquire 
recv from player 6666: raise 559
send inquire msg to player 2222 
inquire/ 
6666 5504 4109 1762 raise 
7777 254 6032 50 fold 
4444 52219 8000 1203 check 
2222 0 5 700 all_in 
total pot: 3715 
/inquire 
send inquire msg to player 4444 
inquire/ 
2222 0 5 700 all_in 
6666 5504 4109 1762 raise 
7777 254 6032 50 fold 
4444 52219 8000 1203 check 
total pot: 3715 
/inquire 
recv from player 4444: check
river/ 
HEARTS 6 
/river 

---river round bet---
valid player: 4, all in player: 1, fold player: 1
send inquire msg to player 7777 
inquire/ 
4444 51660 8000 1762 call 
2222 0 5 700 all_in 
6666 5504 4109 1762 raise 
7777 254 6032 50 fold 
total pot: 4274 
/inquire 
send inquire msg to player 6666 
inquire/ 
7777 254 6032 50 fold 
4444 51660 8000 1762 call 
2222 0 5 700 all_in 
6666 5504 4109 1762 raise 
total pot: 4274 
/inquire 
recv from player 6666: check
send inquire msg to player 2222 
inquire/ 
6666 5504 4109 1762 check 
7777 254 6032 50 fold 
4444 51660 8000 1762 call 
2222 0 5 700 all_in 
total pot: 4274 
/inquire 
send inquire msg to player 4444 
inquire/ 
2222 0 5 700 all_in 
6666 5504 4109 1762 check 
7777 254 6032 50 fold 
4444 51660 8000 1762 call 
total pot: 4274 
/inquire 
recv from player 4444: check

---show down---
showdown/ 
common/ 
HEARTS 3 
DIAMONDS 3 
SPADES 6 
HEARTS K 
HEARTS 6 
/common 
1: 6666 HEARTS 9 DIAMONDS K TWO_PAIR 
3: 2222 DIAMONDS J HEARTS 5 TWO_PAIR 
2: 4444 CLUBS A SPADES 2 TWO_PAIR 
/showdown 

---Allocate pot---
pot-win/ 
6666: 4274 
/pot-win 
it is player 7777's turn to be button

-----113 Hand-----

----- clean player data in socket -----
seat/ 
button: 7777 254 6032 
small blind: 6666 9778 4109 
big blind: 4444 51660 8000 
/seat 
blind/ 
6666: 50 
4444: 100 
/blind 
player 6666:hold/ 
DIAMONDS 7 
DIAMONDS J 
/hold 
player 4444:hold/ 
SPADES 9 
SPADES 4 
/hold 
player 7777:hold/ 
DIAMONDS 3 
SPADES 2 
/hold 

---pre flop round bet---
valid player: 3, all in player: 0, fold player: 0
send inquire msg to player 7777 
inquire/ 
4444 51560 8000 100 blind 
6666 9728 4109 50 blind 
total pot: 150 
/inquire 
recv from player 7777: fold
send inquire msg to player 6666 
inquire/ 
7777 254 6032 0 fold 
4444 51560 8000 100 blind 
6666 9728 4109 50 blind 
total pot: 150 
/inquire 
recv from player 6666: check
send inquire msg to player 4444 
inquire/ 
6666 9678 4109 100 call 
7777 254 6032 0 fold 
4444 51560 8000 100 blind 
total pot: 200 
/inquire 
recv from player 4444: check
flop/ 
DIAMONDS A 
HEARTS A 
DIAMONDS 6 
/flop 

---flop round bet---
valid player: 3, all in player: 0, fold player: 1
send inquire msg to player 6666 
inquire/ 
7777 254 6032 0 fold 
4444 51560 8000 100 check 
6666 9678 4109 100 call 
total pot: 200 
/inquire 
recv from player 6666: check
send inquire msg to player 4444 
inquire/ 
6666 9678 4109 100 check 
7777 254 6032 0 fold 
4444 51560 8000 100 check 
total pot: 200 
/inquire 
recv from player 4444: check
turn/ 
SPADES 10 
/turn 

---turn round bet---
valid player: 3, all in player: 0, fold player: 1
send inquire msg to player 6666 
inquire/ 
7777 254 6032 0 fold 
4444 51560 8000 100 check 
6666 9678 4109 100 check 
total pot: 200 
/inquire 
recv from player 6666: check
send inquire msg to player 4444 
inquire/ 
6666 9678 4109 100 check 
7777 254 6032 0 fold 
4444 51560 8000 100 check 
total pot: 200 
/inquire 
recv from player 4444: check
river/ 
DIAMONDS 9 
/river 

---river round bet---
valid player: 3, all in player: 0, fold player: 1
send inquire msg to player 6666 
inquire/ 
7777 254 6032 0 fold 
4444 51560 8000 100 check 
6666 9678 4109 100 check 
total pot: 200 
/inquire 
recv from player 6666: check
send inquire msg to player 4444 
inquire/ 
6666 9678 4109 100 check 
7777 254 6032 0 fold 
4444 51560 8000 100 check 
total pot: 200 
/inquire 
recv from player 4444: check

---show down---
showdown/ 
common/ 
DIAMONDS A 
HEARTS A 
DIAMONDS 6 
SPADES 10 
DIAMONDS 9 
/common 
1: 6666 DIAMONDS 7 DIAMONDS J FLUSH 
2: 4444 SPADES 9 SPADES 4 TWO_PAIR 
/showdown 

---Allocate pot---
pot-win/ 
6666: 200 
/pot-win 
it is player 6666's turn to be button

-----114 Hand-----

----- clean player data in socket -----
seat/ 
button: 6666 9878 4109 
small blind: 4444 51560 8000 
big blind: 7777 254 6032 
/seat 
blind/ 
4444: 50 
7777: 100 
/blind 
player 4444:hold/ 
CLUBS J 
HEARTS J 
/hold 
player 7777:hold/ 
HEARTS 10 
DIAMONDS 5 
/hold 
player 6666:hold/ 
HEARTS 2 
SPADES K 
/hold 

---pre flop round bet---
valid player: 3, all in player: 0, fold player: 0
send inquire msg to player 6666 
inquire/ 
7777 154 6032 100 blind 
4444 51510 8000 50 blind 
total pot: 150 
/inquire 
recv from player 6666: fold
send inquire msg to player 4444 
inquire/ 
6666 9878 4109 0 fold 
7777 154 6032 100 blind 
4444 51510 8000 50 blind 
total pot: 150 
/inquire 
recv from player 4444: check
send inquire msg to player 7777 
inquire/ 
4444 51460 8000 100 call 
6666 9878 4109 0 fold 
7777 154 6032 100 blind 
total pot: 200 
/inquire 
recv from player 7777: check
flop/ 
CLUBS 10 
HEARTS 8 
SPADES 2 
/flop 

---flop round bet---
valid player: 3, all in player: 0, fold player: 1
send inquire msg to player 4444 
inquire/ 
6666 9878 4109 0 fold 
7777 154 6032 100 check 
4444 51460 8000 100 call 
total pot: 200 
/inquire 
recv from player 4444: check
send inquire msg to player 7777 
inquire/ 
4444 51460 8000 100 check 
6666 9878 4109 0 fold 
7777 154 6032 100 check 
total pot: 200 
/inquire 
recv from player 7777: check
turn/ 
SPADES 8 
/turn 

---turn round bet---
valid player: 3, all in player: 0, fold player: 1
send inquire msg to player 4444 
inquire/ 
6666 9878 4109 0 fold 
7777 154 6032 100 check 
4444 51460 8000 100 check 
total pot: 200 
/inquire 
recv from player 4444: check
send inquire msg to player 7777 
inquire/ 
4444 51460 8000 100 check 
6666 9878 4109 0 fold 
7777 154 6032 100 check 
total pot: 200 
/inquire 
recv from player 7777: check
river/ 
CLUBS K 
/river 

---river round bet---
valid player: 3, all in player: 0, fold player: 1
send inquire msg to player 4444 
inquire/ 
6666 9878 4109 0 fold 
7777 154 6032 100 check 
4444 51460 8000 100 check 
total pot: 200 
/inquire 
recv from player 4444: check
send inquire msg to player 7777 
inquire/ 
4444 51460 8000 100 check 
6666 9878 4109 0 fold 
7777 154 6032 100 check 
total pot: 200 
/inquire 
recv from player 7777: check

---show down---
showdown/ 
common/ 
CLUBS 10 
HEARTS 8 
SPADES 2 
SPADES 8 
CLUBS K 
/common 
1: 4444 CLUBS J HEARTS J TWO_PAIR 
2: 7777 HEARTS 10 DIAMONDS 5 TWO_PAIR 
/showdown 

---Allocate pot---
pot-win/ 
4444: 200 
/pot-win 
it is player 4444's turn to be button

-----115 Hand-----

----- clean player data in socket -----
seat/ 
button: 4444 51660 8000 
small blind: 7777 154 6032 
big blind: 6666 9878 4109 
/seat 
blind/ 
7777: 50 
6666: 100 
/blind 
player 7777:hold/ 
DIAMONDS 2 
HEARTS 6 
/hold 
player 6666:hold/ 
CLUBS A 
HEARTS 8 
/hold 
player 4444:hold/ 
CLUBS 10 
CLUBS 8 
/hold 

---pre flop round bet---
valid player: 3, all in player: 0, fold player: 0
send inquire msg to player 4444 
inquire/ 
6666 9778 4109 100 blind 
7777 104 6032 50 blind 
total pot: 150 
/inquire 
recv from player 4444: check
send inquire msg to player 7777 
inquire/ 
4444 51560 8000 100 call 
6666 9778 4109 100 blind 
7777 104 6032 50 blind 
total pot: 250 
/inquire 
recv from player 7777: fold
send inquire msg to player 6666 
inquire/ 
7777 104 6032 50 fold 
4444 51560 8000 100 call 
6666 9778 4109 100 blind 
total pot: 250 
/inquire 
recv from player 6666: check
flop/ 
CLUBS 3 
DIAMONDS 9 
DIAMONDS 7 
/flop 

---flop round bet---
valid player: 3, all in player: 0, fold player: 1
send inquire msg to player 7777 
inquire/ 
4444 51560 8000 100 call 
6666 9778 4109 100 check 
7777 104 6032 50 fold 
total pot: 250 
/inquire 
send inquire msg to player 6666 
inquire/ 
7777 104 6032 50 fold 
4444 51560 8000 100 call 
6666 9778 4109 100 check 
total pot: 250 
/inquire 
recv from player 6666: check
send inquire msg to player 4444 
inquire/ 
6666 9778 4109 100 check 
7777 104 6032 50 fold 
4444 51560 8000 100 call 
total pot: 250 
/inquire 
recv from player 4444: check
turn/ 
HEARTS J 
/turn 

---turn round bet---
valid player: 3, all in player: 0, fold player: 1
send inquire msg to player 7777 
inquire/ 
4444 51560 8000 100 check 
6666 9778 4109 100 check 
7777 104 6032 50 fold 
total pot: 250 
/inquire 
send inquire msg to player 6666 
inquire/ 
7777 104 6032 50 fold 
4444 51560 8000 100 check 
6666 9778 4109 100 check 
total pot: 250 
/inquire 
recv from player 6666: check
send inquire msg to player 4444 
inquire/ 
6666 9778 4109 100 check 
7777 104 6032 50 fold 
4444 51560 8000 100 check 
total pot: 250 
/inquire 
recv from player 4444: check
river/ 
SPADES 3 
/river 

---river round bet---
valid player: 3, all in player: 0, fold player: 1
send inquire msg to player 7777 
inquire/ 
4444 51560 8000 100 check 
6666 9778 4109 100 check 
7777 104 6032 50 fold 
total pot: 250 
/inquire 
send inquire msg to player 6666 
inquire/ 
7777 104 6032 50 fold 
4444 51560 8000 100 check 
6666 9778 4109 100 check 
total pot: 250 
/inquire 
recv from player 6666: check
send inquire msg to player 4444 
inquire/ 
6666 9778 4109 100 check 
7777 104 6032 50 fold 
4444 51560 8000 100 check 
total pot: 250 
/inquire 
recv from player 4444: check

---show down---
showdown/ 
common/ 
CLUBS 3 
DIAMONDS 9 
DIAMONDS 7 
HEARTS J 
SPADES 3 
/common 
2: 6666 CLUBS A HEARTS 8 ONE_PAIR 
1: 4444 CLUBS 10 CLUBS 8 STRAIGHT 
/showdown 

---Allocate pot---
pot-win/ 
4444: 250 
/pot-win 
it is player 7777's turn to be button

-----116 Hand-----

----- clean player data in socket -----
seat/ 
button: 7777 104 6032 
small blind: 6666 9778 4109 
big blind: 4444 51810 8000 
/seat 
blind/ 
6666: 50 
4444: 100 
/blind 
player 6666:hold/ 
HEARTS 7 
HEARTS Q 
/hold 
player 4444:hold/ 
DIAMONDS A 
CLUBS Q 
/hold 
player 7777:hold/ 
DIAMONDS Q 
DIAMONDS 5 
/hold 

---pre flop round bet---
valid player: 3, all in player: 0, fold player: 0
send inquire msg to player 7777 
inquire/ 
4444 51710 8000 100 blind 
6666 9728 4109 50 blind 
total pot: 150 
/inquire 
recv from player 7777: fold
send inquire msg to player 6666 
inquire/ 
7777 104 6032 0 fold 
4444 51710 8000 100 blind 
6666 9728 4109 50 blind 
total pot: 150 
/inquire 
recv from player 6666: check
send inquire msg to player 4444 
inquire/ 
6666 9678 4109 100 call 
7777 104 6032 0 fold 
4444 51710 8000 100 blind 
total pot: 200 
/inquire 
recv from player 4444: check
flop/ 
SPADES 7 
HEARTS K 
DIAMONDS K 
/flop 

---flop round bet---
valid player: 3, all in player: 0, fold player: 1
send inquire msg to player 6666 
inquire/ 
7777 104 6032 0 fold 
4444 51710 8000 100 check 
6666 9678 4109 100 call 
total pot: 200 
/inquire 
recv from player 6666: check
send inquire msg to player 4444 
inquire/ 
6666 9678 4109 100 check 
7777 104 6032 0 fold 
4444 51710 8000 100 check 
total pot: 200 
/inquire 
recv from player 4444: check
turn/ 
DIAMONDS 10 
/turn 

---turn round bet---
valid player: 3, all in player: 0, fold player: 1
send inquire msg to player 6666 
inquire/ 
7777 104 6032 0 fold 
4444 51710 8000 100 check 
6666 9678 4109 100 check 
total pot: 200 
/inquire 
recv from player 6666: check
send inquire msg to player 4444 
inquire/ 
6666 9678 4109 100 check 
7777 104 6032 0 fold 
4444 51710 8000 100 check 
total pot: 200 
/inquire 
recv from player 4444: check
river/ 
CLUBS 7 
/river 

---river round bet---
valid player: 3, all in player: 0, fold player: 1
send inquire msg to player 6666 
inquire/ 
7777 104 6032 0 fold 
4444 51710 8000 100 check 
6666 9678 4109 100 check 
total pot: 200 
/inquire 
recv from player 6666: check
send inquire msg to player 4444 
inquire/ 
6666 9678 4109 100 check 
7777 104 6032 0 fold 
4444 51710 8000 100 check 
total pot: 200 
/inquire 
recv from player 4444: check

---show down---
showdown/ 
common/ 
SPADES 7 
HEARTS K 
DIAMONDS K 
DIAMONDS 10 
CLUBS 7 
/common 
1: 6666 HEARTS 7 HEARTS Q FULL_HOUSE 
2: 4444 DIAMONDS A CLUBS Q TWO_PAIR 
/showdown 

---Allocate pot---
pot-win/ 
6666: 200 
/pot-win 
it is player 6666's turn to be button

-----117 Hand-----

----- clean player data in socket -----
seat/ 
button: 6666 9878 4109 
small blind: 4444 51710 8000 
big blind: 7777 104 6032 
/seat 
blind/ 
4444: 50 
7777: 100 
/blind 
player 4444:hold/ 
HEARTS 5 
DIAMONDS 4 
/hold 
player 7777:hold/ 
SPADES 6 
CLUBS A 
/hold 
player 6666:hold/ 
DIAMONDS 8 
DIAMONDS A 
/hold 

---pre flop round bet---
valid player: 3, all in player: 0, fold player: 0
send inquire msg to player 6666 
inquire/ 
7777 4 6032 100 blind 
4444 51660 8000 50 blind 
total pot: 150 
/inquire 
recv from player 6666: raise 739
send inquire msg to player 4444 
inquire/ 
6666 9039 4109 839 raise 
7777 4 6032 100 blind 
4444 51660 8000 50 blind 
total pot: 989 
/inquire 
recv from player 4444: fold
send inquire msg to player 7777 
inquire/ 
4444 51660 8000 50 fold 
6666 9039 4109 839 raise 
7777 4 6032 100 blind 
total pot: 989 
/inquire 
recv from player 7777: fold

---flop round bet---
valid player: 3, all in player: 0, fold player: 2

---turn round bet---
valid player: 3, all in player: 0, fold player: 2

---river round bet---
valid player: 3, all in player: 0, fold player: 2

--- 1 players not fold, don't need show down---

---Allocate pot---
Only player at seat 7 not fold, win all the pot 989
pot-win/ 
6666: 989 
/pot-win 
it is player 4444's turn to be button

-----118 Hand-----

----- clean player data in socket -----
seat/ 
button: 4444 51660 8000 
small blind: 7777 2000 4036 
big blind: 6666 10028 4109 
/seat 
blind/ 
7777: 50 
6666: 100 
/blind 
player 7777:hold/ 
HEARTS 10 
HEARTS 7 
/hold 
player 6666:hold/ 
CLUBS K 
HEARTS A 
/hold 
player 4444:hold/ 
SPADES 3 
SPADES 7 
/hold 

---pre flop round bet---
valid player: 3, all in player: 0, fold player: 0
send inquire msg to player 4444 
inquire/ 
6666 9928 4109 100 blind 
7777 1950 4036 50 blind 
total pot: 150 
/inquire 
recv from player 4444: fold
send inquire msg to player 7777 
inquire/ 
4444 51660 8000 0 fold 
6666 9928 4109 100 blind 
7777 1950 4036 50 blind 
total pot: 150 
/inquire 
recv from player 7777: check
send inquire msg to player 6666 
inquire/ 
7777 1900 4036 100 call 
4444 51660 8000 0 fold 
6666 9928 4109 100 blind 
total pot: 200 
/inquire 
recv from player 6666: check
flop/ 
DIAMONDS J 
DIAMONDS Q 
DIAMONDS 7 
/flop 

---flop round bet---
valid player: 3, all in player: 0, fold player: 1
send inquire msg to player 7777 
inquire/ 
4444 51660 8000 0 fold 
6666 9928 4109 100 check 
7777 1900 4036 100 call 
total pot: 200 
/inquire 
recv from player 7777: check
send inquire msg to player 6666 
inquire/ 
7777 1900 4036 100 check 
4444 51660 8000 0 fold 
6666 9928 4109 100 check 
total pot: 200 
/inquire 
recv from player 6666: check
turn/ 
CLUBS 8 
/turn 

---turn round bet---
valid player: 3, all in player: 0, fold player: 1
send inquire msg to player 7777 
inquire/ 
4444 51660 8000 0 fold 
6666 9928 4109 100 check 
7777 1900 4036 100 check 
total pot: 200 
/inquire 
recv from player 7777: check
send inquire msg to player 6666 
inquire/ 
7777 1900 4036 100 check 
4444 51660 8000 0 fold 
6666 9928 4109 100 check 
total pot: 200 
/inquire 
recv from player 6666: check
river/ 
SPADES J 
/river 

---river round bet---
valid player: 3, all in player: 0, fold player: 1
send inquire msg to player 7777 
inquire/ 
4444 51660 8000 0 fold 
6666 9928 4109 100 check 
7777 1900 4036 100 check 
total pot: 200 
/inquire 
recv from player 7777: check
send inquire msg to player 6666 
inquire/ 
7777 1900 4036 100 check 
4444 51660 8000 0 fold 
6666 9928 4109 100 check 
total pot: 200 
/inquire 
recv from player 6666: check

---show down---
showdown/ 
common/ 
DIAMONDS J 
DIAMONDS Q 
DIAMONDS 7 
CLUBS 8 
SPADES J 
/common 
1: 7777 HEARTS 10 HEARTS 7 TWO_PAIR 
2: 6666 CLUBS K HEARTS A ONE_PAIR 
/showdown 

---Allocate pot---
pot-win/ 
7777: 200 
/pot-win 
it is player 7777's turn to be button

-----119 Hand-----

----- clean player data in socket -----
seat/ 
button: 7777 2100 4036 
small blind: 6666 9928 4109 
big blind: 4444 51660 8000 
/seat 
blind/ 
6666: 50 
4444: 100 
/blind 
player 6666:hold/ 
CLUBS 10 
CLUBS 8 
/hold 
player 4444:hold/ 
DIAMONDS 3 
CLUBS K 
/hold 
player 7777:hold/ 
CLUBS 5 
DIAMONDS A 
/hold 

---pre flop round bet---
valid player: 3, all in player: 0, fold player: 0
send inquire msg to player 7777 
inquire/ 
4444 51560 8000 100 blind 
6666 9878 4109 50 blind 
total pot: 150 
/inquire 
recv from player 7777: fold
send inquire msg to player 6666 
inquire/ 
7777 2100 4036 0 fold 
4444 51560 8000 100 blind 
6666 9878 4109 50 blind 
total pot: 150 
/inquire 
recv from player 6666: check
send inquire msg to player 4444 
inquire/ 
6666 9828 4109 100 call 
7777 2100 4036 0 fold 
4444 51560 8000 100 blind 
total pot: 200 
/inquire 
recv from player 4444: check
flop/ 
DIAMONDS 9 
HEARTS A 
HEARTS 6 
/flop 

---flop round bet---
valid player: 3, all in player: 0, fold player: 1
send inquire msg to player 6666 
inquire/ 
7777 2100 4036 0 fold 
4444 51560 8000 100 check 
6666 9828 4109 100 call 
total pot: 200 
/inquire 
recv from player 6666: check
send inquire msg to player 4444 
inquire/ 
6666 9828 4109 100 check 
7777 2100 4036 0 fold 
4444 51560 8000 100 check 
total pot: 200 
/inquire 
recv from player 4444: check
turn/ 
SPADES A 
/turn 

---turn round bet---
valid player: 3, all in player: 0, fold player: 1
send inquire msg to player 6666 
inquire/ 
7777 2100 4036 0 fold 
4444 51560 8000 100 check 
6666 9828 4109 100 check 
total pot: 200 
/inquire 
recv from player 6666: check
send inquire msg to player 4444 
inquire/ 
6666 9828 4109 100 check 
7777 2100 4036 0 fold 
4444 51560 8000 100 check 
total pot: 200 
/inquire 
recv from player 4444: check
river/ 
SPADES 7 
/river 

---river round bet---
valid player: 3, all in player: 0, fold player: 1
send inquire msg to player 6666 
inquire/ 
7777 2100 4036 0 fold 
4444 51560 8000 100 check 
6666 9828 4109 100 check 
total pot: 200 
/inquire 
recv from player 6666: check
send inquire msg to player 4444 
inquire/ 
6666 9828 4109 100 check 
7777 2100 4036 0 fold 
4444 51560 8000 100 check 
total pot: 200 
/inquire 
recv from player 4444: check

---show down---
showdown/ 
common/ 
DIAMONDS 9 
HEARTS A 
HEARTS 6 
SPADES A 
SPADES 7 
/common 
1: 6666 CLUBS 10 CLUBS 8 STRAIGHT 
2: 4444 DIAMONDS 3 CLUBS K ONE_PAIR 
/showdown 

---Allocate pot---
pot-win/ 
6666: 200 
/pot-win 
it is player 6666's turn to be button

-----120 Hand-----

----- clean player data in socket -----
seat/ 
button: 6666 10028 4109 
small blind: 4444 51560 8000 
big blind: 7777 2100 4036 
/seat 
blind/ 
4444: 50 
7777: 100 
/blind 
player 4444:hold/ 
SPADES K 
DIAMONDS 8 
/hold 
player 7777:hold/ 
DIAMONDS 3 
DIAMONDS K 
/hold 
player 6666:hold/ 
SPADES 7 
DIAMONDS 9 
/hold 

---pre flop round bet---
valid player: 3, all in player: 0, fold player: 0
send inquire msg to player 6666 
inquire/ 
7777 2000 4036 100 blind 
4444 51510 8000 50 blind 
total pot: 150 
/inquire 
recv from player 6666: fold
send inquire msg to player 4444 
inquire/ 
6666 10028 4109 0 fold 
7777 2000 4036 100 blind 
4444 51510 8000 50 blind 
total pot: 150 
/inquire 
recv from player 4444: check
send inquire msg to player 7777 
inquire/ 
4444 51460 8000 100 call 
6666 10028 4109 0 fold 
7777 2000 4036 100 blind 
total pot: 200 
/inquire 
recv from player 7777: check
flop/ 
DIAMONDS 7 
HEARTS 8 
SPADES 2 
/flop 

---flop round bet---
valid player: 3, all in player: 0, fold player: 1
send inquire msg to player 4444 
inquire/ 
6666 10028 4109 0 fold 
7777 2000 4036 100 check 
4444 51460 8000 100 call 
total pot: 200 
/inquire 
recv from player 4444: check
send inquire msg to player 7777 
inquire/ 
4444 51460 8000 100 check 
6666 10028 4109 0 fold 
7777 2000 4036 100 check 
total pot: 200 
/inquire 
recv from player 7777: check
turn/ 
DIAMONDS 6 
/turn 

---turn round bet---
valid player: 3, all in player: 0, fold player: 1
send inquire msg to player 4444 
inquire/ 
6666 10028 4109 0 fold 
7777 2000 4036 100 check 
4444 51460 8000 100 check 
total pot: 200 
/inquire 
recv from player 4444: check
send inquire msg to player 7777 
inquire/ 
4444 51460 8000 100 check 
6666 10028 4109 0 fold 
7777 2000 4036 100 check 
total pot: 200 
/inquire 
recv from player 7777: check
river/ 
HEARTS 10 
/river 

---river round bet---
valid player: 3, all in player: 0, fold player: 1
send inquire msg to player 4444 
inquire/ 
6666 10028 4109 0 fold 
7777 2000 4036 100 check 
4444 51460 8000 100 check 
total pot: 200 
/inquire 
recv from player 4444: check
send inquire msg to player 7777 
inquire/ 
4444 51460 8000 100 check 
6666 10028 4109 0 fold 
7777 2000 4036 100 check 
total pot: 200 
/inquire 
recv from player 7777: check

---show down---
showdown/ 
common/ 
DIAMONDS 7 
HEARTS 8 
SPADES 2 
DIAMONDS 6 
HEARTS 10 
/common 
1: 4444 SPADES K DIAMONDS 8 ONE_PAIR 
2: 7777 DIAMONDS 3 DIAMONDS K HIGH_CARD 
/showdown 

---Allocate pot---
pot-win/ 
4444: 200 
/pot-win 
it is player 4444's turn to be button

-----121 Hand-----

----- clean player data in socket -----
seat/ 
button: 4444 51660 8000 
small blind: 7777 2000 4036 
big blind: 6666 10028 4109 
/seat 
blind/ 
7777: 50 
6666: 100 
/blind 
player 7777:hold/ 
CLUBS 4 
SPADES 5 
/hold 
player 6666:hold/ 
CLUBS 6 
DIAMONDS J 
/hold 
player 4444:hold/ 
HEARTS 5 
SPADES 4 
/hold 

---pre flop round bet---
valid player: 3, all in player: 0, fold player: 0
send inquire msg to player 4444 
inquire/ 
6666 9928 4109 100 blind 
7777 1950 4036 50 blind 
total pot: 150 
/inquire 
recv from player 4444: fold
send inquire msg to player 7777 
inquire/ 
4444 51660 8000 0 fold 
6666 9928 4109 100 blind 
7777 1950 4036 50 blind 
total pot: 150 
/inquire 
recv from player 7777: check
send inquire msg to player 6666 
inquire/ 
7777 1900 4036 100 call 
4444 51660 8000 0 fold 
6666 9928 4109 100 blind 
total pot: 200 
/inquire 
recv from player 6666: check
flop/ 
DIAMONDS K 
HEARTS 9 
DIAMONDS A 
/flop 

---flop round bet---
valid player: 3, all in player: 0, fold player: 1
send inquire msg to player 7777 
inquire/ 
4444 51660 8000 0 fold 
6666 9928 4109 100 check 
7777 1900 4036 100 call 
total pot: 200 
/inquire 
recv from player 7777: check
send inquire msg to player 6666 
inquire/ 
7777 1900 4036 100 check 
4444 51660 8000 0 fold 
6666 9928 4109 100 check 
total pot: 200 
/inquire 
recv from player 6666: check
turn/ 
DIAMONDS Q 
/turn 

---turn round bet---
valid player: 3, all in player: 0, fold player: 1
send inquire msg to player 7777 
inquire/ 
4444 51660 8000 0 fold 
6666 9928 4109 100 check 
7777 1900 4036 100 check 
total pot: 200 
/inquire 
recv from player 7777: check
send inquire msg to player 6666 
inquire/ 
7777 1900 4036 100 check 
4444 51660 8000 0 fold 
6666 9928 4109 100 check 
total pot: 200 
/inquire 
recv from player 6666: check
river/ 
DIAMONDS 3 
/river 

---river round bet---
valid player: 3, all in player: 0, fold player: 1
send inquire msg to player 7777 
inquire/ 
4444 51660 8000 0 fold 
6666 9928 4109 100 check 
7777 1900 4036 100 check 
total pot: 200 
/inquire 
recv from player 7777: check
send inquire msg to player 6666 
inquire/ 
7777 1900 4036 100 check 
4444 51660 8000 0 fold 
6666 9928 4109 100 check 
total pot: 200 
/inquire 
recv from player 6666: check

---show down---
showdown/ 
common/ 
DIAMONDS K 
HEARTS 9 
DIAMONDS A 
DIAMONDS Q 
DIAMONDS 3 
/common 
2: 7777 CLUBS 4 SPADES 5 HIGH_CARD 
1: 6666 CLUBS 6 DIAMONDS J FLUSH 
/showdown 

---Allocate pot---
pot-win/ 
6666: 200 
/pot-win 
it is player 7777's turn to be button

-----122 Hand-----

----- clean player data in socket -----
seat/ 
button: 7777 1900 4036 
small blind: 6666 10128 4109 
big blind: 4444 51660 8000 
/seat 
blind/ 
6666: 50 
4444: 100 
/blind 
player 6666:hold/ 
DIAMONDS 9 
SPADES 6 
/hold 
player 4444:hold/ 
CLUBS J 
CLUBS 5 
/hold 
player 7777:hold/ 
CLUBS K 
DIAMONDS 8 
/hold 

---pre flop round bet---
valid player: 3, all in player: 0, fold player: 0
send inquire msg to player 7777 
inquire/ 
4444 51560 8000 100 blind 
6666 10078 4109 50 blind 
total pot: 150 
/inquire 
recv from player 7777: fold
send inquire msg to player 6666 
inquire/ 
7777 1900 4036 0 fold 
4444 51560 8000 100 blind 
6666 10078 4109 50 blind 
total pot: 150 
/inquire 
recv from player 6666: check
send inquire msg to player 4444 
inquire/ 
6666 10028 4109 100 call 
7777 1900 4036 0 fold 
4444 51560 8000 100 blind 
total pot: 200 
/inquire 
recv from player 4444: check
flop/ 
CLUBS 3 
HEARTS 5 
SPADES 5 
/flop 

---flop round bet---
valid player: 3, all in player: 0, fold player: 1
send inquire msg to player 6666 
inquire/ 
7777 1900 4036 0 fold 
4444 51560 8000 100 check 
6666 10028 4109 100 call 
total pot: 200 
/inquire 
recv from player 6666: check
send inquire msg to player 4444 
inquire/ 
6666 10028 4109 100 check 
7777 1900 4036 0 fold 
4444 51560 8000 100 check 
total pot: 200 
/inquire 
recv from player 4444: check
turn/ 
CLUBS 10 
/turn 

---turn round bet---
valid player: 3, all in player: 0, fold player: 1
send inquire msg to player 6666 
inquire/ 
7777 1900 4036 0 fold 
4444 51560 8000 100 check 
6666 10028 4109 100 check 
total pot: 200 
/inquire 
recv from player 6666: check
send inquire msg to player 4444 
inquire/ 
6666 10028 4109 100 check 
7777 1900 4036 0 fold 
4444 51560 8000 100 check 
total pot: 200 
/inquire 
recv from player 4444: check
river/ 
HEARTS 2 
/river 

---river round bet---
valid player: 3, all in player: 0, fold player: 1
send inquire msg to player 6666 
inquire/ 
7777 1900 4036 0 fold 
4444 51560 8000 100 check 
6666 10028 4109 100 check 
total pot: 200 
/inquire 
recv from player 6666: check
send inquire msg to player 4444 
inquire/ 
6666 10028 4109 100 check 
7777 1900 4036 0 fold 
4444 51560 8000 100 check 
total pot: 200 
/inquire 
recv from player 4444: check

---show down---
showdown/ 
common/ 
CLUBS 3 
HEARTS 5 
SPADES 5 
CLUBS 10 
HEARTS 2 
/common 
2: 6666 DIAMONDS 9 SPADES 6 ONE_PAIR 
1: 4444 CLUBS J CLUBS 5 THREE_OF_A_KIND 
/showdown 

---Allocate pot---
pot-win/ 
4444: 200 
/pot-win 
it is player 6666's turn to be button

-----123 Hand-----

----- clean player data in socket -----
seat/ 
button: 6666 10028 4109 
small blind: 4444 51760 8000 
big blind: 7777 1900 4036 
/seat 
blind/ 
4444: 50 
7777: 100 
/blind 
player 4444:hold/ 
DIAMONDS 5 
SPADES 4 
/hold 
player 7777:hold/ 
HEARTS 2 
SPADES Q 
/hold 
player 6666:hold/ 
HEARTS 7 
SPADES 8 
/hold 

---pre flop round bet---
valid player: 3, all in player: 0, fold player: 0
send inquire msg to player 6666 
inquire/ 
7777 1800 4036 100 blind 
4444 51710 8000 50 blind 
total pot: 150 
/inquire 
recv from player 6666: fold
send inquire msg to player 4444 
inquire/ 
6666 10028 4109 0 fold 
7777 1800 4036 100 blind 
4444 51710 8000 50 blind 
total pot: 150 
/inquire 
recv from player 4444: check
send inquire msg to player 7777 
inquire/ 
4444 51660 8000 100 call 
6666 10028 4109 0 fold 
7777 1800 4036 100 blind 
total pot: 200 
/inquire 
recv from player 7777: check
flop/ 
SPADES 9 
DIAMONDS 10 
DIAMONDS 9 
/flop 

---flop round bet---
valid player: 3, all in player: 0, fold player: 1
send inquire msg to player 4444 
inquire/ 
6666 10028 4109 0 fold 
7777 1800 4036 100 check 
4444 51660 8000 100 call 
total pot: 200 
/inquire 
recv from player 4444: check
send inquire msg to player 7777 
inquire/ 
4444 51660 8000 100 check 
6666 10028 4109 0 fold 
7777 1800 4036 100 check 
total pot: 200 
/inquire 
recv from player 7777: check
turn/ 
HEARTS 3 
/turn 

---turn round bet---
valid player: 3, all in player: 0, fold player: 1
send inquire msg to player 4444 
inquire/ 
6666 10028 4109 0 fold 
7777 1800 4036 100 check 
4444 51660 8000 100 check 
total pot: 200 
/inquire 
recv from player 4444: check
send inquire msg to player 7777 
inquire/ 
4444 51660 8000 100 check 
6666 10028 4109 0 fold 
7777 1800 4036 100 check 
total pot: 200 
/inquire 
recv from player 7777: check
river/ 
SPADES 2 
/river 

---river round bet---
valid player: 3, all in player: 0, fold player: 1
send inquire msg to player 4444 
inquire/ 
6666 10028 4109 0 fold 
7777 1800 4036 100 check 
4444 51660 8000 100 check 
total pot: 200 
/inquire 
recv from player 4444: check
send inquire msg to player 7777 
inquire/ 
4444 51660 8000 100 check 
6666 10028 4109 0 fold 
7777 1800 4036 100 check 
total pot: 200 
/inquire 
recv from player 7777: check

---show down---
showdown/ 
common/ 
SPADES 9 
DIAMONDS 10 
DIAMONDS 9 
HEARTS 3 
SPADES 2 
/common 
2: 4444 DIAMONDS 5 SPADES 4 ONE_PAIR 
1: 7777 HEARTS 2 SPADES Q TWO_PAIR 
/showdown 

---Allocate pot---
pot-win/ 
7777: 200 
/pot-win 
it is player 4444's turn to be button

-----124 Hand-----

----- clean player data in socket -----
seat/ 
button: 4444 51660 8000 
small blind: 7777 2000 4036 
big blind: 6666 10028 4109 
/seat 
blind/ 
7777: 50 
6666: 100 
/blind 
player 7777:hold/ 
HEARTS 6 
DIAMONDS 3 
/hold 
player 6666:hold/ 
DIAMONDS 8 
CLUBS A 
/hold 
player 4444:hold/ 
SPADES 4 
SPADES 9 
/hold 

---pre flop round bet---
valid player: 3, all in player: 0, fold player: 0
send inquire msg to player 4444 
inquire/ 
6666 9928 4109 100 blind 
7777 1950 4036 50 blind 
total pot: 150 
/inquire 
recv from player 4444: fold
send inquire msg to player 7777 
inquire/ 
4444 51660 8000 0 fold 
6666 9928 4109 100 blind 
7777 1950 4036 50 blind 
total pot: 150 
/inquire 
recv from player 7777: check
send inquire msg to player 6666 
inquire/ 
7777 1900 4036 100 call 
4444 51660 8000 0 fold 
6666 9928 4109 100 blind 
total pot: 200 
/inquire 
recv from player 6666: check
flop/ 
CLUBS K 
DIAMONDS 9 
SPADES 6 
/flop 

---flop round bet---
valid player: 3, all in player: 0, fold player: 1
send inquire msg to player 7777 
inquire/ 
4444 51660 8000 0 fold 
6666 9928 4109 100 check 
7777 1900 4036 100 call 
total pot: 200 
/inquire 
recv from player 7777: check
send inquire msg to player 6666 
inquire/ 
7777 1900 4036 100 check 
4444 51660 8000 0 fold 
6666 9928 4109 100 check 
total pot: 200 
/inquire 
recv from player 6666: check
turn/ 
HEARTS J 
/turn 

---turn round bet---
valid player: 3, all in player: 0, fold player: 1
send inquire msg to player 7777 
inquire/ 
4444 51660 8000 0 fold 
6666 9928 4109 100 check 
7777 1900 4036 100 check 
total pot: 200 
/inquire 
recv from player 7777: check
send inquire msg to player 6666 
inquire/ 
7777 1900 4036 100 check 
4444 51660 8000 0 fold 
6666 9928 4109 100 check 
total pot: 200 
/inquire 
recv from player 6666: check
river/ 
SPADES 5 
/river 

---river round bet---
valid player: 3, all in player: 0, fold player: 1
send inquire msg to player 7777 
inquire/ 
4444 51660 8000 0 fold 
6666 9928 4109 100 check 
7777 1900 4036 100 check 
total pot: 200 
/inquire 
recv from player 7777: check
send inquire msg to player 6666 
inquire/ 
7777 1900 4036 100 check 
4444 51660 8000 0 fold 
6666 9928 4109 100 check 
total pot: 200 
/inquire 
recv from player 6666: check

---show down---
showdown/ 
common/ 
CLUBS K 
DIAMONDS 9 
SPADES 6 
HEARTS J 
SPADES 5 
/common 
1: 7777 HEARTS 6 DIAMONDS 3 ONE_PAIR 
2: 6666 DIAMONDS 8 CLUBS A HIGH_CARD 
/showdown 

---Allocate pot---
pot-win/ 
7777: 200 
/pot-win 
it is player 7777's turn to be button

-----125 Hand-----

----- clean player data in socket -----
seat/ 
button: 7777 2100 4036 
small blind: 6666 9928 4109 
big blind: 4444 51660 8000 
/seat 
blind/ 
6666: 50 
4444: 100 
/blind 
player 6666:hold/ 
CLUBS 7 
HEARTS 7 
/hold 
player 4444:hold/ 
CLUBS 8 
CLUBS 5 
/hold 
player 7777:hold/ 
DIAMONDS J 
DIAMONDS 8 
/hold 

---pre flop round bet---
valid player: 3, all in player: 0, fold player: 0
send inquire msg to player 7777 
inquire/ 
4444 51560 8000 100 blind 
6666 9878 4109 50 blind 
total pot: 150 
/inquire 
recv from player 7777: check
send inquire msg to player 6666 
inquire/ 
7777 2000 4036 100 call 
4444 51560 8000 100 blind 
6666 9878 4109 50 blind 
total pot: 250 
/inquire 
recv from player 6666: raise 862
send inquire msg to player 4444 
inquire/ 
6666 8966 4109 962 raise 
7777 2000 4036 100 call 
4444 51560 8000 100 blind 
total pot: 1162 
/inquire 
recv from player 4444: check
send inquire msg to player 7777 
inquire/ 
4444 50698 8000 962 call 
6666 8966 4109 962 raise 
7777 2000 4036 100 call 
total pot: 2024 
/inquire 
recv from player 7777: fold
flop/ 
SPADES 3 
DIAMONDS K 
HEARTS 10 
/flop 

---flop round bet---
valid player: 3, all in player: 0, fold player: 1
send inquire msg to player 6666 
inquire/ 
7777 2000 4036 100 fold 
4444 50698 8000 962 call 
6666 8966 4109 962 raise 
total pot: 2024 
/inquire 
recv from player 6666: check
send inquire msg to player 4444 
inquire/ 
6666 8966 4109 962 check 
7777 2000 4036 100 fold 
4444 50698 8000 962 call 
total pot: 2024 
/inquire 
recv from player 4444: check
turn/ 
DIAMONDS 7 
/turn 

---turn round bet---
valid player: 3, all in player: 0, fold player: 1
send inquire msg to player 6666 
inquire/ 
7777 2000 4036 100 fold 
4444 50698 8000 962 check 
6666 8966 4109 962 check 
total pot: 2024 
/inquire 
recv from player 6666: check
send inquire msg to player 4444 
inquire/ 
6666 8966 4109 962 check 
7777 2000 4036 100 fold 
4444 50698 8000 962 check 
total pot: 2024 
/inquire 
recv from player 4444: check
river/ 
SPADES K 
/river 

---river round bet---
valid player: 3, all in player: 0, fold player: 1
send inquire msg to player 6666 
inquire/ 
7777 2000 4036 100 fold 
4444 50698 8000 962 check 
6666 8966 4109 962 check 
total pot: 2024 
/inquire 
recv from player 6666: check
send inquire msg to player 4444 
inquire/ 
6666 8966 4109 962 check 
7777 2000 4036 100 fold 
4444 50698 8000 962 check 
total pot: 2024 
/inquire 
recv from player 4444: check

---show down---
showdown/ 
common/ 
SPADES 3 
DIAMONDS K 
HEARTS 10 
DIAMONDS 7 
SPADES K 
/common 
1: 6666 CLUBS 7 HEARTS 7 FULL_HOUSE 
2: 4444 CLUBS 8 CLUBS 5 ONE_PAIR 
/showdown 

---Allocate pot---
pot-win/ 
6666: 2024 
/pot-win 
it is player 6666's turn to be button

-----126 Hand-----

----- clean player data in socket -----
seat/ 
button: 6666 10990 4109 
small blind: 4444 50698 8000 
big blind: 7777 2000 4036 
/seat 
blind/ 
4444: 50 
7777: 100 
/blind 
player 4444:hold/ 
DIAMONDS 8 
DIAMONDS J 
/hold 
player 7777:hold/ 
HEARTS Q 
HEARTS 7 
/hold 
player 6666:hold/ 
CLUBS 4 
CLUBS 6 
/hold 

---pre flop round bet---
valid player: 3, all in player: 0, fold player: 0
send inquire msg to player 6666 
inquire/ 
7777 1900 4036 100 blind 
4444 50648 8000 50 blind 
total pot: 150 
/inquire 
recv from player 6666: fold
send inquire msg to player 4444 
inquire/ 
6666 10990 4109 0 fold 
7777 1900 4036 100 blind 
4444 50648 8000 50 blind 
total pot: 150 
/inquire 
recv from player 4444: check
send inquire msg to player 7777 
inquire/ 
4444 50598 8000 100 call 
6666 10990 4109 0 fold 
7777 1900 4036 100 blind 
total pot: 200 
/inquire 
recv from player 7777: check
flop/ 
DIAMONDS 7 
CLUBS A 
DIAMONDS 6 
/flop 

---flop round bet---
valid player: 3, all in player: 0, fold player: 1
send inquire msg to player 4444 
inquire/ 
6666 10990 4109 0 fold 
7777 1900 4036 100 check 
4444 50598 8000 100 call 
total pot: 200 
/inquire 
recv from player 4444: check
send inquire msg to player 7777 
inquire/ 
4444 50598 8000 100 check 
6666 10990 4109 0 fold 
7777 1900 4036 100 check 
total pot: 200 
/inquire 
recv from player 7777: check
turn/ 
CLUBS 2 
/turn 

---turn round bet---
valid player: 3, all in player: 0, fold player: 1
send inquire msg to player 4444 
inquire/ 
6666 10990 4109 0 fold 
7777 1900 4036 100 check 
4444 50598 8000 100 check 
total pot: 200 
/inquire 
recv from player 4444: check
send inquire msg to player 7777 
inquire/ 
4444 50598 8000 100 check 
6666 10990 4109 0 fold 
7777 1900 4036 100 check 
total pot: 200 
/inquire 
recv from player 7777: check
river/ 
HEARTS J 
/river 

---river round bet---
valid player: 3, all in player: 0, fold player: 1
send inquire msg to player 4444 
inquire/ 
6666 10990 4109 0 fold 
7777 1900 4036 100 check 
4444 50598 8000 100 check 
total pot: 200 
/inquire 
recv from player 4444: check
send inquire msg to player 7777 
inquire/ 
4444 50598 8000 100 check 
6666 10990 4109 0 fold 
7777 1900 4036 100 check 
total pot: 200 
/inquire 
recv from player 7777: check

---show down---
showdown/ 
common/ 
DIAMONDS 7 
CLUBS A 
DIAMONDS 6 
CLUBS 2 
HEARTS J 
/common 
1: 4444 DIAMONDS 8 DIAMONDS J ONE_PAIR 
2: 7777 HEARTS Q HEARTS 7 ONE_PAIR 
/showdown 

---Allocate pot---
pot-win/ 
4444: 200 
/pot-win 
it is player 4444's turn to be button

-----127 Hand-----

----- clean player data in socket -----
seat/ 
button: 4444 50798 8000 
small blind: 7777 1900 4036 
big blind: 6666 10990 4109 
/seat 
blind/ 
7777: 50 
6666: 100 
/blind 
player 7777:hold/ 
SPADES 6 
DIAMONDS 7 
/hold 
player 6666:hold/ 
SPADES 10 
HEARTS 9 
/hold 
player 4444:hold/ 
SPADES Q 
SPADES 2 
/hold 

---pre flop round bet---
valid player: 3, all in player: 0, fold player: 0
send inquire msg to player 4444 
inquire/ 
6666 10890 4109 100 blind 
7777 1850 4036 50 blind 
total pot: 150 
/inquire 
recv from player 4444: fold
send inquire msg to player 7777 
inquire/ 
4444 50798 8000 0 fold 
6666 10890 4109 100 blind 
7777 1850 4036 50 blind 
total pot: 150 
/inquire 
recv from player 7777: check
send inquire msg to player 6666 
inquire/ 
7777 1800 4036 100 call 
4444 50798 8000 0 fold 
6666 10890 4109 100 blind 
total pot: 200 
/inquire 
recv from player 6666: check
flop/ 
CLUBS 6 
SPADES J 
DIAMONDS 3 
/flop 

---flop round bet---
valid player: 3, all in player: 0, fold player: 1
send inquire msg to player 7777 
inquire/ 
4444 50798 8000 0 fold 
6666 10890 4109 100 check 
7777 1800 4036 100 call 
total pot: 200 
/inquire 
recv from player 7777: check
send inquire msg to player 6666 
inquire/ 
7777 1800 4036 100 check 
4444 50798 8000 0 fold 
6666 10890 4109 100 check 
total pot: 200 
/inquire 
recv from player 6666: check
turn/ 
DIAMONDS 2 
/turn 

---turn round bet---
valid player: 3, all in player: 0, fold player: 1
send inquire msg to player 7777 
inquire/ 
4444 50798 8000 0 fold 
6666 10890 4109 100 check 
7777 1800 4036 100 check 
total pot: 200 
/inquire 
recv from player 7777: check
send inquire msg to player 6666 
inquire/ 
7777 1800 4036 100 check 
4444 50798 8000 0 fold 
6666 10890 4109 100 check 
total pot: 200 
/inquire 
recv from player 6666: check
river/ 
CLUBS 10 
/river 

---river round bet---
valid player: 3, all in player: 0, fold player: 1
send inquire msg to player 7777 
inquire/ 
4444 50798 8000 0 fold 
6666 10890 4109 100 check 
7777 1800 4036 100 check 
total pot: 200 
/inquire 
recv from player 7777: check
send inquire msg to player 6666 
inquire/ 
7777 1800 4036 100 check 
4444 50798 8000 0 fold 
6666 10890 4109 100 check 
total pot: 200 
/inquire 
recv from player 6666: check

---show down---
showdown/ 
common/ 
CLUBS 6 
SPADES J 
DIAMONDS 3 
DIAMONDS 2 
CLUBS 10 
/common 
2: 7777 SPADES 6 DIAMONDS 7 ONE_PAIR 
1: 6666 SPADES 10 HEARTS 9 ONE_PAIR 
/showdown 

---Allocate pot---
pot-win/ 
6666: 200 
/pot-win 
it is player 7777's turn to be button

-----128 Hand-----

----- clean player data in socket -----
seat/ 
button: 7777 1800 4036 
small blind: 6666 11090 4109 
big blind: 4444 50798 8000 
/seat 
blind/ 
6666: 50 
4444: 100 
/blind 
player 6666:hold/ 
HEARTS 7 
SPADES K 
/hold 
player 4444:hold/ 
HEARTS 8 
DIAMONDS 7 
/hold 
player 7777:hold/ 
DIAMONDS 10 
CLUBS J 
/hold 

---pre flop round bet---
valid player: 3, all in player: 0, fold player: 0
send inquire msg to player 7777 
inquire/ 
4444 50698 8000 100 blind 
6666 11040 4109 50 blind 
total pot: 150 
/inquire 
recv from player 7777: check
send inquire msg to player 6666 
inquire/ 
7777 1700 4036 100 call 
4444 50698 8000 100 blind 
6666 11040 4109 50 blind 
total pot: 250 
/inquire 
recv from player 6666: check
send inquire msg to player 4444 
inquire/ 
6666 10990 4109 100 call 
7777 1700 4036 100 call 
4444 50698 8000 100 blind 
total pot: 300 
/inquire 
recv from player 4444: check
flop/ 
HEARTS Q 
CLUBS 7 
DIAMONDS 4 
/flop 

---flop round bet---
valid player: 3, all in player: 0, fold player: 0
send inquire msg to player 6666 
inquire/ 
7777 1700 4036 100 call 
4444 50698 8000 100 check 
6666 10990 4109 100 call 
total pot: 300 
/inquire 
recv from player 6666: check
send inquire msg to player 4444 
inquire/ 
6666 10990 4109 100 check 
7777 1700 4036 100 call 
4444 50698 8000 100 check 
total pot: 300 
/inquire 
recv from player 4444: check
send inquire msg to player 7777 
inquire/ 
4444 50698 8000 100 check 
6666 10990 4109 100 check 
7777 1700 4036 100 call 
total pot: 300 
/inquire 
recv from player 7777: check
turn/ 
SPADES 9 
/turn 

---turn round bet---
valid player: 3, all in player: 0, fold player: 0
send inquire msg to player 6666 
inquire/ 
7777 1700 4036 100 check 
4444 50698 8000 100 check 
6666 10990 4109 100 check 
total pot: 300 
/inquire 
recv from player 6666: raise 135
send inquire msg to player 4444 
inquire/ 
6666 10855 4109 235 raise 
7777 1700 4036 100 check 
4444 50698 8000 100 check 
total pot: 435 
/inquire 
recv from player 4444: check
send inquire msg to player 7777 
inquire/ 
4444 50563 8000 235 call 
6666 10855 4109 235 raise 
7777 1700 4036 100 check 
total pot: 570 
/inquire 
recv from player 7777: check
river/ 
SPADES 4 
/river 

---river round bet---
valid player: 3, all in player: 0, fold player: 0
send inquire msg to player 6666 
inquire/ 
7777 1565 4036 235 call 
4444 50563 8000 235 call 
6666 10855 4109 235 raise 
total pot: 705 
/inquire 
recv from player 6666: check
send inquire msg to player 4444 
inquire/ 
6666 10855 4109 235 check 
7777 1565 4036 235 call 
4444 50563 8000 235 call 
total pot: 705 
/inquire 
recv from player 4444: check
send inquire msg to player 7777 
inquire/ 
4444 50563 8000 235 check 
6666 10855 4109 235 check 
7777 1565 4036 235 call 
total pot: 705 
/inquire 
recv from player 7777: check

---show down---
showdown/ 
common/ 
HEARTS Q 
CLUBS 7 
DIAMONDS 4 
SPADES 9 
SPADES 4 
/common 
1: 6666 HEARTS 7 SPADES K TWO_PAIR 
2: 4444 HEARTS 8 DIAMONDS 7 TWO_PAIR 
3: 7777 DIAMONDS 10 CLUBS J ONE_PAIR 
/showdown 

---Allocate pot---
pot-win/ 
6666: 705 
/pot-win 
it is player 6666's turn to be button

-----129 Hand-----

----- clean player data in socket -----
seat/ 
button: 6666 11560 4109 
small blind: 4444 50563 8000 
big blind: 7777 1565 4036 
/seat 
blind/ 
4444: 50 
7777: 100 
/blind 
player 4444:hold/ 
SPADES 9 
DIAMONDS K 
/hold 
player 7777:hold/ 
DIAMONDS 8 
SPADES A 
/hold 
player 6666:hold/ 
HEARTS 2 
CLUBS 5 
/hold 

---pre flop round bet---
valid player: 3, all in player: 0, fold player: 0
send inquire msg to player 6666 
inquire/ 
7777 1465 4036 100 blind 
4444 50513 8000 50 blind 
total pot: 150 
/inquire 
recv from player 6666: fold
send inquire msg to player 4444 
inquire/ 
6666 11560 4109 0 fold 
7777 1465 4036 100 blind 
4444 50513 8000 50 blind 
total pot: 150 
/inquire 
recv from player 4444: check
send inquire msg to player 7777 
inquire/ 
4444 50463 8000 100 call 
6666 11560 4109 0 fold 
7777 1465 4036 100 blind 
total pot: 200 
/inquire 
recv from player 7777: check
flop/ 
HEARTS 3 
CLUBS J 
CLUBS 4 
/flop 

---flop round bet---
valid player: 3, all in player: 0, fold player: 1
send inquire msg to player 4444 
inquire/ 
6666 11560 4109 0 fold 
7777 1465 4036 100 check 
4444 50463 8000 100 call 
total pot: 200 
/inquire 
recv from player 4444: check
send inquire msg to player 7777 
inquire/ 
4444 50463 8000 100 check 
6666 11560 4109 0 fold 
7777 1465 4036 100 check 
total pot: 200 
/inquire 
recv from player 7777: check
turn/ 
DIAMONDS 3 
/turn 

---turn round bet---
valid player: 3, all in player: 0, fold player: 1
send inquire msg to player 4444 
inquire/ 
6666 11560 4109 0 fold 
7777 1465 4036 100 check 
4444 50463 8000 100 check 
total pot: 200 
/inquire 
recv from player 4444: check
send inquire msg to player 7777 
inquire/ 
4444 50463 8000 100 check 
6666 11560 4109 0 fold 
7777 1465 4036 100 check 
total pot: 200 
/inquire 
recv from player 7777: check
river/ 
HEARTS 7 
/river 

---river round bet---
valid player: 3, all in player: 0, fold player: 1
send inquire msg to player 4444 
inquire/ 
6666 11560 4109 0 fold 
7777 1465 4036 100 check 
4444 50463 8000 100 check 
total pot: 200 
/inquire 
recv from player 4444: check
send inquire msg to player 7777 
inquire/ 
4444 50463 8000 100 check 
6666 11560 4109 0 fold 
7777 1465 4036 100 check 
total pot: 200 
/inquire 
recv from player 7777: check

---show down---
showdown/ 
common/ 
HEARTS 3 
CLUBS J 
CLUBS 4 
DIAMONDS 3 
HEARTS 7 
/common 
2: 4444 SPADES 9 DIAMONDS K ONE_PAIR 
1: 7777 DIAMONDS 8 SPADES A ONE_PAIR 
/showdown 

---Allocate pot---
pot-win/ 
7777: 200 
/pot-win 
it is player 4444's turn to be button

-----130 Hand-----

----- clean player data in socket -----
seat/ 
button: 4444 50463 8000 
small blind: 7777 1665 4036 
big blind: 6666 11560 4109 
/seat 
blind/ 
7777: 50 
6666: 100 
/blind 
player 7777:hold/ 
SPADES 10 
CLUBS 4 
/hold 
player 6666:hold/ 
SPADES 9 
HEARTS J 
/hold 
player 4444:hold/ 
DIAMONDS Q 
SPADES 8 
/hold 

---pre flop round bet---
valid player: 3, all in player: 0, fold player: 0
send inquire msg to player 4444 
inquire/ 
6666 11460 4109 100 blind 
7777 1615 4036 50 blind 
total pot: 150 
/inquire 
recv from player 4444: fold
send inquire msg to player 7777 
inquire/ 
4444 50463 8000 0 fold 
6666 11460 4109 100 blind 
7777 1615 4036 50 blind 
total pot: 150 
/inquire 
recv from player 7777: check
send inquire msg to player 6666 
inquire/ 
7777 1565 4036 100 call 
4444 50463 8000 0 fold 
6666 11460 4109 100 blind 
total pot: 200 
/inquire 
recv from player 6666: check
flop/ 
CLUBS 3 
HEARTS 10 
HEARTS 6 
/flop 

---flop round bet---
valid player: 3, all in player: 0, fold player: 1
send inquire msg to player 7777 
inquire/ 
4444 50463 8000 0 fold 
6666 11460 4109 100 check 
7777 1565 4036 100 call 
total pot: 200 
/inquire 
recv from player 7777: check
send inquire msg to player 6666 
inquire/ 
7777 1565 4036 100 check 
4444 50463 8000 0 fold 
6666 11460 4109 100 check 
total pot: 200 
/inquire 
recv from player 6666: check
turn/ 
SPADES K 
/turn 

---turn round bet---
valid player: 3, all in player: 0, fold player: 1
send inquire msg to player 7777 
inquire/ 
4444 50463 8000 0 fold 
6666 11460 4109 100 check 
7777 1565 4036 100 check 
total pot: 200 
/inquire 
recv from player 7777: check
send inquire msg to player 6666 
inquire/ 
7777 1565 4036 100 check 
4444 50463 8000 0 fold 
6666 11460 4109 100 check 
total pot: 200 
/inquire 
recv from player 6666: check
river/ 
SPADES 7 
/river 

---river round bet---
valid player: 3, all in player: 0, fold player: 1
send inquire msg to player 7777 
inquire/ 
4444 50463 8000 0 fold 
6666 11460 4109 100 check 
7777 1565 4036 100 check 
total pot: 200 
/inquire 
recv from player 7777: check
send inquire msg to player 6666 
inquire/ 
7777 1565 4036 100 check 
4444 50463 8000 0 fold 
6666 11460 4109 100 check 
total pot: 200 
/inquire 
recv from player 6666: check

---show down---
showdown/ 
common/ 
CLUBS 3 
HEARTS 10 
HEARTS 6 
SPADES K 
SPADES 7 
/common 
1: 7777 SPADES 10 CLUBS 4 ONE_PAIR 
2: 6666 SPADES 9 HEARTS J HIGH_CARD 
/showdown 

---Allocate pot---
pot-win/ 
7777: 200 
/pot-win 
it is player 7777's turn to be button

-----131 Hand-----

----- clean player data in socket -----
seat/ 
button: 7777 1765 4036 
small blind: 6666 11460 4109 
big blind: 4444 50463 8000 
/seat 
blind/ 
6666: 50 
4444: 100 
/blind 
player 6666:hold/ 
CLUBS A 
DIAMONDS 5 
/hold 
player 4444:hold/ 
HEARTS K 
SPADES A 
/hold 
player 7777:hold/ 
HEARTS 4 
DIAMONDS J 
/hold 

---pre flop round bet---
valid player: 3, all in player: 0, fold player: 0
send inquire msg to player 7777 
inquire/ 
4444 50363 8000 100 blind 
6666 11410 4109 50 blind 
total pot: 150 
/inquire 
recv from player 7777: fold
send inquire msg to player 6666 
inquire/ 
7777 1765 4036 0 fold 
4444 50363 8000 100 blind 
6666 11410 4109 50 blind 
total pot: 150 
/inquire 
recv from player 6666: check
send inquire msg to player 4444 
inquire/ 
6666 11360 4109 100 call 
7777 1765 4036 0 fold 
4444 50363 8000 100 blind 
total pot: 200 
/inquire 
recv from player 4444: check
flop/ 
HEARTS J 
SPADES Q 
HEARTS 8 
/flop 

---flop round bet---
valid player: 3, all in player: 0, fold player: 1
send inquire msg to player 6666 
inquire/ 
7777 1765 4036 0 fold 
4444 50363 8000 100 check 
6666 11360 4109 100 call 
total pot: 200 
/inquire 
recv from player 6666: check
send inquire msg to player 4444 
inquire/ 
6666 11360 4109 100 check 
7777 1765 4036 0 fold 
4444 50363 8000 100 check 
total pot: 200 
/inquire 
recv from player 4444: check
turn/ 
CLUBS 2 
/turn 

---turn round bet---
valid player: 3, all in player: 0, fold player: 1
send inquire msg to player 6666 
inquire/ 
7777 1765 4036 0 fold 
4444 50363 8000 100 check 
6666 11360 4109 100 check 
total pot: 200 
/inquire 
recv from player 6666: check
send inquire msg to player 4444 
inquire/ 
6666 11360 4109 100 check 
7777 1765 4036 0 fold 
4444 50363 8000 100 check 
total pot: 200 
/inquire 
recv from player 4444: check
river/ 
CLUBS J 
/river 

---river round bet---
valid player: 3, all in player: 0, fold player: 1
send inquire msg to player 6666 
inquire/ 
7777 1765 4036 0 fold 
4444 50363 8000 100 check 
6666 11360 4109 100 check 
total pot: 200 
/inquire 
recv from player 6666: check
send inquire msg to player 4444 
inquire/ 
6666 11360 4109 100 check 
7777 1765 4036 0 fold 
4444 50363 8000 100 check 
total pot: 200 
/inquire 
recv from player 4444: check

---show down---
showdown/ 
common/ 
HEARTS J 
SPADES Q 
HEARTS 8 
CLUBS 2 
CLUBS J 
/common 
2: 6666 CLUBS A DIAMONDS 5 ONE_PAIR 
1: 4444 HEARTS K SPADES A ONE_PAIR 
/showdown 

---Allocate pot---
pot-win/ 
4444: 200 
/pot-win 
it is player 6666's turn to be button

-----132 Hand-----

----- clean player data in socket -----
seat/ 
button: 6666 11360 4109 
small blind: 4444 50563 8000 
big blind: 7777 1765 4036 
/seat 
blind/ 
4444: 50 
7777: 100 
/blind 
player 4444:hold/ 
DIAMONDS 10 
SPADES 4 
/hold 
player 7777:hold/ 
SPADES 5 
DIAMONDS 4 
/hold 
player 6666:hold/ 
HEARTS K 
DIAMONDS 6 
/hold 

---pre flop round bet---
valid player: 3, all in player: 0, fold player: 0
send inquire msg to player 6666 
inquire/ 
7777 1665 4036 100 blind 
4444 50513 8000 50 blind 
total pot: 150 
/inquire 
recv from player 6666: fold
send inquire msg to player 4444 
inquire/ 
6666 11360 4109 0 fold 
7777 1665 4036 100 blind 
4444 50513 8000 50 blind 
total pot: 150 
/inquire 
recv from player 4444: check
send inquire msg to player 7777 
inquire/ 
4444 50463 8000 100 call 
6666 11360 4109 0 fold 
7777 1665 4036 100 blind 
total pot: 200 
/inquire 
recv from player 7777: check
flop/ 
CLUBS 5 
CLUBS 6 
HEARTS 3 
/flop 

---flop round bet---
valid player: 3, all in player: 0, fold player: 1
send inquire msg to player 4444 
inquire/ 
6666 11360 4109 0 fold 
7777 1665 4036 100 check 
4444 50463 8000 100 call 
total pot: 200 
/inquire 
recv from player 4444: check
send inquire msg to player 7777 
inquire/ 
4444 50463 8000 100 check 
6666 11360 4109 0 fold 
7777 1665 4036 100 check 
total pot: 200 
/inquire 
recv from player 7777: check
turn/ 
DIAMONDS 3 
/turn 

---turn round bet---
valid player: 3, all in player: 0, fold player: 1
send inquire msg to player 4444 
inquire/ 
6666 11360 4109 0 fold 
7777 1665 4036 100 check 
4444 50463 8000 100 check 
total pot: 200 
/inquire 
recv from player 4444: check
send inquire msg to player 7777 
inquire/ 
4444 50463 8000 100 check 
6666 11360 4109 0 fold 
7777 1665 4036 100 check 
total pot: 200 
/inquire 
recv from player 7777: check
river/ 
CLUBS 7 
/river 

---river round bet---
valid player: 3, all in player: 0, fold player: 1
send inquire msg to player 4444 
inquire/ 
6666 11360 4109 0 fold 
7777 1665 4036 100 check 
4444 50463 8000 100 check 
total pot: 200 
/inquire 
recv from player 4444: check
send inquire msg to player 7777 
inquire/ 
4444 50463 8000 100 check 
6666 11360 4109 0 fold 
7777 1665 4036 100 check 
total pot: 200 
/inquire 
recv from player 7777: check

---show down---
showdown/ 
common/ 
CLUBS 5 
CLUBS 6 
HEARTS 3 
DIAMONDS 3 
CLUBS 7 
/common 
1: 4444 DIAMONDS 10 SPADES 4 STRAIGHT 
1: 7777 SPADES 5 DIAMONDS 4 STRAIGHT 
/showdown 

---Allocate pot---
pot-win/ 
4444: 100 
7777: 100 
/pot-win 
it is player 4444's turn to be button

-----133 Hand-----

----- clean player data in socket -----
seat/ 
button: 4444 50563 8000 
small blind: 7777 1765 4036 
big blind: 6666 11360 4109 
/seat 
blind/ 
7777: 50 
6666: 100 
/blind 
player 7777:hold/ 
CLUBS 4 
HEARTS 8 
/hold 
player 6666:hold/ 
CLUBS 8 
CLUBS 9 
/hold 
player 4444:hold/ 
SPADES K 
HEARTS J 
/hold 

---pre flop round bet---
valid player: 3, all in player: 0, fold player: 0
send inquire msg to player 4444 
inquire/ 
6666 11260 4109 100 blind 
7777 1715 4036 50 blind 
total pot: 150 
/inquire 
recv from player 4444: raise 3840
send inquire msg to player 7777 
inquire/ 
4444 46623 8000 3940 raise 
6666 11260 4109 100 blind 
7777 1715 4036 50 blind 
total pot: 4090 
/inquire 
recv from player 7777: fold
send inquire msg to player 6666 
inquire/ 
7777 1715 4036 50 fold 
4444 46623 8000 3940 raise 
6666 11260 4109 100 blind 
total pot: 4090 
/inquire 
recv from player 6666: fold

---flop round bet---
valid player: 3, all in player: 0, fold player: 2

---turn round bet---
valid player: 3, all in player: 0, fold player: 2

---river round bet---
valid player: 3, all in player: 0, fold player: 2

--- 1 players not fold, don't need show down---

---Allocate pot---
Only player at seat 7 not fold, win all the pot 4090
pot-win/ 
4444: 4090 
/pot-win 
it is player 7777's turn to be button

-----134 Hand-----

----- clean player data in socket -----
seat/ 
button: 7777 1715 4036 
small blind: 6666 11260 4109 
big blind: 4444 50713 8000 
/seat 
blind/ 
6666: 50 
4444: 100 
/blind 
player 6666:hold/ 
DIAMONDS 9 
SPADES 9 
/hold 
player 4444:hold/ 
HEARTS J 
DIAMONDS 5 
/hold 
player 7777:hold/ 
SPADES 2 
CLUBS 2 
/hold 

---pre flop round bet---
valid player: 3, all in player: 0, fold player: 0
send inquire msg to player 7777 
inquire/ 
4444 50613 8000 100 blind 
6666 11210 4109 50 blind 
total pot: 150 
/inquire 
recv from player 7777: fold
send inquire msg to player 6666 
inquire/ 
7777 1715 4036 0 fold 
4444 50613 8000 100 blind 
6666 11210 4109 50 blind 
total pot: 150 
/inquire 
recv from player 6666: check
send inquire msg to player 4444 
inquire/ 
6666 11160 4109 100 call 
7777 1715 4036 0 fold 
4444 50613 8000 100 blind 
total pot: 200 
/inquire 
recv from player 4444: check
flop/ 
HEARTS 10 
HEARTS 9 
SPADES A 
/flop 

---flop round bet---
valid player: 3, all in player: 0, fold player: 1
send inquire msg to player 6666 
inquire/ 
7777 1715 4036 0 fold 
4444 50613 8000 100 check 
6666 11160 4109 100 call 
total pot: 200 
/inquire 
recv from player 6666: check
send inquire msg to player 4444 
inquire/ 
6666 11160 4109 100 check 
7777 1715 4036 0 fold 
4444 50613 8000 100 check 
total pot: 200 
/inquire 
recv from player 4444: check
turn/ 
CLUBS Q 
/turn 

---turn round bet---
valid player: 3, all in player: 0, fold player: 1
send inquire msg to player 6666 
inquire/ 
7777 1715 4036 0 fold 
4444 50613 8000 100 check 
6666 11160 4109 100 check 
total pot: 200 
/inquire 
recv from player 6666: check
send inquire msg to player 4444 
inquire/ 
6666 11160 4109 100 check 
7777 1715 4036 0 fold 
4444 50613 8000 100 check 
total pot: 200 
/inquire 
recv from player 4444: check
river/ 
HEARTS 2 
/river 

---river round bet---
valid player: 3, all in player: 0, fold player: 1
send inquire msg to player 6666 
inquire/ 
7777 1715 4036 0 fold 
4444 50613 8000 100 check 
6666 11160 4109 100 check 
total pot: 200 
/inquire 
recv from player 6666: check
send inquire msg to player 4444 
inquire/ 
6666 11160 4109 100 check 
7777 1715 4036 0 fold 
4444 50613 8000 100 check 
total pot: 200 
/inquire 
recv from player 4444: check

---show down---
showdown/ 
common/ 
HEARTS 10 
HEARTS 9 
SPADES A 
CLUBS Q 
HEARTS 2 
/common 
1: 6666 DIAMONDS 9 SPADES 9 THREE_OF_A_KIND 
2: 4444 HEARTS J DIAMONDS 5 HIGH_CARD 
/showdown 

---Allocate pot---
pot-win/ 
6666: 200 
/pot-win 
it is player 6666's turn to be button

-----135 Hand-----

----- clean player data in socket -----
seat/ 
button: 6666 11360 4109 
small blind: 4444 50613 8000 
big blind: 7777 1715 4036 
/seat 
blind/ 
4444: 50 
7777: 100 
/blind 
player 4444:hold/ 
HEARTS 10 
CLUBS 3 
/hold 
player 7777:hold/ 
CLUBS A 
DIAMONDS K 
/hold 
player 6666:hold/ 
SPADES K 
DIAMONDS 3 
/hold 

---pre flop round bet---
valid player: 3, all in player: 0, fold player: 0
send inquire msg to player 6666 
inquire/ 
7777 1615 4036 100 blind 
4444 50563 8000 50 blind 
total pot: 150 
/inquire 
recv from player 6666: fold
send inquire msg to player 4444 
inquire/ 
6666 11360 4109 0 fold 
7777 1615 4036 100 blind 
4444 50563 8000 50 blind 
total pot: 150 
/inquire 
recv from player 4444: check
send inquire msg to player 7777 
inquire/ 
4444 50513 8000 100 call 
6666 11360 4109 0 fold 
7777 1615 4036 100 blind 
total pot: 200 
/inquire 
recv from player 7777: check
flop/ 
SPADES 4 
CLUBS 6 
CLUBS Q 
/flop 

---flop round bet---
valid player: 3, all in player: 0, fold player: 1
send inquire msg to player 4444 
inquire/ 
6666 11360 4109 0 fold 
7777 1615 4036 100 check 
4444 50513 8000 100 call 
total pot: 200 
/inquire 
recv from player 4444: check
send inquire msg to player 7777 
inquire/ 
4444 50513 8000 100 check 
6666 11360 4109 0 fold 
7777 1615 4036 100 check 
total pot: 200 
/inquire 
recv from player 7777: check
turn/ 
SPADES 5 
/turn 

---turn round bet---
valid player: 3, all in player: 0, fold player: 1
send inquire msg to player 4444 
inquire/ 
6666 11360 4109 0 fold 
7777 1615 4036 100 check 
4444 50513 8000 100 check 
total pot: 200 
/inquire 
recv from player 4444: check
send inquire msg to player 7777 
inquire/ 
4444 50513 8000 100 check 
6666 11360 4109 0 fold 
7777 1615 4036 100 check 
total pot: 200 
/inquire 
recv from player 7777: check
river/ 
HEARTS 3 
/river 

---river round bet---
valid player: 3, all in player: 0, fold player: 1
send inquire msg to player 4444 
inquire/ 
6666 11360 4109 0 fold 
7777 1615 4036 100 check 
4444 50513 8000 100 check 
total pot: 200 
/inquire 
recv from player 4444: check
send inquire msg to player 7777 
inquire/ 
4444 50513 8000 100 check 
6666 11360 4109 0 fold 
7777 1615 4036 100 check 
total pot: 200 
/inquire 
recv from player 7777: check

---show down---
showdown/ 
common/ 
SPADES 4 
CLUBS 6 
CLUBS Q 
SPADES 5 
HEARTS 3 
/common 
1: 4444 HEARTS 10 CLUBS 3 ONE_PAIR 
2: 7777 CLUBS A DIAMONDS K HIGH_CARD 
/showdown 

---Allocate pot---
pot-win/ 
4444: 200 
/pot-win 
it is player 4444's turn to be button

-----136 Hand-----

----- clean player data in socket -----
seat/ 
button: 4444 50713 8000 
small blind: 7777 1615 4036 
big blind: 6666 11360 4109 
/seat 
blind/ 
7777: 50 
6666: 100 
/blind 
player 7777:hold/ 
DIAMONDS 6 
SPADES 10 
/hold 
player 6666:hold/ 
DIAMONDS J 
HEARTS 7 
/hold 
player 4444:hold/ 
CLUBS A 
HEARTS 8 
/hold 

---pre flop round bet---
valid player: 3, all in player: 0, fold player: 0
send inquire msg to player 4444 
inquire/ 
6666 11260 4109 100 blind 
7777 1565 4036 50 blind 
total pot: 150 
/inquire 
recv from player 4444: raise 1896
send inquire msg to player 7777 
inquire/ 
4444 48717 8000 1996 raise 
6666 11260 4109 100 blind 
7777 1565 4036 50 blind 
total pot: 2146 
/inquire 
recv from player 7777: fold
send inquire msg to player 6666 
inquire/ 
7777 1565 4036 50 fold 
4444 48717 8000 1996 raise 
6666 11260 4109 100 blind 
total pot: 2146 
/inquire 
recv from player 6666: fold

---flop round bet---
valid player: 3, all in player: 0, fold player: 2

---turn round bet---
valid player: 3, all in player: 0, fold player: 2

---river round bet---
valid player: 3, all in player: 0, fold player: 2

--- 1 players not fold, don't need show down---

---Allocate pot---
Only player at seat 7 not fold, win all the pot 2146
pot-win/ 
4444: 2146 
/pot-win 
it is player 7777's turn to be button

-----137 Hand-----

----- clean player data in socket -----
seat/ 
button: 7777 1565 4036 
small blind: 6666 11260 4109 
big blind: 4444 50863 8000 
/seat 
blind/ 
6666: 50 
4444: 100 
/blind 
player 6666:hold/ 
DIAMONDS 6 
SPADES 10 
/hold 
player 4444:hold/ 
DIAMONDS J 
HEARTS 7 
/hold 
player 7777:hold/ 
CLUBS A 
HEARTS 8 
/hold 

---pre flop round bet---
valid player: 3, all in player: 0, fold player: 0
send inquire msg to player 7777 
inquire/ 
4444 50763 8000 100 blind 
6666 11210 4109 50 blind 
total pot: 150 
/inquire 
recv from player 7777: check
send inquire msg to player 6666 
inquire/ 
7777 1465 4036 100 call 
4444 50763 8000 100 blind 
6666 11210 4109 50 blind 
total pot: 250 
/inquire 
recv from player 6666: check
send inquire msg to player 4444 
inquire/ 
6666 11160 4109 100 call 
7777 1465 4036 100 call 
4444 50763 8000 100 blind 
total pot: 300 
/inquire 
recv from player 4444: check
flop/ 
SPADES 2 
DIAMONDS A 
DIAMONDS 3 
/flop 

---flop round bet---
valid player: 3, all in player: 0, fold player: 0
send inquire msg to player 6666 
inquire/ 
7777 1465 4036 100 call 
4444 50763 8000 100 check 
6666 11160 4109 100 call 
total pot: 300 
/inquire 
recv from player 6666: check
send inquire msg to player 4444 
inquire/ 
6666 11160 4109 100 check 
7777 1465 4036 100 call 
4444 50763 8000 100 check 
total pot: 300 
/inquire 
recv from player 4444: check
send inquire msg to player 7777 
inquire/ 
4444 50763 8000 100 check 
6666 11160 4109 100 check 
7777 1465 4036 100 call 
total pot: 300 
/inquire 
recv from player 7777: check
turn/ 
SPADES 6 
/turn 

---turn round bet---
valid player: 3, all in player: 0, fold player: 0
send inquire msg to player 6666 
inquire/ 
7777 1465 4036 100 check 
4444 50763 8000 100 check 
6666 11160 4109 100 check 
total pot: 300 
/inquire 
recv from player 6666: raise 103
send inquire msg to player 4444 
inquire/ 
6666 11057 4109 203 raise 
7777 1465 4036 100 check 
4444 50763 8000 100 check 
total pot: 403 
/inquire 
recv from player 4444: fold
send inquire msg to player 7777 
inquire/ 
4444 50763 8000 100 fold 
6666 11057 4109 203 raise 
7777 1465 4036 100 check 
total pot: 403 
/inquire 
recv from player 7777: check
river/ 
CLUBS K 
/river 

---river round bet---
valid player: 3, all in player: 0, fold player: 1
send inquire msg to player 6666 
inquire/ 
7777 1362 4036 203 call 
4444 50763 8000 100 fold 
6666 11057 4109 203 raise 
total pot: 506 
/inquire 
recv from player 6666: check
send inquire msg to player 4444 
inquire/ 
6666 11057 4109 203 check 
7777 1362 4036 203 call 
4444 50763 8000 100 fold 
total pot: 506 
/inquire 
send inquire msg to player 7777 
inquire/ 
4444 50763 8000 100 fold 
6666 11057 4109 203 check 
7777 1362 4036 203 call 
total pot: 506 
/inquire 
recv from player 7777: check

---show down---
showdown/ 
common/ 
SPADES 2 
DIAMONDS A 
DIAMONDS 3 
SPADES 6 
CLUBS K 
/common 
2: 6666 DIAMONDS 6 SPADES 10 ONE_PAIR 
1: 7777 CLUBS A HEARTS 8 ONE_PAIR 
/showdown 

---Allocate pot---
pot-win/ 
7777: 506 
/pot-win 
it is player 6666's turn to be button

-----138 Hand-----

----- clean player data in socket -----
seat/ 
button: 6666 11057 4109 
small blind: 4444 50763 8000 
big blind: 7777 1868 4036 
/seat 
blind/ 
4444: 50 
7777: 100 
/blind 
player 4444:hold/ 
DIAMONDS 8 
SPADES 8 
/hold 
player 7777:hold/ 
DIAMONDS 4 
SPADES 6 
/hold 
player 6666:hold/ 
CLUBS 6 
HEARTS 7 
/hold 

---pre flop round bet---
valid player: 3, all in player: 0, fold player: 0
send inquire msg to player 6666 
inquire/ 
7777 1768 4036 100 blind 
4444 50713 8000 50 blind 
total pot: 150 
/inquire 
recv from player 6666: fold
send inquire msg to player 4444 
inquire/ 
6666 11057 4109 0 fold 
7777 1768 4036 100 blind 
4444 50713 8000 50 blind 
total pot: 150 
/inquire 
recv from player 4444: check
send inquire msg to player 7777 
inquire/ 
4444 50663 8000 100 call 
6666 11057 4109 0 fold 
7777 1768 4036 100 blind 
total pot: 200 
/inquire 
recv from player 7777: check
flop/ 
CLUBS 7 
CLUBS 5 
HEARTS 9 
/flop 

---flop round bet---
valid player: 3, all in player: 0, fold player: 1
send inquire msg to player 4444 
inquire/ 
6666 11057 4109 0 fold 
7777 1768 4036 100 check 
4444 50663 8000 100 call 
total pot: 200 
/inquire 
recv from player 4444: check
send inquire msg to player 7777 
inquire/ 
4444 50663 8000 100 check 
6666 11057 4109 0 fold 
7777 1768 4036 100 check 
total pot: 200 
/inquire 
recv from player 7777: check
turn/ 
SPADES J 
/turn 

---turn round bet---
valid player: 3, all in player: 0, fold player: 1
send inquire msg to player 4444 
inquire/ 
6666 11057 4109 0 fold 
7777 1768 4036 100 check 
4444 50663 8000 100 check 
total pot: 200 
/inquire 
recv from player 4444: check
send inquire msg to player 7777 
inquire/ 
4444 50663 8000 100 check 
6666 11057 4109 0 fold 
7777 1768 4036 100 check 
total pot: 200 
/inquire 
recv from player 7777: check
river/ 
HEARTS 8 
/river 

---river round bet---
valid player: 3, all in player: 0, fold player: 1
send inquire msg to player 4444 
inquire/ 
6666 11057 4109 0 fold 
7777 1768 4036 100 check 
4444 50663 8000 100 check 
total pot: 200 
/inquire 
recv from player 4444: check
send inquire msg to player 7777 
inquire/ 
4444 50663 8000 100 check 
6666 11057 4109 0 fold 
7777 1768 4036 100 check 
total pot: 200 
/inquire 
recv from player 7777: check

---show down---
showdown/ 
common/ 
CLUBS 7 
CLUBS 5 
HEARTS 9 
SPADES J 
HEARTS 8 
/common 
2: 4444 DIAMONDS 8 SPADES 8 THREE_OF_A_KIND 
1: 7777 DIAMONDS 4 SPADES 6 STRAIGHT 
/showdown 

---Allocate pot---
pot-win/ 
7777: 200 
/pot-win 
it is player 4444's turn to be button

-----139 Hand-----

----- clean player data in socket -----
seat/ 
button: 4444 50663 8000 
small blind: 7777 1968 4036 
big blind: 6666 11057 4109 
/seat 
blind/ 
7777: 50 
6666: 100 
/blind 
player 7777:hold/ 
DIAMONDS 5 
SPADES 4 
/hold 
player 6666:hold/ 
SPADES 10 
SPADES Q 
/hold 
player 4444:hold/ 
CLUBS 4 
CLUBS 8 
/hold 

---pre flop round bet---
valid player: 3, all in player: 0, fold player: 0
send inquire msg to player 4444 
inquire/ 
6666 10957 4109 100 blind 
7777 1918 4036 50 blind 
total pot: 150 
/inquire 
recv from player 4444: fold
send inquire msg to player 7777 
inquire/ 
4444 50663 8000 0 fold 
6666 10957 4109 100 blind 
7777 1918 4036 50 blind 
total pot: 150 
/inquire 
recv from player 7777: check
send inquire msg to player 6666 
inquire/ 
7777 1868 4036 100 call 
4444 50663 8000 0 fold 
6666 10957 4109 100 blind 
total pot: 200 
/inquire 
recv from player 6666: check
flop/ 
DIAMONDS K 
HEARTS Q 
SPADES J 
/flop 

---flop round bet---
valid player: 3, all in player: 0, fold player: 1
send inquire msg to player 7777 
inquire/ 
4444 50663 8000 0 fold 
6666 10957 4109 100 check 
7777 1868 4036 100 call 
total pot: 200 
/inquire 
recv from player 7777: check
send inquire msg to player 6666 
inquire/ 
7777 1868 4036 100 check 
4444 50663 8000 0 fold 
6666 10957 4109 100 check 
total pot: 200 
/inquire 
recv from player 6666: check
turn/ 
HEARTS 4 
/turn 

---turn round bet---
valid player: 3, all in player: 0, fold player: 1
send inquire msg to player 7777 
inquire/ 
4444 50663 8000 0 fold 
6666 10957 4109 100 check 
7777 1868 4036 100 check 
total pot: 200 
/inquire 
recv from player 7777: check
send inquire msg to player 6666 
inquire/ 
7777 1868 4036 100 check 
4444 50663 8000 0 fold 
6666 10957 4109 100 check 
total pot: 200 
/inquire 
recv from player 6666: check
river/ 
SPADES 2 
/river 

---river round bet---
valid player: 3, all in player: 0, fold player: 1
send inquire msg to player 7777 
inquire/ 
4444 50663 8000 0 fold 
6666 10957 4109 100 check 
7777 1868 4036 100 check 
total pot: 200 
/inquire 
recv from player 7777: check
send inquire msg to player 6666 
inquire/ 
7777 1868 4036 100 check 
4444 50663 8000 0 fold 
6666 10957 4109 100 check 
total pot: 200 
/inquire 
recv from player 6666: check

---show down---
showdown/ 
common/ 
DIAMONDS K 
HEARTS Q 
SPADES J 
HEARTS 4 
SPADES 2 
/common 
2: 7777 DIAMONDS 5 SPADES 4 ONE_PAIR 
1: 6666 SPADES 10 SPADES Q ONE_PAIR 
/showdown 

---Allocate pot---
pot-win/ 
6666: 200 
/pot-win 
it is player 7777's turn to be button

-----140 Hand-----

----- clean player data in socket -----
seat/ 
button: 7777 1868 4036 
small blind: 6666 11157 4109 
big blind: 4444 50663 8000 
/seat 
blind/ 
6666: 50 
4444: 100 
/blind 
player 6666:hold/ 
DIAMONDS 7 
CLUBS 6 
/hold 
player 4444:hold/ 
SPADES 7 
DIAMONDS J 
/hold 
player 7777:hold/ 
SPADES 5 
DIAMONDS 6 
/hold 

---pre flop round bet---
valid player: 3, all in player: 0, fold player: 0
send inquire msg to player 7777 
inquire/ 
4444 50563 8000 100 blind 
6666 11107 4109 50 blind 
total pot: 150 
/inquire 
recv from player 7777: fold
send inquire msg to player 6666 
inquire/ 
7777 1868 4036 0 fold 
4444 50563 8000 100 blind 
6666 11107 4109 50 blind 
total pot: 150 
/inquire 
recv from player 6666: check
send inquire msg to player 4444 
inquire/ 
6666 11057 4109 100 call 
7777 1868 4036 0 fold 
4444 50563 8000 100 blind 
total pot: 200 
/inquire 
recv from player 4444: check
flop/ 
SPADES 3 
CLUBS 3 
SPADES Q 
/flop 

---flop round bet---
valid player: 3, all in player: 0, fold player: 1
send inquire msg to player 6666 
inquire/ 
7777 1868 4036 0 fold 
4444 50563 8000 100 check 
6666 11057 4109 100 call 
total pot: 200 
/inquire 
recv from player 6666: check
send inquire msg to player 4444 
inquire/ 
6666 11057 4109 100 check 
7777 1868 4036 0 fold 
4444 50563 8000 100 check 
total pot: 200 
/inquire 
recv from player 4444: check
turn/ 
SPADES 10 
/turn 

---turn round bet---
valid player: 3, all in player: 0, fold player: 1
send inquire msg to player 6666 
inquire/ 
7777 1868 4036 0 fold 
4444 50563 8000 100 check 
6666 11057 4109 100 check 
total pot: 200 
/inquire 
recv from player 6666: check
send inquire msg to player 4444 
inquire/ 
6666 11057 4109 100 check 
7777 1868 4036 0 fold 
4444 50563 8000 100 check 
total pot: 200 
/inquire 
recv from player 4444: check
river/ 
SPADES 2 
/river 

---river round bet---
valid player: 3, all in player: 0, fold player: 1
send inquire msg to player 6666 
inquire/ 
7777 1868 4036 0 fold 
4444 50563 8000 100 check 
6666 11057 4109 100 check 
total pot: 200 
/inquire 
recv from player 6666: check
send inquire msg to player 4444 
inquire/ 
6666 11057 4109 100 check 
7777 1868 4036 0 fold 
4444 50563 8000 100 check 
total pot: 200 
/inquire 
recv from player 4444: check

---show down---
showdown/ 
common/ 
SPADES 3 
CLUBS 3 
SPADES Q 
SPADES 10 
SPADES 2 
/common 
2: 6666 DIAMONDS 7 CLUBS 6 ONE_PAIR 
1: 4444 SPADES 7 DIAMONDS J FLUSH 
/showdown 

---Allocate pot---
pot-win/ 
4444: 200 
/pot-win 
it is player 6666's turn to be button

-----141 Hand-----

----- clean player data in socket -----
seat/ 
button: 6666 11057 4109 
small blind: 4444 50763 8000 
big blind: 7777 1868 4036 
/seat 
blind/ 
4444: 50 
7777: 100 
/blind 
player 4444:hold/ 
DIAMONDS 2 
DIAMONDS 3 
/hold 
player 7777:hold/ 
HEARTS 5 
SPADES 7 
/hold 
player 6666:hold/ 
DIAMONDS 4 
HEARTS A 
/hold 

---pre flop round bet---
valid player: 3, all in player: 0, fold player: 0
send inquire msg to player 6666 
inquire/ 
7777 1768 4036 100 blind 
4444 50713 8000 50 blind 
total pot: 150 
/inquire 
recv from player 6666: check
send inquire msg to player 4444 
inquire/ 
6666 10957 4109 100 call 
7777 1768 4036 100 blind 
4444 50713 8000 50 blind 
total pot: 250 
/inquire 
recv from player 4444: check
send inquire msg to player 7777 
inquire/ 
4444 50663 8000 100 call 
6666 10957 4109 100 call 
7777 1768 4036 100 blind 
total pot: 300 
/inquire 
recv from player 7777: check
flop/ 
CLUBS J 
HEARTS 7 
CLUBS 6 
/flop 

---flop round bet---
valid player: 3, all in player: 0, fold player: 0
send inquire msg to player 4444 
inquire/ 
6666 10957 4109 100 call 
7777 1768 4036 100 check 
4444 50663 8000 100 call 
total pot: 300 
/inquire 
recv from player 4444: check
send inquire msg to player 7777 
inquire/ 
4444 50663 8000 100 check 
6666 10957 4109 100 call 
7777 1768 4036 100 check 
total pot: 300 
/inquire 
recv from player 7777: check
send inquire msg to player 6666 
inquire/ 
7777 1768 4036 100 check 
4444 50663 8000 100 check 
6666 10957 4109 100 call 
total pot: 300 
/inquire 
recv from player 6666: check
turn/ 
DIAMONDS 8 
/turn 

---turn round bet---
valid player: 3, all in player: 0, fold player: 0
send inquire msg to player 4444 
inquire/ 
6666 10957 4109 100 check 
7777 1768 4036 100 check 
4444 50663 8000 100 check 
total pot: 300 
/inquire 
recv from player 4444: check
send inquire msg to player 7777 
inquire/ 
4444 50663 8000 100 check 
6666 10957 4109 100 check 
7777 1768 4036 100 check 
total pot: 300 
/inquire 
recv from player 7777: check
send inquire msg to player 6666 
inquire/ 
7777 1768 4036 100 check 
4444 50663 8000 100 check 
6666 10957 4109 100 check 
total pot: 300 
/inquire 
recv from player 6666: check
river/ 
CLUBS 10 
/river 

---river round bet---
valid player: 3, all in player: 0, fold player: 0
send inquire msg to player 4444 
inquire/ 
6666 10957 4109 100 check 
7777 1768 4036 100 check 
4444 50663 8000 100 check 
total pot: 300 
/inquire 
recv from player 4444: check
send inquire msg to player 7777 
inquire/ 
4444 50663 8000 100 check 
6666 10957 4109 100 check 
7777 1768 4036 100 check 
total pot: 300 
/inquire 
recv from player 7777: check
send inquire msg to player 6666 
inquire/ 
7777 1768 4036 100 check 
4444 50663 8000 100 check 
6666 10957 4109 100 check 
total pot: 300 
/inquire 
recv from player 6666: check

---show down---
showdown/ 
common/ 
CLUBS J 
HEARTS 7 
CLUBS 6 
DIAMONDS 8 
CLUBS 10 
/common 
3: 4444 DIAMONDS 2 DIAMONDS 3 HIGH_CARD 
1: 7777 HEARTS 5 SPADES 7 ONE_PAIR 
2: 6666 DIAMONDS 4 HEARTS A HIGH_CARD 
/showdown 

---Allocate pot---
pot-win/ 
7777: 300 
/pot-win 
it is player 4444's turn to be button

-----142 Hand-----

----- clean player data in socket -----
seat/ 
button: 4444 50663 8000 
small blind: 7777 2068 4036 
big blind: 6666 10957 4109 
/seat 
blind/ 
7777: 50 
6666: 100 
/blind 
player 7777:hold/ 
CLUBS 2 
HEARTS J 
/hold 
player 6666:hold/ 
HEARTS 2 
DIAMONDS A 
/hold 
player 4444:hold/ 
DIAMONDS 5 
DIAMONDS 2 
/hold 

---pre flop round bet---
valid player: 3, all in player: 0, fold player: 0
send inquire msg to player 4444 
inquire/ 
6666 10857 4109 100 blind 
7777 2018 4036 50 blind 
total pot: 150 
/inquire 
recv from player 4444: fold
send inquire msg to player 7777 
inquire/ 
4444 50663 8000 0 fold 
6666 10857 4109 100 blind 
7777 2018 4036 50 blind 
total pot: 150 
/inquire 
recv from player 7777: check
send inquire msg to player 6666 
inquire/ 
7777 1968 4036 100 call 
4444 50663 8000 0 fold 
6666 10857 4109 100 blind 
total pot: 200 
/inquire 
recv from player 6666: check
flop/ 
DIAMONDS Q 
HEARTS 9 
HEARTS Q 
/flop 

---flop round bet---
valid player: 3, all in player: 0, fold player: 1
send inquire msg to player 7777 
inquire/ 
4444 50663 8000 0 fold 
6666 10857 4109 100 check 
7777 1968 4036 100 call 
total pot: 200 
/inquire 
recv from player 7777: check
send inquire msg to player 6666 
inquire/ 
7777 1968 4036 100 check 
4444 50663 8000 0 fold 
6666 10857 4109 100 check 
total pot: 200 
/inquire 
recv from player 6666: check
turn/ 
DIAMONDS 4 
/turn 

---turn round bet---
valid player: 3, all in player: 0, fold player: 1
send inquire msg to player 7777 
inquire/ 
4444 50663 8000 0 fold 
6666 10857 4109 100 check 
7777 1968 4036 100 check 
total pot: 200 
/inquire 
recv from player 7777: check
send inquire msg to player 6666 
inquire/ 
7777 1968 4036 100 check 
4444 50663 8000 0 fold 
6666 10857 4109 100 check 
total pot: 200 
/inquire 
recv from player 6666: check
river/ 
HEARTS K 
/river 

---river round bet---
valid player: 3, all in player: 0, fold player: 1
send inquire msg to player 7777 
inquire/ 
4444 50663 8000 0 fold 
6666 10857 4109 100 check 
7777 1968 4036 100 check 
total pot: 200 
/inquire 
recv from player 7777: check
send inquire msg to player 6666 
inquire/ 
7777 1968 4036 100 check 
4444 50663 8000 0 fold 
6666 10857 4109 100 check 
total pot: 200 
/inquire 
recv from player 6666: check

---show down---
showdown/ 
common/ 
DIAMONDS Q 
HEARTS 9 
HEARTS Q 
DIAMONDS 4 
HEARTS K 
/common 
2: 7777 CLUBS 2 HEARTS J ONE_PAIR 
1: 6666 HEARTS 2 DIAMONDS A ONE_PAIR 
/showdown 

---Allocate pot---
pot-win/ 
6666: 200 
/pot-win 
it is player 7777's turn to be button

-----143 Hand-----

----- clean player data in socket -----
seat/ 
button: 7777 1968 4036 
small blind: 6666 11057 4109 
big blind: 4444 50663 8000 
/seat 
blind/ 
6666: 50 
4444: 100 
/blind 
player 6666:hold/ 
DIAMONDS K 
HEARTS 4 
/hold 
player 4444:hold/ 
HEARTS 3 
HEARTS 8 
/hold 
player 7777:hold/ 
DIAMONDS 6 
CLUBS 9 
/hold 

---pre flop round bet---
valid player: 3, all in player: 0, fold player: 0
send inquire msg to player 7777 
inquire/ 
4444 50563 8000 100 blind 
6666 11007 4109 50 blind 
total pot: 150 
/inquire 
recv from player 7777: fold
send inquire msg to player 6666 
inquire/ 
7777 1968 4036 0 fold 
4444 50563 8000 100 blind 
6666 11007 4109 50 blind 
total pot: 150 
/inquire 
recv from player 6666: check
send inquire msg to player 4444 
inquire/ 
6666 10957 4109 100 call 
7777 1968 4036 0 fold 
4444 50563 8000 100 blind 
total pot: 200 
/inquire 
recv from player 4444: check
flop/ 
SPADES A 
SPADES 5 
CLUBS 10 
/flop 

---flop round bet---
valid player: 3, all in player: 0, fold player: 1
send inquire msg to player 6666 
inquire/ 
7777 1968 4036 0 fold 
4444 50563 8000 100 check 
6666 10957 4109 100 call 
total pot: 200 
/inquire 
recv from player 6666: check
send inquire msg to player 4444 
inquire/ 
6666 10957 4109 100 check 
7777 1968 4036 0 fold 
4444 50563 8000 100 check 
total pot: 200 
/inquire 
recv from player 4444: check
turn/ 
CLUBS 2 
/turn 

---turn round bet---
valid player: 3, all in player: 0, fold player: 1
send inquire msg to player 6666 
inquire/ 
7777 1968 4036 0 fold 
4444 50563 8000 100 check 
6666 10957 4109 100 check 
total pot: 200 
/inquire 
recv from player 6666: check
send inquire msg to player 4444 
inquire/ 
6666 10957 4109 100 check 
7777 1968 4036 0 fold 
4444 50563 8000 100 check 
total pot: 200 
/inquire 
recv from player 4444: check
river/ 
HEARTS 5 
/river 

---river round bet---
valid player: 3, all in player: 0, fold player: 1
send inquire msg to player 6666 
inquire/ 
7777 1968 4036 0 fold 
4444 50563 8000 100 check 
6666 10957 4109 100 check 
total pot: 200 
/inquire 
recv from player 6666: check
send inquire msg to player 4444 
inquire/ 
6666 10957 4109 100 check 
7777 1968 4036 0 fold 
4444 50563 8000 100 check 
total pot: 200 
/inquire 
recv from player 4444: check

---show down---
showdown/ 
common/ 
SPADES A 
SPADES 5 
CLUBS 10 
CLUBS 2 
HEARTS 5 
/common 
1: 6666 DIAMONDS K HEARTS 4 ONE_PAIR 
2: 4444 HEARTS 3 HEARTS 8 ONE_PAIR 
/showdown 

---Allocate pot---
pot-win/ 
6666: 200 
/pot-win 
it is player 6666's turn to be button

-----144 Hand-----

----- clean player data in socket -----
seat/ 
button: 6666 11157 4109 
small blind: 4444 50563 8000 
big blind: 7777 1968 4036 
/seat 
blind/ 
4444: 50 
7777: 100 
/blind 
player 4444:hold/ 
HEARTS A 
DIAMONDS J 
/hold 
player 7777:hold/ 
HEARTS 2 
SPADES 9 
/hold 
player 6666:hold/ 
HEARTS 10 
CLUBS 3 
/hold 

---pre flop round bet---
valid player: 3, all in player: 0, fold player: 0
send inquire msg to player 6666 
inquire/ 
7777 1868 4036 100 blind 
4444 50513 8000 50 blind 
total pot: 150 
/inquire 
recv from player 6666: fold
send inquire msg to player 4444 
inquire/ 
6666 11157 4109 0 fold 
7777 1868 4036 100 blind 
4444 50513 8000 50 blind 
total pot: 150 
/inquire 
recv from player 4444: check
send inquire msg to player 7777 
inquire/ 
4444 50463 8000 100 call 
6666 11157 4109 0 fold 
7777 1868 4036 100 blind 
total pot: 200 
/inquire 
recv from player 7777: check
flop/ 
DIAMONDS 3 
CLUBS J 
SPADES 7 
/flop 

---flop round bet---
valid player: 3, all in player: 0, fold player: 1
send inquire msg to player 4444 
inquire/ 
6666 11157 4109 0 fold 
7777 1868 4036 100 check 
4444 50463 8000 100 call 
total pot: 200 
/inquire 
recv from player 4444: check
send inquire msg to player 7777 
inquire/ 
4444 50463 8000 100 check 
6666 11157 4109 0 fold 
7777 1868 4036 100 check 
total pot: 200 
/inquire 
recv from player 7777: check
turn/ 
CLUBS 8 
/turn 

---turn round bet---
valid player: 3, all in player: 0, fold player: 1
send inquire msg to player 4444 
inquire/ 
6666 11157 4109 0 fold 
7777 1868 4036 100 check 
4444 50463 8000 100 check 
total pot: 200 
/inquire 
recv from player 4444: check
send inquire msg to player 7777 
inquire/ 
4444 50463 8000 100 check 
6666 11157 4109 0 fold 
7777 1868 4036 100 check 
total pot: 200 
/inquire 
recv from player 7777: check
river/ 
CLUBS 7 
/river 

---river round bet---
valid player: 3, all in player: 0, fold player: 1
send inquire msg to player 4444 
inquire/ 
6666 11157 4109 0 fold 
7777 1868 4036 100 check 
4444 50463 8000 100 check 
total pot: 200 
/inquire 
recv from player 4444: check
send inquire msg to player 7777 
inquire/ 
4444 50463 8000 100 check 
6666 11157 4109 0 fold 
7777 1868 4036 100 check 
total pot: 200 
/inquire 
recv from player 7777: check

---show down---
showdown/ 
common/ 
DIAMONDS 3 
CLUBS J 
SPADES 7 
CLUBS 8 
CLUBS 7 
/common 
1: 4444 HEARTS A DIAMONDS J TWO_PAIR 
2: 7777 HEARTS 2 SPADES 9 ONE_PAIR 
/showdown 

---Allocate pot---
pot-win/ 
4444: 200 
/pot-win 
it is player 4444's turn to be button

-----145 Hand-----

----- clean player data in socket -----
seat/ 
button: 4444 50663 8000 
small blind: 7777 1868 4036 
big blind: 6666 11157 4109 
/seat 
blind/ 
7777: 50 
6666: 100 
/blind 
player 7777:hold/ 
DIAMONDS J 
SPADES 4 
/hold 
player 6666:hold/ 
HEARTS 4 
DIAMONDS 9 
/hold 
player 4444:hold/ 
SPADES K 
DIAMONDS 6 
/hold 

---pre flop round bet---
valid player: 3, all in player: 0, fold player: 0
send inquire msg to player 4444 
inquire/ 
6666 11057 4109 100 blind 
7777 1818 4036 50 blind 
total pot: 150 
/inquire 
recv from player 4444: fold
send inquire msg to player 7777 
inquire/ 
4444 50663 8000 0 fold 
6666 11057 4109 100 blind 
7777 1818 4036 50 blind 
total pot: 150 
/inquire 
recv from player 7777: check
send inquire msg to player 6666 
inquire/ 
7777 1768 4036 100 call 
4444 50663 8000 0 fold 
6666 11057 4109 100 blind 
total pot: 200 
/inquire 
recv from player 6666: check
flop/ 
DIAMONDS 3 
CLUBS 10 
DIAMONDS Q 
/flop 

---flop round bet---
valid player: 3, all in player: 0, fold player: 1
send inquire msg to player 7777 
inquire/ 
4444 50663 8000 0 fold 
6666 11057 4109 100 check 
7777 1768 4036 100 call 
total pot: 200 
/inquire 
recv from player 7777: check
send inquire msg to player 6666 
inquire/ 
7777 1768 4036 100 check 
4444 50663 8000 0 fold 
6666 11057 4109 100 check 
total pot: 200 
/inquire 
recv from player 6666: check
turn/ 
SPADES 2 
/turn 

---turn round bet---
valid player: 3, all in player: 0, fold player: 1
send inquire msg to player 7777 
inquire/ 
4444 50663 8000 0 fold 
6666 11057 4109 100 check 
7777 1768 4036 100 check 
total pot: 200 
/inquire 
recv from player 7777: check
send inquire msg to player 6666 
inquire/ 
7777 1768 4036 100 check 
4444 50663 8000 0 fold 
6666 11057 4109 100 check 
total pot: 200 
/inquire 
recv from player 6666: check
river/ 
DIAMONDS K 
/river 

---river round bet---
valid player: 3, all in player: 0, fold player: 1
send inquire msg to player 7777 
inquire/ 
4444 50663 8000 0 fold 
6666 11057 4109 100 check 
7777 1768 4036 100 check 
total pot: 200 
/inquire 
recv from player 7777: check
send inquire msg to player 6666 
inquire/ 
7777 1768 4036 100 check 
4444 50663 8000 0 fold 
6666 11057 4109 100 check 
total pot: 200 
/inquire 
recv from player 6666: check

---show down---
showdown/ 
common/ 
DIAMONDS 3 
CLUBS 10 
DIAMONDS Q 
SPADES 2 
DIAMONDS K 
/common 
1: 7777 DIAMONDS J SPADES 4 HIGH_CARD 
2: 6666 HEARTS 4 DIAMONDS 9 HIGH_CARD 
/showdown 

---Allocate pot---
pot-win/ 
7777: 200 
/pot-win 
it is player 7777's turn to be button

-----146 Hand-----

----- clean player data in socket -----
seat/ 
button: 7777 1968 4036 
small blind: 6666 11057 4109 
big blind: 4444 50663 8000 
/seat 
blind/ 
6666: 50 
4444: 100 
/blind 
player 6666:hold/ 
SPADES Q 
CLUBS 4 
/hold 
player 4444:hold/ 
CLUBS 10 
CLUBS Q 
/hold 
player 7777:hold/ 
CLUBS J 
DIAMONDS Q 
/hold 

---pre flop round bet---
valid player: 3, all in player: 0, fold player: 0
send inquire msg to player 7777 
inquire/ 
4444 50563 8000 100 blind 
6666 11007 4109 50 blind 
total pot: 150 
/inquire 
recv from player 7777: raise 131
send inquire msg to player 6666 
inquire/ 
7777 1737 4036 231 raise 
4444 50563 8000 100 blind 
6666 11007 4109 50 blind 
total pot: 381 
/inquire 
recv from player 6666: check
send inquire msg to player 4444 
inquire/ 
6666 10826 4109 231 call 
7777 1737 4036 231 raise 
4444 50563 8000 100 blind 
total pot: 562 
/inquire 
recv from player 4444: raise 4310
send inquire msg to player 7777 
inquire/ 
4444 46122 8000 4541 raise 
6666 10826 4109 231 call 
7777 1737 4036 231 raise 
total pot: 5003 
/inquire 
recv from player 7777: fold
send inquire msg to player 6666 
inquire/ 
7777 1737 4036 231 fold 
4444 46122 8000 4541 raise 
6666 10826 4109 231 call 
total pot: 5003 
/inquire 
recv from player 6666: fold

---flop round bet---
valid player: 3, all in player: 0, fold player: 2

---turn round bet---
valid player: 3, all in player: 0, fold player: 2

---river round bet---
valid player: 3, all in player: 0, fold player: 2

--- 1 players not fold, don't need show down---

---Allocate pot---
Only player at seat 1 not fold, win all the pot 5003
pot-win/ 
4444: 5003 
/pot-win 
it is player 6666's turn to be button

-----147 Hand-----

----- clean player data in socket -----
seat/ 
button: 6666 10826 4109 
small blind: 4444 51125 8000 
big blind: 7777 1737 4036 
/seat 
blind/ 
4444: 50 
7777: 100 
/blind 
player 4444:hold/ 
SPADES 6 
HEARTS K 
/hold 
player 7777:hold/ 
CLUBS 2 
DIAMONDS 4 
/hold 
player 6666:hold/ 
CLUBS 10 
HEARTS 8 
/hold 

---pre flop round bet---
valid player: 3, all in player: 0, fold player: 0
send inquire msg to player 6666 
inquire/ 
7777 1637 4036 100 blind 
4444 51075 8000 50 blind 
total pot: 150 
/inquire 
recv from player 6666: fold
send inquire msg to player 4444 
inquire/ 
6666 10826 4109 0 fold 
7777 1637 4036 100 blind 
4444 51075 8000 50 blind 
total pot: 150 
/inquire 
recv from player 4444: check
send inquire msg to player 7777 
inquire/ 
4444 51025 8000 100 call 
6666 10826 4109 0 fold 
7777 1637 4036 100 blind 
total pot: 200 
/inquire 
recv from player 7777: check
flop/ 
HEARTS 9 
HEARTS 5 
DIAMONDS 7 
/flop 

---flop round bet---
valid player: 3, all in player: 0, fold player: 1
send inquire msg to player 4444 
inquire/ 
6666 10826 4109 0 fold 
7777 1637 4036 100 check 
4444 51025 8000 100 call 
total pot: 200 
/inquire 
recv from player 4444: check
send inquire msg to player 7777 
inquire/ 
4444 51025 8000 100 check 
6666 10826 4109 0 fold 
7777 1637 4036 100 check 
total pot: 200 
/inquire 
recv from player 7777: check
turn/ 
SPADES A 
/turn 

---turn round bet---
valid player: 3, all in player: 0, fold player: 1
send inquire msg to player 4444 
inquire/ 
6666 10826 4109 0 fold 
7777 1637 4036 100 check 
4444 51025 8000 100 check 
total pot: 200 
/inquire 
recv from player 4444: check
send inquire msg to player 7777 
inquire/ 
4444 51025 8000 100 check 
6666 10826 4109 0 fold 
7777 1637 4036 100 check 
total pot: 200 
/inquire 
recv from player 7777: check
river/ 
DIAMONDS 6 
/river 

---river round bet---
valid player: 3, all in player: 0, fold player: 1
send inquire msg to player 4444 
inquire/ 
6666 10826 4109 0 fold 
7777 1637 4036 100 check 
4444 51025 8000 100 check 
total pot: 200 
/inquire 
recv from player 4444: check
send inquire msg to player 7777 
inquire/ 
4444 51025 8000 100 check 
6666 10826 4109 0 fold 
7777 1637 4036 100 check 
total pot: 200 
/inquire 
recv from player 7777: check

---show down---
showdown/ 
common/ 
HEARTS 9 
HEARTS 5 
DIAMONDS 7 
SPADES A 
DIAMONDS 6 
/common 
1: 4444 SPADES 6 HEARTS K ONE_PAIR 
2: 7777 CLUBS 2 DIAMONDS 4 HIGH_CARD 
/showdown 

---Allocate pot---
pot-win/ 
4444: 200 
/pot-win 
it is player 4444's turn to be button

-----148 Hand-----

----- clean player data in socket -----
seat/ 
button: 4444 51225 8000 
small blind: 7777 1637 4036 
big blind: 6666 10826 4109 
/seat 
blind/ 
7777: 50 
6666: 100 
/blind 
player 7777:hold/ 
DIAMONDS 10 
HEARTS J 
/hold 
player 6666:hold/ 
HEARTS 2 
DIAMONDS 9 
/hold 
player 4444:hold/ 
SPADES 3 
CLUBS 4 
/hold 

---pre flop round bet---
valid player: 3, all in player: 0, fold player: 0
send inquire msg to player 4444 
inquire/ 
6666 10726 4109 100 blind 
7777 1587 4036 50 blind 
total pot: 150 
/inquire 
recv from player 4444: fold
send inquire msg to player 7777 
inquire/ 
4444 51225 8000 0 fold 
6666 10726 4109 100 blind 
7777 1587 4036 50 blind 
total pot: 150 
/inquire 
recv from player 7777: check
send inquire msg to player 6666 
inquire/ 
7777 1537 4036 100 call 
4444 51225 8000 0 fold 
6666 10726 4109 100 blind 
total pot: 200 
/inquire 
recv from player 6666: check
flop/ 
DIAMONDS 2 
HEARTS 4 
SPADES 8 
/flop 

---flop round bet---
valid player: 3, all in player: 0, fold player: 1
send inquire msg to player 7777 
inquire/ 
4444 51225 8000 0 fold 
6666 10726 4109 100 check 
7777 1537 4036 100 call 
total pot: 200 
/inquire 
recv from player 7777: check
send inquire msg to player 6666 
inquire/ 
7777 1537 4036 100 check 
4444 51225 8000 0 fold 
6666 10726 4109 100 check 
total pot: 200 
/inquire 
recv from player 6666: check
turn/ 
SPADES 10 
/turn 

---turn round bet---
valid player: 3, all in player: 0, fold player: 1
send inquire msg to player 7777 
inquire/ 
4444 51225 8000 0 fold 
6666 10726 4109 100 check 
7777 1537 4036 100 check 
total pot: 200 
/inquire 
recv from player 7777: check
send inquire msg to player 6666 
inquire/ 
7777 1537 4036 100 check 
4444 51225 8000 0 fold 
6666 10726 4109 100 check 
total pot: 200 
/inquire 
recv from player 6666: check
river/ 
DIAMONDS 3 
/river 

---river round bet---
valid player: 3, all in player: 0, fold player: 1
send inquire msg to player 7777 
inquire/ 
4444 51225 8000 0 fold 
6666 10726 4109 100 check 
7777 1537 4036 100 check 
total pot: 200 
/inquire 
recv from player 7777: check
send inquire msg to player 6666 
inquire/ 
7777 1537 4036 100 check 
4444 51225 8000 0 fold 
6666 10726 4109 100 check 
total pot: 200 
/inquire 
recv from player 6666: check

---show down---
showdown/ 
common/ 
DIAMONDS 2 
HEARTS 4 
SPADES 8 
SPADES 10 
DIAMONDS 3 
/common 
1: 7777 DIAMONDS 10 HEARTS J ONE_PAIR 
2: 6666 HEARTS 2 DIAMONDS 9 ONE_PAIR 
/showdown 

---Allocate pot---
pot-win/ 
7777: 200 
/pot-win 
it is player 7777's turn to be button

-----149 Hand-----

----- clean player data in socket -----
seat/ 
button: 7777 1737 4036 
small blind: 6666 10726 4109 
big blind: 4444 51225 8000 
/seat 
blind/ 
6666: 50 
4444: 100 
/blind 
player 6666:hold/ 
SPADES 5 
DIAMONDS 7 
/hold 
player 4444:hold/ 
CLUBS 10 
CLUBS 6 
/hold 
player 7777:hold/ 
HEARTS 6 
SPADES 4 
/hold 

---pre flop round bet---
valid player: 3, all in player: 0, fold player: 0
send inquire msg to player 7777 
inquire/ 
4444 51125 8000 100 blind 
6666 10676 4109 50 blind 
total pot: 150 
/inquire 
recv from player 7777: fold
send inquire msg to player 6666 
inquire/ 
7777 1737 4036 0 fold 
4444 51125 8000 100 blind 
6666 10676 4109 50 blind 
total pot: 150 
/inquire 
recv from player 6666: check
send inquire msg to player 4444 
inquire/ 
6666 10626 4109 100 call 
7777 1737 4036 0 fold 
4444 51125 8000 100 blind 
total pot: 200 
/inquire 
recv from player 4444: check
flop/ 
DIAMONDS 10 
CLUBS 8 
DIAMONDS 8 
/flop 

---flop round bet---
valid player: 3, all in player: 0, fold player: 1
send inquire msg to player 6666 
inquire/ 
7777 1737 4036 0 fold 
4444 51125 8000 100 check 
6666 10626 4109 100 call 
total pot: 200 
/inquire 
recv from player 6666: check
send inquire msg to player 4444 
inquire/ 
6666 10626 4109 100 check 
7777 1737 4036 0 fold 
4444 51125 8000 100 check 
total pot: 200 
/inquire 
recv from player 4444: check
turn/ 
DIAMONDS 5 
/turn 

---turn round bet---
valid player: 3, all in player: 0, fold player: 1
send inquire msg to player 6666 
inquire/ 
7777 1737 4036 0 fold 
4444 51125 8000 100 check 
6666 10626 4109 100 check 
total pot: 200 
/inquire 
recv from player 6666: check
send inquire msg to player 4444 
inquire/ 
6666 10626 4109 100 check 
7777 1737 4036 0 fold 
4444 51125 8000 100 check 
total pot: 200 
/inquire 
recv from player 4444: check
river/ 
HEARTS 3 
/river 

---river round bet---
valid player: 3, all in player: 0, fold player: 1
send inquire msg to player 6666 
inquire/ 
7777 1737 4036 0 fold 
4444 51125 8000 100 check 
6666 10626 4109 100 check 
total pot: 200 
/inquire 
recv from player 6666: check
send inquire msg to player 4444 
inquire/ 
6666 10626 4109 100 check 
7777 1737 4036 0 fold 
4444 51125 8000 100 check 
total pot: 200 
/inquire 
recv from player 4444: check

---show down---
showdown/ 
common/ 
DIAMONDS 10 
CLUBS 8 
DIAMONDS 8 
DIAMONDS 5 
HEARTS 3 
/common 
2: 6666 SPADES 5 DIAMONDS 7 TWO_PAIR 
1: 4444 CLUBS 10 CLUBS 6 TWO_PAIR 
/showdown 

---Allocate pot---
pot-win/ 
4444: 200 
/pot-win 
it is player 6666's turn to be button

-----150 Hand-----

----- clean player data in socket -----
seat/ 
button: 6666 10626 4109 
small blind: 4444 51325 8000 
big blind: 7777 1737 4036 
/seat 
blind/ 
4444: 50 
7777: 100 
/blind 
player 4444:hold/ 
HEARTS 4 
DIAMONDS 3 
/hold 
player 7777:hold/ 
HEARTS 8 
DIAMONDS 4 
/hold 
player 6666:hold/ 
CLUBS 3 
DIAMONDS Q 
/hold 

---pre flop round bet---
valid player: 3, all in player: 0, fold player: 0
send inquire msg to player 6666 
inquire/ 
7777 1637 4036 100 blind 
4444 51275 8000 50 blind 
total pot: 150 
/inquire 
recv from player 6666: fold
send inquire msg to player 4444 
inquire/ 
6666 10626 4109 0 fold 
7777 1637 4036 100 blind 
4444 51275 8000 50 blind 
total pot: 150 
/inquire 
recv from player 4444: check
send inquire msg to player 7777 
inquire/ 
4444 51225 8000 100 call 
6666 10626 4109 0 fold 
7777 1637 4036 100 blind 
total pot: 200 
/inquire 
recv from player 7777: check
flop/ 
SPADES 3 
SPADES 4 
SPADES 5 
/flop 

---flop round bet---
valid player: 3, all in player: 0, fold player: 1
send inquire msg to player 4444 
inquire/ 
6666 10626 4109 0 fold 
7777 1637 4036 100 check 
4444 51225 8000 100 call 
total pot: 200 
/inquire 
recv from player 4444: check
send inquire msg to player 7777 
inquire/ 
4444 51225 8000 100 check 
6666 10626 4109 0 fold 
7777 1637 4036 100 check 
total pot: 200 
/inquire 
recv from player 7777: check
turn/ 
SPADES A 
/turn 

---turn round bet---
valid player: 3, all in player: 0, fold player: 1
send inquire msg to player 4444 
inquire/ 
6666 10626 4109 0 fold 
7777 1637 4036 100 check 
4444 51225 8000 100 check 
total pot: 200 
/inquire 
recv from player 4444: check
send inquire msg to player 7777 
inquire/ 
4444 51225 8000 100 check 
6666 10626 4109 0 fold 
7777 1637 4036 100 check 
total pot: 200 
/inquire 
recv from player 7777: check
river/ 
SPADES Q 
/river 

---river round bet---
valid player: 3, all in player: 0, fold player: 1
send inquire msg to player 4444 
inquire/ 
6666 10626 4109 0 fold 
7777 1637 4036 100 check 
4444 51225 8000 100 check 
total pot: 200 
/inquire 
recv from player 4444: check
send inquire msg to player 7777 
inquire/ 
4444 51225 8000 100 check 
6666 10626 4109 0 fold 
7777 1637 4036 100 check 
total pot: 200 
/inquire 
recv from player 7777: check

---show down---
showdown/ 
common/ 
SPADES 3 
SPADES 4 
SPADES 5 
SPADES A 
SPADES Q 
/common 
1: 4444 HEARTS 4 DIAMONDS 3 FLUSH 
1: 7777 HEARTS 8 DIAMONDS 4 FLUSH 
/showdown 

---Allocate pot---
pot-win/ 
4444: 100 
7777: 100 
/pot-win 
it is player 4444's turn to be button

-----151 Hand-----

----- clean player data in socket -----
seat/ 
button: 4444 51325 8000 
small blind: 7777 1737 4036 
big blind: 6666 10626 4109 
/seat 
blind/ 
7777: 50 
6666: 100 
/blind 
player 7777:hold/ 
CLUBS 4 
HEARTS J 
/hold 
player 6666:hold/ 
CLUBS 10 
HEARTS 6 
/hold 
player 4444:hold/ 
HEARTS 2 
SPADES 7 
/hold 

---pre flop round bet---
valid player: 3, all in player: 0, fold player: 0
send inquire msg to player 4444 
inquire/ 
6666 10526 4109 100 blind 
7777 1687 4036 50 blind 
total pot: 150 
/inquire 
recv from player 4444: fold
send inquire msg to player 7777 
inquire/ 
4444 51325 8000 0 fold 
6666 10526 4109 100 blind 
7777 1687 4036 50 blind 
total pot: 150 
/inquire 
recv from player 7777: check
send inquire msg to player 6666 
inquire/ 
7777 1637 4036 100 call 
4444 51325 8000 0 fold 
6666 10526 4109 100 blind 
total pot: 200 
/inquire 
recv from player 6666: check
flop/ 
DIAMONDS 6 
CLUBS 3 
DIAMONDS 9 
/flop 

---flop round bet---
valid player: 3, all in player: 0, fold player: 1
send inquire msg to player 7777 
inquire/ 
4444 51325 8000 0 fold 
6666 10526 4109 100 check 
7777 1637 4036 100 call 
total pot: 200 
/inquire 
recv from player 7777: check
send inquire msg to player 6666 
inquire/ 
7777 1637 4036 100 check 
4444 51325 8000 0 fold 
6666 10526 4109 100 check 
total pot: 200 
/inquire 
recv from player 6666: check
turn/ 
SPADES 4 
/turn 

---turn round bet---
valid player: 3, all in player: 0, fold player: 1
send inquire msg to player 7777 
inquire/ 
4444 51325 8000 0 fold 
6666 10526 4109 100 check 
7777 1637 4036 100 check 
total pot: 200 
/inquire 
recv from player 7777: check
send inquire msg to player 6666 
inquire/ 
7777 1637 4036 100 check 
4444 51325 8000 0 fold 
6666 10526 4109 100 check 
total pot: 200 
/inquire 
recv from player 6666: check
river/ 
SPADES 9 
/river 

---river round bet---
valid player: 3, all in player: 0, fold player: 1
send inquire msg to player 7777 
inquire/ 
4444 51325 8000 0 fold 
6666 10526 4109 100 check 
7777 1637 4036 100 check 
total pot: 200 
/inquire 
recv from player 7777: check
send inquire msg to player 6666 
inquire/ 
7777 1637 4036 100 check 
4444 51325 8000 0 fold 
6666 10526 4109 100 check 
total pot: 200 
/inquire 
recv from player 6666: check

---show down---
showdown/ 
common/ 
DIAMONDS 6 
CLUBS 3 
DIAMONDS 9 
SPADES 4 
SPADES 9 
/common 
2: 7777 CLUBS 4 HEARTS J TWO_PAIR 
1: 6666 CLUBS 10 HEARTS 6 TWO_PAIR 
/showdown 

---Allocate pot---
pot-win/ 
6666: 200 
/pot-win 
it is player 7777's turn to be button

-----152 Hand-----

----- clean player data in socket -----
seat/ 
button: 7777 1637 4036 
small blind: 6666 10726 4109 
big blind: 4444 51325 8000 
/seat 
blind/ 
6666: 50 
4444: 100 
/blind 
player 6666:hold/ 
DIAMONDS K 
CLUBS 2 
/hold 
player 4444:hold/ 
CLUBS J 
DIAMONDS 10 
/hold 
player 7777:hold/ 
SPADES 8 
HEARTS K 
/hold 

---pre flop round bet---
valid player: 3, all in player: 0, fold player: 0
send inquire msg to player 7777 
inquire/ 
4444 51225 8000 100 blind 
6666 10676 4109 50 blind 
total pot: 150 
/inquire 
recv from player 7777: fold
send inquire msg to player 6666 
inquire/ 
7777 1637 4036 0 fold 
4444 51225 8000 100 blind 
6666 10676 4109 50 blind 
total pot: 150 
/inquire 
recv from player 6666: check
send inquire msg to player 4444 
inquire/ 
6666 10626 4109 100 call 
7777 1637 4036 0 fold 
4444 51225 8000 100 blind 
total pot: 200 
/inquire 
recv from player 4444: check
flop/ 
HEARTS 6 
SPADES 7 
CLUBS 6 
/flop 

---flop round bet---
valid player: 3, all in player: 0, fold player: 1
send inquire msg to player 6666 
inquire/ 
7777 1637 4036 0 fold 
4444 51225 8000 100 check 
6666 10626 4109 100 call 
total pot: 200 
/inquire 
recv from player 6666: check
send inquire msg to player 4444 
inquire/ 
6666 10626 4109 100 check 
7777 1637 4036 0 fold 
4444 51225 8000 100 check 
total pot: 200 
/inquire 
recv from player 4444: check
turn/ 
CLUBS 7 
/turn 

---turn round bet---
valid player: 3, all in player: 0, fold player: 1
send inquire msg to player 6666 
inquire/ 
7777 1637 4036 0 fold 
4444 51225 8000 100 check 
6666 10626 4109 100 check 
total pot: 200 
/inquire 
recv from player 6666: check
send inquire msg to player 4444 
inquire/ 
6666 10626 4109 100 check 
7777 1637 4036 0 fold 
4444 51225 8000 100 check 
total pot: 200 
/inquire 
recv from player 4444: check
river/ 
CLUBS 4 
/river 

---river round bet---
valid player: 3, all in player: 0, fold player: 1
send inquire msg to player 6666 
inquire/ 
7777 1637 4036 0 fold 
4444 51225 8000 100 check 
6666 10626 4109 100 check 
total pot: 200 
/inquire 
recv from player 6666: check
send inquire msg to player 4444 
inquire/ 
6666 10626 4109 100 check 
7777 1637 4036 0 fold 
4444 51225 8000 100 check 
total pot: 200 
/inquire 
recv from player 4444: check

---show down---
showdown/ 
common/ 
HEARTS 6 
SPADES 7 
CLUBS 6 
CLUBS 7 
CLUBS 4 
/common 
1: 6666 DIAMONDS K CLUBS 2 TWO_PAIR 
2: 4444 CLUBS J DIAMONDS 10 TWO_PAIR 
/showdown 

---Allocate pot---
pot-win/ 
6666: 200 
/pot-win 
it is player 6666's turn to be button

-----153 Hand-----

----- clean player data in socket -----
seat/ 
button: 6666 10826 4109 
small blind: 4444 51225 8000 
big blind: 7777 1637 4036 
/seat 
blind/ 
4444: 50 
7777: 100 
/blind 
player 4444:hold/ 
SPADES 4 
DIAMONDS 2 
/hold 
player 7777:hold/ 
SPADES 7 
SPADES 9 
/hold 
player 6666:hold/ 
HEARTS 4 
CLUBS 3 
/hold 

---pre flop round bet---
valid player: 3, all in player: 0, fold player: 0
send inquire msg to player 6666 
inquire/ 
7777 1537 4036 100 blind 
4444 51175 8000 50 blind 
total pot: 150 
/inquire 
recv from player 6666: fold
send inquire msg to player 4444 
inquire/ 
6666 10826 4109 0 fold 
7777 1537 4036 100 blind 
4444 51175 8000 50 blind 
total pot: 150 
/inquire 
recv from player 4444: check
send inquire msg to player 7777 
inquire/ 
4444 51125 8000 100 call 
6666 10826 4109 0 fold 
7777 1537 4036 100 blind 
total pot: 200 
/inquire 
recv from player 7777: check
flop/ 
DIAMONDS 4 
CLUBS 9 
HEARTS 8 
/flop 

---flop round bet---
valid player: 3, all in player: 0, fold player: 1
send inquire msg to player 4444 
inquire/ 
6666 10826 4109 0 fold 
7777 1537 4036 100 check 
4444 51125 8000 100 call 
total pot: 200 
/inquire 
recv from player 4444: check
send inquire msg to player 7777 
inquire/ 
4444 51125 8000 100 check 
6666 10826 4109 0 fold 
7777 1537 4036 100 check 
total pot: 200 
/inquire 
recv from player 7777: check
turn/ 
SPADES 2 
/turn 

---turn round bet---
valid player: 3, all in player: 0, fold player: 1
send inquire msg to player 4444 
inquire/ 
6666 10826 4109 0 fold 
7777 1537 4036 100 check 
4444 51125 8000 100 check 
total pot: 200 
/inquire 
recv from player 4444: check
send inquire msg to player 7777 
inquire/ 
4444 51125 8000 100 check 
6666 10826 4109 0 fold 
7777 1537 4036 100 check 
total pot: 200 
/inquire 
recv from player 7777: check
river/ 
CLUBS 10 
/river 

---river round bet---
valid player: 3, all in player: 0, fold player: 1
send inquire msg to player 4444 
inquire/ 
6666 10826 4109 0 fold 
7777 1537 4036 100 check 
4444 51125 8000 100 check 
total pot: 200 
/inquire 
recv from player 4444: check
send inquire msg to player 7777 
inquire/ 
4444 51125 8000 100 check 
6666 10826 4109 0 fold 
7777 1537 4036 100 check 
total pot: 200 
/inquire 
recv from player 7777: check

---show down---
showdown/ 
common/ 
DIAMONDS 4 
CLUBS 9 
HEARTS 8 
SPADES 2 
CLUBS 10 
/common 
1: 4444 SPADES 4 DIAMONDS 2 TWO_PAIR 
2: 7777 SPADES 7 SPADES 9 ONE_PAIR 
/showdown 

---Allocate pot---
pot-win/ 
4444: 200 
/pot-win 
it is player 4444's turn to be button

-----154 Hand-----

----- clean player data in socket -----
seat/ 
button: 4444 51325 8000 
small blind: 7777 1537 4036 
big blind: 6666 10826 4109 
/seat 
blind/ 
7777: 50 
6666: 100 
/blind 
player 7777:hold/ 
SPADES 9 
SPADES 5 
/hold 
player 6666:hold/ 
CLUBS Q 
HEARTS 2 
/hold 
player 4444:hold/ 
CLUBS K 
HEARTS 8 
/hold 

---pre flop round bet---
valid player: 3, all in player: 0, fold player: 0
send inquire msg to player 4444 
inquire/ 
6666 10726 4109 100 blind 
7777 1487 4036 50 blind 
total pot: 150 
/inquire 
recv from player 4444: check
send inquire msg to player 7777 
inquire/ 
4444 51225 8000 100 call 
6666 10726 4109 100 blind 
7777 1487 4036 50 blind 
total pot: 250 
/inquire 
recv from player 7777: check
send inquire msg to player 6666 
inquire/ 
7777 1437 4036 100 call 
4444 51225 8000 100 call 
6666 10726 4109 100 blind 
total pot: 300 
/inquire 
recv from player 6666: check
flop/ 
SPADES A 
DIAMONDS 6 
CLUBS 2 
/flop 

---flop round bet---
valid player: 3, all in player: 0, fold player: 0
send inquire msg to player 7777 
inquire/ 
4444 51225 8000 100 call 
6666 10726 4109 100 check 
7777 1437 4036 100 call 
total pot: 300 
/inquire 
recv from player 7777: check
send inquire msg to player 6666 
inquire/ 
7777 1437 4036 100 check 
4444 51225 8000 100 call 
6666 10726 4109 100 check 
total pot: 300 
/inquire 
recv from player 6666: check
send inquire msg to player 4444 
inquire/ 
6666 10726 4109 100 check 
7777 1437 4036 100 check 
4444 51225 8000 100 call 
total pot: 300 
/inquire 
recv from player 4444: check
turn/ 
SPADES J 
/turn 

---turn round bet---
valid player: 3, all in player: 0, fold player: 0
send inquire msg to player 7777 
inquire/ 
4444 51225 8000 100 check 
6666 10726 4109 100 check 
7777 1437 4036 100 check 
total pot: 300 
/inquire 
recv from player 7777: check
send inquire msg to player 6666 
inquire/ 
7777 1437 4036 100 check 
4444 51225 8000 100 check 
6666 10726 4109 100 check 
total pot: 300 
/inquire 
recv from player 6666: check
send inquire msg to player 4444 
inquire/ 
6666 10726 4109 100 check 
7777 1437 4036 100 check 
4444 51225 8000 100 check 
total pot: 300 
/inquire 
recv from player 4444: check
river/ 
HEARTS J 
/river 

---river round bet---
valid player: 3, all in player: 0, fold player: 0
send inquire msg to player 7777 
inquire/ 
4444 51225 8000 100 check 
6666 10726 4109 100 check 
7777 1437 4036 100 check 
total pot: 300 
/inquire 
recv from player 7777: check
send inquire msg to player 6666 
inquire/ 
7777 1437 4036 100 check 
4444 51225 8000 100 check 
6666 10726 4109 100 check 
total pot: 300 
/inquire 
recv from player 6666: check
send inquire msg to player 4444 
inquire/ 
6666 10726 4109 100 check 
7777 1437 4036 100 check 
4444 51225 8000 100 check 
total pot: 300 
/inquire 
recv from player 4444: check

---show down---
showdown/ 
common/ 
SPADES A 
DIAMONDS 6 
CLUBS 2 
SPADES J 
HEARTS J 
/common 
3: 7777 SPADES 9 SPADES 5 ONE_PAIR 
1: 6666 CLUBS Q HEARTS 2 TWO_PAIR 
2: 4444 CLUBS K HEARTS 8 ONE_PAIR 
/showdown 

---Allocate pot---
pot-win/ 
6666: 300 
/pot-win 
it is player 7777's turn to be button

-----155 Hand-----

----- clean player data in socket -----
seat/ 
button: 7777 1437 4036 
small blind: 6666 11026 4109 
big blind: 4444 51225 8000 
/seat 
blind/ 
6666: 50 
4444: 100 
/blind 
player 6666:hold/ 
SPADES J 
SPADES 10 
/hold 
player 4444:hold/ 
HEARTS 4 
DIAMONDS A 
/hold 
player 7777:hold/ 
DIAMONDS 3 
CLUBS 10 
/hold 

---pre flop round bet---
valid player: 3, all in player: 0, fold player: 0
send inquire msg to player 7777 
inquire/ 
4444 51125 8000 100 blind 
6666 10976 4109 50 blind 
total pot: 150 
/inquire 
recv from player 7777: fold
send inquire msg to player 6666 
inquire/ 
7777 1437 4036 0 fold 
4444 51125 8000 100 blind 
6666 10976 4109 50 blind 
total pot: 150 
/inquire 
recv from player 6666: check
send inquire msg to player 4444 
inquire/ 
6666 10926 4109 100 call 
7777 1437 4036 0 fold 
4444 51125 8000 100 blind 
total pot: 200 
/inquire 
recv from player 4444: check
flop/ 
DIAMONDS 7 
CLUBS Q 
CLUBS A 
/flop 

---flop round bet---
valid player: 3, all in player: 0, fold player: 1
send inquire msg to player 6666 
inquire/ 
7777 1437 4036 0 fold 
4444 51125 8000 100 check 
6666 10926 4109 100 call 
total pot: 200 
/inquire 
recv from player 6666: check
send inquire msg to player 4444 
inquire/ 
6666 10926 4109 100 check 
7777 1437 4036 0 fold 
4444 51125 8000 100 check 
total pot: 200 
/inquire 
recv from player 4444: check
turn/ 
SPADES 3 
/turn 

---turn round bet---
valid player: 3, all in player: 0, fold player: 1
send inquire msg to player 6666 
inquire/ 
7777 1437 4036 0 fold 
4444 51125 8000 100 check 
6666 10926 4109 100 check 
total pot: 200 
/inquire 
recv from player 6666: check
send inquire msg to player 4444 
inquire/ 
6666 10926 4109 100 check 
7777 1437 4036 0 fold 
4444 51125 8000 100 check 
total pot: 200 
/inquire 
recv from player 4444: check
river/ 
HEARTS 5 
/river 

---river round bet---
valid player: 3, all in player: 0, fold player: 1
send inquire msg to player 6666 
inquire/ 
7777 1437 4036 0 fold 
4444 51125 8000 100 check 
6666 10926 4109 100 check 
total pot: 200 
/inquire 
recv from player 6666: check
send inquire msg to player 4444 
inquire/ 
6666 10926 4109 100 check 
7777 1437 4036 0 fold 
4444 51125 8000 100 check 
total pot: 200 
/inquire 
recv from player 4444: check

---show down---
showdown/ 
common/ 
DIAMONDS 7 
CLUBS Q 
CLUBS A 
SPADES 3 
HEARTS 5 
/common 
2: 6666 SPADES J SPADES 10 HIGH_CARD 
1: 4444 HEARTS 4 DIAMONDS A ONE_PAIR 
/showdown 

---Allocate pot---
pot-win/ 
4444: 200 
/pot-win 
it is player 6666's turn to be button

-----156 Hand-----

----- clean player data in socket -----
seat/ 
button: 6666 10926 4109 
small blind: 4444 51325 8000 
big blind: 7777 1437 4036 
/seat 
blind/ 
4444: 50 
7777: 100 
/blind 
player 4444:hold/ 
CLUBS A 
DIAMONDS 3 
/hold 
player 7777:hold/ 
CLUBS 9 
HEARTS 4 
/hold 
player 6666:hold/ 
DIAMONDS 8 
SPADES 3 
/hold 

---pre flop round bet---
valid player: 3, all in player: 0, fold player: 0
send inquire msg to player 6666 
inquire/ 
7777 1337 4036 100 blind 
4444 51275 8000 50 blind 
total pot: 150 
/inquire 
recv from player 6666: fold
send inquire msg to player 4444 
inquire/ 
6666 10926 4109 0 fold 
7777 1337 4036 100 blind 
4444 51275 8000 50 blind 
total pot: 150 
/inquire 
recv from player 4444: check
send inquire msg to player 7777 
inquire/ 
4444 51225 8000 100 call 
6666 10926 4109 0 fold 
7777 1337 4036 100 blind 
total pot: 200 
/inquire 
recv from player 7777: check
flop/ 
SPADES 7 
SPADES 6 
DIAMONDS K 
/flop 

---flop round bet---
valid player: 3, all in player: 0, fold player: 1
send inquire msg to player 4444 
inquire/ 
6666 10926 4109 0 fold 
7777 1337 4036 100 check 
4444 51225 8000 100 call 
total pot: 200 
/inquire 
recv from player 4444: check
send inquire msg to player 7777 
inquire/ 
4444 51225 8000 100 check 
6666 10926 4109 0 fold 
7777 1337 4036 100 check 
total pot: 200 
/inquire 
recv from player 7777: check
turn/ 
SPADES J 
/turn 

---turn round bet---
valid player: 3, all in player: 0, fold player: 1
send inquire msg to player 4444 
inquire/ 
6666 10926 4109 0 fold 
7777 1337 4036 100 check 
4444 51225 8000 100 check 
total pot: 200 
/inquire 
recv from player 4444: check
send inquire msg to player 7777 
inquire/ 
4444 51225 8000 100 check 
6666 10926 4109 0 fold 
7777 1337 4036 100 check 
total pot: 200 
/inquire 
recv from player 7777: check
river/ 
SPADES 4 
/river 

---river round bet---
valid player: 3, all in player: 0, fold player: 1
send inquire msg to player 4444 
inquire/ 
6666 10926 4109 0 fold 
7777 1337 4036 100 check 
4444 51225 8000 100 check 
total pot: 200 
/inquire 
recv from player 4444: check
send inquire msg to player 7777 
inquire/ 
4444 51225 8000 100 check 
6666 10926 4109 0 fold 
7777 1337 4036 100 check 
total pot: 200 
/inquire 
recv from player 7777: check

---show down---
showdown/ 
common/ 
SPADES 7 
SPADES 6 
DIAMONDS K 
SPADES J 
SPADES 4 
/common 
2: 4444 CLUBS A DIAMONDS 3 HIGH_CARD 
1: 7777 CLUBS 9 HEARTS 4 ONE_PAIR 
/showdown 

---Allocate pot---
pot-win/ 
7777: 200 
/pot-win 
it is player 4444's turn to be button

-----157 Hand-----

----- clean player data in socket -----
seat/ 
button: 4444 51225 8000 
small blind: 7777 1537 4036 
big blind: 6666 10926 4109 
/seat 
blind/ 
7777: 50 
6666: 100 
/blind 
player 7777:hold/ 
SPADES 6 
SPADES 9 
/hold 
player 6666:hold/ 
SPADES 8 
HEARTS 7 
/hold 
player 4444:hold/ 
SPADES K 
CLUBS 6 
/hold 

---pre flop round bet---
valid player: 3, all in player: 0, fold player: 0
send inquire msg to player 4444 
inquire/ 
6666 10826 4109 100 blind 
7777 1487 4036 50 blind 
total pot: 150 
/inquire 
recv from player 4444: fold
send inquire msg to player 7777 
inquire/ 
4444 51225 8000 0 fold 
6666 10826 4109 100 blind 
7777 1487 4036 50 blind 
total pot: 150 
/inquire 
recv from player 7777: check
send inquire msg to player 6666 
inquire/ 
7777 1437 4036 100 call 
4444 51225 8000 0 fold 
6666 10826 4109 100 blind 
total pot: 200 
/inquire 
recv from player 6666: check
flop/ 
DIAMONDS J 
DIAMONDS A 
SPADES A 
/flop 

---flop round bet---
valid player: 3, all in player: 0, fold player: 1
send inquire msg to player 7777 
inquire/ 
4444 51225 8000 0 fold 
6666 10826 4109 100 check 
7777 1437 4036 100 call 
total pot: 200 
/inquire 
recv from player 7777: check
send inquire msg to player 6666 
inquire/ 
7777 1437 4036 100 check 
4444 51225 8000 0 fold 
6666 10826 4109 100 check 
total pot: 200 
/inquire 
recv from player 6666: check
turn/ 
CLUBS 9 
/turn 

---turn round bet---
valid player: 3, all in player: 0, fold player: 1
send inquire msg to player 7777 
inquire/ 
4444 51225 8000 0 fold 
6666 10826 4109 100 check 
7777 1437 4036 100 check 
total pot: 200 
/inquire 
recv from player 7777: check
send inquire msg to player 6666 
inquire/ 
7777 1437 4036 100 check 
4444 51225 8000 0 fold 
6666 10826 4109 100 check 
total pot: 200 
/inquire 
recv from player 6666: check
river/ 
CLUBS 7 
/river 

---river round bet---
valid player: 3, all in player: 0, fold player: 1
send inquire msg to player 7777 
inquire/ 
4444 51225 8000 0 fold 
6666 10826 4109 100 check 
7777 1437 4036 100 check 
total pot: 200 
/inquire 
recv from player 7777: check
send inquire msg to player 6666 
inquire/ 
7777 1437 4036 100 check 
4444 51225 8000 0 fold 
6666 10826 4109 100 check 
total pot: 200 
/inquire 
recv from player 6666: check

---show down---
showdown/ 
common/ 
DIAMONDS J 
DIAMONDS A 
SPADES A 
CLUBS 9 
CLUBS 7 
/common 
1: 7777 SPADES 6 SPADES 9 TWO_PAIR 
2: 6666 SPADES 8 HEARTS 7 TWO_PAIR 
/showdown 

---Allocate pot---
pot-win/ 
7777: 200 
/pot-win 
it is player 7777's turn to be button

-----158 Hand-----

----- clean player data in socket -----
seat/ 
button: 7777 1637 4036 
small blind: 6666 10826 4109 
big blind: 4444 51225 8000 
/seat 
blind/ 
6666: 50 
4444: 100 
/blind 
player 6666:hold/ 
SPADES 5 
SPADES 10 
/hold 
player 4444:hold/ 
CLUBS 10 
CLUBS 8 
/hold 
player 7777:hold/ 
HEARTS A 
HEARTS Q 
/hold 

---pre flop round bet---
valid player: 3, all in player: 0, fold player: 0
send inquire msg to player 7777 
inquire/ 
4444 51125 8000 100 blind 
6666 10776 4109 50 blind 
total pot: 150 
/inquire 
recv from player 7777: raise 241
send inquire msg to player 6666 
inquire/ 
7777 1296 4036 341 raise 
4444 51125 8000 100 blind 
6666 10776 4109 50 blind 
total pot: 491 
/inquire 
recv from player 6666: check
send inquire msg to player 4444 
inquire/ 
6666 10485 4109 341 call 
7777 1296 4036 341 raise 
4444 51125 8000 100 blind 
total pot: 782 
/inquire 
recv from player 4444: check
flop/ 
DIAMONDS 10 
CLUBS 2 
CLUBS 4 
/flop 

---flop round bet---
valid player: 3, all in player: 0, fold player: 0
send inquire msg to player 6666 
inquire/ 
7777 1296 4036 341 raise 
4444 50884 8000 341 call 
6666 10485 4109 341 call 
total pot: 1023 
/inquire 
recv from player 6666: check
send inquire msg to player 4444 
inquire/ 
6666 10485 4109 341 check 
7777 1296 4036 341 raise 
4444 50884 8000 341 call 
total pot: 1023 
/inquire 
recv from player 4444: check
send inquire msg to player 7777 
inquire/ 
4444 50884 8000 341 check 
6666 10485 4109 341 check 
7777 1296 4036 341 raise 
total pot: 1023 
/inquire 
recv from player 7777: check
turn/ 
SPADES J 
/turn 

---turn round bet---
valid player: 3, all in player: 0, fold player: 0
send inquire msg to player 6666 
inquire/ 
7777 1296 4036 341 check 
4444 50884 8000 341 check 
6666 10485 4109 341 check 
total pot: 1023 
/inquire 
recv from player 6666: check
send inquire msg to player 4444 
inquire/ 
6666 10485 4109 341 check 
7777 1296 4036 341 check 
4444 50884 8000 341 check 
total pot: 1023 
/inquire 
recv from player 4444: check
send inquire msg to player 7777 
inquire/ 
4444 50884 8000 341 check 
6666 10485 4109 341 check 
7777 1296 4036 341 check 
total pot: 1023 
/inquire 
recv from player 7777: check
river/ 
HEARTS 8 
/river 

---river round bet---
valid player: 3, all in player: 0, fold player: 0
send inquire msg to player 6666 
inquire/ 
7777 1296 4036 341 check 
4444 50884 8000 341 check 
6666 10485 4109 341 check 
total pot: 1023 
/inquire 
recv from player 6666: check
send inquire msg to player 4444 
inquire/ 
6666 10485 4109 341 check 
7777 1296 4036 341 check 
4444 50884 8000 341 check 
total pot: 1023 
/inquire 
recv from player 4444: raise 27756
send inquire msg to player 7777 
inquire/ 
4444 23128 8000 28097 raise 
6666 10485 4109 341 check 
7777 1296 4036 341 check 
total pot: 28779 
/inquire 
recv from player 7777: fold
send inquire msg to player 6666 
inquire/ 
7777 1296 4036 341 fold 
4444 23128 8000 28097 raise 
6666 10485 4109 341 check 
total pot: 28779 
/inquire 
recv from player 6666: fold

--- 1 players not fold, don't need show down---

---Allocate pot---
Only player at seat 1 not fold, win all the pot 28779
pot-win/ 
4444: 28779 
/pot-win 
it is player 6666's turn to be button

-----159 Hand-----

----- clean player data in socket -----
seat/ 
button: 6666 10485 4109 
small blind: 4444 51907 8000 
big blind: 7777 1296 4036 
/seat 
blind/ 
4444: 50 
7777: 100 
/blind 
player 4444:hold/ 
SPADES 3 
DIAMONDS J 
/hold 
player 7777:hold/ 
DIAMONDS 6 
CLUBS 2 
/hold 
player 6666:hold/ 
SPADES 4 
SPADES 10 
/hold 

---pre flop round bet---
valid player: 3, all in player: 0, fold player: 0
send inquire msg to player 6666 
inquire/ 
7777 1196 4036 100 blind 
4444 51857 8000 50 blind 
total pot: 150 
/inquire 
recv from player 6666: fold
send inquire msg to player 4444 
inquire/ 
6666 10485 4109 0 fold 
7777 1196 4036 100 blind 
4444 51857 8000 50 blind 
total pot: 150 
/inquire 
recv from player 4444: check
send inquire msg to player 7777 
inquire/ 
4444 51807 8000 100 call 
6666 10485 4109 0 fold 
7777 1196 4036 100 blind 
total pot: 200 
/inquire 
recv from player 7777: check
flop/ 
DIAMONDS Q 
SPADES Q 
DIAMONDS 2 
/flop 

---flop round bet---
valid player: 3, all in player: 0, fold player: 1
send inquire msg to player 4444 
inquire/ 
6666 10485 4109 0 fold 
7777 1196 4036 100 check 
4444 51807 8000 100 call 
total pot: 200 
/inquire 
recv from player 4444: check
send inquire msg to player 7777 
inquire/ 
4444 51807 8000 100 check 
6666 10485 4109 0 fold 
7777 1196 4036 100 check 
total pot: 200 
/inquire 
recv from player 7777: check
turn/ 
DIAMONDS K 
/turn 

---turn round bet---
valid player: 3, all in player: 0, fold player: 1
send inquire msg to player 4444 
inquire/ 
6666 10485 4109 0 fold 
7777 1196 4036 100 check 
4444 51807 8000 100 check 
total pot: 200 
/inquire 
recv from player 4444: check
send inquire msg to player 7777 
inquire/ 
4444 51807 8000 100 check 
6666 10485 4109 0 fold 
7777 1196 4036 100 check 
total pot: 200 
/inquire 
recv from player 7777: check
river/ 
HEARTS A 
/river 

---river round bet---
valid player: 3, all in player: 0, fold player: 1
send inquire msg to player 4444 
inquire/ 
6666 10485 4109 0 fold 
7777 1196 4036 100 check 
4444 51807 8000 100 check 
total pot: 200 
/inquire 
recv from player 4444: check
send inquire msg to player 7777 
inquire/ 
4444 51807 8000 100 check 
6666 10485 4109 0 fold 
7777 1196 4036 100 check 
total pot: 200 
/inquire 
recv from player 7777: check

---show down---
showdown/ 
common/ 
DIAMONDS Q 
SPADES Q 
DIAMONDS 2 
DIAMONDS K 
HEARTS A 
/common 
2: 4444 SPADES 3 DIAMONDS J ONE_PAIR 
1: 7777 DIAMONDS 6 CLUBS 2 TWO_PAIR 
/showdown 

---Allocate pot---
pot-win/ 
7777: 200 
/pot-win 
it is player 4444's turn to be button

-----160 Hand-----

----- clean player data in socket -----
seat/ 
button: 4444 51807 8000 
small blind: 7777 1396 4036 
big blind: 6666 10485 4109 
/seat 
blind/ 
7777: 50 
6666: 100 
/blind 
player 7777:hold/ 
DIAMONDS 2 
SPADES 4 
/hold 
player 6666:hold/ 
CLUBS 4 
SPADES 9 
/hold 
player 4444:hold/ 
HEARTS 9 
HEARTS Q 
/hold 

---pre flop round bet---
valid player: 3, all in player: 0, fold player: 0
send inquire msg to player 4444 
inquire/ 
6666 10385 4109 100 blind 
7777 1346 4036 50 blind 
total pot: 150 
/inquire 
recv from player 4444: raise 2995
send inquire msg to player 7777 
inquire/ 
4444 48712 8000 3095 raise 
6666 10385 4109 100 blind 
7777 1346 4036 50 blind 
total pot: 3245 
/inquire 
recv from player 7777: fold
send inquire msg to player 6666 
inquire/ 
7777 1346 4036 50 fold 
4444 48712 8000 3095 raise 
6666 10385 4109 100 blind 
total pot: 3245 
/inquire 
recv from player 6666: fold

---flop round bet---
valid player: 3, all in player: 0, fold player: 2

---turn round bet---
valid player: 3, all in player: 0, fold player: 2

---river round bet---
valid player: 3, all in player: 0, fold player: 2

--- 1 players not fold, don't need show down---

---Allocate pot---
Only player at seat 7 not fold, win all the pot 3245
pot-win/ 
4444: 3245 
/pot-win 
it is player 7777's turn to be button

-----161 Hand-----

----- clean player data in socket -----
seat/ 
button: 7777 1346 4036 
small blind: 6666 10385 4109 
big blind: 4444 51957 8000 
/seat 
blind/ 
6666: 50 
4444: 100 
/blind 
player 6666:hold/ 
CLUBS 3 
HEARTS 3 
/hold 
player 4444:hold/ 
SPADES K 
HEARTS 5 
/hold 
player 7777:hold/ 
SPADES 10 
SPADES 9 
/hold 

---pre flop round bet---
valid player: 3, all in player: 0, fold player: 0
send inquire msg to player 7777 
inquire/ 
4444 51857 8000 100 blind 
6666 10335 4109 50 blind 
total pot: 150 
/inquire 
recv from player 7777: check
send inquire msg to player 6666 
inquire/ 
7777 1246 4036 100 call 
4444 51857 8000 100 blind 
6666 10335 4109 50 blind 
total pot: 250 
/inquire 
recv from player 6666: check
send inquire msg to player 4444 
inquire/ 
6666 10285 4109 100 call 
7777 1246 4036 100 call 
4444 51857 8000 100 blind 
total pot: 300 
/inquire 
recv from player 4444: check
flop/ 
HEARTS 10 
CLUBS A 
HEARTS 2 
/flop 

---flop round bet---
valid player: 3, all in player: 0, fold player: 0
send inquire msg to player 6666 
inquire/ 
7777 1246 4036 100 call 
4444 51857 8000 100 check 
6666 10285 4109 100 call 
total pot: 300 
/inquire 
recv from player 6666: check
send inquire msg to player 4444 
inquire/ 
6666 10285 4109 100 check 
7777 1246 4036 100 call 
4444 51857 8000 100 check 
total pot: 300 
/inquire 
recv from player 4444: check
send inquire msg to player 7777 
inquire/ 
4444 51857 8000 100 check 
6666 10285 4109 100 check 
7777 1246 4036 100 call 
total pot: 300 
/inquire 
recv from player 7777: check
turn/ 
CLUBS 2 
/turn 

---turn round bet---
valid player: 3, all in player: 0, fold player: 0
send inquire msg to player 6666 
inquire/ 
7777 1246 4036 100 check 
4444 51857 8000 100 check 
6666 10285 4109 100 check 
total pot: 300 
/inquire 
recv from player 6666: check
send inquire msg to player 4444 
inquire/ 
6666 10285 4109 100 check 
7777 1246 4036 100 check 
4444 51857 8000 100 check 
total pot: 300 
/inquire 
recv from player 4444: check
send inquire msg to player 7777 
inquire/ 
4444 51857 8000 100 check 
6666 10285 4109 100 check 
7777 1246 4036 100 check 
total pot: 300 
/inquire 
recv from player 7777: check
river/ 
HEARTS 8 
/river 

---river round bet---
valid player: 3, all in player: 0, fold player: 0
send inquire msg to player 6666 
inquire/ 
7777 1246 4036 100 check 
4444 51857 8000 100 check 
6666 10285 4109 100 check 
total pot: 300 
/inquire 
recv from player 6666: check
send inquire msg to player 4444 
inquire/ 
6666 10285 4109 100 check 
7777 1246 4036 100 check 
4444 51857 8000 100 check 
total pot: 300 
/inquire 
recv from player 4444: check
send inquire msg to player 7777 
inquire/ 
4444 51857 8000 100 check 
6666 10285 4109 100 check 
7777 1246 4036 100 check 
total pot: 300 
/inquire 
recv from player 7777: check

---show down---
showdown/ 
common/ 
HEARTS 10 
CLUBS A 
HEARTS 2 
CLUBS 2 
HEARTS 8 
/common 
2: 6666 CLUBS 3 HEARTS 3 TWO_PAIR 
3: 4444 SPADES K HEARTS 5 ONE_PAIR 
1: 7777 SPADES 10 SPADES 9 TWO_PAIR 
/showdown 

---Allocate pot---
pot-win/ 
7777: 300 
/pot-win 
it is player 6666's turn to be button

-----162 Hand-----

----- clean player data in socket -----
seat/ 
button: 6666 10285 4109 
small blind: 4444 51857 8000 
big blind: 7777 1546 4036 
/seat 
blind/ 
4444: 50 
7777: 100 
/blind 
player 4444:hold/ 
SPADES Q 
DIAMONDS 10 
/hold 
player 7777:hold/ 
DIAMONDS 3 
SPADES K 
/hold 
player 6666:hold/ 
DIAMONDS A 
HEARTS 7 
/hold 

---pre flop round bet---
valid player: 3, all in player: 0, fold player: 0
send inquire msg to player 6666 
inquire/ 
7777 1446 4036 100 blind 
4444 51807 8000 50 blind 
total pot: 150 
/inquire 
recv from player 6666: raise 259
send inquire msg to player 4444 
inquire/ 
6666 9926 4109 359 raise 
7777 1446 4036 100 blind 
4444 51807 8000 50 blind 
total pot: 509 
/inquire 
recv from player 4444: raise 2778
send inquire msg to player 7777 
inquire/ 
4444 48720 8000 3137 raise 
6666 9926 4109 359 raise 
7777 1446 4036 100 blind 
total pot: 3596 
/inquire 
recv from player 7777: fold
send inquire msg to player 6666 
inquire/ 
7777 1446 4036 100 fold 
4444 48720 8000 3137 raise 
6666 9926 4109 359 raise 
total pot: 3596 
/inquire 
recv from player 6666: fold

---flop round bet---
valid player: 3, all in player: 0, fold player: 2

---turn round bet---
valid player: 3, all in player: 0, fold player: 2

---river round bet---
valid player: 3, all in player: 0, fold player: 2

--- 1 players not fold, don't need show down---

---Allocate pot---
Only player at seat 0 not fold, win all the pot 3596
pot-win/ 
4444: 3596 
/pot-win 
it is player 4444's turn to be button

-----163 Hand-----

----- clean player data in socket -----
seat/ 
button: 4444 52316 8000 
small blind: 7777 1446 4036 
big blind: 6666 9926 4109 
/seat 
blind/ 
7777: 50 
6666: 100 
/blind 
player 7777:hold/ 
CLUBS 2 
SPADES J 
/hold 
player 6666:hold/ 
DIAMONDS 7 
DIAMONDS J 
/hold 
player 4444:hold/ 
CLUBS Q 
HEARTS 10 
/hold 

---pre flop round bet---
valid player: 3, all in player: 0, fold player: 0
send inquire msg to player 4444 
inquire/ 
6666 9826 4109 100 blind 
7777 1396 4036 50 blind 
total pot: 150 
/inquire 
recv from player 4444: raise 2953
send inquire msg to player 7777 
inquire/ 
4444 49263 8000 3053 raise 
6666 9826 4109 100 blind 
7777 1396 4036 50 blind 
total pot: 3203 
/inquire 
recv from player 7777: fold
send inquire msg to player 6666 
inquire/ 
7777 1396 4036 50 fold 
4444 49263 8000 3053 raise 
6666 9826 4109 100 blind 
total pot: 3203 
/inquire 
recv from player 6666: fold

---flop round bet---
valid player: 3, all in player: 0, fold player: 2

---turn round bet---
valid player: 3, all in player: 0, fold player: 2

---river round bet---
valid player: 3, all in player: 0, fold player: 2

--- 1 players not fold, don't need show down---

---Allocate pot---
Only player at seat 7 not fold, win all the pot 3203
pot-win/ 
4444: 3203 
/pot-win 
it is player 7777's turn to be button

-----164 Hand-----

----- clean player data in socket -----
seat/ 
button: 7777 1396 4036 
small blind: 6666 9826 4109 
big blind: 4444 52466 8000 
/seat 
blind/ 
6666: 50 
4444: 100 
/blind 
player 6666:hold/ 
DIAMONDS J 
DIAMONDS 3 
/hold 
player 4444:hold/ 
SPADES 5 
SPADES K 
/hold 
player 7777:hold/ 
HEARTS 8 
DIAMONDS 5 
/hold 

---pre flop round bet---
valid player: 3, all in player: 0, fold player: 0
send inquire msg to player 7777 
inquire/ 
4444 52366 8000 100 blind 
6666 9776 4109 50 blind 
total pot: 150 
/inquire 
recv from player 7777: fold
send inquire msg to player 6666 
inquire/ 
7777 1396 4036 0 fold 
4444 52366 8000 100 blind 
6666 9776 4109 50 blind 
total pot: 150 
/inquire 
recv from player 6666: check
send inquire msg to player 4444 
inquire/ 
6666 9726 4109 100 call 
7777 1396 4036 0 fold 
4444 52366 8000 100 blind 
total pot: 200 
/inquire 
recv from player 4444: check
flop/ 
CLUBS A 
CLUBS 4 
DIAMONDS 7 
/flop 

---flop round bet---
valid player: 3, all in player: 0, fold player: 1
send inquire msg to player 6666 
inquire/ 
7777 1396 4036 0 fold 
4444 52366 8000 100 check 
6666 9726 4109 100 call 
total pot: 200 
/inquire 
recv from player 6666: check
send inquire msg to player 4444 
inquire/ 
6666 9726 4109 100 check 
7777 1396 4036 0 fold 
4444 52366 8000 100 check 
total pot: 200 
/inquire 
recv from player 4444: check
turn/ 
HEARTS Q 
/turn 

---turn round bet---
valid player: 3, all in player: 0, fold player: 1
send inquire msg to player 6666 
inquire/ 
7777 1396 4036 0 fold 
4444 52366 8000 100 check 
6666 9726 4109 100 check 
total pot: 200 
/inquire 
recv from player 6666: check
send inquire msg to player 4444 
inquire/ 
6666 9726 4109 100 check 
7777 1396 4036 0 fold 
4444 52366 8000 100 check 
total pot: 200 
/inquire 
recv from player 4444: check
river/ 
HEARTS 6 
/river 

---river round bet---
valid player: 3, all in player: 0, fold player: 1
send inquire msg to player 6666 
inquire/ 
7777 1396 4036 0 fold 
4444 52366 8000 100 check 
6666 9726 4109 100 check 
total pot: 200 
/inquire 
recv from player 6666: check
send inquire msg to player 4444 
inquire/ 
6666 9726 4109 100 check 
7777 1396 4036 0 fold 
4444 52366 8000 100 check 
total pot: 200 
/inquire 
recv from player 4444: check

---show down---
showdown/ 
common/ 
CLUBS A 
CLUBS 4 
DIAMONDS 7 
HEARTS Q 
HEARTS 6 
/common 
2: 6666 DIAMONDS J DIAMONDS 3 HIGH_CARD 
1: 4444 SPADES 5 SPADES K HIGH_CARD 
/showdown 

---Allocate pot---
pot-win/ 
4444: 200 
/pot-win 
it is player 6666's turn to be button

-----165 Hand-----

----- clean player data in socket -----
seat/ 
button: 6666 9726 4109 
small blind: 4444 52566 8000 
big blind: 7777 1396 4036 
/seat 
blind/ 
4444: 50 
7777: 100 
/blind 
player 4444:hold/ 
CLUBS K 
HEARTS J 
/hold 
player 7777:hold/ 
CLUBS 4 
SPADES 6 
/hold 
player 6666:hold/ 
DIAMONDS 10 
CLUBS 2 
/hold 

---pre flop round bet---
valid player: 3, all in player: 0, fold player: 0
send inquire msg to player 6666 
inquire/ 
7777 1296 4036 100 blind 
4444 52516 8000 50 blind 
total pot: 150 
/inquire 
recv from player 6666: fold
send inquire msg to player 4444 
inquire/ 
6666 9726 4109 0 fold 
7777 1296 4036 100 blind 
4444 52516 8000 50 blind 
total pot: 150 
/inquire 
recv from player 4444: check
send inquire msg to player 7777 
inquire/ 
4444 52466 8000 100 call 
6666 9726 4109 0 fold 
7777 1296 4036 100 blind 
total pot: 200 
/inquire 
recv from player 7777: check
flop/ 
HEARTS 10 
SPADES 10 
SPADES 4 
/flop 

---flop round bet---
valid player: 3, all in player: 0, fold player: 1
send inquire msg to player 4444 
inquire/ 
6666 9726 4109 0 fold 
7777 1296 4036 100 check 
4444 52466 8000 100 call 
total pot: 200 
/inquire 
recv from player 4444: check
send inquire msg to player 7777 
inquire/ 
4444 52466 8000 100 check 
6666 9726 4109 0 fold 
7777 1296 4036 100 check 
total pot: 200 
/inquire 
recv from player 7777: check
turn/ 
DIAMONDS 8 
/turn 

---turn round bet---
valid player: 3, all in player: 0, fold player: 1
send inquire msg to player 4444 
inquire/ 
6666 9726 4109 0 fold 
7777 1296 4036 100 check 
4444 52466 8000 100 check 
total pot: 200 
/inquire 
recv from player 4444: check
send inquire msg to player 7777 
inquire/ 
4444 52466 8000 100 check 
6666 9726 4109 0 fold 
7777 1296 4036 100 check 
total pot: 200 
/inquire 
recv from player 7777: check
river/ 
HEARTS K 
/river 

---river round bet---
valid player: 3, all in player: 0, fold player: 1
send inquire msg to player 4444 
inquire/ 
6666 9726 4109 0 fold 
7777 1296 4036 100 check 
4444 52466 8000 100 check 
total pot: 200 
/inquire 
recv from player 4444: check
send inquire msg to player 7777 
inquire/ 
4444 52466 8000 100 check 
6666 9726 4109 0 fold 
7777 1296 4036 100 check 
total pot: 200 
/inquire 
recv from player 7777: check

---show down---
showdown/ 
common/ 
HEARTS 10 
SPADES 10 
SPADES 4 
DIAMONDS 8 
HEARTS K 
/common 
1: 4444 CLUBS K HEARTS J TWO_PAIR 
2: 7777 CLUBS 4 SPADES 6 TWO_PAIR 
/showdown 

---Allocate pot---
pot-win/ 
4444: 200 
/pot-win 
it is player 4444's turn to be button

-----166 Hand-----

----- clean player data in socket -----
seat/ 
button: 4444 52666 8000 
small blind: 7777 1296 4036 
big blind: 6666 9726 4109 
/seat 
blind/ 
7777: 50 
6666: 100 
/blind 
player 7777:hold/ 
HEARTS Q 
DIAMONDS 6 
/hold 
player 6666:hold/ 
DIAMONDS 10 
HEARTS 6 
/hold 
player 4444:hold/ 
DIAMONDS 3 
DIAMONDS 4 
/hold 

---pre flop round bet---
valid player: 3, all in player: 0, fold player: 0
send inquire msg to player 4444 
inquire/ 
6666 9626 4109 100 blind 
7777 1246 4036 50 blind 
total pot: 150 
/inquire 
recv from player 4444: fold
send inquire msg to player 7777 
inquire/ 
4444 52666 8000 0 fold 
6666 9626 4109 100 blind 
7777 1246 4036 50 blind 
total pot: 150 
/inquire 
recv from player 7777: check
send inquire msg to player 6666 
inquire/ 
7777 1196 4036 100 call 
4444 52666 8000 0 fold 
6666 9626 4109 100 blind 
total pot: 200 
/inquire 
recv from player 6666: check
flop/ 
HEARTS K 
SPADES 3 
HEARTS 8 
/flop 

---flop round bet---
valid player: 3, all in player: 0, fold player: 1
send inquire msg to player 7777 
inquire/ 
4444 52666 8000 0 fold 
6666 9626 4109 100 check 
7777 1196 4036 100 call 
total pot: 200 
/inquire 
recv from player 7777: check
send inquire msg to player 6666 
inquire/ 
7777 1196 4036 100 check 
4444 52666 8000 0 fold 
6666 9626 4109 100 check 
total pot: 200 
/inquire 
recv from player 6666: check
turn/ 
CLUBS J 
/turn 

---turn round bet---
valid player: 3, all in player: 0, fold player: 1
send inquire msg to player 7777 
inquire/ 
4444 52666 8000 0 fold 
6666 9626 4109 100 check 
7777 1196 4036 100 check 
total pot: 200 
/inquire 
recv from player 7777: check
send inquire msg to player 6666 
inquire/ 
7777 1196 4036 100 check 
4444 52666 8000 0 fold 
6666 9626 4109 100 check 
total pot: 200 
/inquire 
recv from player 6666: check
river/ 
HEARTS 4 
/river 

---river round bet---
valid player: 3, all in player: 0, fold player: 1
send inquire msg to player 7777 
inquire/ 
4444 52666 8000 0 fold 
6666 9626 4109 100 check 
7777 1196 4036 100 check 
total pot: 200 
/inquire 
recv from player 7777: check
send inquire msg to player 6666 
inquire/ 
7777 1196 4036 100 check 
4444 52666 8000 0 fold 
6666 9626 4109 100 check 
total pot: 200 
/inquire 
recv from player 6666: check

---show down---
showdown/ 
common/ 
HEARTS K 
SPADES 3 
HEARTS 8 
CLUBS J 
HEARTS 4 
/common 
1: 7777 HEARTS Q DIAMONDS 6 HIGH_CARD 
2: 6666 DIAMONDS 10 HEARTS 6 HIGH_CARD 
/showdown 

---Allocate pot---
pot-win/ 
7777: 200 
/pot-win 
it is player 7777's turn to be button

-----167 Hand-----

----- clean player data in socket -----
seat/ 
button: 7777 1396 4036 
small blind: 6666 9626 4109 
big blind: 4444 52666 8000 
/seat 
blind/ 
6666: 50 
4444: 100 
/blind 
player 6666:hold/ 
CLUBS 4 
CLUBS J 
/hold 
player 4444:hold/ 
SPADES 10 
HEARTS 7 
/hold 
player 7777:hold/ 
SPADES 7 
SPADES A 
/hold 

---pre flop round bet---
valid player: 3, all in player: 0, fold player: 0
send inquire msg to player 7777 
inquire/ 
4444 52566 8000 100 blind 
6666 9576 4109 50 blind 
total pot: 150 
/inquire 
recv from player 7777: check
send inquire msg to player 6666 
inquire/ 
7777 1296 4036 100 call 
4444 52566 8000 100 blind 
6666 9576 4109 50 blind 
total pot: 250 
/inquire 
recv from player 6666: check
send inquire msg to player 4444 
inquire/ 
6666 9526 4109 100 call 
7777 1296 4036 100 call 
4444 52566 8000 100 blind 
total pot: 300 
/inquire 
recv from player 4444: check
flop/ 
SPADES 2 
DIAMONDS 6 
SPADES 9 
/flop 

---flop round bet---
valid player: 3, all in player: 0, fold player: 0
send inquire msg to player 6666 
inquire/ 
7777 1296 4036 100 call 
4444 52566 8000 100 check 
6666 9526 4109 100 call 
total pot: 300 
/inquire 
recv from player 6666: check
send inquire msg to player 4444 
inquire/ 
6666 9526 4109 100 check 
7777 1296 4036 100 call 
4444 52566 8000 100 check 
total pot: 300 
/inquire 
recv from player 4444: check
send inquire msg to player 7777 
inquire/ 
4444 52566 8000 100 check 
6666 9526 4109 100 check 
7777 1296 4036 100 call 
total pot: 300 
/inquire 
recv from player 7777: check
turn/ 
DIAMONDS 3 
/turn 

---turn round bet---
valid player: 3, all in player: 0, fold player: 0
send inquire msg to player 6666 
inquire/ 
7777 1296 4036 100 check 
4444 52566 8000 100 check 
6666 9526 4109 100 check 
total pot: 300 
/inquire 
recv from player 6666: check
send inquire msg to player 4444 
inquire/ 
6666 9526 4109 100 check 
7777 1296 4036 100 check 
4444 52566 8000 100 check 
total pot: 300 
/inquire 
recv from player 4444: check
send inquire msg to player 7777 
inquire/ 
4444 52566 8000 100 check 
6666 9526 4109 100 check 
7777 1296 4036 100 check 
total pot: 300 
/inquire 
recv from player 7777: check
river/ 
DIAMONDS 9 
/river 

---river round bet---
valid player: 3, all in player: 0, fold player: 0
send inquire msg to player 6666 
inquire/ 
7777 1296 4036 100 check 
4444 52566 8000 100 check 
6666 9526 4109 100 check 
total pot: 300 
/inquire 
recv from player 6666: check
send inquire msg to player 4444 
inquire/ 
6666 9526 4109 100 check 
7777 1296 4036 100 check 
4444 52566 8000 100 check 
total pot: 300 
/inquire 
recv from player 4444: check
send inquire msg to player 7777 
inquire/ 
4444 52566 8000 100 check 
6666 9526 4109 100 check 
7777 1296 4036 100 check 
total pot: 300 
/inquire 
recv from player 7777: check

---show down---
showdown/ 
common/ 
SPADES 2 
DIAMONDS 6 
SPADES 9 
DIAMONDS 3 
DIAMONDS 9 
/common 
2: 6666 CLUBS 4 CLUBS J ONE_PAIR 
3: 4444 SPADES 10 HEARTS 7 ONE_PAIR 
1: 7777 SPADES 7 SPADES A ONE_PAIR 
/showdown 

---Allocate pot---
pot-win/ 
7777: 300 
/pot-win 
it is player 6666's turn to be button

-----168 Hand-----

----- clean player data in socket -----
seat/ 
button: 6666 9526 4109 
small blind: 4444 52566 8000 
big blind: 7777 1596 4036 
/seat 
blind/ 
4444: 50 
7777: 100 
/blind 
player 4444:hold/ 
HEARTS K 
HEARTS 7 
/hold 
player 7777:hold/ 
HEARTS 9 
HEARTS 2 
/hold 
player 6666:hold/ 
SPADES 4 
HEARTS 5 
/hold 

---pre flop round bet---
valid player: 3, all in player: 0, fold player: 0
send inquire msg to player 6666 
inquire/ 
7777 1496 4036 100 blind 
4444 52516 8000 50 blind 
total pot: 150 
/inquire 
recv from player 6666: fold
send inquire msg to player 4444 
inquire/ 
6666 9526 4109 0 fold 
7777 1496 4036 100 blind 
4444 52516 8000 50 blind 
total pot: 150 
/inquire 
recv from player 4444: check
send inquire msg to player 7777 
inquire/ 
4444 52466 8000 100 call 
6666 9526 4109 0 fold 
7777 1496 4036 100 blind 
total pot: 200 
/inquire 
recv from player 7777: check
flop/ 
DIAMONDS 9 
SPADES 7 
CLUBS J 
/flop 

---flop round bet---
valid player: 3, all in player: 0, fold player: 1
send inquire msg to player 4444 
inquire/ 
6666 9526 4109 0 fold 
7777 1496 4036 100 check 
4444 52466 8000 100 call 
total pot: 200 
/inquire 
recv from player 4444: check
send inquire msg to player 7777 
inquire/ 
4444 52466 8000 100 check 
6666 9526 4109 0 fold 
7777 1496 4036 100 check 
total pot: 200 
/inquire 
recv from player 7777: check
turn/ 
DIAMONDS 3 
/turn 

---turn round bet---
valid player: 3, all in player: 0, fold player: 1
send inquire msg to player 4444 
inquire/ 
6666 9526 4109 0 fold 
7777 1496 4036 100 check 
4444 52466 8000 100 check 
total pot: 200 
/inquire 
recv from player 4444: check
send inquire msg to player 7777 
inquire/ 
4444 52466 8000 100 check 
6666 9526 4109 0 fold 
7777 1496 4036 100 check 
total pot: 200 
/inquire 
recv from player 7777: check
river/ 
HEARTS 6 
/river 

---river round bet---
valid player: 3, all in player: 0, fold player: 1
send inquire msg to player 4444 
inquire/ 
6666 9526 4109 0 fold 
7777 1496 4036 100 check 
4444 52466 8000 100 check 
total pot: 200 
/inquire 
recv from player 4444: check
send inquire msg to player 7777 
inquire/ 
4444 52466 8000 100 check 
6666 9526 4109 0 fold 
7777 1496 4036 100 check 
total pot: 200 
/inquire 
recv from player 7777: check

---show down---
showdown/ 
common/ 
DIAMONDS 9 
SPADES 7 
CLUBS J 
DIAMONDS 3 
HEARTS 6 
/common 
2: 4444 HEARTS K HEARTS 7 ONE_PAIR 
1: 7777 HEARTS 9 HEARTS 2 ONE_PAIR 
/showdown 

---Allocate pot---
pot-win/ 
7777: 200 
/pot-win 
it is player 4444's turn to be button

-----169 Hand-----

----- clean player data in socket -----
seat/ 
button: 4444 52466 8000 
small blind: 7777 1696 4036 
big blind: 6666 9526 4109 
/seat 
blind/ 
7777: 50 
6666: 100 
/blind 
player 7777:hold/ 
CLUBS 9 
SPADES K 
/hold 
player 6666:hold/ 
SPADES A 
HEARTS 2 
/hold 
player 4444:hold/ 
HEARTS 10 
HEARTS 7 
/hold 

---pre flop round bet---
valid player: 3, all in player: 0, fold player: 0
send inquire msg to player 4444 
inquire/ 
6666 9426 4109 100 blind 
7777 1646 4036 50 blind 
total pot: 150 
/inquire 
recv from player 4444: raise 418
send inquire msg to player 7777 
inquire/ 
4444 51948 8000 518 raise 
6666 9426 4109 100 blind 
7777 1646 4036 50 blind 
total pot: 668 
/inquire 
recv from player 7777: fold
send inquire msg to player 6666 
inquire/ 
7777 1646 4036 50 fold 
4444 51948 8000 518 raise 
6666 9426 4109 100 blind 
total pot: 668 
/inquire 
recv from player 6666: fold

---flop round bet---
valid player: 3, all in player: 0, fold player: 2

---turn round bet---
valid player: 3, all in player: 0, fold player: 2

---river round bet---
valid player: 3, all in player: 0, fold player: 2

--- 1 players not fold, don't need show down---

---Allocate pot---
Only player at seat 7 not fold, win all the pot 668
pot-win/ 
4444: 668 
/pot-win 
it is player 7777's turn to be button

-----170 Hand-----

----- clean player data in socket -----
seat/ 
button: 7777 1646 4036 
small blind: 6666 9426 4109 
big blind: 4444 52616 8000 
/seat 
blind/ 
6666: 50 
4444: 100 
/blind 
player 6666:hold/ 
SPADES 10 
SPADES A 
/hold 
player 4444:hold/ 
SPADES 3 
SPADES 9 
/hold 
player 7777:hold/ 
HEARTS 10 
CLUBS 6 
/hold 

---pre flop round bet---
valid player: 3, all in player: 0, fold player: 0
send inquire msg to player 7777 
inquire/ 
4444 52516 8000 100 blind 
6666 9376 4109 50 blind 
total pot: 150 
/inquire 
recv from player 7777: fold
send inquire msg to player 6666 
inquire/ 
7777 1646 4036 0 fold 
4444 52516 8000 100 blind 
6666 9376 4109 50 blind 
total pot: 150 
/inquire 
recv from player 6666: check
send inquire msg to player 4444 
inquire/ 
6666 9326 4109 100 call 
7777 1646 4036 0 fold 
4444 52516 8000 100 blind 
total pot: 200 
/inquire 
recv from player 4444: check
flop/ 
CLUBS K 
SPADES 5 
HEARTS 9 
/flop 

---flop round bet---
valid player: 3, all in player: 0, fold player: 1
send inquire msg to player 6666 
inquire/ 
7777 1646 4036 0 fold 
4444 52516 8000 100 check 
6666 9326 4109 100 call 
total pot: 200 
/inquire 
recv from player 6666: check
send inquire msg to player 4444 
inquire/ 
6666 9326 4109 100 check 
7777 1646 4036 0 fold 
4444 52516 8000 100 check 
total pot: 200 
/inquire 
recv from player 4444: check
turn/ 
SPADES K 
/turn 

---turn round bet---
valid player: 3, all in player: 0, fold player: 1
send inquire msg to player 6666 
inquire/ 
7777 1646 4036 0 fold 
4444 52516 8000 100 check 
6666 9326 4109 100 check 
total pot: 200 
/inquire 
recv from player 6666: check
send inquire msg to player 4444 
inquire/ 
6666 9326 4109 100 check 
7777 1646 4036 0 fold 
4444 52516 8000 100 check 
total pot: 200 
/inquire 
recv from player 4444: check
river/ 
HEARTS J 
/river 

---river round bet---
valid player: 3, all in player: 0, fold player: 1
send inquire msg to player 6666 
inquire/ 
7777 1646 4036 0 fold 
4444 52516 8000 100 check 
6666 9326 4109 100 check 
total pot: 200 
/inquire 
recv from player 6666: check
send inquire msg to player 4444 
inquire/ 
6666 9326 4109 100 check 
7777 1646 4036 0 fold 
4444 52516 8000 100 check 
total pot: 200 
/inquire 
recv from player 4444: check

---show down---
showdown/ 
common/ 
CLUBS K 
SPADES 5 
HEARTS 9 
SPADES K 
HEARTS J 
/common 
2: 6666 SPADES 10 SPADES A ONE_PAIR 
1: 4444 SPADES 3 SPADES 9 TWO_PAIR 
/showdown 

---Allocate pot---
pot-win/ 
4444: 200 
/pot-win 
it is player 6666's turn to be button

-----171 Hand-----

----- clean player data in socket -----
seat/ 
button: 6666 9326 4109 
small blind: 4444 52716 8000 
big blind: 7777 1646 4036 
/seat 
blind/ 
4444: 50 
7777: 100 
/blind 
player 4444:hold/ 
DIAMONDS 10 
CLUBS K 
/hold 
player 7777:hold/ 
DIAMONDS 5 
CLUBS 7 
/hold 
player 6666:hold/ 
DIAMONDS 6 
SPADES 6 
/hold 

---pre flop round bet---
valid player: 3, all in player: 0, fold player: 0
send inquire msg to player 6666 
inquire/ 
7777 1546 4036 100 blind 
4444 52666 8000 50 blind 
total pot: 150 
/inquire 
recv from player 6666: check
send inquire msg to player 4444 
inquire/ 
6666 9226 4109 100 call 
7777 1546 4036 100 blind 
4444 52666 8000 50 blind 
total pot: 250 
/inquire 
recv from player 4444: check
send inquire msg to player 7777 
inquire/ 
4444 52616 8000 100 call 
6666 9226 4109 100 call 
7777 1546 4036 100 blind 
total pot: 300 
/inquire 
recv from player 7777: check
flop/ 
CLUBS A 
DIAMONDS A 
SPADES 9 
/flop 

---flop round bet---
valid player: 3, all in player: 0, fold player: 0
send inquire msg to player 4444 
inquire/ 
6666 9226 4109 100 call 
7777 1546 4036 100 check 
4444 52616 8000 100 call 
total pot: 300 
/inquire 
recv from player 4444: check
send inquire msg to player 7777 
inquire/ 
4444 52616 8000 100 check 
6666 9226 4109 100 call 
7777 1546 4036 100 check 
total pot: 300 
/inquire 
recv from player 7777: check
send inquire msg to player 6666 
inquire/ 
7777 1546 4036 100 check 
4444 52616 8000 100 check 
6666 9226 4109 100 call 
total pot: 300 
/inquire 
recv from player 6666: check
turn/ 
SPADES A 
/turn 

---turn round bet---
valid player: 3, all in player: 0, fold player: 0
send inquire msg to player 4444 
inquire/ 
6666 9226 4109 100 check 
7777 1546 4036 100 check 
4444 52616 8000 100 check 
total pot: 300 
/inquire 
recv from player 4444: check
send inquire msg to player 7777 
inquire/ 
4444 52616 8000 100 check 
6666 9226 4109 100 check 
7777 1546 4036 100 check 
total pot: 300 
/inquire 
recv from player 7777: check
send inquire msg to player 6666 
inquire/ 
7777 1546 4036 100 check 
4444 52616 8000 100 check 
6666 9226 4109 100 check 
total pot: 300 
/inquire 
recv from player 6666: check
river/ 
HEARTS 6 
/river 

---river round bet---
valid player: 3, all in player: 0, fold player: 0
send inquire msg to player 4444 
inquire/ 
6666 9226 4109 100 check 
7777 1546 4036 100 check 
4444 52616 8000 100 check 
total pot: 300 
/inquire 
recv from player 4444: check
send inquire msg to player 7777 
inquire/ 
4444 52616 8000 100 check 
6666 9226 4109 100 check 
7777 1546 4036 100 check 
total pot: 300 
/inquire 
recv from player 7777: check
send inquire msg to player 6666 
inquire/ 
7777 1546 4036 100 check 
4444 52616 8000 100 check 
6666 9226 4109 100 check 
total pot: 300 
/inquire 
recv from player 6666: check

---show down---
showdown/ 
common/ 
CLUBS A 
DIAMONDS A 
SPADES 9 
SPADES A 
HEARTS 6 
/common 
2: 4444 DIAMONDS 10 CLUBS K THREE_OF_A_KIND 
3: 7777 DIAMONDS 5 CLUBS 7 THREE_OF_A_KIND 
1: 6666 DIAMONDS 6 SPADES 6 FULL_HOUSE 
/showdown 

---Allocate pot---
pot-win/ 
6666: 300 
/pot-win 
it is player 4444's turn to be button

-----172 Hand-----

----- clean player data in socket -----
seat/ 
button: 4444 52616 8000 
small blind: 7777 1546 4036 
big blind: 6666 9526 4109 
/seat 
blind/ 
7777: 50 
6666: 100 
/blind 
player 7777:hold/ 
HEARTS 7 
SPADES 9 
/hold 
player 6666:hold/ 
DIAMONDS A 
SPADES 10 
/hold 
player 4444:hold/ 
DIAMONDS 5 
SPADES K 
/hold 

---pre flop round bet---
valid player: 3, all in player: 0, fold player: 0
send inquire msg to player 4444 
inquire/ 
6666 9426 4109 100 blind 
7777 1496 4036 50 blind 
total pot: 150 
/inquire 
recv from player 4444: fold
send inquire msg to player 7777 
inquire/ 
4444 52616 8000 0 fold 
6666 9426 4109 100 blind 
7777 1496 4036 50 blind 
total pot: 150 
/inquire 
recv from player 7777: check
send inquire msg to player 6666 
inquire/ 
7777 1446 4036 100 call 
4444 52616 8000 0 fold 
6666 9426 4109 100 blind 
total pot: 200 
/inquire 
recv from player 6666: check
flop/ 
HEARTS 4 
DIAMONDS Q 
SPADES 4 
/flop 

---flop round bet---
valid player: 3, all in player: 0, fold player: 1
send inquire msg to player 7777 
inquire/ 
4444 52616 8000 0 fold 
6666 9426 4109 100 check 
7777 1446 4036 100 call 
total pot: 200 
/inquire 
recv from player 7777: check
send inquire msg to player 6666 
inquire/ 
7777 1446 4036 100 check 
4444 52616 8000 0 fold 
6666 9426 4109 100 check 
total pot: 200 
/inquire 
recv from player 6666: check
turn/ 
HEARTS 5 
/turn 

---turn round bet---
valid player: 3, all in player: 0, fold player: 1
send inquire msg to player 7777 
inquire/ 
4444 52616 8000 0 fold 
6666 9426 4109 100 check 
7777 1446 4036 100 check 
total pot: 200 
/inquire 
recv from player 7777: check
send inquire msg to player 6666 
inquire/ 
7777 1446 4036 100 check 
4444 52616 8000 0 fold 
6666 9426 4109 100 check 
total pot: 200 
/inquire 
recv from player 6666: check
river/ 
DIAMONDS 3 
/river 

---river round bet---
valid player: 3, all in player: 0, fold player: 1
send inquire msg to player 7777 
inquire/ 
4444 52616 8000 0 fold 
6666 9426 4109 100 check 
7777 1446 4036 100 check 
total pot: 200 
/inquire 
recv from player 7777: check
send inquire msg to player 6666 
inquire/ 
7777 1446 4036 100 check 
4444 52616 8000 0 fold 
6666 9426 4109 100 check 
total pot: 200 
/inquire 
recv from player 6666: check

---show down---
showdown/ 
common/ 
HEARTS 4 
DIAMONDS Q 
SPADES 4 
HEARTS 5 
DIAMONDS 3 
/common 
2: 7777 HEARTS 7 SPADES 9 ONE_PAIR 
1: 6666 DIAMONDS A SPADES 10 ONE_PAIR 
/showdown 

---Allocate pot---
pot-win/ 
6666: 200 
/pot-win 
it is player 7777's turn to be button

-----173 Hand-----

----- clean player data in socket -----
seat/ 
button: 7777 1446 4036 
small blind: 6666 9626 4109 
big blind: 4444 52616 8000 
/seat 
blind/ 
6666: 50 
4444: 100 
/blind 
player 6666:hold/ 
HEARTS 9 
DIAMONDS 3 
/hold 
player 4444:hold/ 
DIAMONDS 2 
SPADES 2 
/hold 
player 7777:hold/ 
HEARTS A 
SPADES 4 
/hold 

---pre flop round bet---
valid player: 3, all in player: 0, fold player: 0
send inquire msg to player 7777 
inquire/ 
4444 52516 8000 100 blind 
6666 9576 4109 50 blind 
total pot: 150 
/inquire 
recv from player 7777: fold
send inquire msg to player 6666 
inquire/ 
7777 1446 4036 0 fold 
4444 52516 8000 100 blind 
6666 9576 4109 50 blind 
total pot: 150 
/inquire 
recv from player 6666: check
send inquire msg to player 4444 
inquire/ 
6666 9526 4109 100 call 
7777 1446 4036 0 fold 
4444 52516 8000 100 blind 
total pot: 200 
/inquire 
recv from player 4444: check
flop/ 
DIAMONDS 9 
CLUBS 6 
SPADES 8 
/flop 

---flop round bet---
valid player: 3, all in player: 0, fold player: 1
send inquire msg to player 6666 
inquire/ 
7777 1446 4036 0 fold 
4444 52516 8000 100 check 
6666 9526 4109 100 call 
total pot: 200 
/inquire 
recv from player 6666: check
send inquire msg to player 4444 
inquire/ 
6666 9526 4109 100 check 
7777 1446 4036 0 fold 
4444 52516 8000 100 check 
total pot: 200 
/inquire 
recv from player 4444: check
turn/ 
HEARTS 7 
/turn 

---turn round bet---
valid player: 3, all in player: 0, fold player: 1
send inquire msg to player 6666 
inquire/ 
7777 1446 4036 0 fold 
4444 52516 8000 100 check 
6666 9526 4109 100 check 
total pot: 200 
/inquire 
recv from player 6666: check
send inquire msg to player 4444 
inquire/ 
6666 9526 4109 100 check 
7777 1446 4036 0 fold 
4444 52516 8000 100 check 
total pot: 200 
/inquire 
recv from player 4444: check
river/ 
CLUBS Q 
/river 

---river round bet---
valid player: 3, all in player: 0, fold player: 1
send inquire msg to player 6666 
inquire/ 
7777 1446 4036 0 fold 
4444 52516 8000 100 check 
6666 9526 4109 100 check 
total pot: 200 
/inquire 
recv from player 6666: check
send inquire msg to player 4444 
inquire/ 
6666 9526 4109 100 check 
7777 1446 4036 0 fold 
4444 52516 8000 100 check 
total pot: 200 
/inquire 
recv from player 4444: check

---show down---
showdown/ 
common/ 
DIAMONDS 9 
CLUBS 6 
SPADES 8 
HEARTS 7 
CLUBS Q 
/common 
1: 6666 HEARTS 9 DIAMONDS 3 ONE_PAIR 
2: 4444 DIAMONDS 2 SPADES 2 ONE_PAIR 
/showdown 

---Allocate pot---
pot-win/ 
6666: 200 
/pot-win 
it is player 6666's turn to be button

-----174 Hand-----

----- clean player data in socket -----
seat/ 
button: 6666 9726 4109 
small blind: 4444 52516 8000 
big blind: 7777 1446 4036 
/seat 
blind/ 
4444: 50 
7777: 100 
/blind 
player 4444:hold/ 
SPADES 3 
SPADES J 
/hold 
player 7777:hold/ 
DIAMONDS 5 
CLUBS J 
/hold 
player 6666:hold/ 
DIAMONDS J 
HEARTS 7 
/hold 

---pre flop round bet---
valid player: 3, all in player: 0, fold player: 0
send inquire msg to player 6666 
inquire/ 
7777 1346 4036 100 blind 
4444 52466 8000 50 blind 
total pot: 150 
/inquire 
recv from player 6666: fold
send inquire msg to player 4444 
inquire/ 
6666 9726 4109 0 fold 
7777 1346 4036 100 blind 
4444 52466 8000 50 blind 
total pot: 150 
/inquire 
recv from player 4444: check
send inquire msg to player 7777 
inquire/ 
4444 52416 8000 100 call 
6666 9726 4109 0 fold 
7777 1346 4036 100 blind 
total pot: 200 
/inquire 
recv from player 7777: check
flop/ 
SPADES Q 
HEARTS 5 
HEARTS 8 
/flop 

---flop round bet---
valid player: 3, all in player: 0, fold player: 1
send inquire msg to player 4444 
inquire/ 
6666 9726 4109 0 fold 
7777 1346 4036 100 check 
4444 52416 8000 100 call 
total pot: 200 
/inquire 
recv from player 4444: check
send inquire msg to player 7777 
inquire/ 
4444 52416 8000 100 check 
6666 9726 4109 0 fold 
7777 1346 4036 100 check 
total pot: 200 
/inquire 
recv from player 7777: check
turn/ 
CLUBS Q 
/turn 

---turn round bet---
valid player: 3, all in player: 0, fold player: 1
send inquire msg to player 4444 
inquire/ 
6666 9726 4109 0 fold 
7777 1346 4036 100 check 
4444 52416 8000 100 check 
total pot: 200 
/inquire 
recv from player 4444: check
send inquire msg to player 7777 
inquire/ 
4444 52416 8000 100 check 
6666 9726 4109 0 fold 
7777 1346 4036 100 check 
total pot: 200 
/inquire 
recv from player 7777: check
river/ 
HEARTS 9 
/river 

---river round bet---
valid player: 3, all in player: 0, fold player: 1
send inquire msg to player 4444 
inquire/ 
6666 9726 4109 0 fold 
7777 1346 4036 100 check 
4444 52416 8000 100 check 
total pot: 200 
/inquire 
recv from player 4444: check
send inquire msg to player 7777 
inquire/ 
4444 52416 8000 100 check 
6666 9726 4109 0 fold 
7777 1346 4036 100 check 
total pot: 200 
/inquire 
recv from player 7777: check

---show down---
showdown/ 
common/ 
SPADES Q 
HEARTS 5 
HEARTS 8 
CLUBS Q 
HEARTS 9 
/common 
2: 4444 SPADES 3 SPADES J ONE_PAIR 
1: 7777 DIAMONDS 5 CLUBS J TWO_PAIR 
/showdown 

---Allocate pot---
pot-win/ 
7777: 200 
/pot-win 
it is player 4444's turn to be button

-----175 Hand-----

----- clean player data in socket -----
seat/ 
button: 4444 52416 8000 
small blind: 7777 1546 4036 
big blind: 6666 9726 4109 
/seat 
blind/ 
7777: 50 
6666: 100 
/blind 
player 7777:hold/ 
HEARTS Q 
SPADES 6 
/hold 
player 6666:hold/ 
CLUBS 9 
SPADES A 
/hold 
player 4444:hold/ 
DIAMONDS 10 
DIAMONDS 4 
/hold 

---pre flop round bet---
valid player: 3, all in player: 0, fold player: 0
send inquire msg to player 4444 
inquire/ 
6666 9626 4109 100 blind 
7777 1496 4036 50 blind 
total pot: 150 
/inquire 
recv from player 4444: fold
send inquire msg to player 7777 
inquire/ 
4444 52416 8000 0 fold 
6666 9626 4109 100 blind 
7777 1496 4036 50 blind 
total pot: 150 
/inquire 
recv from player 7777: check
send inquire msg to player 6666 
inquire/ 
7777 1446 4036 100 call 
4444 52416 8000 0 fold 
6666 9626 4109 100 blind 
total pot: 200 
/inquire 
recv from player 6666: check
flop/ 
CLUBS Q 
DIAMONDS 9 
HEARTS 10 
/flop 

---flop round bet---
valid player: 3, all in player: 0, fold player: 1
send inquire msg to player 7777 
inquire/ 
4444 52416 8000 0 fold 
6666 9626 4109 100 check 
7777 1446 4036 100 call 
total pot: 200 
/inquire 
recv from player 7777: check
send inquire msg to player 6666 
inquire/ 
7777 1446 4036 100 check 
4444 52416 8000 0 fold 
6666 9626 4109 100 check 
total pot: 200 
/inquire 
recv from player 6666: check
turn/ 
DIAMONDS 5 
/turn 

---turn round bet---
valid player: 3, all in player: 0, fold player: 1
send inquire msg to player 7777 
inquire/ 
4444 52416 8000 0 fold 
6666 9626 4109 100 check 
7777 1446 4036 100 check 
total pot: 200 
/inquire 
recv from player 7777: check
send inquire msg to player 6666 
inquire/ 
7777 1446 4036 100 check 
4444 52416 8000 0 fold 
6666 9626 4109 100 check 
total pot: 200 
/inquire 
recv from player 6666: check
river/ 
HEARTS K 
/river 

---river round bet---
valid player: 3, all in player: 0, fold player: 1
send inquire msg to player 7777 
inquire/ 
4444 52416 8000 0 fold 
6666 9626 4109 100 check 
7777 1446 4036 100 check 
total pot: 200 
/inquire 
recv from player 7777: check
send inquire msg to player 6666 
inquire/ 
7777 1446 4036 100 check 
4444 52416 8000 0 fold 
6666 9626 4109 100 check 
total pot: 200 
/inquire 
recv from player 6666: check

---show down---
showdown/ 
common/ 
CLUBS Q 
DIAMONDS 9 
HEARTS 10 
DIAMONDS 5 
HEARTS K 
/common 
1: 7777 HEARTS Q SPADES 6 ONE_PAIR 
2: 6666 CLUBS 9 SPADES A ONE_PAIR 
/showdown 

---Allocate pot---
pot-win/ 
7777: 200 
/pot-win 
it is player 7777's turn to be button

-----176 Hand-----

----- clean player data in socket -----
seat/ 
button: 7777 1646 4036 
small blind: 6666 9626 4109 
big blind: 4444 52416 8000 
/seat 
blind/ 
6666: 50 
4444: 100 
/blind 
player 6666:hold/ 
CLUBS 9 
HEARTS 7 
/hold 
player 4444:hold/ 
DIAMONDS 9 
HEARTS 2 
/hold 
player 7777:hold/ 
DIAMONDS 8 
SPADES 8 
/hold 

---pre flop round bet---
valid player: 3, all in player: 0, fold player: 0
send inquire msg to player 7777 
inquire/ 
4444 52316 8000 100 blind 
6666 9576 4109 50 blind 
total pot: 150 
/inquire 
recv from player 7777: check
send inquire msg to player 6666 
inquire/ 
7777 1546 4036 100 call 
4444 52316 8000 100 blind 
6666 9576 4109 50 blind 
total pot: 250 
/inquire 
recv from player 6666: check
send inquire msg to player 4444 
inquire/ 
6666 9526 4109 100 call 
7777 1546 4036 100 call 
4444 52316 8000 100 blind 
total pot: 300 
/inquire 
recv from player 4444: check
flop/ 
HEARTS 8 
SPADES 9 
DIAMONDS 2 
/flop 

---flop round bet---
valid player: 3, all in player: 0, fold player: 0
send inquire msg to player 6666 
inquire/ 
7777 1546 4036 100 call 
4444 52316 8000 100 check 
6666 9526 4109 100 call 
total pot: 300 
/inquire 
recv from player 6666: check
send inquire msg to player 4444 
inquire/ 
6666 9526 4109 100 check 
7777 1546 4036 100 call 
4444 52316 8000 100 check 
total pot: 300 
/inquire 
recv from player 4444: check
send inquire msg to player 7777 
inquire/ 
4444 52316 8000 100 check 
6666 9526 4109 100 check 
7777 1546 4036 100 call 
total pot: 300 
/inquire 
recv from player 7777: check
turn/ 
SPADES 5 
/turn 

---turn round bet---
valid player: 3, all in player: 0, fold player: 0
send inquire msg to player 6666 
inquire/ 
7777 1546 4036 100 check 
4444 52316 8000 100 check 
6666 9526 4109 100 check 
total pot: 300 
/inquire 
recv from player 6666: raise 1624
send inquire msg to player 4444 
inquire/ 
6666 7902 4109 1724 raise 
7777 1546 4036 100 check 
4444 52316 8000 100 check 
total pot: 1924 
/inquire 
recv from player 4444: check
send inquire msg to player 7777 
inquire/ 
4444 50692 8000 1724 call 
6666 7902 4109 1724 raise 
7777 1546 4036 100 check 
total pot: 3548 
/inquire 
recv from player 7777: fold
river/ 
SPADES 7 
/river 

---river round bet---
valid player: 3, all in player: 0, fold player: 1
send inquire msg to player 6666 
inquire/ 
7777 1546 4036 100 fold 
4444 50692 8000 1724 call 
6666 7902 4109 1724 raise 
total pot: 3548 
/inquire 
recv from player 6666: check
send inquire msg to player 4444 
inquire/ 
6666 7902 4109 1724 check 
7777 1546 4036 100 fold 
4444 50692 8000 1724 call 
total pot: 3548 
/inquire 
recv from player 4444: check

---show down---
showdown/ 
common/ 
HEARTS 8 
SPADES 9 
DIAMONDS 2 
SPADES 5 
SPADES 7 
/common 
1: 6666 CLUBS 9 HEARTS 7 TWO_PAIR 
2: 4444 DIAMONDS 9 HEARTS 2 TWO_PAIR 
/showdown 

---Allocate pot---
pot-win/ 
6666: 3548 
/pot-win 
it is player 6666's turn to be button

-----177 Hand-----

----- clean player data in socket -----
seat/ 
button: 6666 11450 4109 
small blind: 4444 50692 8000 
big blind: 7777 1546 4036 
/seat 
blind/ 
4444: 50 
7777: 100 
/blind 
player 4444:hold/ 
DIAMONDS 4 
SPADES A 
/hold 
player 7777:hold/ 
CLUBS 5 
DIAMONDS 10 
/hold 
player 6666:hold/ 
DIAMONDS 3 
CLUBS 9 
/hold 

---pre flop round bet---
valid player: 3, all in player: 0, fold player: 0
send inquire msg to player 6666 
inquire/ 
7777 1446 4036 100 blind 
4444 50642 8000 50 blind 
total pot: 150 
/inquire 
recv from player 6666: fold
send inquire msg to player 4444 
inquire/ 
6666 11450 4109 0 fold 
7777 1446 4036 100 blind 
4444 50642 8000 50 blind 
total pot: 150 
/inquire 
recv from player 4444: check
send inquire msg to player 7777 
inquire/ 
4444 50592 8000 100 call 
6666 11450 4109 0 fold 
7777 1446 4036 100 blind 
total pot: 200 
/inquire 
recv from player 7777: check
flop/ 
CLUBS 7 
HEARTS 8 
DIAMONDS 7 
/flop 

---flop round bet---
valid player: 3, all in player: 0, fold player: 1
send inquire msg to player 4444 
inquire/ 
6666 11450 4109 0 fold 
7777 1446 4036 100 check 
4444 50592 8000 100 call 
total pot: 200 
/inquire 
recv from player 4444: check
send inquire msg to player 7777 
inquire/ 
4444 50592 8000 100 check 
6666 11450 4109 0 fold 
7777 1446 4036 100 check 
total pot: 200 
/inquire 
recv from player 7777: check
turn/ 
CLUBS 10 
/turn 

---turn round bet---
valid player: 3, all in player: 0, fold player: 1
send inquire msg to player 4444 
inquire/ 
6666 11450 4109 0 fold 
7777 1446 4036 100 check 
4444 50592 8000 100 check 
total pot: 200 
/inquire 
recv from player 4444: check
send inquire msg to player 7777 
inquire/ 
4444 50592 8000 100 check 
6666 11450 4109 0 fold 
7777 1446 4036 100 check 
total pot: 200 
/inquire 
recv from player 7777: check
river/ 
HEARTS 5 
/river 

---river round bet---
valid player: 3, all in player: 0, fold player: 1
send inquire msg to player 4444 
inquire/ 
6666 11450 4109 0 fold 
7777 1446 4036 100 check 
4444 50592 8000 100 check 
total pot: 200 
/inquire 
recv from player 4444: check
send inquire msg to player 7777 
inquire/ 
4444 50592 8000 100 check 
6666 11450 4109 0 fold 
7777 1446 4036 100 check 
total pot: 200 
/inquire 
recv from player 7777: check

---show down---
showdown/ 
common/ 
CLUBS 7 
HEARTS 8 
DIAMONDS 7 
CLUBS 10 
HEARTS 5 
/common 
2: 4444 DIAMONDS 4 SPADES A ONE_PAIR 
1: 7777 CLUBS 5 DIAMONDS 10 TWO_PAIR 
/showdown 

---Allocate pot---
pot-win/ 
7777: 200 
/pot-win 
it is player 4444's turn to be button

-----178 Hand-----

----- clean player data in socket -----
seat/ 
button: 4444 50592 8000 
small blind: 7777 1646 4036 
big blind: 6666 11450 4109 
/seat 
blind/ 
7777: 50 
6666: 100 
/blind 
player 7777:hold/ 
DIAMONDS A 
CLUBS 5 
/hold 
player 6666:hold/ 
HEARTS 6 
CLUBS Q 
/hold 
player 4444:hold/ 
CLUBS 10 
HEARTS Q 
/hold 

---pre flop round bet---
valid player: 3, all in player: 0, fold player: 0
send inquire msg to player 4444 
inquire/ 
6666 11350 4109 100 blind 
7777 1596 4036 50 blind 
total pot: 150 
/inquire 
recv from player 4444: raise 2826
send inquire msg to player 7777 
inquire/ 
4444 47666 8000 2926 raise 
6666 11350 4109 100 blind 
7777 1596 4036 50 blind 
total pot: 3076 
/inquire 
recv from player 7777: fold
send inquire msg to player 6666 
inquire/ 
7777 1596 4036 50 fold 
4444 47666 8000 2926 raise 
6666 11350 4109 100 blind 
total pot: 3076 
/inquire 
recv from player 6666: fold

---flop round bet---
valid player: 3, all in player: 0, fold player: 2

---turn round bet---
valid player: 3, all in player: 0, fold player: 2

---river round bet---
valid player: 3, all in player: 0, fold player: 2

--- 1 players not fold, don't need show down---

---Allocate pot---
Only player at seat 7 not fold, win all the pot 3076
pot-win/ 
4444: 3076 
/pot-win 
it is player 7777's turn to be button

-----179 Hand-----

----- clean player data in socket -----
seat/ 
button: 7777 1596 4036 
small blind: 6666 11350 4109 
big blind: 4444 50742 8000 
/seat 
blind/ 
6666: 50 
4444: 100 
/blind 
player 6666:hold/ 
CLUBS 6 
CLUBS 3 
/hold 
player 4444:hold/ 
HEARTS 5 
HEARTS 4 
/hold 
player 7777:hold/ 
SPADES 3 
SPADES 9 
/hold 

---pre flop round bet---
valid player: 3, all in player: 0, fold player: 0
send inquire msg to player 7777 
inquire/ 
4444 50642 8000 100 blind 
6666 11300 4109 50 blind 
total pot: 150 
/inquire 
recv from player 7777: fold
send inquire msg to player 6666 
inquire/ 
7777 1596 4036 0 fold 
4444 50642 8000 100 blind 
6666 11300 4109 50 blind 
total pot: 150 
/inquire 
recv from player 6666: check
send inquire msg to player 4444 
inquire/ 
6666 11250 4109 100 call 
7777 1596 4036 0 fold 
4444 50642 8000 100 blind 
total pot: 200 
/inquire 
recv from player 4444: check
flop/ 
CLUBS 4 
DIAMONDS 4 
CLUBS Q 
/flop 

---flop round bet---
valid player: 3, all in player: 0, fold player: 1
send inquire msg to player 6666 
inquire/ 
7777 1596 4036 0 fold 
4444 50642 8000 100 check 
6666 11250 4109 100 call 
total pot: 200 
/inquire 
recv from player 6666: check
send inquire msg to player 4444 
inquire/ 
6666 11250 4109 100 check 
7777 1596 4036 0 fold 
4444 50642 8000 100 check 
total pot: 200 
/inquire 
recv from player 4444: check
turn/ 
DIAMONDS 10 
/turn 

---turn round bet---
valid player: 3, all in player: 0, fold player: 1
send inquire msg to player 6666 
inquire/ 
7777 1596 4036 0 fold 
4444 50642 8000 100 check 
6666 11250 4109 100 check 
total pot: 200 
/inquire 
recv from player 6666: check
send inquire msg to player 4444 
inquire/ 
6666 11250 4109 100 check 
7777 1596 4036 0 fold 
4444 50642 8000 100 check 
total pot: 200 
/inquire 
recv from player 4444: check
river/ 
CLUBS 8 
/river 

---river round bet---
valid player: 3, all in player: 0, fold player: 1
send inquire msg to player 6666 
inquire/ 
7777 1596 4036 0 fold 
4444 50642 8000 100 check 
6666 11250 4109 100 check 
total pot: 200 
/inquire 
recv from player 6666: check
send inquire msg to player 4444 
inquire/ 
6666 11250 4109 100 check 
7777 1596 4036 0 fold 
4444 50642 8000 100 check 
total pot: 200 
/inquire 
recv from player 4444: check

---show down---
showdown/ 
common/ 
CLUBS 4 
DIAMONDS 4 
CLUBS Q 
DIAMONDS 10 
CLUBS 8 
/common 
1: 6666 CLUBS 6 CLUBS 3 FLUSH 
2: 4444 HEARTS 5 HEARTS 4 THREE_OF_A_KIND 
/showdown 

---Allocate pot---
pot-win/ 
6666: 200 
/pot-win 
it is player 6666's turn to be button

-----180 Hand-----

----- clean player data in socket -----
seat/ 
button: 6666 11450 4109 
small blind: 4444 50642 8000 
big blind: 7777 1596 4036 
/seat 
blind/ 
4444: 50 
7777: 100 
/blind 
player 4444:hold/ 
SPADES 9 
DIAMONDS K 
/hold 
player 7777:hold/ 
CLUBS 7 
CLUBS 10 
/hold 
player 6666:hold/ 
DIAMONDS Q 
SPADES 2 
/hold 

---pre flop round bet---
valid player: 3, all in player: 0, fold player: 0
send inquire msg to player 6666 
inquire/ 
7777 1496 4036 100 blind 
4444 50592 8000 50 blind 
total pot: 150 
/inquire 
recv from player 6666: fold
send inquire msg to player 4444 
inquire/ 
6666 11450 4109 0 fold 
7777 1496 4036 100 blind 
4444 50592 8000 50 blind 
total pot: 150 
/inquire 
recv from player 4444: check
send inquire msg to player 7777 
inquire/ 
4444 50542 8000 100 call 
6666 11450 4109 0 fold 
7777 1496 4036 100 blind 
total pot: 200 
/inquire 
recv from player 7777: check
flop/ 
HEARTS J 
DIAMONDS J 
DIAMONDS A 
/flop 

---flop round bet---
valid player: 3, all in player: 0, fold player: 1
send inquire msg to player 4444 
inquire/ 
6666 11450 4109 0 fold 
7777 1496 4036 100 check 
4444 50542 8000 100 call 
total pot: 200 
/inquire 
recv from player 4444: check
send inquire msg to player 7777 
inquire/ 
4444 50542 8000 100 check 
6666 11450 4109 0 fold 
7777 1496 4036 100 check 
total pot: 200 
/inquire 
recv from player 7777: check
turn/ 
SPADES 3 
/turn 

---turn round bet---
valid player: 3, all in player: 0, fold player: 1
send inquire msg to player 4444 
inquire/ 
6666 11450 4109 0 fold 
7777 1496 4036 100 check 
4444 50542 8000 100 check 
total pot: 200 
/inquire 
recv from player 4444: check
send inquire msg to player 7777 
inquire/ 
4444 50542 8000 100 check 
6666 11450 4109 0 fold 
7777 1496 4036 100 check 
total pot: 200 
/inquire 
recv from player 7777: check
river/ 
DIAMONDS 7 
/river 

---river round bet---
valid player: 3, all in player: 0, fold player: 1
send inquire msg to player 4444 
inquire/ 
6666 11450 4109 0 fold 
7777 1496 4036 100 check 
4444 50542 8000 100 check 
total pot: 200 
/inquire 
recv from player 4444: check
send inquire msg to player 7777 
inquire/ 
4444 50542 8000 100 check 
6666 11450 4109 0 fold 
7777 1496 4036 100 check 
total pot: 200 
/inquire 
recv from player 7777: check

---show down---
showdown/ 
common/ 
HEARTS J 
DIAMONDS J 
DIAMONDS A 
SPADES 3 
DIAMONDS 7 
/common 
2: 4444 SPADES 9 DIAMONDS K ONE_PAIR 
1: 7777 CLUBS 7 CLUBS 10 TWO_PAIR 
/showdown 

---Allocate pot---
pot-win/ 
7777: 200 
/pot-win 
it is player 4444's turn to be button

-----181 Hand-----

----- clean player data in socket -----
seat/ 
button: 4444 50542 8000 
small blind: 7777 1696 4036 
big blind: 6666 11450 4109 
/seat 
blind/ 
7777: 50 
6666: 100 
/blind 
player 7777:hold/ 
DIAMONDS 7 
DIAMONDS 8 
/hold 
player 6666:hold/ 
DIAMONDS 5 
HEARTS A 
/hold 
player 4444:hold/ 
SPADES Q 
DIAMONDS 9 
/hold 

---pre flop round bet---
valid player: 3, all in player: 0, fold player: 0
send inquire msg to player 4444 
inquire/ 
6666 11350 4109 100 blind 
7777 1646 4036 50 blind 
total pot: 150 
/inquire 
recv from player 4444: check
send inquire msg to player 7777 
inquire/ 
4444 50442 8000 100 call 
6666 11350 4109 100 blind 
7777 1646 4036 50 blind 
total pot: 250 
/inquire 
recv from player 7777: check
send inquire msg to player 6666 
inquire/ 
7777 1596 4036 100 call 
4444 50442 8000 100 call 
6666 11350 4109 100 blind 
total pot: 300 
/inquire 
recv from player 6666: raise 96
send inquire msg to player 4444 
inquire/ 
6666 11250 4109 200 raise 
7777 1596 4036 100 call 
4444 50442 8000 100 call 
total pot: 400 
/inquire 
recv from player 4444: raise 1037
send inquire msg to player 7777 
inquire/ 
4444 49305 8000 1237 raise 
6666 11250 4109 200 raise 
7777 1596 4036 100 call 
total pot: 1537 
/inquire 
recv from player 7777: fold
send inquire msg to player 6666 
inquire/ 
7777 1596 4036 100 fold 
4444 49305 8000 1237 raise 
6666 11250 4109 200 raise 
total pot: 1537 
/inquire 
recv from player 6666: fold

---flop round bet---
valid player: 3, all in player: 0, fold player: 2

---turn round bet---
valid player: 3, all in player: 0, fold player: 2

---river round bet---
valid player: 3, all in player: 0, fold player: 2

--- 1 players not fold, don't need show down---

---Allocate pot---
Only player at seat 7 not fold, win all the pot 1537
pot-win/ 
4444: 1537 
/pot-win 
it is player 7777's turn to be button

-----182 Hand-----

----- clean player data in socket -----
seat/ 
button: 7777 1596 4036 
small blind: 6666 11250 4109 
big blind: 4444 50842 8000 
/seat 
blind/ 
6666: 50 
4444: 100 
/blind 
player 6666:hold/ 
SPADES 7 
SPADES 2 
/hold 
player 4444:hold/ 
CLUBS 5 
DIAMONDS 10 
/hold 
player 7777:hold/ 
CLUBS 2 
SPADES 5 
/hold 

---pre flop round bet---
valid player: 3, all in player: 0, fold player: 0
send inquire msg to player 7777 
inquire/ 
4444 50742 8000 100 blind 
6666 11200 4109 50 blind 
total pot: 150 
/inquire 
recv from player 7777: fold
send inquire msg to player 6666 
inquire/ 
7777 1596 4036 0 fold 
4444 50742 8000 100 blind 
6666 11200 4109 50 blind 
total pot: 150 
/inquire 
recv from player 6666: check
send inquire msg to player 4444 
inquire/ 
6666 11150 4109 100 call 
7777 1596 4036 0 fold 
4444 50742 8000 100 blind 
total pot: 200 
/inquire 
recv from player 4444: check
flop/ 
SPADES 6 
HEARTS 10 
SPADES 3 
/flop 

---flop round bet---
valid player: 3, all in player: 0, fold player: 1
send inquire msg to player 6666 
inquire/ 
7777 1596 4036 0 fold 
4444 50742 8000 100 check 
6666 11150 4109 100 call 
total pot: 200 
/inquire 
recv from player 6666: check
send inquire msg to player 4444 
inquire/ 
6666 11150 4109 100 check 
7777 1596 4036 0 fold 
4444 50742 8000 100 check 
total pot: 200 
/inquire 
recv from player 4444: check
turn/ 
DIAMONDS 9 
/turn 

---turn round bet---
valid player: 3, all in player: 0, fold player: 1
send inquire msg to player 6666 
inquire/ 
7777 1596 4036 0 fold 
4444 50742 8000 100 check 
6666 11150 4109 100 check 
total pot: 200 
/inquire 
recv from player 6666: check
send inquire msg to player 4444 
inquire/ 
6666 11150 4109 100 check 
7777 1596 4036 0 fold 
4444 50742 8000 100 check 
total pot: 200 
/inquire 
recv from player 4444: check
river/ 
CLUBS Q 
/river 

---river round bet---
valid player: 3, all in player: 0, fold player: 1
send inquire msg to player 6666 
inquire/ 
7777 1596 4036 0 fold 
4444 50742 8000 100 check 
6666 11150 4109 100 check 
total pot: 200 
/inquire 
recv from player 6666: check
send inquire msg to player 4444 
inquire/ 
6666 11150 4109 100 check 
7777 1596 4036 0 fold 
4444 50742 8000 100 check 
total pot: 200 
/inquire 
recv from player 4444: check

---show down---
showdown/ 
common/ 
SPADES 6 
HEARTS 10 
SPADES 3 
DIAMONDS 9 
CLUBS Q 
/common 
2: 6666 SPADES 7 SPADES 2 HIGH_CARD 
1: 4444 CLUBS 5 DIAMONDS 10 ONE_PAIR 
/showdown 

---Allocate pot---
pot-win/ 
4444: 200 
/pot-win 
it is player 6666's turn to be button

-----183 Hand-----

----- clean player data in socket -----
seat/ 
button: 6666 11150 4109 
small blind: 4444 50942 8000 
big blind: 7777 1596 4036 
/seat 
blind/ 
4444: 50 
7777: 100 
/blind 
player 4444:hold/ 
HEARTS 2 
HEARTS 7 
/hold 
player 7777:hold/ 
CLUBS 5 
SPADES 7 
/hold 
player 6666:hold/ 
DIAMONDS 7 
DIAMONDS 2 
/hold 

---pre flop round bet---
valid player: 3, all in player: 0, fold player: 0
send inquire msg to player 6666 
inquire/ 
7777 1496 4036 100 blind 
4444 50892 8000 50 blind 
total pot: 150 
/inquire 
recv from player 6666: fold
send inquire msg to player 4444 
inquire/ 
6666 11150 4109 0 fold 
7777 1496 4036 100 blind 
4444 50892 8000 50 blind 
total pot: 150 
/inquire 
recv from player 4444: check
send inquire msg to player 7777 
inquire/ 
4444 50842 8000 100 call 
6666 11150 4109 0 fold 
7777 1496 4036 100 blind 
total pot: 200 
/inquire 
recv from player 7777: check
flop/ 
DIAMONDS A 
SPADES K 
DIAMONDS 6 
/flop 

---flop round bet---
valid player: 3, all in player: 0, fold player: 1
send inquire msg to player 4444 
inquire/ 
6666 11150 4109 0 fold 
7777 1496 4036 100 check 
4444 50842 8000 100 call 
total pot: 200 
/inquire 
recv from player 4444: check
send inquire msg to player 7777 
inquire/ 
4444 50842 8000 100 check 
6666 11150 4109 0 fold 
7777 1496 4036 100 check 
total pot: 200 
/inquire 
recv from player 7777: check
turn/ 
SPADES 10 
/turn 

---turn round bet---
valid player: 3, all in player: 0, fold player: 1
send inquire msg to player 4444 
inquire/ 
6666 11150 4109 0 fold 
7777 1496 4036 100 check 
4444 50842 8000 100 check 
total pot: 200 
/inquire 
recv from player 4444: check
send inquire msg to player 7777 
inquire/ 
4444 50842 8000 100 check 
6666 11150 4109 0 fold 
7777 1496 4036 100 check 
total pot: 200 
/inquire 
recv from player 7777: check
river/ 
SPADES 6 
/river 

---river round bet---
valid player: 3, all in player: 0, fold player: 1
send inquire msg to player 4444 
inquire/ 
6666 11150 4109 0 fold 
7777 1496 4036 100 check 
4444 50842 8000 100 check 
total pot: 200 
/inquire 
recv from player 4444: check
send inquire msg to player 7777 
inquire/ 
4444 50842 8000 100 check 
6666 11150 4109 0 fold 
7777 1496 4036 100 check 
total pot: 200 
/inquire 
recv from player 7777: check

---show down---
showdown/ 
common/ 
DIAMONDS A 
SPADES K 
DIAMONDS 6 
SPADES 10 
SPADES 6 
/common 
1: 4444 HEARTS 2 HEARTS 7 ONE_PAIR 
1: 7777 CLUBS 5 SPADES 7 ONE_PAIR 
/showdown 

---Allocate pot---
pot-win/ 
4444: 100 
7777: 100 
/pot-win 
it is player 4444's turn to be button

-----184 Hand-----

----- clean player data in socket -----
seat/ 
button: 4444 50942 8000 
small blind: 7777 1596 4036 
big blind: 6666 11150 4109 
/seat 
blind/ 
7777: 50 
6666: 100 
/blind 
player 7777:hold/ 
HEARTS 8 
CLUBS 3 
/hold 
player 6666:hold/ 
DIAMONDS Q 
HEARTS J 
/hold 
player 4444:hold/ 
CLUBS K 
CLUBS A 
/hold 

---pre flop round bet---
valid player: 3, all in player: 0, fold player: 0
send inquire msg to player 4444 
inquire/ 
6666 11050 4109 100 blind 
7777 1546 4036 50 blind 
total pot: 150 
/inquire 
recv from player 4444: check
send inquire msg to player 7777 
inquire/ 
4444 50842 8000 100 call 
6666 11050 4109 100 blind 
7777 1546 4036 50 blind 
total pot: 250 
/inquire 
recv from player 7777: check
send inquire msg to player 6666 
inquire/ 
7777 1496 4036 100 call 
4444 50842 8000 100 call 
6666 11050 4109 100 blind 
total pot: 300 
/inquire 
recv from player 6666: raise 608
send inquire msg to player 4444 
inquire/ 
6666 10442 4109 708 raise 
7777 1496 4036 100 call 
4444 50842 8000 100 call 
total pot: 908 
/inquire 
recv from player 4444: check
send inquire msg to player 7777 
inquire/ 
4444 50234 8000 708 call 
6666 10442 4109 708 raise 
7777 1496 4036 100 call 
total pot: 1516 
/inquire 
recv from player 7777: fold
flop/ 
DIAMONDS K 
DIAMONDS 6 
DIAMONDS 2 
/flop 

---flop round bet---
valid player: 3, all in player: 0, fold player: 1
send inquire msg to player 7777 
inquire/ 
4444 50234 8000 708 call 
6666 10442 4109 708 raise 
7777 1496 4036 100 fold 
total pot: 1516 
/inquire 
send inquire msg to player 6666 
inquire/ 
7777 1496 4036 100 fold 
4444 50234 8000 708 call 
6666 10442 4109 708 raise 
total pot: 1516 
/inquire 
recv from player 6666: check
send inquire msg to player 4444 
inquire/ 
6666 10442 4109 708 check 
7777 1496 4036 100 fold 
4444 50234 8000 708 call 
total pot: 1516 
/inquire 
recv from player 4444: check
turn/ 
SPADES 2 
/turn 

---turn round bet---
valid player: 3, all in player: 0, fold player: 1
send inquire msg to player 7777 
inquire/ 
4444 50234 8000 708 check 
6666 10442 4109 708 check 
7777 1496 4036 100 fold 
total pot: 1516 
/inquire 
send inquire msg to player 6666 
inquire/ 
7777 1496 4036 100 fold 
4444 50234 8000 708 check 
6666 10442 4109 708 check 
total pot: 1516 
/inquire 
recv from player 6666: check
send inquire msg to player 4444 
inquire/ 
6666 10442 4109 708 check 
7777 1496 4036 100 fold 
4444 50234 8000 708 check 
total pot: 1516 
/inquire 
recv from player 4444: check
river/ 
SPADES 3 
/river 

---river round bet---
valid player: 3, all in player: 0, fold player: 1
send inquire msg to player 7777 
inquire/ 
4444 50234 8000 708 check 
6666 10442 4109 708 check 
7777 1496 4036 100 fold 
total pot: 1516 
/inquire 
send inquire msg to player 6666 
inquire/ 
7777 1496 4036 100 fold 
4444 50234 8000 708 check 
6666 10442 4109 708 check 
total pot: 1516 
/inquire 
recv from player 6666: check
send inquire msg to player 4444 
inquire/ 
6666 10442 4109 708 check 
7777 1496 4036 100 fold 
4444 50234 8000 708 check 
total pot: 1516 
/inquire 
recv from player 4444: check

---show down---
showdown/ 
common/ 
DIAMONDS K 
DIAMONDS 6 
DIAMONDS 2 
SPADES 2 
SPADES 3 
/common 
2: 6666 DIAMONDS Q HEARTS J ONE_PAIR 
1: 4444 CLUBS K CLUBS A TWO_PAIR 
/showdown 

---Allocate pot---
pot-win/ 
4444: 1516 
/pot-win 
it is player 7777's turn to be button

-----185 Hand-----

----- clean player data in socket -----
seat/ 
button: 7777 1496 4036 
small blind: 6666 10442 4109 
big blind: 4444 51750 8000 
/seat 
blind/ 
6666: 50 
4444: 100 
/blind 
player 6666:hold/ 
DIAMONDS 4 
HEARTS A 
/hold 
player 4444:hold/ 
CLUBS A 
DIAMONDS A 
/hold 
player 7777:hold/ 
CLUBS Q 
DIAMONDS 9 
/hold 

---pre flop round bet---
valid player: 3, all in player: 0, fold player: 0
send inquire msg to player 7777 
inquire/ 
4444 51650 8000 100 blind 
6666 10392 4109 50 blind 
total pot: 150 
/inquire 
recv from player 7777: fold
send inquire msg to player 6666 
inquire/ 
7777 1496 4036 0 fold 
4444 51650 8000 100 blind 
6666 10392 4109 50 blind 
total pot: 150 
/inquire 
recv from player 6666: check
send inquire msg to player 4444 
inquire/ 
6666 10342 4109 100 call 
7777 1496 4036 0 fold 
4444 51650 8000 100 blind 
total pot: 200 
/inquire 
recv from player 4444: check
flop/ 
DIAMONDS K 
HEARTS 7 
HEARTS 10 
/flop 

---flop round bet---
valid player: 3, all in player: 0, fold player: 1
send inquire msg to player 6666 
inquire/ 
7777 1496 4036 0 fold 
4444 51650 8000 100 check 
6666 10342 4109 100 call 
total pot: 200 
/inquire 
recv from player 6666: check
send inquire msg to player 4444 
inquire/ 
6666 10342 4109 100 check 
7777 1496 4036 0 fold 
4444 51650 8000 100 check 
total pot: 200 
/inquire 
recv from player 4444: check
turn/ 
SPADES 2 
/turn 

---turn round bet---
valid player: 3, all in player: 0, fold player: 1
send inquire msg to player 6666 
inquire/ 
7777 1496 4036 0 fold 
4444 51650 8000 100 check 
6666 10342 4109 100 check 
total pot: 200 
/inquire 
recv from player 6666: check
send inquire msg to player 4444 
inquire/ 
6666 10342 4109 100 check 
7777 1496 4036 0 fold 
4444 51650 8000 100 check 
total pot: 200 
/inquire 
recv from player 4444: check
river/ 
CLUBS 6 
/river 

---river round bet---
valid player: 3, all in player: 0, fold player: 1
send inquire msg to player 6666 
inquire/ 
7777 1496 4036 0 fold 
4444 51650 8000 100 check 
6666 10342 4109 100 check 
total pot: 200 
/inquire 
recv from player 6666: check
send inquire msg to player 4444 
inquire/ 
6666 10342 4109 100 check 
7777 1496 4036 0 fold 
4444 51650 8000 100 check 
total pot: 200 
/inquire 
recv from player 4444: check

---show down---
showdown/ 
common/ 
DIAMONDS K 
HEARTS 7 
HEARTS 10 
SPADES 2 
CLUBS 6 
/common 
2: 6666 DIAMONDS 4 HEARTS A HIGH_CARD 
1: 4444 CLUBS A DIAMONDS A ONE_PAIR 
/showdown 

---Allocate pot---
pot-win/ 
4444: 200 
/pot-win 
it is player 6666's turn to be button

-----186 Hand-----

----- clean player data in socket -----
seat/ 
button: 6666 10342 4109 
small blind: 4444 51850 8000 
big blind: 7777 1496 4036 
/seat 
blind/ 
4444: 50 
7777: 100 
/blind 
player 4444:hold/ 
HEARTS 3 
DIAMONDS J 
/hold 
player 7777:hold/ 
SPADES A 
CLUBS 5 
/hold 
player 6666:hold/ 
HEARTS 4 
SPADES 8 
/hold 

---pre flop round bet---
valid player: 3, all in player: 0, fold player: 0
send inquire msg to player 6666 
inquire/ 
7777 1396 4036 100 blind 
4444 51800 8000 50 blind 
total pot: 150 
/inquire 
recv from player 6666: fold
send inquire msg to player 4444 
inquire/ 
6666 10342 4109 0 fold 
7777 1396 4036 100 blind 
4444 51800 8000 50 blind 
total pot: 150 
/inquire 
recv from player 4444: check
send inquire msg to player 7777 
inquire/ 
4444 51750 8000 100 call 
6666 10342 4109 0 fold 
7777 1396 4036 100 blind 
total pot: 200 
/inquire 
recv from player 7777: check
flop/ 
DIAMONDS Q 
HEARTS A 
CLUBS 2 
/flop 

---flop round bet---
valid player: 3, all in player: 0, fold player: 1
send inquire msg to player 4444 
inquire/ 
6666 10342 4109 0 fold 
7777 1396 4036 100 check 
4444 51750 8000 100 call 
total pot: 200 
/inquire 
recv from player 4444: check
send inquire msg to player 7777 
inquire/ 
4444 51750 8000 100 check 
6666 10342 4109 0 fold 
7777 1396 4036 100 check 
total pot: 200 
/inquire 
recv from player 7777: check
turn/ 
DIAMONDS 7 
/turn 

---turn round bet---
valid player: 3, all in player: 0, fold player: 1
send inquire msg to player 4444 
inquire/ 
6666 10342 4109 0 fold 
7777 1396 4036 100 check 
4444 51750 8000 100 check 
total pot: 200 
/inquire 
recv from player 4444: check
send inquire msg to player 7777 
inquire/ 
4444 51750 8000 100 check 
6666 10342 4109 0 fold 
7777 1396 4036 100 check 
total pot: 200 
/inquire 
recv from player 7777: check
river/ 
CLUBS 9 
/river 

---river round bet---
valid player: 3, all in player: 0, fold player: 1
send inquire msg to player 4444 
inquire/ 
6666 10342 4109 0 fold 
7777 1396 4036 100 check 
4444 51750 8000 100 check 
total pot: 200 
/inquire 
recv from player 4444: check
send inquire msg to player 7777 
inquire/ 
4444 51750 8000 100 check 
6666 10342 4109 0 fold 
7777 1396 4036 100 check 
total pot: 200 
/inquire 
recv from player 7777: check

---show down---
showdown/ 
common/ 
DIAMONDS Q 
HEARTS A 
CLUBS 2 
DIAMONDS 7 
CLUBS 9 
/common 
2: 4444 HEARTS 3 DIAMONDS J HIGH_CARD 
1: 7777 SPADES A CLUBS 5 ONE_PAIR 
/showdown 

---Allocate pot---
pot-win/ 
7777: 200 
/pot-win 
it is player 4444's turn to be button

-----187 Hand-----

----- clean player data in socket -----
seat/ 
button: 4444 51750 8000 
small blind: 7777 1596 4036 
big blind: 6666 10342 4109 
/seat 
blind/ 
7777: 50 
6666: 100 
/blind 
player 7777:hold/ 
CLUBS 8 
DIAMONDS A 
/hold 
player 6666:hold/ 
CLUBS A 
SPADES J 
/hold 
player 4444:hold/ 
CLUBS 10 
CLUBS K 
/hold 

---pre flop round bet---
valid player: 3, all in player: 0, fold player: 0
send inquire msg to player 4444 
inquire/ 
6666 10242 4109 100 blind 
7777 1546 4036 50 blind 
total pot: 150 
/inquire 
recv from player 4444: raise 5269
send inquire msg to player 7777 
inquire/ 
4444 46381 8000 5369 raise 
6666 10242 4109 100 blind 
7777 1546 4036 50 blind 
total pot: 5519 
/inquire 
recv from player 7777: fold
send inquire msg to player 6666 
inquire/ 
7777 1546 4036 50 fold 
4444 46381 8000 5369 raise 
6666 10242 4109 100 blind 
total pot: 5519 
/inquire 
recv from player 6666: fold

---flop round bet---
valid player: 3, all in player: 0, fold player: 2

---turn round bet---
valid player: 3, all in player: 0, fold player: 2

---river round bet---
valid player: 3, all in player: 0, fold player: 2

--- 1 players not fold, don't need show down---

---Allocate pot---
Only player at seat 7 not fold, win all the pot 5519
pot-win/ 
4444: 5519 
/pot-win 
it is player 7777's turn to be button

-----188 Hand-----

----- clean player data in socket -----
seat/ 
button: 7777 1546 4036 
small blind: 6666 10242 4109 
big blind: 4444 51900 8000 
/seat 
blind/ 
6666: 50 
4444: 100 
/blind 
player 6666:hold/ 
CLUBS 8 
DIAMONDS A 
/hold 
player 4444:hold/ 
CLUBS A 
SPADES J 
/hold 
player 7777:hold/ 
CLUBS 10 
CLUBS K 
/hold 

---pre flop round bet---
valid player: 3, all in player: 0, fold player: 0
send inquire msg to player 7777 
inquire/ 
4444 51800 8000 100 blind 
6666 10192 4109 50 blind 
total pot: 150 
/inquire 
recv from player 7777: check
send inquire msg to player 6666 
inquire/ 
7777 1446 4036 100 call 
4444 51800 8000 100 blind 
6666 10192 4109 50 blind 
total pot: 250 
/inquire 
recv from player 6666: raise 340
send inquire msg to player 4444 
inquire/ 
6666 9802 4109 440 raise 
7777 1446 4036 100 call 
4444 51800 8000 100 blind 
total pot: 640 
/inquire 
recv from player 4444: raise 4891
send inquire msg to player 7777 
inquire/ 
4444 46569 8000 5331 raise 
6666 9802 4109 440 raise 
7777 1446 4036 100 call 
total pot: 5871 
/inquire 
recv from player 7777: fold
send inquire msg to player 6666 
inquire/ 
7777 1446 4036 100 fold 
4444 46569 8000 5331 raise 
6666 9802 4109 440 raise 
total pot: 5871 
/inquire 
recv from player 6666: fold

---flop round bet---
valid player: 3, all in player: 0, fold player: 2

---turn round bet---
valid player: 3, all in player: 0, fold player: 2

---river round bet---
valid player: 3, all in player: 0, fold player: 2

--- 1 players not fold, don't need show down---

---Allocate pot---
Only player at seat 1 not fold, win all the pot 5871
pot-win/ 
4444: 5871 
/pot-win 
it is player 6666's turn to be button

-----189 Hand-----

----- clean player data in socket -----
seat/ 
button: 6666 9802 4109 
small blind: 4444 52440 8000 
big blind: 7777 1446 4036 
/seat 
blind/ 
4444: 50 
7777: 100 
/blind 
player 4444:hold/ 
CLUBS Q 
DIAMONDS Q 
/hold 
player 7777:hold/ 
HEARTS Q 
HEARTS 9 
/hold 
player 6666:hold/ 
CLUBS 8 
SPADES 8 
/hold 

---pre flop round bet---
valid player: 3, all in player: 0, fold player: 0
send inquire msg to player 6666 
inquire/ 
7777 1346 4036 100 blind 
4444 52390 8000 50 blind 
total pot: 150 
/inquire 
recv from player 6666: check
send inquire msg to player 4444 
inquire/ 
6666 9702 4109 100 call 
7777 1346 4036 100 blind 
4444 52390 8000 50 blind 
total pot: 250 
/inquire 
recv from player 4444: raise 15570
send inquire msg to player 7777 
inquire/ 
4444 36770 8000 15670 raise 
6666 9702 4109 100 call 
7777 1346 4036 100 blind 
total pot: 15870 
/inquire 
recv from player 7777: fold
send inquire msg to player 6666 
inquire/ 
7777 1346 4036 100 fold 
4444 36770 8000 15670 raise 
6666 9702 4109 100 call 
total pot: 15870 
/inquire 
recv from player 6666: fold

---flop round bet---
valid player: 3, all in player: 0, fold player: 2

---turn round bet---
valid player: 3, all in player: 0, fold player: 2

---river round bet---
valid player: 3, all in player: 0, fold player: 2

--- 1 players not fold, don't need show down---

---Allocate pot---
Only player at seat 0 not fold, win all the pot 15870
pot-win/ 
4444: 15870 
/pot-win 
it is player 4444's turn to be button

-----190 Hand-----

----- clean player data in socket -----
seat/ 
button: 4444 52640 8000 
small blind: 7777 1346 4036 
big blind: 6666 9702 4109 
/seat 
blind/ 
7777: 50 
6666: 100 
/blind 
player 7777:hold/ 
DIAMONDS 10 
HEARTS A 
/hold 
player 6666:hold/ 
HEARTS Q 
DIAMONDS 7 
/hold 
player 4444:hold/ 
DIAMONDS Q 
DIAMONDS 6 
/hold 

---pre flop round bet---
valid player: 3, all in player: 0, fold player: 0
send inquire msg to player 4444 
inquire/ 
6666 9602 4109 100 blind 
7777 1296 4036 50 blind 
total pot: 150 
/inquire 
recv from player 4444: raise 211
send inquire msg to player 7777 
inquire/ 
4444 52329 8000 311 raise 
6666 9602 4109 100 blind 
7777 1296 4036 50 blind 
total pot: 461 
/inquire 
recv from player 7777: check
send inquire msg to player 6666 
inquire/ 
7777 1035 4036 311 call 
4444 52329 8000 311 raise 
6666 9602 4109 100 blind 
total pot: 722 
/inquire 
recv from player 6666: check
flop/ 
SPADES J 
HEARTS 3 
HEARTS 4 
/flop 

---flop round bet---
valid player: 3, all in player: 0, fold player: 0
send inquire msg to player 7777 
inquire/ 
4444 52329 8000 311 raise 
6666 9391 4109 311 call 
7777 1035 4036 311 call 
total pot: 933 
/inquire 
recv from player 7777: check
send inquire msg to player 6666 
inquire/ 
7777 1035 4036 311 check 
4444 52329 8000 311 raise 
6666 9391 4109 311 call 
total pot: 933 
/inquire 
recv from player 6666: check
send inquire msg to player 4444 
inquire/ 
6666 9391 4109 311 check 
7777 1035 4036 311 check 
4444 52329 8000 311 raise 
total pot: 933 
/inquire 
recv from player 4444: check
turn/ 
SPADES K 
/turn 

---turn round bet---
valid player: 3, all in player: 0, fold player: 0
send inquire msg to player 7777 
inquire/ 
4444 52329 8000 311 check 
6666 9391 4109 311 check 
7777 1035 4036 311 check 
total pot: 933 
/inquire 
recv from player 7777: check
send inquire msg to player 6666 
inquire/ 
7777 1035 4036 311 check 
4444 52329 8000 311 check 
6666 9391 4109 311 check 
total pot: 933 
/inquire 
recv from player 6666: check
send inquire msg to player 4444 
inquire/ 
6666 9391 4109 311 check 
7777 1035 4036 311 check 
4444 52329 8000 311 check 
total pot: 933 
/inquire 
recv from player 4444: check
river/ 
SPADES 2 
/river 

---river round bet---
valid player: 3, all in player: 0, fold player: 0
send inquire msg to player 7777 
inquire/ 
4444 52329 8000 311 check 
6666 9391 4109 311 check 
7777 1035 4036 311 check 
total pot: 933 
/inquire 
recv from player 7777: check
send inquire msg to player 6666 
inquire/ 
7777 1035 4036 311 check 
4444 52329 8000 311 check 
6666 9391 4109 311 check 
total pot: 933 
/inquire 
recv from player 6666: check
send inquire msg to player 4444 
inquire/ 
6666 9391 4109 311 check 
7777 1035 4036 311 check 
4444 52329 8000 311 check 
total pot: 933 
/inquire 
recv from player 4444: check

---show down---
showdown/ 
common/ 
SPADES J 
HEARTS 3 
HEARTS 4 
SPADES K 
SPADES 2 
/common 
1: 7777 DIAMONDS 10 HEARTS A HIGH_CARD 
2: 6666 HEARTS Q DIAMONDS 7 HIGH_CARD 
3: 4444 DIAMONDS Q DIAMONDS 6 HIGH_CARD 
/showdown 

---Allocate pot---
pot-win/ 
7777: 933 
/pot-win 
it is player 7777's turn to be button

-----191 Hand-----

----- clean player data in socket -----
seat/ 
button: 7777 1968 4036 
small blind: 6666 9391 4109 
big blind: 4444 52329 8000 
/seat 
blind/ 
6666: 50 
4444: 100 
/blind 
player 6666:hold/ 
SPADES 9 
CLUBS J 
/hold 
player 4444:hold/ 
SPADES 5 
HEARTS 7 
/hold 
player 7777:hold/ 
SPADES A 
CLUBS 10 
/hold 

---pre flop round bet---
valid player: 3, all in player: 0, fold player: 0
send inquire msg to player 7777 
inquire/ 
4444 52229 8000 100 blind 
6666 9341 4109 50 blind 
total pot: 150 
/inquire 
recv from player 7777: raise 156
send inquire msg to player 6666 
inquire/ 
7777 1712 4036 256 raise 
4444 52229 8000 100 blind 
6666 9341 4109 50 blind 
total pot: 406 
/inquire 
recv from player 6666: check
send inquire msg to player 4444 
inquire/ 
6666 9135 4109 256 call 
7777 1712 4036 256 raise 
4444 52229 8000 100 blind 
total pot: 612 
/inquire 
recv from player 4444: check
flop/ 
CLUBS A 
DIAMONDS 8 
SPADES 7 
/flop 

---flop round bet---
valid player: 3, all in player: 0, fold player: 0
send inquire msg to player 6666 
inquire/ 
7777 1712 4036 256 raise 
4444 52073 8000 256 call 
6666 9135 4109 256 call 
total pot: 768 
/inquire 
recv from player 6666: check
send inquire msg to player 4444 
inquire/ 
6666 9135 4109 256 check 
7777 1712 4036 256 raise 
4444 52073 8000 256 call 
total pot: 768 
/inquire 
recv from player 4444: check
send inquire msg to player 7777 
inquire/ 
4444 52073 8000 256 check 
6666 9135 4109 256 check 
7777 1712 4036 256 raise 
total pot: 768 
/inquire 
recv from player 7777: check
turn/ 
DIAMONDS 7 
/turn 

---turn round bet---
valid player: 3, all in player: 0, fold player: 0
send inquire msg to player 6666 
inquire/ 
7777 1712 4036 256 check 
4444 52073 8000 256 check 
6666 9135 4109 256 check 
total pot: 768 
/inquire 
recv from player 6666: check
send inquire msg to player 4444 
inquire/ 
6666 9135 4109 256 check 
7777 1712 4036 256 check 
4444 52073 8000 256 check 
total pot: 768 
/inquire 
recv from player 4444: raise 28673
send inquire msg to player 7777 
inquire/ 
4444 23400 8000 28929 raise 
6666 9135 4109 256 check 
7777 1712 4036 256 check 
total pot: 29441 
/inquire 
recv from player 7777: fold
send inquire msg to player 6666 
inquire/ 
7777 1712 4036 256 fold 
4444 23400 8000 28929 raise 
6666 9135 4109 256 check 
total pot: 29441 
/inquire 
recv from player 6666: fold

---river round bet---
valid player: 3, all in player: 0, fold player: 2

--- 1 players not fold, don't need show down---

---Allocate pot---
Only player at seat 1 not fold, win all the pot 29441
pot-win/ 
4444: 29441 
/pot-win 
it is player 6666's turn to be button

-----192 Hand-----

----- clean player data in socket -----
seat/ 
button: 6666 9135 4109 
small blind: 4444 52841 8000 
big blind: 7777 1712 4036 
/seat 
blind/ 
4444: 50 
7777: 100 
/blind 
player 4444:hold/ 
CLUBS 4 
SPADES 8 
/hold 
player 7777:hold/ 
CLUBS 5 
HEARTS Q 
/hold 
player 6666:hold/ 
CLUBS J 
HEARTS 9 
/hold 

---pre flop round bet---
valid player: 3, all in player: 0, fold player: 0
send inquire msg to player 6666 
inquire/ 
7777 1612 4036 100 blind 
4444 52791 8000 50 blind 
total pot: 150 
/inquire 
recv from player 6666: raise 162
send inquire msg to player 4444 
inquire/ 
6666 8873 4109 262 raise 
7777 1612 4036 100 blind 
4444 52791 8000 50 blind 
total pot: 412 
/inquire 
recv from player 4444: fold
send inquire msg to player 7777 
inquire/ 
4444 52791 8000 50 fold 
6666 8873 4109 262 raise 
7777 1612 4036 100 blind 
total pot: 412 
/inquire 
recv from player 7777: check
flop/ 
HEARTS 2 
CLUBS 6 
SPADES 3 
/flop 

---flop round bet---
valid player: 3, all in player: 0, fold player: 1
send inquire msg to player 4444 
inquire/ 
6666 8873 4109 262 raise 
7777 1450 4036 262 call 
4444 52791 8000 50 fold 
total pot: 574 
/inquire 
send inquire msg to player 7777 
inquire/ 
4444 52791 8000 50 fold 
6666 8873 4109 262 raise 
7777 1450 4036 262 call 
total pot: 574 
/inquire 
recv from player 7777: check
send inquire msg to player 6666 
inquire/ 
7777 1450 4036 262 check 
4444 52791 8000 50 fold 
6666 8873 4109 262 raise 
total pot: 574 
/inquire 
recv from player 6666: check
turn/ 
SPADES 2 
/turn 

---turn round bet---
valid player: 3, all in player: 0, fold player: 1
send inquire msg to player 4444 
inquire/ 
6666 8873 4109 262 check 
7777 1450 4036 262 check 
4444 52791 8000 50 fold 
total pot: 574 
/inquire 
send inquire msg to player 7777 
inquire/ 
4444 52791 8000 50 fold 
6666 8873 4109 262 check 
7777 1450 4036 262 check 
total pot: 574 
/inquire 
recv from player 7777: check
send inquire msg to player 6666 
inquire/ 
7777 1450 4036 262 check 
4444 52791 8000 50 fold 
6666 8873 4109 262 check 
total pot: 574 
/inquire 
recv from player 6666: check
river/ 
DIAMONDS J 
/river 

---river round bet---
valid player: 3, all in player: 0, fold player: 1
send inquire msg to player 4444 
inquire/ 
6666 8873 4109 262 check 
7777 1450 4036 262 check 
4444 52791 8000 50 fold 
total pot: 574 
/inquire 
send inquire msg to player 7777 
inquire/ 
4444 52791 8000 50 fold 
6666 8873 4109 262 check 
7777 1450 4036 262 check 
total pot: 574 
/inquire 
recv from player 7777: check
send inquire msg to player 6666 
inquire/ 
7777 1450 4036 262 check 
4444 52791 8000 50 fold 
6666 8873 4109 262 check 
total pot: 574 
/inquire 
recv from player 6666: check

---show down---
showdown/ 
common/ 
HEARTS 2 
CLUBS 6 
SPADES 3 
SPADES 2 
DIAMONDS J 
/common 
2: 7777 CLUBS 5 HEARTS Q ONE_PAIR 
1: 6666 CLUBS J HEARTS 9 TWO_PAIR 
/showdown 

---Allocate pot---
pot-win/ 
6666: 574 
/pot-win 
it is player 4444's turn to be button

-----193 Hand-----

----- clean player data in socket -----
seat/ 
button: 4444 52791 8000 
small blind: 7777 1450 4036 
big blind: 6666 9447 4109 
/seat 
blind/ 
7777: 50 
6666: 100 
/blind 
player 7777:hold/ 
DIAMONDS J 
SPADES K 
/hold 
player 6666:hold/ 
HEARTS 8 
CLUBS 5 
/hold 
player 4444:hold/ 
HEARTS 3 
HEARTS 6 
/hold 

---pre flop round bet---
valid player: 3, all in player: 0, fold player: 0
send inquire msg to player 4444 
inquire/ 
6666 9347 4109 100 blind 
7777 1400 4036 50 blind 
total pot: 150 
/inquire 
recv from player 4444: fold
send inquire msg to player 7777 
inquire/ 
4444 52791 8000 0 fold 
6666 9347 4109 100 blind 
7777 1400 4036 50 blind 
total pot: 150 
/inquire 
recv from player 7777: check
send inquire msg to player 6666 
inquire/ 
7777 1350 4036 100 call 
4444 52791 8000 0 fold 
6666 9347 4109 100 blind 
total pot: 200 
/inquire 
recv from player 6666: check
flop/ 
CLUBS 6 
SPADES 9 
CLUBS 3 
/flop 

---flop round bet---
valid player: 3, all in player: 0, fold player: 1
send inquire msg to player 7777 
inquire/ 
4444 52791 8000 0 fold 
6666 9347 4109 100 check 
7777 1350 4036 100 call 
total pot: 200 
/inquire 
recv from player 7777: check
send inquire msg to player 6666 
inquire/ 
7777 1350 4036 100 check 
4444 52791 8000 0 fold 
6666 9347 4109 100 check 
total pot: 200 
/inquire 
recv from player 6666: check
turn/ 
CLUBS Q 
/turn 

---turn round bet---
valid player: 3, all in player: 0, fold player: 1
send inquire msg to player 7777 
inquire/ 
4444 52791 8000 0 fold 
6666 9347 4109 100 check 
7777 1350 4036 100 check 
total pot: 200 
/inquire 
recv from player 7777: check
send inquire msg to player 6666 
inquire/ 
7777 1350 4036 100 check 
4444 52791 8000 0 fold 
6666 9347 4109 100 check 
total pot: 200 
/inquire 
recv from player 6666: check
river/ 
SPADES 2 
/river 

---river round bet---
valid player: 3, all in player: 0, fold player: 1
send inquire msg to player 7777 
inquire/ 
4444 52791 8000 0 fold 
6666 9347 4109 100 check 
7777 1350 4036 100 check 
total pot: 200 
/inquire 
recv from player 7777: check
send inquire msg to player 6666 
inquire/ 
7777 1350 4036 100 check 
4444 52791 8000 0 fold 
6666 9347 4109 100 check 
total pot: 200 
/inquire 
recv from player 6666: check

---show down---
showdown/ 
common/ 
CLUBS 6 
SPADES 9 
CLUBS 3 
CLUBS Q 
SPADES 2 
/common 
1: 7777 DIAMONDS J SPADES K HIGH_CARD 
2: 6666 HEARTS 8 CLUBS 5 HIGH_CARD 
/showdown 

---Allocate pot---
pot-win/ 
7777: 200 
/pot-win 
it is player 7777's turn to be button

-----194 Hand-----

----- clean player data in socket -----
seat/ 
button: 7777 1550 4036 
small blind: 6666 9347 4109 
big blind: 4444 52791 8000 
/seat 
blind/ 
6666: 50 
4444: 100 
/blind 
player 6666:hold/ 
CLUBS 4 
DIAMONDS K 
/hold 
player 4444:hold/ 
DIAMONDS J 
CLUBS 2 
/hold 
player 7777:hold/ 
CLUBS 5 
CLUBS J 
/hold 

---pre flop round bet---
valid player: 3, all in player: 0, fold player: 0
send inquire msg to player 7777 
inquire/ 
4444 52691 8000 100 blind 
6666 9297 4109 50 blind 
total pot: 150 
/inquire 
recv from player 7777: fold
send inquire msg to player 6666 
inquire/ 
7777 1550 4036 0 fold 
4444 52691 8000 100 blind 
6666 9297 4109 50 blind 
total pot: 150 
/inquire 
recv from player 6666: check
send inquire msg to player 4444 
inquire/ 
6666 9247 4109 100 call 
7777 1550 4036 0 fold 
4444 52691 8000 100 blind 
total pot: 200 
/inquire 
recv from player 4444: check
flop/ 
HEARTS 3 
SPADES A 
CLUBS 9 
/flop 

---flop round bet---
valid player: 3, all in player: 0, fold player: 1
send inquire msg to player 6666 
inquire/ 
7777 1550 4036 0 fold 
4444 52691 8000 100 check 
6666 9247 4109 100 call 
total pot: 200 
/inquire 
recv from player 6666: check
send inquire msg to player 4444 
inquire/ 
6666 9247 4109 100 check 
7777 1550 4036 0 fold 
4444 52691 8000 100 check 
total pot: 200 
/inquire 
recv from player 4444: check
turn/ 
DIAMONDS 8 
/turn 

---turn round bet---
valid player: 3, all in player: 0, fold player: 1
send inquire msg to player 6666 
inquire/ 
7777 1550 4036 0 fold 
4444 52691 8000 100 check 
6666 9247 4109 100 check 
total pot: 200 
/inquire 
recv from player 6666: check
send inquire msg to player 4444 
inquire/ 
6666 9247 4109 100 check 
7777 1550 4036 0 fold 
4444 52691 8000 100 check 
total pot: 200 
/inquire 
recv from player 4444: check
river/ 
CLUBS Q 
/river 

---river round bet---
valid player: 3, all in player: 0, fold player: 1
send inquire msg to player 6666 
inquire/ 
7777 1550 4036 0 fold 
4444 52691 8000 100 check 
6666 9247 4109 100 check 
total pot: 200 
/inquire 
recv from player 6666: check
send inquire msg to player 4444 
inquire/ 
6666 9247 4109 100 check 
7777 1550 4036 0 fold 
4444 52691 8000 100 check 
total pot: 200 
/inquire 
recv from player 4444: check

---show down---
showdown/ 
common/ 
HEARTS 3 
SPADES A 
CLUBS 9 
DIAMONDS 8 
CLUBS Q 
/common 
1: 6666 CLUBS 4 DIAMONDS K HIGH_CARD 
2: 4444 DIAMONDS J CLUBS 2 HIGH_CARD 
/showdown 

---Allocate pot---
pot-win/ 
6666: 200 
/pot-win 
it is player 6666's turn to be button

-----195 Hand-----

----- clean player data in socket -----
seat/ 
button: 6666 9447 4109 
small blind: 4444 52691 8000 
big blind: 7777 1550 4036 
/seat 
blind/ 
4444: 50 
7777: 100 
/blind 
player 4444:hold/ 
SPADES 7 
CLUBS 6 
/hold 
player 7777:hold/ 
HEARTS 3 
HEARTS 2 
/hold 
player 6666:hold/ 
DIAMONDS 10 
CLUBS 4 
/hold 

---pre flop round bet---
valid player: 3, all in player: 0, fold player: 0
send inquire msg to player 6666 
inquire/ 
7777 1450 4036 100 blind 
4444 52641 8000 50 blind 
total pot: 150 
/inquire 
recv from player 6666: fold
send inquire msg to player 4444 
inquire/ 
6666 9447 4109 0 fold 
7777 1450 4036 100 blind 
4444 52641 8000 50 blind 
total pot: 150 
/inquire 
recv from player 4444: check
send inquire msg to player 7777 
inquire/ 
4444 52591 8000 100 call 
6666 9447 4109 0 fold 
7777 1450 4036 100 blind 
total pot: 200 
/inquire 
recv from player 7777: check
flop/ 
HEARTS A 
CLUBS 5 
CLUBS Q 
/flop 

---flop round bet---
valid player: 3, all in player: 0, fold player: 1
send inquire msg to player 4444 
inquire/ 
6666 9447 4109 0 fold 
7777 1450 4036 100 check 
4444 52591 8000 100 call 
total pot: 200 
/inquire 
recv from player 4444: check
send inquire msg to player 7777 
inquire/ 
4444 52591 8000 100 check 
6666 9447 4109 0 fold 
7777 1450 4036 100 check 
total pot: 200 
/inquire 
recv from player 7777: check
turn/ 
CLUBS A 
/turn 

---turn round bet---
valid player: 3, all in player: 0, fold player: 1
send inquire msg to player 4444 
inquire/ 
6666 9447 4109 0 fold 
7777 1450 4036 100 check 
4444 52591 8000 100 check 
total pot: 200 
/inquire 
recv from player 4444: check
send inquire msg to player 7777 
inquire/ 
4444 52591 8000 100 check 
6666 9447 4109 0 fold 
7777 1450 4036 100 check 
total pot: 200 
/inquire 
recv from player 7777: check
river/ 
CLUBS 10 
/river 

---river round bet---
valid player: 3, all in player: 0, fold player: 1
send inquire msg to player 4444 
inquire/ 
6666 9447 4109 0 fold 
7777 1450 4036 100 check 
4444 52591 8000 100 check 
total pot: 200 
/inquire 
recv from player 4444: check
send inquire msg to player 7777 
inquire/ 
4444 52591 8000 100 check 
6666 9447 4109 0 fold 
7777 1450 4036 100 check 
total pot: 200 
/inquire 
recv from player 7777: check

---show down---
showdown/ 
common/ 
HEARTS A 
CLUBS 5 
CLUBS Q 
CLUBS A 
CLUBS 10 
/common 
1: 4444 SPADES 7 CLUBS 6 FLUSH 
2: 7777 HEARTS 3 HEARTS 2 ONE_PAIR 
/showdown 

---Allocate pot---
pot-win/ 
4444: 200 
/pot-win 
it is player 4444's turn to be button

-----196 Hand-----

----- clean player data in socket -----
seat/ 
button: 4444 52791 8000 
small blind: 7777 1450 4036 
big blind: 6666 9447 4109 
/seat 
blind/ 
7777: 50 
6666: 100 
/blind 
player 7777:hold/ 
CLUBS J 
SPADES 3 
/hold 
player 6666:hold/ 
SPADES A 
DIAMONDS J 
/hold 
player 4444:hold/ 
SPADES K 
HEARTS A 
/hold 

---pre flop round bet---
valid player: 3, all in player: 0, fold player: 0
send inquire msg to player 4444 
inquire/ 
6666 9347 4109 100 blind 
7777 1400 4036 50 blind 
total pot: 150 
/inquire 
recv from player 4444: raise 6973
send inquire msg to player 7777 
inquire/ 
4444 45718 8000 7073 raise 
6666 9347 4109 100 blind 
7