

---GAME START @ 2015-5-11-21-33-43---
reg: 5555 raisecallbot 
reg: 1111 randombot 
reg: 3333 randombot 
reg: 4444 simplebot 
reg: 7777 cleverbot 
reg: 6666 callbot 
reg: 8888 callbot 
reg: 2222 randombot 

-----1 Hand-----
seat/ 
button: 4444 2000 8000 
small blind: 3333 2000 8000 
big blind: 2222 2000 8000 
8888 2000 8000 
6666 2000 8000 
5555 2000 8000 
1111 2000 8000 
7777 2000 8000 
/seat 
blind/ 
3333: 50 
2222: 100 
/blind 
player 3333:hold/ 
HEARTS 6 
CLUBS 9 
/hold 
player 2222:hold/ 
CLUBS 5 
HEARTS 4 
/hold 
player 8888:hold/ 
SPADES Q 
DIAMONDS J 
/hold 
player 6666:hold/ 
HEARTS 7 
DIAMONDS 4 
/hold 
player 5555:hold/ 
HEARTS 8 
DIAMONDS Q 
/hold 
player 1111:hold/ 
CLUBS 10 
HEARTS 2 
/hold 
player 7777:hold/ 
SPADES 8 
DIAMONDS 2 
/hold 
player 4444:hold/ 
HEARTS 3 
HEARTS A 
/hold 

---pre flop round bet---
valid player: 8, all in player: 0, fold player: 0
send inquire msg to player 8888 
inquire/ 
2222 1900 8000 100 blind 
3333 1950 8000 50 blind 
total pot: 150 
/inquire 
recv from player 8888: check
send inquire msg to player 6666 
inquire/ 
8888 1900 8000 100 call 
2222 1900 8000 100 blind 
3333 1950 8000 50 blind 
total pot: 250 
/inquire 
recv from player 6666: check
send inquire msg to player 5555 
inquire/ 
6666 1900 8000 100 call 
8888 1900 8000 100 call 
2222 1900 8000 100 blind 
3333 1950 8000 50 blind 
total pot: 350 
/inquire 
recv from player 5555: check
send inquire msg to player 1111 
inquire/ 
5555 1900 8000 100 call 
6666 1900 8000 100 call 
8888 1900 8000 100 call 
2222 1900 8000 100 blind 
3333 1950 8000 50 blind 
total pot: 450 
/inquire 
recv from player 1111: fold
send inquire msg to player 7777 
inquire/ 
1111 2000 8000 0 fold 
5555 1900 8000 100 call 
6666 1900 8000 100 call 
8888 1900 8000 100 call 
2222 1900 8000 100 blind 
3333 1950 8000 50 blind 
total pot: 450 
/inquire 
recv from player 7777: check
send inquire msg to player 4444 
inquire/ 
7777 1900 8000 100 call 
1111 2000 8000 0 fold 
5555 1900 8000 100 call 
6666 1900 8000 100 call 
8888 1900 8000 100 call 
2222 1900 8000 100 blind 
3333 1950 8000 50 blind 
total pot: 550 
/inquire 
recv from player 4444: raise 85
send inquire msg to player 3333 
inquire/ 
4444 1800 8000 200 raise 
7777 1900 8000 100 call 
1111 2000 8000 0 fold 
5555 1900 8000 100 call 
6666 1900 8000 100 call 
8888 1900 8000 100 call 
2222 1900 8000 100 blind 
3333 1950 8000 50 blind 
total pot: 750 
/inquire 
recv from player 3333: fold
send inquire msg to player 2222 
inquire/ 
3333 1950 8000 50 fold 
4444 1800 8000 200 raise 
7777 1900 8000 100 call 
1111 2000 8000 0 fold 
5555 1900 8000 100 call 
6666 1900 8000 100 call 
8888 1900 8000 100 call 
2222 1900 8000 100 blind 
total pot: 750 
/inquire 
recv from player 2222: fold
send inquire msg to player 8888 
inquire/ 
2222 1900 8000 100 fold 
3333 1950 8000 50 fold 
4444 1800 8000 200 raise 
7777 1900 8000 100 call 
1111 2000 8000 0 fold 
5555 1900 8000 100 call 
6666 1900 8000 100 call 
8888 1900 8000 100 call 
total pot: 750 
/inquire 
recv from player 8888: check
send inquire msg to player 6666 
inquire/ 
8888 1800 8000 200 call 
2222 1900 8000 100 fold 
3333 1950 8000 50 fold 
4444 1800 8000 200 raise 
7777 1900 8000 100 call 
1111 2000 8000 0 fold 
5555 1900 8000 100 call 
6666 1900 8000 100 call 
total pot: 850 
/inquire 
recv from player 6666: check
send inquire msg to player 5555 
inquire/ 
6666 1800 8000 200 call 
8888 1800 8000 200 call 
2222 1900 8000 100 fold 
3333 1950 8000 50 fold 
4444 1800 8000 200 raise 
7777 1900 8000 100 call 
1111 2000 8000 0 fold 
5555 1900 8000 100 call 
total pot: 950 
/inquire 
recv from player 5555: check
send inquire msg to player 7777 
inquire/ 
1111 2000 8000 0 fold 
5555 1800 8000 200 call 
6666 1800 8000 200 call 
8888 1800 8000 200 call 
2222 1900 8000 100 fold 
3333 1950 8000 50 fold 
4444 1800 8000 200 raise 
7777 1900 8000 100 call 
total pot: 1050 
/inquire 
recv from player 7777: check
flop/ 
SPADES 2 
HEARTS 9 
CLUBS J 
/flop 

---flop round bet---
valid player: 8, all in player: 0, fold player: 3
send inquire msg to player 8888 
inquire/ 
2222 1900 8000 100 fold 
3333 1950 8000 50 fold 
4444 1800 8000 200 raise 
7777 1800 8000 200 call 
1111 2000 8000 0 fold 
5555 1800 8000 200 call 
6666 1800 8000 200 call 
8888 1800 8000 200 call 
total pot: 1150 
/inquire 
recv from player 8888: check
send inquire msg to player 6666 
inquire/ 
8888 1800 8000 200 check 
2222 1900 8000 100 fold 
3333 1950 8000 50 fold 
4444 1800 8000 200 raise 
7777 1800 8000 200 call 
1111 2000 8000 0 fold 
5555 1800 8000 200 call 
6666 1800 8000 200 call 
total pot: 1150 
/inquire 
recv from player 6666: check
send inquire msg to player 5555 
inquire/ 
6666 1800 8000 200 check 
8888 1800 8000 200 check 
2222 1900 8000 100 fold 
3333 1950 8000 50 fold 
4444 1800 8000 200 raise 
7777 1800 8000 200 call 
1111 2000 8000 0 fold 
5555 1800 8000 200 call 
total pot: 1150 
/inquire 
recv from player 5555: check
send inquire msg to player 7777 
inquire/ 
1111 2000 8000 0 fold 
5555 1800 8000 200 check 
6666 1800 8000 200 check 
8888 1800 8000 200 check 
2222 1900 8000 100 fold 
3333 1950 8000 50 fold 
4444 1800 8000 200 raise 
7777 1800 8000 200 call 
total pot: 1150 
/inquire 
recv from player 7777: fold
send inquire msg to player 4444 
inquire/ 
7777 1800 8000 200 fold 
1111 2000 8000 0 fold 
5555 1800 8000 200 check 
6666 1800 8000 200 check 
8888 1800 8000 200 check 
2222 1900 8000 100 fold 
3333 1950 8000 50 fold 
4444 1800 8000 200 raise 
total pot: 1150 
/inquire 
recv from player 4444: check
turn/ 
DIAMONDS 10 
/turn 

---turn round bet---
valid player: 8, all in player: 0, fold player: 4
send inquire msg to player 8888 
inquire/ 
2222 1900 8000 100 fold 
3333 1950 8000 50 fold 
4444 1800 8000 200 check 
7777 1800 8000 200 fold 
1111 2000 8000 0 fold 
5555 1800 8000 200 check 
6666 1800 8000 200 check 
8888 1800 8000 200 check 
total pot: 1150 
/inquire 
recv from player 8888: check
send inquire msg to player 6666 
inquire/ 
8888 1800 8000 200 check 
2222 1900 8000 100 fold 
3333 1950 8000 50 fold 
4444 1800 8000 200 check 
7777 1800 8000 200 fold 
1111 2000 8000 0 fold 
5555 1800 8000 200 check 
6666 1800 8000 200 check 
total pot: 1150 
/inquire 
recv from player 6666: check
send inquire msg to player 5555 
inquire/ 
6666 1800 8000 200 check 
8888 1800 8000 200 check 
2222 1900 8000 100 fold 
3333 1950 8000 50 fold 
4444 1800 8000 200 check 
7777 1800 8000 200 fold 
1111 2000 8000 0 fold 
5555 1800 8000 200 check 
total pot: 1150 
/inquire 
recv from player 5555: raise 0
send inquire msg to player 4444 
inquire/ 
7777 1800 8000 200 fold 
1111 2000 8000 0 fold 
5555 1700 8000 300 raise 
6666 1800 8000 200 check 
8888 1800 8000 200 check 
2222 1900 8000 100 fold 
3333 1950 8000 50 fold 
4444 1800 8000 200 check 
total pot: 1250 
/inquire 
recv from player 4444: fold
send inquire msg to player 8888 
inquire/ 
2222 1900 8000 100 fold 
3333 1950 8000 50 fold 
4444 1800 8000 200 fold 
7777 1800 8000 200 fold 
1111 2000 8000 0 fold 
5555 1700 8000 300 raise 
6666 1800 8000 200 check 
8888 1800 8000 200 check 
total pot: 1250 
/inquire 
recv from player 8888: check
send inquire msg to player 6666 
inquire/ 
8888 1700 8000 300 call 
2222 1900 8000 100 fold 
3333 1950 8000 50 fold 
4444 1800 8000 200 fold 
7777 1800 8000 200 fold 
1111 2000 8000 0 fold 
5555 1700 8000 300 raise 
6666 1800 8000 200 check 
total pot: 1350 
/inquire 
recv from player 6666: check
river/ 
SPADES K 
/river 

---river round bet---
valid player: 8, all in player: 0, fold player: 5
send inquire msg to player 8888 
inquire/ 
2222 1900 8000 100 fold 
3333 1950 8000 50 fold 
4444 1800 8000 200 fold 
7777 1800 8000 200 fold 
1111 2000 8000 0 fold 
5555 1700 8000 300 raise 
6666 1700 8000 300 call 
8888 1700 8000 300 call 
total pot: 1450 
/inquire 
recv from player 8888: check
send inquire msg to player 6666 
inquire/ 
8888 1700 8000 300 check 
2222 1900 8000 100 fold 
3333 1950 8000 50 fold 
4444 1800 8000 200 fold 
7777 1800 8000 200 fold 
1111 2000 8000 0 fold 
5555 1700 8000 300 raise 
6666 1700 8000 300 call 
total pot: 1450 
/inquire 
recv from player 6666: check
send inquire msg to player 5555 
inquire/ 
6666 1700 8000 300 check 
8888 1700 8000 300 check 
2222 1900 8000 100 fold 
3333 1950 8000 50 fold 
4444 1800 8000 200 fold 
7777 1800 8000 200 fold 
1111 2000 8000 0 fold 
5555 1700 8000 300 raise 
total pot: 1450 
/inquire 
recv from player 5555: raise 0
send inquire msg to player 8888 
inquire/ 
2222 1900 8000 100 fold 
3333 1950 8000 50 fold 
4444 1800 8000 200 fold 
7777 1800 8000 200 fold 
1111 2000 8000 0 fold 
5555 1600 8000 400 raise 
6666 1700 8000 300 check 
8888 1700 8000 300 check 
total pot: 1550 
/inquire 
recv from player 8888: check
send inquire msg to player 6666 
inquire/ 
8888 1600 8000 400 call 
2222 1900 8000 100 fold 
3333 1950 8000 50 fold 
4444 1800 8000 200 fold 
7777 1800 8000 200 fold 
1111 2000 8000 0 fold 
5555 1600 8000 400 raise 
6666 1700 8000 300 check 
total pot: 1650 
/inquire 
recv from player 6666: check

---show down---
showdown/ 
common/ 
SPADES 2 
HEARTS 9 
CLUBS J 
DIAMONDS 10 
SPADES K 
/common 
1: 8888 SPADES Q DIAMONDS J STRAIGHT 
2: 6666 HEARTS 7 DIAMONDS 4 HIGH_CARD 
1: 5555 HEARTS 8 DIAMONDS Q STRAIGHT 
/showdown 

---Allocate pot---
pot-win/ 
8888: 875 
5555: 875 
/pot-win 
it is player 3333's turn to be button

-----2 Hand-----
seat/ 
button: 3333 1950 8000 
small blind: 2222 1900 8000 
big blind: 8888 2475 8000 
6666 1600 8000 
5555 2475 8000 
1111 2000 8000 
7777 1800 8000 
4444 1800 8000 
/seat 
blind/ 
2222: 50 
8888: 100 
/blind 
player 2222:hold/ 
SPADES 4 
SPADES 6 
/hold 
player 8888:hold/ 
DIAMONDS 6 
SPADES A 
/hold 
player 6666:hold/ 
SPADES K 
DIAMONDS 9 
/hold 
player 5555:hold/ 
DIAMONDS Q 
SPADES J 
/hold 
player 1111:hold/ 
DIAMONDS 2 
DIAMONDS K 
/hold 
player 7777:hold/ 
HEARTS 4 
HEARTS 6 
/hold 
player 4444:hold/ 
DIAMONDS 7 
CLUBS 8 
/hold 
player 3333:hold/ 
DIAMONDS 10 
DIAMONDS J 
/hold 

---pre flop round bet---
valid player: 8, all in player: 0, fold player: 0
send inquire msg to player 6666 
inquire/ 
8888 2375 8000 100 blind 
2222 1850 8000 50 blind 
total pot: 150 
/inquire 
recv from player 6666: check
send inquire msg to player 5555 
inquire/ 
6666 1500 8000 100 call 
8888 2375 8000 100 blind 
2222 1850 8000 50 blind 
total pot: 250 
/inquire 
recv from player 5555: check
send inquire msg to player 1111 
inquire/ 
5555 2375 8000 100 call 
6666 1500 8000 100 call 
8888 2375 8000 100 blind 
2222 1850 8000 50 blind 
total pot: 350 
/inquire 
recv from player 1111: raise 0
send inquire msg to player 7777 
inquire/ 
1111 1800 8000 200 raise 
5555 2375 8000 100 call 
6666 1500 8000 100 call 
8888 2375 8000 100 blind 
2222 1850 8000 50 blind 
total pot: 550 
/inquire 
recv from player 7777: check
send inquire msg to player 4444 
inquire/ 
7777 1600 8000 200 call 
1111 1800 8000 200 raise 
5555 2375 8000 100 call 
6666 1500 8000 100 call 
8888 2375 8000 100 blind 
2222 1850 8000 50 blind 
total pot: 750 
/inquire 
recv from player 4444: check
send inquire msg to player 3333 
inquire/ 
4444 1600 8000 200 call 
7777 1600 8000 200 call 
1111 1800 8000 200 raise 
5555 2375 8000 100 call 
6666 1500 8000 100 call 
8888 2375 8000 100 blind 
2222 1850 8000 50 blind 
total pot: 950 
/inquire 
recv from player 3333: fold
send inquire msg to player 2222 
inquire/ 
3333 1950 8000 0 fold 
4444 1600 8000 200 call 
7777 1600 8000 200 call 
1111 1800 8000 200 raise 
5555 2375 8000 100 call 
6666 1500 8000 100 call 
8888 2375 8000 100 blind 
2222 1850 8000 50 blind 
total pot: 950 
/inquire 
recv from player 2222: check
send inquire msg to player 8888 
inquire/ 
2222 1700 8000 200 call 
3333 1950 8000 0 fold 
4444 1600 8000 200 call 
7777 1600 8000 200 call 
1111 1800 8000 200 raise 
5555 2375 8000 100 call 
6666 1500 8000 100 call 
8888 2375 8000 100 blind 
total pot: 1100 
/inquire 
recv from player 8888: check
send inquire msg to player 6666 
inquire/ 
8888 2275 8000 200 call 
2222 1700 8000 200 call 
3333 1950 8000 0 fold 
4444 1600 8000 200 call 
7777 1600 8000 200 call 
1111 1800 8000 200 raise 
5555 2375 8000 100 call 
6666 1500 8000 100 call 
total pot: 1200 
/inquire 
recv from player 6666: check
send inquire msg to player 5555 
inquire/ 
6666 1400 8000 200 call 
8888 2275 8000 200 call 
2222 1700 8000 200 call 
3333 1950 8000 0 fold 
4444 1600 8000 200 call 
7777 1600 8000 200 call 
1111 1800 8000 200 raise 
5555 2375 8000 100 call 
total pot: 1300 
/inquire 
recv from player 5555: raise 0
send inquire msg to player 1111 
inquire/ 
5555 2175 8000 300 raise 
6666 1400 8000 200 call 
8888 2275 8000 200 call 
2222 1700 8000 200 call 
3333 1950 8000 0 fold 
4444 1600 8000 200 call 
7777 1600 8000 200 call 
1111 1800 8000 200 raise 
total pot: 1500 
/inquire 
recv from player 1111: fold
send inquire msg to player 7777 
inquire/ 
1111 1800 8000 200 fold 
5555 2175 8000 300 raise 
6666 1400 8000 200 call 
8888 2275 8000 200 call 
2222 1700 8000 200 call 
3333 1950 8000 0 fold 
4444 1600 8000 200 call 
7777 1600 8000 200 call 
total pot: 1500 
/inquire 
recv from player 7777: check
send inquire msg to player 4444 
inquire/ 
7777 1500 8000 300 call 
1111 1800 8000 200 fold 
5555 2175 8000 300 raise 
6666 1400 8000 200 call 
8888 2275 8000 200 call 
2222 1700 8000 200 call 
3333 1950 8000 0 fold 
4444 1600 8000 200 call 
total pot: 1600 
/inquire 
recv from player 4444: check
send inquire msg to player 2222 
inquire/ 
3333 1950 8000 0 fold 
4444 1500 8000 300 call 
7777 1500 8000 300 call 
1111 1800 8000 200 fold 
5555 2175 8000 300 raise 
6666 1400 8000 200 call 
8888 2275 8000 200 call 
2222 1700 8000 200 call 
total pot: 1700 
/inquire 
recv from player 2222: fold
send inquire msg to player 8888 
inquire/ 
2222 1700 8000 200 fold 
3333 1950 8000 0 fold 
4444 1500 8000 300 call 
7777 1500 8000 300 call 
1111 1800 8000 200 fold 
5555 2175 8000 300 raise 
6666 1400 8000 200 call 
8888 2275 8000 200 call 
total pot: 1700 
/inquire 
recv from player 8888: check
send inquire msg to player 6666 
inquire/ 
8888 2175 8000 300 call 
2222 1700 8000 200 fold 
3333 1950 8000 0 fold 
4444 1500 8000 300 call 
7777 1500 8000 300 call 
1111 1800 8000 200 fold 
5555 2175 8000 300 raise 
6666 1400 8000 200 call 
total pot: 1800 
/inquire 
recv from player 6666: check
flop/ 
HEARTS 3 
SPADES 9 
DIAMONDS 5 
/flop 

---flop round bet---
valid player: 8, all in player: 0, fold player: 3
send inquire msg to player 8888 
inquire/ 
2222 1700 8000 200 fold 
3333 1950 8000 0 fold 
4444 1500 8000 300 call 
7777 1500 8000 300 call 
1111 1800 8000 200 fold 
5555 2175 8000 300 raise 
6666 1300 8000 300 call 
8888 2175 8000 300 call 
total pot: 1900 
/inquire 
recv from player 8888: check
send inquire msg to player 6666 
inquire/ 
8888 2175 8000 300 check 
2222 1700 8000 200 fold 
3333 1950 8000 0 fold 
4444 1500 8000 300 call 
7777 1500 8000 300 call 
1111 1800 8000 200 fold 
5555 2175 8000 300 raise 
6666 1300 8000 300 call 
total pot: 1900 
/inquire 
recv from player 6666: check
send inquire msg to player 5555 
inquire/ 
6666 1300 8000 300 check 
8888 2175 8000 300 check 
2222 1700 8000 200 fold 
3333 1950 8000 0 fold 
4444 1500 8000 300 call 
7777 1500 8000 300 call 
1111 1800 8000 200 fold 
5555 2175 8000 300 raise 
total pot: 1900 
/inquire 
recv from player 5555: raise 0
send inquire msg to player 7777 
inquire/ 
1111 1800 8000 200 fold 
5555 2075 8000 400 raise 
6666 1300 8000 300 check 
8888 2175 8000 300 check 
2222 1700 8000 200 fold 
3333 1950 8000 0 fold 
4444 1500 8000 300 call 
7777 1500 8000 300 call 
total pot: 2000 
/inquire 
recv from player 7777: fold
send inquire msg to player 4444 
inquire/ 
7777 1500 8000 300 fold 
1111 1800 8000 200 fold 
5555 2075 8000 400 raise 
6666 1300 8000 300 check 
8888 2175 8000 300 check 
2222 1700 8000 200 fold 
3333 1950 8000 0 fold 
4444 1500 8000 300 call 
total pot: 2000 
/inquire 
recv from player 4444: check
send inquire msg to player 8888 
inquire/ 
2222 1700 8000 200 fold 
3333 1950 8000 0 fold 
4444 1400 8000 400 call 
7777 1500 8000 300 fold 
1111 1800 8000 200 fold 
5555 2075 8000 400 raise 
6666 1300 8000 300 check 
8888 2175 8000 300 check 
total pot: 2100 
/inquire 
recv from player 8888: check
send inquire msg to player 6666 
inquire/ 
8888 2075 8000 400 call 
2222 1700 8000 200 fold 
3333 1950 8000 0 fold 
4444 1400 8000 400 call 
7777 1500 8000 300 fold 
1111 1800 8000 200 fold 
5555 2075 8000 400 raise 
6666 1300 8000 300 check 
total pot: 2200 
/inquire 
recv from player 6666: check
turn/ 
CLUBS 2 
/turn 

---turn round bet---
valid player: 8, all in player: 0, fold player: 4
send inquire msg to player 8888 
inquire/ 
2222 1700 8000 200 fold 
3333 1950 8000 0 fold 
4444 1400 8000 400 call 
7777 1500 8000 300 fold 
1111 1800 8000 200 fold 
5555 2075 8000 400 raise 
6666 1200 8000 400 call 
8888 2075 8000 400 call 
total pot: 2300 
/inquire 
recv from player 8888: check
send inquire msg to player 6666 
inquire/ 
8888 2075 8000 400 check 
2222 1700 8000 200 fold 
3333 1950 8000 0 fold 
4444 1400 8000 400 call 
7777 1500 8000 300 fold 
1111 1800 8000 200 fold 
5555 2075 8000 400 raise 
6666 1200 8000 400 call 
total pot: 2300 
/inquire 
recv from player 6666: check
send inquire msg to player 5555 
inquire/ 
6666 1200 8000 400 check 
8888 2075 8000 400 check 
2222 1700 8000 200 fold 
3333 1950 8000 0 fold 
4444 1400 8000 400 call 
7777 1500 8000 300 fold 
1111 1800 8000 200 fold 
5555 2075 8000 400 raise 
total pot: 2300 
/inquire 
recv from player 5555: raise 0
send inquire msg to player 4444 
inquire/ 
7777 1500 8000 300 fold 
1111 1800 8000 200 fold 
5555 1975 8000 500 raise 
6666 1200 8000 400 check 
8888 2075 8000 400 check 
2222 1700 8000 200 fold 
3333 1950 8000 0 fold 
4444 1400 8000 400 call 
total pot: 2400 
/inquire 
recv from player 4444: fold
send inquire msg to player 8888 
inquire/ 
2222 1700 8000 200 fold 
3333 1950 8000 0 fold 
4444 1400 8000 400 fold 
7777 1500 8000 300 fold 
1111 1800 8000 200 fold 
5555 1975 8000 500 raise 
6666 1200 8000 400 check 
8888 2075 8000 400 check 
total pot: 2400 
/inquire 
recv from player 8888: check
send inquire msg to player 6666 
inquire/ 
8888 1975 8000 500 call 
2222 1700 8000 200 fold 
3333 1950 8000 0 fold 
4444 1400 8000 400 fold 
7777 1500 8000 300 fold 
1111 1800 8000 200 fold 
5555 1975 8000 500 raise 
6666 1200 8000 400 check 
total pot: 2500 
/inquire 
recv from player 6666: check
river/ 
CLUBS 7 
/river 

---river round bet---
valid player: 8, all in player: 0, fold player: 5
send inquire msg to player 8888 
inquire/ 
2222 1700 8000 200 fold 
3333 1950 8000 0 fold 
4444 1400 8000 400 fold 
7777 1500 8000 300 fold 
1111 1800 8000 200 fold 
5555 1975 8000 500 raise 
6666 1100 8000 500 call 
8888 1975 8000 500 call 
total pot: 2600 
/inquire 
recv from player 8888: check
send inquire msg to player 6666 
inquire/ 
8888 1975 8000 500 check 
2222 1700 8000 200 fold 
3333 1950 8000 0 fold 
4444 1400 8000 400 fold 
7777 1500 8000 300 fold 
1111 1800 8000 200 fold 
5555 1975 8000 500 raise 
6666 1100 8000 500 call 
total pot: 2600 
/inquire 
recv from player 6666: check
send inquire msg to player 5555 
inquire/ 
6666 1100 8000 500 check 
8888 1975 8000 500 check 
2222 1700 8000 200 fold 
3333 1950 8000 0 fold 
4444 1400 8000 400 fold 
7777 1500 8000 300 fold 
1111 1800 8000 200 fold 
5555 1975 8000 500 raise 
total pot: 2600 
/inquire 
recv from player 5555: raise 0
send inquire msg to player 8888 
inquire/ 
2222 1700 8000 200 fold 
3333 1950 8000 0 fold 
4444 1400 8000 400 fold 
7777 1500 8000 300 fold 
1111 1800 8000 200 fold 
5555 1875 8000 600 raise 
6666 1100 8000 500 check 
8888 1975 8000 500 check 
total pot: 2700 
/inquire 
recv from player 8888: check
send inquire msg to player 6666 
inquire/ 
8888 1875 8000 600 call 
2222 1700 8000 200 fold 
3333 1950 8000 0 fold 
4444 1400 8000 400 fold 
7777 1500 8000 300 fold 
1111 1800 8000 200 fold 
5555 1875 8000 600 raise 
6666 1100 8000 500 check 
total pot: 2800 
/inquire 
recv from player 6666: check

---show down---
showdown/ 
common/ 
HEARTS 3 
SPADES 9 
DIAMONDS 5 
CLUBS 2 
CLUBS 7 
/common 
2: 8888 DIAMONDS 6 SPADES A HIGH_CARD 
1: 6666 SPADES K DIAMONDS 9 ONE_PAIR 
3: 5555 DIAMONDS Q SPADES J HIGH_CARD 
/showdown 

---Allocate pot---
pot-win/ 
6666: 2900 
/pot-win 
it is player 2222's turn to be button

-----3 Hand-----
seat/ 
button: 2222 1700 8000 
small blind: 8888 1875 8000 
big blind: 6666 3900 8000 
5555 1875 8000 
1111 1800 8000 
7777 1500 8000 
4444 1400 8000 
3333 1950 8000 
/seat 
blind/ 
8888: 50 
6666: 100 
/blind 
player 8888:hold/ 
DIAMONDS A 
HEARTS 9 
/hold 
player 6666:hold/ 
CLUBS Q 
CLUBS 5 
/hold 
player 5555:hold/ 
DIAMONDS 7 
SPADES 9 
/hold 
player 1111:hold/ 
CLUBS 10 
SPADES 7 
/hold 
player 7777:hold/ 
SPADES 6 
SPADES A 
/hold 
player 4444:hold/ 
HEARTS 3 
HEARTS 10 
/hold 
player 3333:hold/ 
HEARTS 4 
CLUBS J 
/hold 
player 2222:hold/ 
DIAMONDS K 
CLUBS 6 
/hold 

---pre flop round bet---
valid player: 8, all in player: 0, fold player: 0
send inquire msg to player 5555 
inquire/ 
6666 3800 8000 100 blind 
8888 1825 8000 50 blind 
total pot: 150 
/inquire 
recv from player 5555: check
send inquire msg to player 1111 
inquire/ 
5555 1775 8000 100 call 
6666 3800 8000 100 blind 
8888 1825 8000 50 blind 
total pot: 250 
/inquire 
recv from player 1111: raise 0
send inquire msg to player 7777 
inquire/ 
1111 1600 8000 200 raise 
5555 1775 8000 100 call 
6666 3800 8000 100 blind 
8888 1825 8000 50 blind 
total pot: 450 
/inquire 
recv from player 7777: check
send inquire msg to player 4444 
inquire/ 
7777 1300 8000 200 call 
1111 1600 8000 200 raise 
5555 1775 8000 100 call 
6666 3800 8000 100 blind 
8888 1825 8000 50 blind 
total pot: 650 
/inquire 
recv from player 4444: check
send inquire msg to player 3333 
inquire/ 
4444 1200 8000 200 call 
7777 1300 8000 200 call 
1111 1600 8000 200 raise 
5555 1775 8000 100 call 
6666 3800 8000 100 blind 
8888 1825 8000 50 blind 
total pot: 850 
/inquire 
recv from player 3333: fold
send inquire msg to player 2222 
inquire/ 
3333 1950 8000 0 fold 
4444 1200 8000 200 call 
7777 1300 8000 200 call 
1111 1600 8000 200 raise 
5555 1775 8000 100 call 
6666 3800 8000 100 blind 
8888 1825 8000 50 blind 
total pot: 850 
/inquire 
recv from player 2222: fold
send inquire msg to player 8888 
inquire/ 
2222 1700 8000 0 fold 
3333 1950 8000 0 fold 
4444 1200 8000 200 call 
7777 1300 8000 200 call 
1111 1600 8000 200 raise 
5555 1775 8000 100 call 
6666 3800 8000 100 blind 
8888 1825 8000 50 blind 
total pot: 850 
/inquire 
recv from player 8888: check
send inquire msg to player 6666 
inquire/ 
8888 1675 8000 200 call 
2222 1700 8000 0 fold 
3333 1950 8000 0 fold 
4444 1200 8000 200 call 
7777 1300 8000 200 call 
1111 1600 8000 200 raise 
5555 1775 8000 100 call 
6666 3800 8000 100 blind 
total pot: 1000 
/inquire 
recv from player 6666: check
send inquire msg to player 5555 
inquire/ 
6666 3700 8000 200 call 
8888 1675 8000 200 call 
2222 1700 8000 0 fold 
3333 1950 8000 0 fold 
4444 1200 8000 200 call 
7777 1300 8000 200 call 
1111 1600 8000 200 raise 
5555 1775 8000 100 call 
total pot: 1100 
/inquire 
recv from player 5555: raise 0
send inquire msg to player 1111 
inquire/ 
5555 1575 8000 300 raise 
6666 3700 8000 200 call 
8888 1675 8000 200 call 
2222 1700 8000 0 fold 
3333 1950 8000 0 fold 
4444 1200 8000 200 call 
7777 1300 8000 200 call 
1111 1600 8000 200 raise 
total pot: 1300 
/inquire 
recv from player 1111: fold
send inquire msg to player 7777 
inquire/ 
1111 1600 8000 200 fold 
5555 1575 8000 300 raise 
6666 3700 8000 200 call 
8888 1675 8000 200 call 
2222 1700 8000 0 fold 
3333 1950 8000 0 fold 
4444 1200 8000 200 call 
7777 1300 8000 200 call 
total pot: 1300 
/inquire 
recv from player 7777: check
send inquire msg to player 4444 
inquire/ 
7777 1200 8000 300 call 
1111 1600 8000 200 fold 
5555 1575 8000 300 raise 
6666 3700 8000 200 call 
8888 1675 8000 200 call 
2222 1700 8000 0 fold 
3333 1950 8000 0 fold 
4444 1200 8000 200 call 
total pot: 1400 
/inquire 
recv from player 4444: check
send inquire msg to player 8888 
inquire/ 
2222 1700 8000 0 fold 
3333 1950 8000 0 fold 
4444 1100 8000 300 call 
7777 1200 8000 300 call 
1111 1600 8000 200 fold 
5555 1575 8000 300 raise 
6666 3700 8000 200 call 
8888 1675 8000 200 call 
total pot: 1500 
/inquire 
recv from player 8888: check
send inquire msg to player 6666 
inquire/ 
8888 1575 8000 300 call 
2222 1700 8000 0 fold 
3333 1950 8000 0 fold 
4444 1100 8000 300 call 
7777 1200 8000 300 call 
1111 1600 8000 200 fold 
5555 1575 8000 300 raise 
6666 3700 8000 200 call 
total pot: 1600 
/inquire 
recv from player 6666: check
flop/ 
HEARTS A 
SPADES 2 
SPADES 4 
/flop 

---flop round bet---
valid player: 8, all in player: 0, fold player: 3
send inquire msg to player 8888 
inquire/ 
2222 1700 8000 0 fold 
3333 1950 8000 0 fold 
4444 1100 8000 300 call 
7777 1200 8000 300 call 
1111 1600 8000 200 fold 
5555 1575 8000 300 raise 
6666 3600 8000 300 call 
8888 1575 8000 300 call 
total pot: 1700 
/inquire 
recv from player 8888: check
send inquire msg to player 6666 
inquire/ 
8888 1575 8000 300 check 
2222 1700 8000 0 fold 
3333 1950 8000 0 fold 
4444 1100 8000 300 call 
7777 1200 8000 300 call 
1111 1600 8000 200 fold 
5555 1575 8000 300 raise 
6666 3600 8000 300 call 
total pot: 1700 
/inquire 
recv from player 6666: check
send inquire msg to player 5555 
inquire/ 
6666 3600 8000 300 check 
8888 1575 8000 300 check 
2222 1700 8000 0 fold 
3333 1950 8000 0 fold 
4444 1100 8000 300 call 
7777 1200 8000 300 call 
1111 1600 8000 200 fold 
5555 1575 8000 300 raise 
total pot: 1700 
/inquire 
recv from player 5555: check
send inquire msg to player 7777 
inquire/ 
1111 1600 8000 200 fold 
5555 1575 8000 300 check 
6666 3600 8000 300 check 
8888 1575 8000 300 check 
2222 1700 8000 0 fold 
3333 1950 8000 0 fold 
4444 1100 8000 300 call 
7777 1200 8000 300 call 
total pot: 1700 
/inquire 
recv from player 7777: fold
send inquire msg to player 4444 
inquire/ 
7777 1200 8000 300 fold 
1111 1600 8000 200 fold 
5555 1575 8000 300 check 
6666 3600 8000 300 check 
8888 1575 8000 300 check 
2222 1700 8000 0 fold 
3333 1950 8000 0 fold 
4444 1100 8000 300 call 
total pot: 1700 
/inquire 
recv from player 4444: check
turn/ 
DIAMONDS 3 
/turn 

---turn round bet---
valid player: 8, all in player: 0, fold player: 4
send inquire msg to player 8888 
inquire/ 
2222 1700 8000 0 fold 
3333 1950 8000 0 fold 
4444 1100 8000 300 check 
7777 1200 8000 300 fold 
1111 1600 8000 200 fold 
5555 1575 8000 300 check 
6666 3600 8000 300 check 
8888 1575 8000 300 check 
total pot: 1700 
/inquire 
recv from player 8888: check
send inquire msg to player 6666 
inquire/ 
8888 1575 8000 300 check 
2222 1700 8000 0 fold 
3333 1950 8000 0 fold 
4444 1100 8000 300 check 
7777 1200 8000 300 fold 
1111 1600 8000 200 fold 
5555 1575 8000 300 check 
6666 3600 8000 300 check 
total pot: 1700 
/inquire 
recv from player 6666: check
send inquire msg to player 5555 
inquire/ 
6666 3600 8000 300 check 
8888 1575 8000 300 check 
2222 1700 8000 0 fold 
3333 1950 8000 0 fold 
4444 1100 8000 300 check 
7777 1200 8000 300 fold 
1111 1600 8000 200 fold 
5555 1575 8000 300 check 
total pot: 1700 
/inquire 
recv from player 5555: raise 0
send inquire msg to player 4444 
inquire/ 
7777 1200 8000 300 fold 
1111 1600 8000 200 fold 
5555 1475 8000 400 raise 
6666 3600 8000 300 check 
8888 1575 8000 300 check 
2222 1700 8000 0 fold 
3333 1950 8000 0 fold 
4444 1100 8000 300 check 
total pot: 1800 
/inquire 
recv from player 4444: check
send inquire msg to player 8888 
inquire/ 
2222 1700 8000 0 fold 
3333 1950 8000 0 fold 
4444 1000 8000 400 call 
7777 1200 8000 300 fold 
1111 1600 8000 200 fold 
5555 1475 8000 400 raise 
6666 3600 8000 300 check 
8888 1575 8000 300 check 
total pot: 1900 
/inquire 
recv from player 8888: check
send inquire msg to player 6666 
inquire/ 
8888 1475 8000 400 call 
2222 1700 8000 0 fold 
3333 1950 8000 0 fold 
4444 1000 8000 400 call 
7777 1200 8000 300 fold 
1111 1600 8000 200 fold 
5555 1475 8000 400 raise 
6666 3600 8000 300 check 
total pot: 2000 
/inquire 
recv from player 6666: check
river/ 
SPADES 8 
/river 

---river round bet---
valid player: 8, all in player: 0, fold player: 4
send inquire msg to player 8888 
inquire/ 
2222 1700 8000 0 fold 
3333 1950 8000 0 fold 
4444 1000 8000 400 call 
7777 1200 8000 300 fold 
1111 1600 8000 200 fold 
5555 1475 8000 400 raise 
6666 3500 8000 400 call 
8888 1475 8000 400 call 
total pot: 2100 
/inquire 
recv from player 8888: check
send inquire msg to player 6666 
inquire/ 
8888 1475 8000 400 check 
2222 1700 8000 0 fold 
3333 1950 8000 0 fold 
4444 1000 8000 400 call 
7777 1200 8000 300 fold 
1111 1600 8000 200 fold 
5555 1475 8000 400 raise 
6666 3500 8000 400 call 
total pot: 2100 
/inquire 
recv from player 6666: check
send inquire msg to player 5555 
inquire/ 
6666 3500 8000 400 check 
8888 1475 8000 400 check 
2222 1700 8000 0 fold 
3333 1950 8000 0 fold 
4444 1000 8000 400 call 
7777 1200 8000 300 fold 
1111 1600 8000 200 fold 
5555 1475 8000 400 raise 
total pot: 2100 
/inquire 
recv from player 5555: raise 0
send inquire msg to player 4444 
inquire/ 
7777 1200 8000 300 fold 
1111 1600 8000 200 fold 
5555 1375 8000 500 raise 
6666 3500 8000 400 check 
8888 1475 8000 400 check 
2222 1700 8000 0 fold 
3333 1950 8000 0 fold 
4444 1000 8000 400 call 
total pot: 2200 
/inquire 
recv from player 4444: fold
send inquire msg to player 8888 
inquire/ 
2222 1700 8000 0 fold 
3333 1950 8000 0 fold 
4444 1000 8000 400 fold 
7777 1200 8000 300 fold 
1111 1600 8000 200 fold 
5555 1375 8000 500 raise 
6666 3500 8000 400 check 
8888 1475 8000 400 check 
total pot: 2200 
/inquire 
recv from player 8888: check
send inquire msg to player 6666 
inquire/ 
8888 1375 8000 500 call 
2222 1700 8000 0 fold 
3333 1950 8000 0 fold 
4444 1000 8000 400 fold 
7777 1200 8000 300 fold 
1111 1600 8000 200 fold 
5555 1375 8000 500 raise 
6666 3500 8000 400 check 
total pot: 2300 
/inquire 
recv from player 6666: check

---show down---
showdown/ 
common/ 
HEARTS A 
SPADES 2 
SPADES 4 
DIAMONDS 3 
SPADES 8 
/common 
2: 8888 DIAMONDS A HEARTS 9 ONE_PAIR 
1: 6666 CLUBS Q CLUBS 5 STRAIGHT 
3: 5555 DIAMONDS 7 SPADES 9 HIGH_CARD 
/showdown 

---Allocate pot---
pot-win/ 
6666: 2400 
/pot-win 
it is player 8888's turn to be button

-----4 Hand-----
seat/ 
button: 8888 1375 8000 
small blind: 6666 5800 8000 
big blind: 5555 1375 8000 
1111 1600 8000 
7777 1200 8000 
4444 1000 8000 
3333 1950 8000 
2222 1700 8000 
/seat 
blind/ 
6666: 50 
5555: 100 
/blind 
player 6666:hold/ 
HEARTS 10 
CLUBS 8 
/hold 
player 5555:hold/ 
DIAMONDS Q 
SPADES A 
/hold 
player 1111:hold/ 
CLUBS 7 
DIAMONDS 10 
/hold 
player 7777:hold/ 
CLUBS Q 
HEARTS K 
/hold 
player 4444:hold/ 
CLUBS A 
HEARTS 2 
/hold 
player 3333:hold/ 
DIAMONDS 9 
SPADES 4 
/hold 
player 2222:hold/ 
CLUBS 6 
HEARTS 9 
/hold 
player 8888:hold/ 
CLUBS 2 
SPADES 6 
/hold 

---pre flop round bet---
valid player: 8, all in player: 0, fold player: 0
send inquire msg to player 1111 
inquire/ 
5555 1275 8000 100 blind 
6666 5750 8000 50 blind 
total pot: 150 
/inquire 
recv from player 1111: check
send inquire msg to player 7777 
inquire/ 
1111 1500 8000 100 call 
5555 1275 8000 100 blind 
6666 5750 8000 50 blind 
total pot: 250 
/inquire 
recv from player 7777: check
send inquire msg to player 4444 
inquire/ 
7777 1100 8000 100 call 
1111 1500 8000 100 call 
5555 1275 8000 100 blind 
6666 5750 8000 50 blind 
total pot: 350 
/inquire 
recv from player 4444: check
send inquire msg to player 3333 
inquire/ 
4444 900 8000 100 call 
7777 1100 8000 100 call 
1111 1500 8000 100 call 
5555 1275 8000 100 blind 
6666 5750 8000 50 blind 
total pot: 450 
/inquire 
recv from player 3333: fold
send inquire msg to player 2222 
inquire/ 
3333 1950 8000 0 fold 
4444 900 8000 100 call 
7777 1100 8000 100 call 
1111 1500 8000 100 call 
5555 1275 8000 100 blind 
6666 5750 8000 50 blind 
total pot: 450 
/inquire 
recv from player 2222: fold
send inquire msg to player 8888 
inquire/ 
2222 1700 8000 0 fold 
3333 1950 8000 0 fold 
4444 900 8000 100 call 
7777 1100 8000 100 call 
1111 1500 8000 100 call 
5555 1275 8000 100 blind 
6666 5750 8000 50 blind 
total pot: 450 
/inquire 
recv from player 8888: check
send inquire msg to player 6666 
inquire/ 
8888 1275 8000 100 call 
2222 1700 8000 0 fold 
3333 1950 8000 0 fold 
4444 900 8000 100 call 
7777 1100 8000 100 call 
1111 1500 8000 100 call 
5555 1275 8000 100 blind 
6666 5750 8000 50 blind 
total pot: 550 
/inquire 
recv from player 6666: check
send inquire msg to player 5555 
inquire/ 
6666 5700 8000 100 call 
8888 1275 8000 100 call 
2222 1700 8000 0 fold 
3333 1950 8000 0 fold 
4444 900 8000 100 call 
7777 1100 8000 100 call 
1111 1500 8000 100 call 
5555 1275 8000 100 blind 
total pot: 600 
/inquire 
recv from player 5555: check
flop/ 
DIAMONDS 3 
CLUBS K 
HEARTS Q 
/flop 

---flop round bet---
valid player: 8, all in player: 0, fold player: 2
send inquire msg to player 6666 
inquire/ 
8888 1275 8000 100 call 
2222 1700 8000 0 fold 
3333 1950 8000 0 fold 
4444 900 8000 100 call 
7777 1100 8000 100 call 
1111 1500 8000 100 call 
5555 1275 8000 100 check 
6666 5700 8000 100 call 
total pot: 600 
/inquire 
recv from player 6666: check
send inquire msg to player 5555 
inquire/ 
6666 5700 8000 100 check 
8888 1275 8000 100 call 
2222 1700 8000 0 fold 
3333 1950 8000 0 fold 
4444 900 8000 100 call 
7777 1100 8000 100 call 
1111 1500 8000 100 call 
5555 1275 8000 100 check 
total pot: 600 
/inquire 
recv from player 5555: check
send inquire msg to player 1111 
inquire/ 
5555 1275 8000 100 check 
6666 5700 8000 100 check 
8888 1275 8000 100 call 
2222 1700 8000 0 fold 
3333 1950 8000 0 fold 
4444 900 8000 100 call 
7777 1100 8000 100 call 
1111 1500 8000 100 call 
total pot: 600 
/inquire 
recv from player 1111: fold
send inquire msg to player 7777 
inquire/ 
1111 1500 8000 100 fold 
5555 1275 8000 100 check 
6666 5700 8000 100 check 
8888 1275 8000 100 call 
2222 1700 8000 0 fold 
3333 1950 8000 0 fold 
4444 900 8000 100 call 
7777 1100 8000 100 call 
total pot: 600 
/inquire 
recv from player 7777: fold
send inquire msg to player 4444 
inquire/ 
7777 1100 8000 100 fold 
1111 1500 8000 100 fold 
5555 1275 8000 100 check 
6666 5700 8000 100 check 
8888 1275 8000 100 call 
2222 1700 8000 0 fold 
3333 1950 8000 0 fold 
4444 900 8000 100 call 
total pot: 600 
/inquire 
recv from player 4444: check
send inquire msg to player 8888 
inquire/ 
2222 1700 8000 0 fold 
3333 1950 8000 0 fold 
4444 900 8000 100 check 
7777 1100 8000 100 fold 
1111 1500 8000 100 fold 
5555 1275 8000 100 check 
6666 5700 8000 100 check 
8888 1275 8000 100 call 
total pot: 600 
/inquire 
recv from player 8888: check
turn/ 
SPADES 8 
/turn 

---turn round bet---
valid player: 8, all in player: 0, fold player: 4
send inquire msg to player 6666 
inquire/ 
8888 1275 8000 100 check 
2222 1700 8000 0 fold 
3333 1950 8000 0 fold 
4444 900 8000 100 check 
7777 1100 8000 100 fold 
1111 1500 8000 100 fold 
5555 1275 8000 100 check 
6666 5700 8000 100 check 
total pot: 600 
/inquire 
recv from player 6666: check
send inquire msg to player 5555 
inquire/ 
6666 5700 8000 100 check 
8888 1275 8000 100 check 
2222 1700 8000 0 fold 
3333 1950 8000 0 fold 
4444 900 8000 100 check 
7777 1100 8000 100 fold 
1111 1500 8000 100 fold 
5555 1275 8000 100 check 
total pot: 600 
/inquire 
recv from player 5555: check
send inquire msg to player 4444 
inquire/ 
7777 1100 8000 100 fold 
1111 1500 8000 100 fold 
5555 1275 8000 100 check 
6666 5700 8000 100 check 
8888 1275 8000 100 check 
2222 1700 8000 0 fold 
3333 1950 8000 0 fold 
4444 900 8000 100 check 
total pot: 600 
/inquire 
recv from player 4444: check
send inquire msg to player 8888 
inquire/ 
2222 1700 8000 0 fold 
3333 1950 8000 0 fold 
4444 900 8000 100 check 
7777 1100 8000 100 fold 
1111 1500 8000 100 fold 
5555 1275 8000 100 check 
6666 5700 8000 100 check 
8888 1275 8000 100 check 
total pot: 600 
/inquire 
recv from player 8888: check
river/ 
CLUBS 5 
/river 

---river round bet---
valid player: 8, all in player: 0, fold player: 4
send inquire msg to player 6666 
inquire/ 
8888 1275 8000 100 check 
2222 1700 8000 0 fold 
3333 1950 8000 0 fold 
4444 900 8000 100 check 
7777 1100 8000 100 fold 
1111 1500 8000 100 fold 
5555 1275 8000 100 check 
6666 5700 8000 100 check 
total pot: 600 
/inquire 
recv from player 6666: check
send inquire msg to player 5555 
inquire/ 
6666 5700 8000 100 check 
8888 1275 8000 100 check 
2222 1700 8000 0 fold 
3333 1950 8000 0 fold 
4444 900 8000 100 check 
7777 1100 8000 100 fold 
1111 1500 8000 100 fold 
5555 1275 8000 100 check 
total pot: 600 
/inquire 
recv from player 5555: check
send inquire msg to player 4444 
inquire/ 
7777 1100 8000 100 fold 
1111 1500 8000 100 fold 
5555 1275 8000 100 check 
6666 5700 8000 100 check 
8888 1275 8000 100 check 
2222 1700 8000 0 fold 
3333 1950 8000 0 fold 
4444 900 8000 100 check 
total pot: 600 
/inquire 
recv from player 4444: check
send inquire msg to player 8888 
inquire/ 
2222 1700 8000 0 fold 
3333 1950 8000 0 fold 
4444 900 8000 100 check 
7777 1100 8000 100 fold 
1111 1500 8000 100 fold 
5555 1275 8000 100 check 
6666 5700 8000 100 check 
8888 1275 8000 100 check 
total pot: 600 
/inquire 
recv from player 8888: check

---show down---
showdown/ 
common/ 
DIAMONDS 3 
CLUBS K 
HEARTS Q 
SPADES 8 
CLUBS 5 
/common 
2: 6666 HEARTS 10 CLUBS 8 ONE_PAIR 
1: 5555 DIAMONDS Q SPADES A ONE_PAIR 
3: 4444 CLUBS A HEARTS 2 HIGH_CARD 
4: 8888 CLUBS 2 SPADES 6 HIGH_CARD 
/showdown 

---Allocate pot---
pot-win/ 
5555: 600 
/pot-win 
it is player 6666's turn to be button

-----5 Hand-----
seat/ 
button: 6666 5700 8000 
small blind: 5555 1875 8000 
big blind: 1111 1500 8000 
7777 1100 8000 
4444 900 8000 
3333 1950 8000 
2222 1700 8000 
8888 1275 8000 
/seat 
blind/ 
5555: 50 
1111: 100 
/blind 
player 5555:hold/ 
DIAMONDS 3 
SPADES K 
/hold 
player 1111:hold/ 
HEARTS 8 
CLUBS 4 
/hold 
player 7777:hold/ 
CLUBS 7 
DIAMONDS J 
/hold 
player 4444:hold/ 
CLUBS 2 
SPADES J 
/hold 
player 3333:hold/ 
HEARTS 6 
DIAMONDS 9 
/hold 
player 2222:hold/ 
SPADES 3 
SPADES 5 
/hold 
player 8888:hold/ 
CLUBS 3 
CLUBS 10 
/hold 
player 6666:hold/ 
HEARTS 2 
CLUBS J 
/hold 

---pre flop round bet---
valid player: 8, all in player: 0, fold player: 0
send inquire msg to player 7777 
inquire/ 
1111 1400 8000 100 blind 
5555 1825 8000 50 blind 
total pot: 150 
/inquire 
recv from player 7777: check
send inquire msg to player 4444 
inquire/ 
7777 1000 8000 100 call 
1111 1400 8000 100 blind 
5555 1825 8000 50 blind 
total pot: 250 
/inquire 
recv from player 4444: check
send inquire msg to player 3333 
inquire/ 
4444 800 8000 100 call 
7777 1000 8000 100 call 
1111 1400 8000 100 blind 
5555 1825 8000 50 blind 
total pot: 350 
/inquire 
recv from player 3333: fold
send inquire msg to player 2222 
inquire/ 
3333 1950 8000 0 fold 
4444 800 8000 100 call 
7777 1000 8000 100 call 
1111 1400 8000 100 blind 
5555 1825 8000 50 blind 
total pot: 350 
/inquire 
recv from player 2222: fold
send inquire msg to player 8888 
inquire/ 
2222 1700 8000 0 fold 
3333 1950 8000 0 fold 
4444 800 8000 100 call 
7777 1000 8000 100 call 
1111 1400 8000 100 blind 
5555 1825 8000 50 blind 
total pot: 350 
/inquire 
recv from player 8888: check
send inquire msg to player 6666 
inquire/ 
8888 1175 8000 100 call 
2222 1700 8000 0 fold 
3333 1950 8000 0 fold 
4444 800 8000 100 call 
7777 1000 8000 100 call 
1111 1400 8000 100 blind 
5555 1825 8000 50 blind 
total pot: 450 
/inquire 
recv from player 6666: check
send inquire msg to player 5555 
inquire/ 
6666 5600 8000 100 call 
8888 1175 8000 100 call 
2222 1700 8000 0 fold 
3333 1950 8000 0 fold 
4444 800 8000 100 call 
7777 1000 8000 100 call 
1111 1400 8000 100 blind 
5555 1825 8000 50 blind 
total pot: 550 
/inquire 
recv from player 5555: raise 0
send inquire msg to player 1111 
inquire/ 
5555 1675 8000 200 raise 
6666 5600 8000 100 call 
8888 1175 8000 100 call 
2222 1700 8000 0 fold 
3333 1950 8000 0 fold 
4444 800 8000 100 call 
7777 1000 8000 100 call 
1111 1400 8000 100 blind 
total pot: 700 
/inquire 
recv from player 1111: fold
send inquire msg to player 7777 
inquire/ 
1111 1400 8000 100 fold 
5555 1675 8000 200 raise 
6666 5600 8000 100 call 
8888 1175 8000 100 call 
2222 1700 8000 0 fold 
3333 1950 8000 0 fold 
4444 800 8000 100 call 
7777 1000 8000 100 call 
total pot: 700 
/inquire 
recv from player 7777: check
send inquire msg to player 4444 
inquire/ 
7777 900 8000 200 call 
1111 1400 8000 100 fold 
5555 1675 8000 200 raise 
6666 5600 8000 100 call 
8888 1175 8000 100 call 
2222 1700 8000 0 fold 
3333 1950 8000 0 fold 
4444 800 8000 100 call 
total pot: 800 
/inquire 
recv from player 4444: check
send inquire msg to player 8888 
inquire/ 
2222 1700 8000 0 fold 
3333 1950 8000 0 fold 
4444 700 8000 200 call 
7777 900 8000 200 call 
1111 1400 8000 100 fold 
5555 1675 8000 200 raise 
6666 5600 8000 100 call 
8888 1175 8000 100 call 
total pot: 900 
/inquire 
recv from player 8888: check
send inquire msg to player 6666 
inquire/ 
8888 1075 8000 200 call 
2222 1700 8000 0 fold 
3333 1950 8000 0 fold 
4444 700 8000 200 call 
7777 900 8000 200 call 
1111 1400 8000 100 fold 
5555 1675 8000 200 raise 
6666 5600 8000 100 call 
total pot: 1000 
/inquire 
recv from player 6666: check
flop/ 
DIAMONDS 10 
CLUBS Q 
DIAMONDS 6 
/flop 

---flop round bet---
valid player: 8, all in player: 0, fold player: 3
send inquire msg to player 5555 
inquire/ 
6666 5500 8000 200 call 
8888 1075 8000 200 call 
2222 1700 8000 0 fold 
3333 1950 8000 0 fold 
4444 700 8000 200 call 
7777 900 8000 200 call 
1111 1400 8000 100 fold 
5555 1675 8000 200 raise 
total pot: 1100 
/inquire 
recv from player 5555: check
send inquire msg to player 7777 
inquire/ 
1111 1400 8000 100 fold 
5555 1675 8000 200 check 
6666 5500 8000 200 call 
8888 1075 8000 200 call 
2222 1700 8000 0 fold 
3333 1950 8000 0 fold 
4444 700 8000 200 call 
7777 900 8000 200 call 
total pot: 1100 
/inquire 
recv from player 7777: fold
send inquire msg to player 4444 
inquire/ 
7777 900 8000 200 fold 
1111 1400 8000 100 fold 
5555 1675 8000 200 check 
6666 5500 8000 200 call 
8888 1075 8000 200 call 
2222 1700 8000 0 fold 
3333 1950 8000 0 fold 
4444 700 8000 200 call 
total pot: 1100 
/inquire 
recv from player 4444: check
send inquire msg to player 8888 
inquire/ 
2222 1700 8000 0 fold 
3333 1950 8000 0 fold 
4444 700 8000 200 check 
7777 900 8000 200 fold 
1111 1400 8000 100 fold 
5555 1675 8000 200 check 
6666 5500 8000 200 call 
8888 1075 8000 200 call 
total pot: 1100 
/inquire 
recv from player 8888: check
send inquire msg to player 6666 
inquire/ 
8888 1075 8000 200 check 
2222 1700 8000 0 fold 
3333 1950 8000 0 fold 
4444 700 8000 200 check 
7777 900 8000 200 fold 
1111 1400 8000 100 fold 
5555 1675 8000 200 check 
6666 5500 8000 200 call 
total pot: 1100 
/inquire 
recv from player 6666: check
turn/ 
HEARTS 10 
/turn 

---turn round bet---
valid player: 8, all in player: 0, fold player: 4
send inquire msg to player 5555 
inquire/ 
6666 5500 8000 200 check 
8888 1075 8000 200 check 
2222 1700 8000 0 fold 
3333 1950 8000 0 fold 
4444 700 8000 200 check 
7777 900 8000 200 fold 
1111 1400 8000 100 fold 
5555 1675 8000 200 check 
total pot: 1100 
/inquire 
recv from player 5555: check
send inquire msg to player 4444 
inquire/ 
7777 900 8000 200 fold 
1111 1400 8000 100 fold 
5555 1675 8000 200 check 
6666 5500 8000 200 check 
8888 1075 8000 200 check 
2222 1700 8000 0 fold 
3333 1950 8000 0 fold 
4444 700 8000 200 check 
total pot: 1100 
/inquire 
recv from player 4444: check
send inquire msg to player 8888 
inquire/ 
2222 1700 8000 0 fold 
3333 1950 8000 0 fold 
4444 700 8000 200 check 
7777 900 8000 200 fold 
1111 1400 8000 100 fold 
5555 1675 8000 200 check 
6666 5500 8000 200 check 
8888 1075 8000 200 check 
total pot: 1100 
/inquire 
recv from player 8888: check
send inquire msg to player 6666 
inquire/ 
8888 1075 8000 200 check 
2222 1700 8000 0 fold 
3333 1950 8000 0 fold 
4444 700 8000 200 check 
7777 900 8000 200 fold 
1111 1400 8000 100 fold 
5555 1675 8000 200 check 
6666 5500 8000 200 check 
total pot: 1100 
/inquire 
recv from player 6666: check
river/ 
CLUBS 6 
/river 

---river round bet---
valid player: 8, all in player: 0, fold player: 4
send inquire msg to player 5555 
inquire/ 
6666 5500 8000 200 check 
8888 1075 8000 200 check 
2222 1700 8000 0 fold 
3333 1950 8000 0 fold 
4444 700 8000 200 check 
7777 900 8000 200 fold 
1111 1400 8000 100 fold 
5555 1675 8000 200 check 
total pot: 1100 
/inquire 
recv from player 5555: check
send inquire msg to player 4444 
inquire/ 
7777 900 8000 200 fold 
1111 1400 8000 100 fold 
5555 1675 8000 200 check 
6666 5500 8000 200 check 
8888 1075 8000 200 check 
2222 1700 8000 0 fold 
3333 1950 8000 0 fold 
4444 700 8000 200 check 
total pot: 1100 
/inquire 
recv from player 4444: check
send inquire msg to player 8888 
inquire/ 
2222 1700 8000 0 fold 
3333 1950 8000 0 fold 
4444 700 8000 200 check 
7777 900 8000 200 fold 
1111 1400 8000 100 fold 
5555 1675 8000 200 check 
6666 5500 8000 200 check 
8888 1075 8000 200 check 
total pot: 1100 
/inquire 
recv from player 8888: check
send inquire msg to player 6666 
inquire/ 
8888 1075 8000 200 check 
2222 1700 8000 0 fold 
3333 1950 8000 0 fold 
4444 700 8000 200 check 
7777 900 8000 200 fold 
1111 1400 8000 100 fold 
5555 1675 8000 200 check 
6666 5500 8000 200 check 
total pot: 1100 
/inquire 
recv from player 6666: check

---show down---
showdown/ 
common/ 
DIAMONDS 10 
CLUBS Q 
DIAMONDS 6 
HEARTS 10 
CLUBS 6 
/common 
2: 5555 DIAMONDS 3 SPADES K TWO_PAIR 
3: 4444 CLUBS 2 SPADES J TWO_PAIR 
1: 8888 CLUBS 3 CLUBS 10 FULL_HOUSE 
3: 6666 HEARTS 2 CLUBS J TWO_PAIR 
/showdown 

---Allocate pot---
pot-win/ 
8888: 1100 
/pot-win 
it is player 5555's turn to be button

-----6 Hand-----
seat/ 
button: 5555 1675 8000 
small blind: 1111 1400 8000 
big blind: 7777 900 8000 
4444 700 8000 
3333 1950 8000 
2222 1700 8000 
8888 2175 8000 
6666 5500 8000 
/seat 
blind/ 
1111: 50 
7777: 100 
/blind 
player 1111:hold/ 
DIAMONDS 2 
SPADES K 
/hold 
player 7777:hold/ 
DIAMONDS 10 
CLUBS 8 
/hold 
player 4444:hold/ 
DIAMONDS J 
CLUBS K 
/hold 
player 3333:hold/ 
CLUBS 5 
CLUBS 6 
/hold 
player 2222:hold/ 
HEARTS Q 
DIAMONDS 9 
/hold 
player 8888:hold/ 
DIAMONDS 8 
HEARTS 9 
/hold 
player 6666:hold/ 
CLUBS 4 
SPADES J 
/hold 
player 5555:hold/ 
CLUBS 3 
DIAMONDS Q 
/hold 

---pre flop round bet---
valid player: 8, all in player: 0, fold player: 0
send inquire msg to player 4444 
inquire/ 
7777 800 8000 100 blind 
1111 1350 8000 50 blind 
total pot: 150 
/inquire 
recv from player 4444: check
send inquire msg to player 3333 
inquire/ 
4444 600 8000 100 call 
7777 800 8000 100 blind 
1111 1350 8000 50 blind 
total pot: 250 
/inquire 
recv from player 3333: fold
send inquire msg to player 2222 
inquire/ 
3333 1950 8000 0 fold 
4444 600 8000 100 call 
7777 800 8000 100 blind 
1111 1350 8000 50 blind 
total pot: 250 
/inquire 
recv from player 2222: fold
send inquire msg to player 8888 
inquire/ 
2222 1700 8000 0 fold 
3333 1950 8000 0 fold 
4444 600 8000 100 call 
7777 800 8000 100 blind 
1111 1350 8000 50 blind 
total pot: 250 
/inquire 
recv from player 8888: check
send inquire msg to player 6666 
inquire/ 
8888 2075 8000 100 call 
2222 1700 8000 0 fold 
3333 1950 8000 0 fold 
4444 600 8000 100 call 
7777 800 8000 100 blind 
1111 1350 8000 50 blind 
total pot: 350 
/inquire 
recv from player 6666: check
send inquire msg to player 5555 
inquire/ 
6666 5400 8000 100 call 
8888 2075 8000 100 call 
2222 1700 8000 0 fold 
3333 1950 8000 0 fold 
4444 600 8000 100 call 
7777 800 8000 100 blind 
1111 1350 8000 50 blind 
total pot: 450 
/inquire 
recv from player 5555: check
send inquire msg to player 1111 
inquire/ 
5555 1575 8000 100 call 
6666 5400 8000 100 call 
8888 2075 8000 100 call 
2222 1700 8000 0 fold 
3333 1950 8000 0 fold 
4444 600 8000 100 call 
7777 800 8000 100 blind 
1111 1350 8000 50 blind 
total pot: 550 
/inquire 
recv from player 1111: fold
send inquire msg to player 7777 
inquire/ 
1111 1350 8000 50 fold 
5555 1575 8000 100 call 
6666 5400 8000 100 call 
8888 2075 8000 100 call 
2222 1700 8000 0 fold 
3333 1950 8000 0 fold 
4444 600 8000 100 call 
7777 800 8000 100 blind 
total pot: 550 
/inquire 
recv from player 7777: check
flop/ 
HEARTS 8 
CLUBS 10 
CLUBS A 
/flop 

---flop round bet---
valid player: 8, all in player: 0, fold player: 3
send inquire msg to player 7777 
inquire/ 
1111 1350 8000 50 fold 
5555 1575 8000 100 call 
6666 5400 8000 100 call 
8888 2075 8000 100 call 
2222 1700 8000 0 fold 
3333 1950 8000 0 fold 
4444 600 8000 100 call 
7777 800 8000 100 check 
total pot: 550 
/inquire 
recv from player 7777: fold
send inquire msg to player 4444 
inquire/ 
7777 800 8000 100 fold 
1111 1350 8000 50 fold 
5555 1575 8000 100 call 
6666 5400 8000 100 call 
8888 2075 8000 100 call 
2222 1700 8000 0 fold 
3333 1950 8000 0 fold 
4444 600 8000 100 call 
total pot: 550 
/inquire 
recv from player 4444: check
send inquire msg to player 8888 
inquire/ 
2222 1700 8000 0 fold 
3333 1950 8000 0 fold 
4444 600 8000 100 check 
7777 800 8000 100 fold 
1111 1350 8000 50 fold 
5555 1575 8000 100 call 
6666 5400 8000 100 call 
8888 2075 8000 100 call 
total pot: 550 
/inquire 
recv from player 8888: check
send inquire msg to player 6666 
inquire/ 
8888 2075 8000 100 check 
2222 1700 8000 0 fold 
3333 1950 8000 0 fold 
4444 600 8000 100 check 
7777 800 8000 100 fold 
1111 1350 8000 50 fold 
5555 1575 8000 100 call 
6666 5400 8000 100 call 
total pot: 550 
/inquire 
recv from player 6666: check
send inquire msg to player 5555 
inquire/ 
6666 5400 8000 100 check 
8888 2075 8000 100 check 
2222 1700 8000 0 fold 
3333 1950 8000 0 fold 
4444 600 8000 100 check 
7777 800 8000 100 fold 
1111 1350 8000 50 fold 
5555 1575 8000 100 call 
total pot: 550 
/inquire 
recv from player 5555: check
turn/ 
DIAMONDS K 
/turn 

---turn round bet---
valid player: 8, all in player: 0, fold player: 4
send inquire msg to player 4444 
inquire/ 
7777 800 8000 100 fold 
1111 1350 8000 50 fold 
5555 1575 8000 100 check 
6666 5400 8000 100 check 
8888 2075 8000 100 check 
2222 1700 8000 0 fold 
3333 1950 8000 0 fold 
4444 600 8000 100 check 
total pot: 550 
/inquire 
recv from player 4444: check
send inquire msg to player 8888 
inquire/ 
2222 1700 8000 0 fold 
3333 1950 8000 0 fold 
4444 600 8000 100 check 
7777 800 8000 100 fold 
1111 1350 8000 50 fold 
5555 1575 8000 100 check 
6666 5400 8000 100 check 
8888 2075 8000 100 check 
total pot: 550 
/inquire 
recv from player 8888: check
send inquire msg to player 6666 
inquire/ 
8888 2075 8000 100 check 
2222 1700 8000 0 fold 
3333 1950 8000 0 fold 
4444 600 8000 100 check 
7777 800 8000 100 fold 
1111 1350 8000 50 fold 
5555 1575 8000 100 check 
6666 5400 8000 100 check 
total pot: 550 
/inquire 
recv from player 6666: check
send inquire msg to player 5555 
inquire/ 
6666 5400 8000 100 check 
8888 2075 8000 100 check 
2222 1700 8000 0 fold 
3333 1950 8000 0 fold 
4444 600 8000 100 check 
7777 800 8000 100 fold 
1111 1350 8000 50 fold 
5555 1575 8000 100 check 
total pot: 550 
/inquire 
recv from player 5555: check
river/ 
HEARTS 10 
/river 

---river round bet---
valid player: 8, all in player: 0, fold player: 4
send inquire msg to player 4444 
inquire/ 
7777 800 8000 100 fold 
1111 1350 8000 50 fold 
5555 1575 8000 100 check 
6666 5400 8000 100 check 
8888 2075 8000 100 check 
2222 1700 8000 0 fold 
3333 1950 8000 0 fold 
4444 600 8000 100 check 
total pot: 550 
/inquire 
recv from player 4444: check
send inquire msg to player 8888 
inquire/ 
2222 1700 8000 0 fold 
3333 1950 8000 0 fold 
4444 600 8000 100 check 
7777 800 8000 100 fold 
1111 1350 8000 50 fold 
5555 1575 8000 100 check 
6666 5400 8000 100 check 
8888 2075 8000 100 check 
total pot: 550 
/inquire 
recv from player 8888: check
send inquire msg to player 6666 
inquire/ 
8888 2075 8000 100 check 
2222 1700 8000 0 fold 
3333 1950 8000 0 fold 
4444 600 8000 100 check 
7777 800 8000 100 fold 
1111 1350 8000 50 fold 
5555 1575 8000 100 check 
6666 5400 8000 100 check 
total pot: 550 
/inquire 
recv from player 6666: check
send inquire msg to player 5555 
inquire/ 
6666 5400 8000 100 check 
8888 2075 8000 100 check 
2222 1700 8000 0 fold 
3333 1950 8000 0 fold 
4444 600 8000 100 check 
7777 800 8000 100 fold 
1111 1350 8000 50 fold 
5555 1575 8000 100 check 
total pot: 550 
/inquire 
recv from player 5555: check

---show down---
showdown/ 
common/ 
HEARTS 8 
CLUBS 10 
CLUBS A 
DIAMONDS K 
HEARTS 10 
/common 
1: 4444 DIAMONDS J CLUBS K TWO_PAIR 
2: 8888 DIAMONDS 8 HEARTS 9 TWO_PAIR 
4: 6666 CLUBS 4 SPADES J ONE_PAIR 
3: 5555 CLUBS 3 DIAMONDS Q ONE_PAIR 
/showdown 

---Allocate pot---
pot-win/ 
4444: 550 
/pot-win 
it is player 1111's turn to be button

-----7 Hand-----
seat/ 
button: 1111 1350 8000 
small blind: 7777 800 8000 
big blind: 4444 1150 8000 
3333 1950 8000 
2222 1700 8000 
8888 2075 8000 
6666 5400 8000 
5555 1575 8000 
/seat 
blind/ 
7777: 50 
4444: 100 
/blind 
player 7777:hold/ 
CLUBS J 
SPADES 3 
/hold 
player 4444:hold/ 
CLUBS 9 
SPADES 8 
/hold 
player 3333:hold/ 
HEARTS K 
HEARTS 3 
/hold 
player 2222:hold/ 
HEARTS 6 
SPADES Q 
/hold 
player 8888:hold/ 
HEARTS A 
SPADES 7 
/hold 
player 6666:hold/ 
DIAMONDS 6 
CLUBS A 
/hold 
player 5555:hold/ 
DIAMONDS 8 
HEARTS 4 
/hold 
player 1111:hold/ 
CLUBS 7 
DIAMONDS 2 
/hold 

---pre flop round bet---
valid player: 8, all in player: 0, fold player: 0
send inquire msg to player 3333 
inquire/ 
4444 1050 8000 100 blind 
7777 750 8000 50 blind 
total pot: 150 
/inquire 
recv from player 3333: fold
send inquire msg to player 2222 
inquire/ 
3333 1950 8000 0 fold 
4444 1050 8000 100 blind 
7777 750 8000 50 blind 
total pot: 150 
/inquire 
recv from player 2222: check
send inquire msg to player 8888 
inquire/ 
2222 1600 8000 100 call 
3333 1950 8000 0 fold 
4444 1050 8000 100 blind 
7777 750 8000 50 blind 
total pot: 250 
/inquire 
recv from player 8888: check
send inquire msg to player 6666 
inquire/ 
8888 1975 8000 100 call 
2222 1600 8000 100 call 
3333 1950 8000 0 fold 
4444 1050 8000 100 blind 
7777 750 8000 50 blind 
total pot: 350 
/inquire 
recv from player 6666: check
send inquire msg to player 5555 
inquire/ 
6666 5300 8000 100 call 
8888 1975 8000 100 call 
2222 1600 8000 100 call 
3333 1950 8000 0 fold 
4444 1050 8000 100 blind 
7777 750 8000 50 blind 
total pot: 450 
/inquire 
recv from player 5555: raise 0
send inquire msg to player 1111 
inquire/ 
5555 1375 8000 200 raise 
6666 5300 8000 100 call 
8888 1975 8000 100 call 
2222 1600 8000 100 call 
3333 1950 8000 0 fold 
4444 1050 8000 100 blind 
7777 750 8000 50 blind 
total pot: 650 
/inquire 
recv from player 1111: raise 0
send inquire msg to player 7777 
inquire/ 
1111 1050 8000 300 raise 
5555 1375 8000 200 raise 
6666 5300 8000 100 call 
8888 1975 8000 100 call 
2222 1600 8000 100 call 
3333 1950 8000 0 fold 
4444 1050 8000 100 blind 
7777 750 8000 50 blind 
total pot: 950 
/inquire 
recv from player 7777: check
send inquire msg to player 4444 
inquire/ 
7777 500 8000 300 call 
1111 1050 8000 300 raise 
5555 1375 8000 200 raise 
6666 5300 8000 100 call 
8888 1975 8000 100 call 
2222 1600 8000 100 call 
3333 1950 8000 0 fold 
4444 1050 8000 100 blind 
total pot: 1200 
/inquire 
recv from player 4444: check
send inquire msg to player 2222 
inquire/ 
3333 1950 8000 0 fold 
4444 850 8000 300 call 
7777 500 8000 300 call 
1111 1050 8000 300 raise 
5555 1375 8000 200 raise 
6666 5300 8000 100 call 
8888 1975 8000 100 call 
2222 1600 8000 100 call 
total pot: 1400 
/inquire 
recv from player 2222: fold
send inquire msg to player 8888 
inquire/ 
2222 1600 8000 100 fold 
3333 1950 8000 0 fold 
4444 850 8000 300 call 
7777 500 8000 300 call 
1111 1050 8000 300 raise 
5555 1375 8000 200 raise 
6666 5300 8000 100 call 
8888 1975 8000 100 call 
total pot: 1400 
/inquire 
recv from player 8888: check
send inquire msg to player 6666 
inquire/ 
8888 1775 8000 300 call 
2222 1600 8000 100 fold 
3333 1950 8000 0 fold 
4444 850 8000 300 call 
7777 500 8000 300 call 
1111 1050 8000 300 raise 
5555 1375 8000 200 raise 
6666 5300 8000 100 call 
total pot: 1600 
/inquire 
recv from player 6666: check
send inquire msg to player 5555 
inquire/ 
6666 5100 8000 300 call 
8888 1775 8000 300 call 
2222 1600 8000 100 fold 
3333 1950 8000 0 fold 
4444 850 8000 300 call 
7777 500 8000 300 call 
1111 1050 8000 300 raise 
5555 1375 8000 200 raise 
total pot: 1800 
/inquire 
recv from player 5555: check
flop/ 
SPADES A 
HEARTS 9 
CLUBS 8 
/flop 

---flop round bet---
valid player: 8, all in player: 0, fold player: 2
send inquire msg to player 7777 
inquire/ 
1111 1050 8000 300 raise 
5555 1275 8000 300 call 
6666 5100 8000 300 call 
8888 1775 8000 300 call 
2222 1600 8000 100 fold 
3333 1950 8000 0 fold 
4444 850 8000 300 call 
7777 500 8000 300 call 
total pot: 1900 
/inquire 
recv from player 7777: fold
send inquire msg to player 4444 
inquire/ 
7777 500 8000 300 fold 
1111 1050 8000 300 raise 
5555 1275 8000 300 call 
6666 5100 8000 300 call 
8888 1775 8000 300 call 
2222 1600 8000 100 fold 
3333 1950 8000 0 fold 
4444 850 8000 300 call 
total pot: 1900 
/inquire 
recv from player 4444: check
send inquire msg to player 8888 
inquire/ 
2222 1600 8000 100 fold 
3333 1950 8000 0 fold 
4444 850 8000 300 check 
7777 500 8000 300 fold 
1111 1050 8000 300 raise 
5555 1275 8000 300 call 
6666 5100 8000 300 call 
8888 1775 8000 300 call 
total pot: 1900 
/inquire 
recv from player 8888: check
send inquire msg to player 6666 
inquire/ 
8888 1775 8000 300 check 
2222 1600 8000 100 fold 
3333 1950 8000 0 fold 
4444 850 8000 300 check 
7777 500 8000 300 fold 
1111 1050 8000 300 raise 
5555 1275 8000 300 call 
6666 5100 8000 300 call 
total pot: 1900 
/inquire 
recv from player 6666: check
send inquire msg to player 5555 
inquire/ 
6666 5100 8000 300 check 
8888 1775 8000 300 check 
2222 1600 8000 100 fold 
3333 1950 8000 0 fold 
4444 850 8000 300 check 
7777 500 8000 300 fold 
1111 1050 8000 300 raise 
5555 1275 8000 300 call 
total pot: 1900 
/inquire 
recv from player 5555: raise 0
send inquire msg to player 1111 
inquire/ 
5555 1175 8000 400 raise 
6666 5100 8000 300 check 
8888 1775 8000 300 check 
2222 1600 8000 100 fold 
3333 1950 8000 0 fold 
4444 850 8000 300 check 
7777 500 8000 300 fold 
1111 1050 8000 300 raise 
total pot: 2000 
/inquire 
recv from player 1111: check
send inquire msg to player 4444 
inquire/ 
7777 500 8000 300 fold 
1111 950 8000 400 call 
5555 1175 8000 400 raise 
6666 5100 8000 300 check 
8888 1775 8000 300 check 
2222 1600 8000 100 fold 
3333 1950 8000 0 fold 
4444 850 8000 300 check 
total pot: 2100 
/inquire 
recv from player 4444: check
send inquire msg to player 8888 
inquire/ 
2222 1600 8000 100 fold 
3333 1950 8000 0 fold 
4444 750 8000 400 call 
7777 500 8000 300 fold 
1111 950 8000 400 call 
5555 1175 8000 400 raise 
6666 5100 8000 300 check 
8888 1775 8000 300 check 
total pot: 2200 
/inquire 
recv from player 8888: check
send inquire msg to player 6666 
inquire/ 
8888 1675 8000 400 call 
2222 1600 8000 100 fold 
3333 1950 8000 0 fold 
4444 750 8000 400 call 
7777 500 8000 300 fold 
1111 950 8000 400 call 
5555 1175 8000 400 raise 
6666 5100 8000 300 check 
total pot: 2300 
/inquire 
recv from player 6666: check
turn/ 
SPADES 5 
/turn 

---turn round bet---
valid player: 8, all in player: 0, fold player: 3
send inquire msg to player 4444 
inquire/ 
7777 500 8000 300 fold 
1111 950 8000 400 call 
5555 1175 8000 400 raise 
6666 5000 8000 400 call 
8888 1675 8000 400 call 
2222 1600 8000 100 fold 
3333 1950 8000 0 fold 
4444 750 8000 400 call 
total pot: 2400 
/inquire 
recv from player 4444: check
send inquire msg to player 8888 
inquire/ 
2222 1600 8000 100 fold 
3333 1950 8000 0 fold 
4444 750 8000 400 check 
7777 500 8000 300 fold 
1111 950 8000 400 call 
5555 1175 8000 400 raise 
6666 5000 8000 400 call 
8888 1675 8000 400 call 
total pot: 2400 
/inquire 
recv from player 8888: check
send inquire msg to player 6666 
inquire/ 
8888 1675 8000 400 check 
2222 1600 8000 100 fold 
3333 1950 8000 0 fold 
4444 750 8000 400 check 
7777 500 8000 300 fold 
1111 950 8000 400 call 
5555 1175 8000 400 raise 
6666 5000 8000 400 call 
total pot: 2400 
/inquire 
recv from player 6666: check
send inquire msg to player 5555 
inquire/ 
6666 5000 8000 400 check 
8888 1675 8000 400 check 
2222 1600 8000 100 fold 
3333 1950 8000 0 fold 
4444 750 8000 400 check 
7777 500 8000 300 fold 
1111 950 8000 400 call 
5555 1175 8000 400 raise 
total pot: 2400 
/inquire 
recv from player 5555: raise 0
send inquire msg to player 1111 
inquire/ 
5555 1075 8000 500 raise 
6666 5000 8000 400 check 
8888 1675 8000 400 check 
2222 1600 8000 100 fold 
3333 1950 8000 0 fold 
4444 750 8000 400 check 
7777 500 8000 300 fold 
1111 950 8000 400 call 
total pot: 2500 
/inquire 
recv from player 1111: fold
send inquire msg to player 4444 
inquire/ 
7777 500 8000 300 fold 
1111 950 8000 400 fold 
5555 1075 8000 500 raise 
6666 5000 8000 400 check 
8888 1675 8000 400 check 
2222 1600 8000 100 fold 
3333 1950 8000 0 fold 
4444 750 8000 400 check 
total pot: 2500 
/inquire 
recv from player 4444: check
send inquire msg to player 8888 
inquire/ 
2222 1600 8000 100 fold 
3333 1950 8000 0 fold 
4444 650 8000 500 call 
7777 500 8000 300 fold 
1111 950 8000 400 fold 
5555 1075 8000 500 raise 
6666 5000 8000 400 check 
8888 1675 8000 400 check 
total pot: 2600 
/inquire 
recv from player 8888: check
send inquire msg to player 6666 
inquire/ 
8888 1575 8000 500 call 
2222 1600 8000 100 fold 
3333 1950 8000 0 fold 
4444 650 8000 500 call 
7777 500 8000 300 fold 
1111 950 8000 400 fold 
5555 1075 8000 500 raise 
6666 5000 8000 400 check 
total pot: 2700 
/inquire 
recv from player 6666: check
river/ 
CLUBS 4 
/river 

---river round bet---
valid player: 8, all in player: 0, fold player: 4
send inquire msg to player 4444 
inquire/ 
7777 500 8000 300 fold 
1111 950 8000 400 fold 
5555 1075 8000 500 raise 
6666 4900 8000 500 call 
8888 1575 8000 500 call 
2222 1600 8000 100 fold 
3333 1950 8000 0 fold 
4444 650 8000 500 call 
total pot: 2800 
/inquire 
recv from player 4444: check
send inquire msg to player 8888 
inquire/ 
2222 1600 8000 100 fold 
3333 1950 8000 0 fold 
4444 650 8000 500 check 
7777 500 8000 300 fold 
1111 950 8000 400 fold 
5555 1075 8000 500 raise 
6666 4900 8000 500 call 
8888 1575 8000 500 call 
total pot: 2800 
/inquire 
recv from player 8888: check
send inquire msg to player 6666 
inquire/ 
8888 1575 8000 500 check 
2222 1600 8000 100 fold 
3333 1950 8000 0 fold 
4444 650 8000 500 check 
7777 500 8000 300 fold 
1111 950 8000 400 fold 
5555 1075 8000 500 raise 
6666 4900 8000 500 call 
total pot: 2800 
/inquire 
recv from player 6666: check
send inquire msg to player 5555 
inquire/ 
6666 4900 8000 500 check 
8888 1575 8000 500 check 
2222 1600 8000 100 fold 
3333 1950 8000 0 fold 
4444 650 8000 500 check 
7777 500 8000 300 fold 
1111 950 8000 400 fold 
5555 1075 8000 500 raise 
total pot: 2800 
/inquire 
recv from player 5555: raise 0
send inquire msg to player 4444 
inquire/ 
7777 500 8000 300 fold 
1111 950 8000 400 fold 
5555 975 8000 600 raise 
6666 4900 8000 500 check 
8888 1575 8000 500 check 
2222 1600 8000 100 fold 
3333 1950 8000 0 fold 
4444 650 8000 500 check 
total pot: 2900 
/inquire 
recv from player 4444: check
send inquire msg to player 8888 
inquire/ 
2222 1600 8000 100 fold 
3333 1950 8000 0 fold 
4444 550 8000 600 call 
7777 500 8000 300 fold 
1111 950 8000 400 fold 
5555 975 8000 600 raise 
6666 4900 8000 500 check 
8888 1575 8000 500 check 
total pot: 3000 
/inquire 
recv from player 8888: check
send inquire msg to player 6666 
inquire/ 
8888 1475 8000 600 call 
2222 1600 8000 100 fold 
3333 1950 8000 0 fold 
4444 550 8000 600 call 
7777 500 8000 300 fold 
1111 950 8000 400 fold 
5555 975 8000 600 raise 
6666 4900 8000 500 check 
total pot: 3100 
/inquire 
recv from player 6666: check

---show down---
showdown/ 
common/ 
SPADES A 
HEARTS 9 
CLUBS 8 
SPADES 5 
CLUBS 4 
/common 
1: 4444 CLUBS 9 SPADES 8 TWO_PAIR 
3: 8888 HEARTS A SPADES 7 ONE_PAIR 
4: 6666 DIAMONDS 6 CLUBS A ONE_PAIR 
2: 5555 DIAMONDS 8 HEARTS 4 TWO_PAIR 
/showdown 

---Allocate pot---
pot-win/ 
4444: 3200 
/pot-win 
it is player 7777's turn to be button

-----8 Hand-----
seat/ 
button: 7777 500 8000 
small blind: 4444 3750 8000 
big blind: 3333 1950 8000 
2222 1600 8000 
8888 1475 8000 
6666 4800 8000 
5555 975 8000 
1111 950 8000 
/seat 
blind/ 
4444: 50 
3333: 100 
/blind 
player 4444:hold/ 
CLUBS 6 
SPADES 3 
/hold 
player 3333:hold/ 
SPADES Q 
DIAMONDS 6 
/hold 
player 2222:hold/ 
DIAMONDS 5 
DIAMONDS 8 
/hold 
player 8888:hold/ 
CLUBS 10 
DIAMONDS 9 
/hold 
player 6666:hold/ 
DIAMONDS 7 
SPADES K 
/hold 
player 5555:hold/ 
CLUBS 3 
HEARTS A 
/hold 
player 1111:hold/ 
DIAMONDS K 
HEARTS 8 
/hold 
player 7777:hold/ 
CLUBS 8 
CLUBS 7 
/hold 

---pre flop round bet---
valid player: 8, all in player: 0, fold player: 0
send inquire msg to player 2222 
inquire/ 
3333 1850 8000 100 blind 
4444 3700 8000 50 blind 
total pot: 150 
/inquire 
recv from player 2222: raise 0
send inquire msg to player 8888 
inquire/ 
2222 1400 8000 200 raise 
3333 1850 8000 100 blind 
4444 3700 8000 50 blind 
total pot: 350 
/inquire 
recv from player 8888: check
send inquire msg to player 6666 
inquire/ 
8888 1275 8000 200 call 
2222 1400 8000 200 raise 
3333 1850 8000 100 blind 
4444 3700 8000 50 blind 
total pot: 550 
/inquire 
recv from player 6666: check
send inquire msg to player 5555 
inquire/ 
6666 4600 8000 200 call 
8888 1275 8000 200 call 
2222 1400 8000 200 raise 
3333 1850 8000 100 blind 
4444 3700 8000 50 blind 
total pot: 750 
/inquire 
recv from player 5555: check
send inquire msg to player 1111 
inquire/ 
5555 775 8000 200 call 
6666 4600 8000 200 call 
8888 1275 8000 200 call 
2222 1400 8000 200 raise 
3333 1850 8000 100 blind 
4444 3700 8000 50 blind 
total pot: 950 
/inquire 
recv from player 1111: raise 0
send inquire msg to player 7777 
inquire/ 
1111 650 8000 300 raise 
5555 775 8000 200 call 
6666 4600 8000 200 call 
8888 1275 8000 200 call 
2222 1400 8000 200 raise 
3333 1850 8000 100 blind 
4444 3700 8000 50 blind 
total pot: 1250 
/inquire 
recv from player 7777: check
send inquire msg to player 4444 
inquire/ 
7777 200 8000 300 call 
1111 650 8000 300 raise 
5555 775 8000 200 call 
6666 4600 8000 200 call 
8888 1275 8000 200 call 
2222 1400 8000 200 raise 
3333 1850 8000 100 blind 
4444 3700 8000 50 blind 
total pot: 1550 
/inquire 
recv from player 4444: check
send inquire msg to player 3333 
inquire/ 
4444 3450 8000 300 call 
7777 200 8000 300 call 
1111 650 8000 300 raise 
5555 775 8000 200 call 
6666 4600 8000 200 call 
8888 1275 8000 200 call 
2222 1400 8000 200 raise 
3333 1850 8000 100 blind 
total pot: 1800 
/inquire 
recv from player 3333: fold
send inquire msg to player 2222 
inquire/ 
3333 1850 8000 100 fold 
4444 3450 8000 300 call 
7777 200 8000 300 call 
1111 650 8000 300 raise 
5555 775 8000 200 call 
6666 4600 8000 200 call 
8888 1275 8000 200 call 
2222 1400 8000 200 raise 
total pot: 1800 
/inquire 
recv from player 2222: fold
send inquire msg to player 8888 
inquire/ 
2222 1400 8000 200 fold 
3333 1850 8000 100 fold 
4444 3450 8000 300 call 
7777 200 8000 300 call 
1111 650 8000 300 raise 
5555 775 8000 200 call 
6666 4600 8000 200 call 
8888 1275 8000 200 call 
total pot: 1800 
/inquire 
recv from player 8888: check
send inquire msg to player 6666 
inquire/ 
8888 1175 8000 300 call 
2222 1400 8000 200 fold 
3333 1850 8000 100 fold 
4444 3450 8000 300 call 
7777 200 8000 300 call 
1111 650 8000 300 raise 
5555 775 8000 200 call 
6666 4600 8000 200 call 
total pot: 1900 
/inquire 
recv from player 6666: check
send inquire msg to player 5555 
inquire/ 
6666 4500 8000 300 call 
8888 1175 8000 300 call 
2222 1400 8000 200 fold 
3333 1850 8000 100 fold 
4444 3450 8000 300 call 
7777 200 8000 300 call 
1111 650 8000 300 raise 
5555 775 8000 200 call 
total pot: 2000 
/inquire 
recv from player 5555: check
flop/ 
HEARTS K 
HEARTS 9 
SPADES 2 
/flop 

---flop round bet---
valid player: 8, all in player: 0, fold player: 2
send inquire msg to player 4444 
inquire/ 
7777 200 8000 300 call 
1111 650 8000 300 raise 
5555 675 8000 300 call 
6666 4500 8000 300 call 
8888 1175 8000 300 call 
2222 1400 8000 200 fold 
3333 1850 8000 100 fold 
4444 3450 8000 300 call 
total pot: 2100 
/inquire 
recv from player 4444: check
send inquire msg to player 8888 
inquire/ 
2222 1400 8000 200 fold 
3333 1850 8000 100 fold 
4444 3450 8000 300 check 
7777 200 8000 300 call 
1111 650 8000 300 raise 
5555 675 8000 300 call 
6666 4500 8000 300 call 
8888 1175 8000 300 call 
total pot: 2100 
/inquire 
recv from player 8888: check
send inquire msg to player 6666 
inquire/ 
8888 1175 8000 300 check 
2222 1400 8000 200 fold 
3333 1850 8000 100 fold 
4444 3450 8000 300 check 
7777 200 8000 300 call 
1111 650 8000 300 raise 
5555 675 8000 300 call 
6666 4500 8000 300 call 
total pot: 2100 
/inquire 
recv from player 6666: check
send inquire msg to player 5555 
inquire/ 
6666 4500 8000 300 check 
8888 1175 8000 300 check 
2222 1400 8000 200 fold 
3333 1850 8000 100 fold 
4444 3450 8000 300 check 
7777 200 8000 300 call 
1111 650 8000 300 raise 
5555 675 8000 300 call 
total pot: 2100 
/inquire 
recv from player 5555: check
send inquire msg to player 1111 
inquire/ 
5555 675 8000 300 check 
6666 4500 8000 300 check 
8888 1175 8000 300 check 
2222 1400 8000 200 fold 
3333 1850 8000 100 fold 
4444 3450 8000 300 check 
7777 200 8000 300 call 
1111 650 8000 300 raise 
total pot: 2100 
/inquire 
recv from player 1111: fold
send inquire msg to player 7777 
inquire/ 
1111 650 8000 300 fold 
5555 675 8000 300 check 
6666 4500 8000 300 check 
8888 1175 8000 300 check 
2222 1400 8000 200 fold 
3333 1850 8000 100 fold 
4444 3450 8000 300 check 
7777 200 8000 300 call 
total pot: 2100 
/inquire 
recv from player 7777: fold
turn/ 
DIAMONDS 10 
/turn 

---turn round bet---
valid player: 8, all in player: 0, fold player: 4
send inquire msg to player 4444 
inquire/ 
7777 200 8000 300 fold 
1111 650 8000 300 fold 
5555 675 8000 300 check 
6666 4500 8000 300 check 
8888 1175 8000 300 check 
2222 1400 8000 200 fold 
3333 1850 8000 100 fold 
4444 3450 8000 300 check 
total pot: 2100 
/inquire 
recv from player 4444: check
send inquire msg to player 8888 
inquire/ 
2222 1400 8000 200 fold 
3333 1850 8000 100 fold 
4444 3450 8000 300 check 
7777 200 8000 300 fold 
1111 650 8000 300 fold 
5555 675 8000 300 check 
6666 4500 8000 300 check 
8888 1175 8000 300 check 
total pot: 2100 
/inquire 
recv from player 8888: check
send inquire msg to player 6666 
inquire/ 
8888 1175 8000 300 check 
2222 1400 8000 200 fold 
3333 1850 8000 100 fold 
4444 3450 8000 300 check 
7777 200 8000 300 fold 
1111 650 8000 300 fold 
5555 675 8000 300 check 
6666 4500 8000 300 check 
total pot: 2100 
/inquire 
recv from player 6666: check
send inquire msg to player 5555 
inquire/ 
6666 4500 8000 300 check 
8888 1175 8000 300 check 
2222 1400 8000 200 fold 
3333 1850 8000 100 fold 
4444 3450 8000 300 check 
7777 200 8000 300 fold 
1111 650 8000 300 fold 
5555 675 8000 300 check 
total pot: 2100 
/inquire 
recv from player 5555: check
river/ 
HEARTS 3 
/river 

---river round bet---
valid player: 8, all in player: 0, fold player: 4
send inquire msg to player 4444 
inquire/ 
7777 200 8000 300 fold 
1111 650 8000 300 fold 
5555 675 8000 300 check 
6666 4500 8000 300 check 
8888 1175 8000 300 check 
2222 1400 8000 200 fold 
3333 1850 8000 100 fold 
4444 3450 8000 300 check 
total pot: 2100 
/inquire 
recv from player 4444: check
send inquire msg to player 8888 
inquire/ 
2222 1400 8000 200 fold 
3333 1850 8000 100 fold 
4444 3450 8000 300 check 
7777 200 8000 300 fold 
1111 650 8000 300 fold 
5555 675 8000 300 check 
6666 4500 8000 300 check 
8888 1175 8000 300 check 
total pot: 2100 
/inquire 
recv from player 8888: check
send inquire msg to player 6666 
inquire/ 
8888 1175 8000 300 check 
2222 1400 8000 200 fold 
3333 1850 8000 100 fold 
4444 3450 8000 300 check 
7777 200 8000 300 fold 
1111 650 8000 300 fold 
5555 675 8000 300 check 
6666 4500 8000 300 check 
total pot: 2100 
/inquire 
recv from player 6666: check
send inquire msg to player 5555 
inquire/ 
6666 4500 8000 300 check 
8888 1175 8000 300 check 
2222 1400 8000 200 fold 
3333 1850 8000 100 fold 
4444 3450 8000 300 check 
7777 200 8000 300 fold 
1111 650 8000 300 fold 
5555 675 8000 300 check 
total pot: 2100 
/inquire 
recv from player 5555: raise 0
send inquire msg to player 4444 
inquire/ 
7777 200 8000 300 fold 
1111 650 8000 300 fold 
5555 575 8000 400 raise 
6666 4500 8000 300 check 
8888 1175 8000 300 check 
2222 1400 8000 200 fold 
3333 1850 8000 100 fold 
4444 3450 8000 300 check 
total pot: 2200 
/inquire 
recv from player 4444: check
send inquire msg to player 8888 
inquire/ 
2222 1400 8000 200 fold 
3333 1850 8000 100 fold 
4444 3350 8000 400 call 
7777 200 8000 300 fold 
1111 650 8000 300 fold 
5555 575 8000 400 raise 
6666 4500 8000 300 check 
8888 1175 8000 300 check 
total pot: 2300 
/inquire 
recv from player 8888: check
send inquire msg to player 6666 
inquire/ 
8888 1075 8000 400 call 
2222 1400 8000 200 fold 
3333 1850 8000 100 fold 
4444 3350 8000 400 call 
7777 200 8000 300 fold 
1111 650 8000 300 fold 
5555 575 8000 400 raise 
6666 4500 8000 300 check 
total pot: 2400 
/inquire 
recv from player 6666: check

---show down---
showdown/ 
common/ 
HEARTS K 
HEARTS 9 
SPADES 2 
DIAMONDS 10 
HEARTS 3 
/common 
4: 4444 CLUBS 6 SPADES 3 ONE_PAIR 
1: 8888 CLUBS 10 DIAMONDS 9 TWO_PAIR 
2: 6666 DIAMONDS 7 SPADES K ONE_PAIR 
3: 5555 CLUBS 3 HEARTS A ONE_PAIR 
/showdown 

---Allocate pot---
pot-win/ 
8888: 2500 
/pot-win 
it is player 4444's turn to be button

-----9 Hand-----
seat/ 
button: 4444 3350 8000 
small blind: 3333 1850 8000 
big blind: 2222 1400 8000 
8888 3575 8000 
6666 4400 8000 
5555 575 8000 
1111 650 8000 
7777 200 8000 
/seat 
blind/ 
3333: 50 
2222: 100 
/blind 
player 3333:hold/ 
DIAMONDS A 
DIAMONDS 2 
/hold 
player 2222:hold/ 
HEARTS A 
DIAMONDS 5 
/hold 
player 8888:hold/ 
SPADES 4 
SPADES 10 
/hold 
player 6666:hold/ 
HEARTS 8 
DIAMONDS 6 
/hold 
player 5555:hold/ 
HEARTS Q 
DIAMONDS 7 
/hold 
player 1111:hold/ 
CLUBS 3 
SPADES A 
/hold 
player 7777:hold/ 
CLUBS 4 
HEARTS 6 
/hold 
player 4444:hold/ 
SPADES 6 
CLUBS 8 
/hold 

---pre flop round bet---
valid player: 8, all in player: 0, fold player: 0
send inquire msg to player 8888 
inquire/ 
2222 1300 8000 100 blind 
3333 1800 8000 50 blind 
total pot: 150 
/inquire 
recv from player 8888: check
send inquire msg to player 6666 
inquire/ 
8888 3475 8000 100 call 
2222 1300 8000 100 blind 
3333 1800 8000 50 blind 
total pot: 250 
/inquire 
recv from player 6666: check
send inquire msg to player 5555 
inquire/ 
6666 4300 8000 100 call 
8888 3475 8000 100 call 
2222 1300 8000 100 blind 
3333 1800 8000 50 blind 
total pot: 350 
/inquire 
recv from player 5555: check
send inquire msg to player 1111 
inquire/ 
5555 475 8000 100 call 
6666 4300 8000 100 call 
8888 3475 8000 100 call 
2222 1300 8000 100 blind 
3333 1800 8000 50 blind 
total pot: 450 
/inquire 
recv from player 1111: fold
send inquire msg to player 7777 
inquire/ 
1111 650 8000 0 fold 
5555 475 8000 100 call 
6666 4300 8000 100 call 
8888 3475 8000 100 call 
2222 1300 8000 100 blind 
3333 1800 8000 50 blind 
total pot: 450 
/inquire 
recv from player 7777: check
send inquire msg to player 4444 
inquire/ 
7777 100 8000 100 call 
1111 650 8000 0 fold 
5555 475 8000 100 call 
6666 4300 8000 100 call 
8888 3475 8000 100 call 
2222 1300 8000 100 blind 
3333 1800 8000 50 blind 
total pot: 550 
/inquire 
recv from player 4444: raise 39
send inquire msg to player 3333 
inquire/ 
4444 3150 8000 200 raise 
7777 100 8000 100 call 
1111 650 8000 0 fold 
5555 475 8000 100 call 
6666 4300 8000 100 call 
8888 3475 8000 100 call 
2222 1300 8000 100 blind 
3333 1800 8000 50 blind 
total pot: 750 
/inquire 
recv from player 3333: fold
send inquire msg to player 2222 
inquire/ 
3333 1800 8000 50 fold 
4444 3150 8000 200 raise 
7777 100 8000 100 call 
1111 650 8000 0 fold 
5555 475 8000 100 call 
6666 4300 8000 100 call 
8888 3475 8000 100 call 
2222 1300 8000 100 blind 
total pot: 750 
/inquire 
recv from player 2222: check
send inquire msg to player 8888 
inquire/ 
2222 1200 8000 200 call 
3333 1800 8000 50 fold 
4444 3150 8000 200 raise 
7777 100 8000 100 call 
1111 650 8000 0 fold 
5555 475 8000 100 call 
6666 4300 8000 100 call 
8888 3475 8000 100 call 
total pot: 850 
/inquire 
recv from player 8888: check
send inquire msg to player 6666 
inquire/ 
8888 3375 8000 200 call 
2222 1200 8000 200 call 
3333 1800 8000 50 fold 
4444 3150 8000 200 raise 
7777 100 8000 100 call 
1111 650 8000 0 fold 
5555 475 8000 100 call 
6666 4300 8000 100 call 
total pot: 950 
/inquire 
recv from player 6666: check
send inquire msg to player 5555 
inquire/ 
6666 4200 8000 200 call 
8888 3375 8000 200 call 
2222 1200 8000 200 call 
3333 1800 8000 50 fold 
4444 3150 8000 200 raise 
7777 100 8000 100 call 
1111 650 8000 0 fold 
5555 475 8000 100 call 
total pot: 1050 
/inquire 
recv from player 5555: check
send inquire msg to player 7777 
inquire/ 
1111 650 8000 0 fold 
5555 375 8000 200 call 
6666 4200 8000 200 call 
8888 3375 8000 200 call 
2222 1200 8000 200 call 
3333 1800 8000 50 fold 
4444 3150 8000 200 raise 
7777 100 8000 100 call 
total pot: 1150 
/inquire 
recv from player 7777: fold
flop/ 
CLUBS 10 
DIAMONDS Q 
DIAMONDS 9 
/flop 

---flop round bet---
valid player: 8, all in player: 0, fold player: 3
send inquire msg to player 2222 
inquire/ 
3333 1800 8000 50 fold 
4444 3150 8000 200 raise 
7777 100 8000 100 fold 
1111 650 8000 0 fold 
5555 375 8000 200 call 
6666 4200 8000 200 call 
8888 3375 8000 200 call 
2222 1200 8000 200 call 
total pot: 1150 
/inquire 
recv from player 2222: fold
send inquire msg to player 8888 
inquire/ 
2222 1200 8000 200 fold 
3333 1800 8000 50 fold 
4444 3150 8000 200 raise 
7777 100 8000 100 fold 
1111 650 8000 0 fold 
5555 375 8000 200 call 
6666 4200 8000 200 call 
8888 3375 8000 200 call 
total pot: 1150 
/inquire 
recv from player 8888: check
send inquire msg to player 6666 
inquire/ 
8888 3375 8000 200 check 
2222 1200 8000 200 fold 
3333 1800 8000 50 fold 
4444 3150 8000 200 raise 
7777 100 8000 100 fold 
1111 650 8000 0 fold 
5555 375 8000 200 call 
6666 4200 8000 200 call 
total pot: 1150 
/inquire 
recv from player 6666: check
send inquire msg to player 5555 
inquire/ 
6666 4200 8000 200 check 
8888 3375 8000 200 check 
2222 1200 8000 200 fold 
3333 1800 8000 50 fold 
4444 3150 8000 200 raise 
7777 100 8000 100 fold 
1111 650 8000 0 fold 
5555 375 8000 200 call 
total pot: 1150 
/inquire 
recv from player 5555: check
send inquire msg to player 4444 
inquire/ 
7777 100 8000 100 fold 
1111 650 8000 0 fold 
5555 375 8000 200 check 
6666 4200 8000 200 check 
8888 3375 8000 200 check 
2222 1200 8000 200 fold 
3333 1800 8000 50 fold 
4444 3150 8000 200 raise 
total pot: 1150 
/inquire 
recv from player 4444: check
turn/ 
SPADES 8 
/turn 

---turn round bet---
valid player: 8, all in player: 0, fold player: 4
send inquire msg to player 8888 
inquire/ 
2222 1200 8000 200 fold 
3333 1800 8000 50 fold 
4444 3150 8000 200 check 
7777 100 8000 100 fold 
1111 650 8000 0 fold 
5555 375 8000 200 check 
6666 4200 8000 200 check 
8888 3375 8000 200 check 
total pot: 1150 
/inquire 
recv from player 8888: check
send inquire msg to player 6666 
inquire/ 
8888 3375 8000 200 check 
2222 1200 8000 200 fold 
3333 1800 8000 50 fold 
4444 3150 8000 200 check 
7777 100 8000 100 fold 
1111 650 8000 0 fold 
5555 375 8000 200 check 
6666 4200 8000 200 check 
total pot: 1150 
/inquire 
recv from player 6666: check
send inquire msg to player 5555 
inquire/ 
6666 4200 8000 200 check 
8888 3375 8000 200 check 
2222 1200 8000 200 fold 
3333 1800 8000 50 fold 
4444 3150 8000 200 check 
7777 100 8000 100 fold 
1111 650 8000 0 fold 
5555 375 8000 200 check 
total pot: 1150 
/inquire 
recv from player 5555: check
send inquire msg to player 4444 
inquire/ 
7777 100 8000 100 fold 
1111 650 8000 0 fold 
5555 375 8000 200 check 
6666 4200 8000 200 check 
8888 3375 8000 200 check 
2222 1200 8000 200 fold 
3333 1800 8000 50 fold 
4444 3150 8000 200 check 
total pot: 1150 
/inquire 
recv from player 4444: fold
river/ 
HEARTS 3 
/river 

---river round bet---
valid player: 8, all in player: 0, fold player: 5
send inquire msg to player 8888 
inquire/ 
2222 1200 8000 200 fold 
3333 1800 8000 50 fold 
4444 3150 8000 200 fold 
7777 100 8000 100 fold 
1111 650 8000 0 fold 
5555 375 8000 200 check 
6666 4200 8000 200 check 
8888 3375 8000 200 check 
total pot: 1150 
/inquire 
recv from player 8888: check
send inquire msg to player 6666 
inquire/ 
8888 3375 8000 200 check 
2222 1200 8000 200 fold 
3333 1800 8000 50 fold 
4444 3150 8000 200 fold 
7777 100 8000 100 fold 
1111 650 8000 0 fold 
5555 375 8000 200 check 
6666 4200 8000 200 check 
total pot: 1150 
/inquire 
recv from player 6666: check
send inquire msg to player 5555 
inquire/ 
6666 4200 8000 200 check 
8888 3375 8000 200 check 
2222 1200 8000 200 fold 
3333 1800 8000 50 fold 
4444 3150 8000 200 fold 
7777 100 8000 100 fold 
1111 650 8000 0 fold 
5555 375 8000 200 check 
total pot: 1150 
/inquire 
recv from player 5555: raise 0
send inquire msg to player 8888 
inquire/ 
2222 1200 8000 200 fold 
3333 1800 8000 50 fold 
4444 3150 8000 200 fold 
7777 100 8000 100 fold 
1111 650 8000 0 fold 
5555 275 8000 300 raise 
6666 4200 8000 200 check 
8888 3375 8000 200 check 
total pot: 1250 
/inquire 
recv from player 8888: check
send inquire msg to player 6666 
inquire/ 
8888 3275 8000 300 call 
2222 1200 8000 200 fold 
3333 1800 8000 50 fold 
4444 3150 8000 200 fold 
7777 100 8000 100 fold 
1111 650 8000 0 fold 
5555 275 8000 300 raise 
6666 4200 8000 200 check 
total pot: 1350 
/inquire 
recv from player 6666: check

---show down---
showdown/ 
common/ 
CLUBS 10 
DIAMONDS Q 
DIAMONDS 9 
SPADES 8 
HEARTS 3 
/common 
2: 8888 SPADES 4 SPADES 10 ONE_PAIR 
3: 6666 HEARTS 8 DIAMONDS 6 ONE_PAIR 
1: 5555 HEARTS Q DIAMONDS 7 ONE_PAIR 
/showdown 

---Allocate pot---
pot-win/ 
5555: 1450 
/pot-win 
it is player 3333's turn to be button

-----10 Hand-----
seat/ 
button: 3333 1800 8000 
small blind: 2222 1200 8000 
big blind: 8888 3275 8000 
6666 4100 8000 
5555 1725 8000 
1111 650 8000 
7777 100 8000 
4444 3150 8000 
/seat 
blind/ 
2222: 50 
8888: 100 
/blind 
player 2222:hold/ 
DIAMONDS 8 
DIAMONDS 9 
/hold 
player 8888:hold/ 
DIAMONDS 6 
SPADES 5 
/hold 
player 6666:hold/ 
HEARTS 3 
DIAMONDS 2 
/hold 
player 5555:hold/ 
SPADES 9 
CLUBS 9 
/hold 
player 1111:hold/ 
CLUBS A 
HEARTS 5 
/hold 
player 7777:hold/ 
SPADES 10 
HEARTS 9 
/hold 
player 4444:hold/ 
SPADES 3 
HEARTS 2 
/hold 
player 3333:hold/ 
SPADES 8 
HEARTS Q 
/hold 

---pre flop round bet---
valid player: 8, all in player: 0, fold player: 0
send inquire msg to player 6666 
inquire/ 
8888 3175 8000 100 blind 
2222 1150 8000 50 blind 
total pot: 150 
/inquire 
recv from player 6666: check
send inquire msg to player 5555 
inquire/ 
6666 4000 8000 100 call 
8888 3175 8000 100 blind 
2222 1150 8000 50 blind 
total pot: 250 
/inquire 
recv from player 5555: raise 0
send inquire msg to player 1111 
inquire/ 
5555 1525 8000 200 raise 
6666 4000 8000 100 call 
8888 3175 8000 100 blind 
2222 1150 8000 50 blind 
total pot: 450 
/inquire 
recv from player 1111: fold
send inquire msg to player 7777 
inquire/ 
1111 650 8000 0 fold 
5555 1525 8000 200 raise 
6666 4000 8000 100 call 
8888 3175 8000 100 blind 
2222 1150 8000 50 blind 
total pot: 450 
/inquire 
recv from player 7777: fold
send inquire msg to player 4444 
inquire/ 
7777 100 8000 0 fold 
1111 650 8000 0 fold 
5555 1525 8000 200 raise 
6666 4000 8000 100 call 
8888 3175 8000 100 blind 
2222 1150 8000 50 blind 
total pot: 450 
/inquire 
recv from player 4444: fold
send inquire msg to player 3333 
inquire/ 
4444 3150 8000 0 fold 
7777 100 8000 0 fold 
1111 650 8000 0 fold 
5555 1525 8000 200 raise 
6666 4000 8000 100 call 
8888 3175 8000 100 blind 
2222 1150 8000 50 blind 
total pot: 450 
/inquire 
recv from player 3333: raise 0
send inquire msg to player 2222 
inquire/ 
3333 1500 8000 300 raise 
4444 3150 8000 0 fold 
7777 100 8000 0 fold 
1111 650 8000 0 fold 
5555 1525 8000 200 raise 
6666 4000 8000 100 call 
8888 3175 8000 100 blind 
2222 1150 8000 50 blind 
total pot: 750 
/inquire 
recv from player 2222: raise 0
send inquire msg to player 8888 
inquire/ 
2222 800 8000 400 raise 
3333 1500 8000 300 raise 
4444 3150 8000 0 fold 
7777 100 8000 0 fold 
1111 650 8000 0 fold 
5555 1525 8000 200 raise 
6666 4000 8000 100 call 
8888 3175 8000 100 blind 
total pot: 1100 
/inquire 
recv from player 8888: check
send inquire msg to player 6666 
inquire/ 
8888 2875 8000 400 call 
2222 800 8000 400 raise 
3333 1500 8000 300 raise 
4444 3150 8000 0 fold 
7777 100 8000 0 fold 
1111 650 8000 0 fold 
5555 1525 8000 200 raise 
6666 4000 8000 100 call 
total pot: 1400 
/inquire 
recv from player 6666: check
send inquire msg to player 5555 
inquire/ 
6666 3700 8000 400 call 
8888 2875 8000 400 call 
2222 800 8000 400 raise 
3333 1500 8000 300 raise 
4444 3150 8000 0 fold 
7777 100 8000 0 fold 
1111 650 8000 0 fold 
5555 1525 8000 200 raise 
total pot: 1700 
/inquire 
recv from player 5555: check
send inquire msg to player 3333 
inquire/ 
4444 3150 8000 0 fold 
7777 100 8000 0 fold 
1111 650 8000 0 fold 
5555 1325 8000 400 call 
6666 3700 8000 400 call 
8888 2875 8000 400 call 
2222 800 8000 400 raise 
3333 1500 8000 300 raise 
total pot: 1900 
/inquire 
recv from player 3333: raise 0
send inquire msg to player 2222 
inquire/ 
3333 1300 8000 500 raise 
4444 3150 8000 0 fold 
7777 100 8000 0 fold 
1111 650 8000 0 fold 
5555 1325 8000 400 call 
6666 3700 8000 400 call 
8888 2875 8000 400 call 
2222 800 8000 400 raise 
total pot: 2100 
/inquire 
recv from player 2222: fold
send inquire msg to player 8888 
inquire/ 
2222 800 8000 400 fold 
3333 1300 8000 500 raise 
4444 3150 8000 0 fold 
7777 100 8000 0 fold 
1111 650 8000 0 fold 
5555 1325 8000 400 call 
6666 3700 8000 400 call 
8888 2875 8000 400 call 
total pot: 2100 
/inquire 
recv from player 8888: check
send inquire msg to player 6666 
inquire/ 
8888 2775 8000 500 call 
2222 800 8000 400 fold 
3333 1300 8000 500 raise 
4444 3150 8000 0 fold 
7777 100 8000 0 fold 
1111 650 8000 0 fold 
5555 1325 8000 400 call 
6666 3700 8000 400 call 
total pot: 2200 
/inquire 
recv from player 6666: check
send inquire msg to player 5555 
inquire/ 
6666 3600 8000 500 call 
8888 2775 8000 500 call 
2222 800 8000 400 fold 
3333 1300 8000 500 raise 
4444 3150 8000 0 fold 
7777 100 8000 0 fold 
1111 650 8000 0 fold 
5555 1325 8000 400 call 
total pot: 2300 
/inquire 
recv from player 5555: check
flop/ 
DIAMONDS 7 
DIAMONDS K 
HEARTS K 
/flop 

---flop round bet---
valid player: 8, all in player: 0, fold player: 4
send inquire msg to player 8888 
inquire/ 
2222 800 8000 400 fold 
3333 1300 8000 500 raise 
4444 3150 8000 0 fold 
7777 100 8000 0 fold 
1111 650 8000 0 fold 
5555 1225 8000 500 call 
6666 3600 8000 500 call 
8888 2775 8000 500 call 
total pot: 2400 
/inquire 
recv from player 8888: check
send inquire msg to player 6666 
inquire/ 
8888 2775 8000 500 check 
2222 800 8000 400 fold 
3333 1300 8000 500 raise 
4444 3150 8000 0 fold 
7777 100 8000 0 fold 
1111 650 8000 0 fold 
5555 1225 8000 500 call 
6666 3600 8000 500 call 
total pot: 2400 
/inquire 
recv from player 6666: check
send inquire msg to player 5555 
inquire/ 
6666 3600 8000 500 check 
8888 2775 8000 500 check 
2222 800 8000 400 fold 
3333 1300 8000 500 raise 
4444 3150 8000 0 fold 
7777 100 8000 0 fold 
1111 650 8000 0 fold 
5555 1225 8000 500 call 
total pot: 2400 
/inquire 
recv from player 5555: check
send inquire msg to player 3333 
inquire/ 
4444 3150 8000 0 fold 
7777 100 8000 0 fold 
1111 650 8000 0 fold 
5555 1225 8000 500 check 
6666 3600 8000 500 check 
8888 2775 8000 500 check 
2222 800 8000 400 fold 
3333 1300 8000 500 raise 
total pot: 2400 
/inquire 
recv from player 3333: fold
turn/ 
CLUBS K 
/turn 

---turn round bet---
valid player: 8, all in player: 0, fold player: 5
send inquire msg to player 8888 
inquire/ 
2222 800 8000 400 fold 
3333 1300 8000 500 fold 
4444 3150 8000 0 fold 
7777 100 8000 0 fold 
1111 650 8000 0 fold 
5555 1225 8000 500 check 
6666 3600 8000 500 check 
8888 2775 8000 500 check 
total pot: 2400 
/inquire 
recv from player 8888: check
send inquire msg to player 6666 
inquire/ 
8888 2775 8000 500 check 
2222 800 8000 400 fold 
3333 1300 8000 500 fold 
4444 3150 8000 0 fold 
7777 100 8000 0 fold 
1111 650 8000 0 fold 
5555 1225 8000 500 check 
6666 3600 8000 500 check 
total pot: 2400 
/inquire 
recv from player 6666: check
send inquire msg to player 5555 
inquire/ 
6666 3600 8000 500 check 
8888 2775 8000 500 check 
2222 800 8000 400 fold 
3333 1300 8000 500 fold 
4444 3150 8000 0 fold 
7777 100 8000 0 fold 
1111 650 8000 0 fold 
5555 1225 8000 500 check 
total pot: 2400 
/inquire 
recv from player 5555: check
river/ 
SPADES Q 
/river 

---river round bet---
valid player: 8, all in player: 0, fold player: 5
send inquire msg to player 8888 
inquire/ 
2222 800 8000 400 fold 
3333 1300 8000 500 fold 
4444 3150 8000 0 fold 
7777 100 8000 0 fold 
1111 650 8000 0 fold 
5555 1225 8000 500 check 
6666 3600 8000 500 check 
8888 2775 8000 500 check 
total pot: 2400 
/inquire 
recv from player 8888: check
send inquire msg to player 6666 
inquire/ 
8888 2775 8000 500 check 
2222 800 8000 400 fold 
3333 1300 8000 500 fold 
4444 3150 8000 0 fold 
7777 100 8000 0 fold 
1111 650 8000 0 fold 
5555 1225 8000 500 check 
6666 3600 8000 500 check 
total pot: 2400 
/inquire 
recv from player 6666: check
send inquire msg to player 5555 
inquire/ 
6666 3600 8000 500 check 
8888 2775 8000 500 check 
2222 800 8000 400 fold 
3333 1300 8000 500 fold 
4444 3150 8000 0 fold 
7777 100 8000 0 fold 
1111 650 8000 0 fold 
5555 1225 8000 500 check 
total pot: 2400 
/inquire 
recv from player 5555: check

---show down---
showdown/ 
common/ 
DIAMONDS 7 
DIAMONDS K 
HEARTS K 
CLUBS K 
SPADES Q 
/common 
2: 8888 DIAMONDS 6 SPADES 5 THREE_OF_A_KIND 
2: 6666 HEARTS 3 DIAMONDS 2 THREE_OF_A_KIND 
1: 5555 SPADES 9 CLUBS 9 FULL_HOUSE 
/showdown 

---Allocate pot---
pot-win/ 
5555: 2400 
/pot-win 
it is player 2222's turn to be button

-----11 Hand-----
seat/ 
button: 2222 800 8000 
small blind: 8888 2775 8000 
big blind: 6666 3600 8000 
5555 3625 8000 
1111 650 8000 
7777 100 8000 
4444 3150 8000 
3333 1300 8000 
/seat 
blind/ 
8888: 50 
6666: 100 
/blind 
player 8888:hold/ 
DIAMONDS 8 
DIAMONDS 9 
/hold 
player 6666:hold/ 
DIAMONDS 6 
SPADES 5 
/hold 
player 5555:hold/ 
HEARTS 3 
DIAMONDS 2 
/hold 
player 1111:hold/ 
SPADES 9 
CLUBS 9 
/hold 
player 7777:hold/ 
CLUBS A 
HEARTS 5 
/hold 
player 4444:hold/ 
SPADES 10 
HEARTS 9 
/hold 
player 3333:hold/ 
SPADES 3 
HEARTS 2 
/hold 
player 2222:hold/ 
SPADES 8 
HEARTS Q 
/hold 

---pre flop round bet---
valid player: 8, all in player: 0, fold player: 0
send inquire msg to player 5555 
inquire/ 
6666 3500 8000 100 blind 
8888 2725 8000 50 blind 
total pot: 150 
/inquire 
recv from player 5555: check
send inquire msg to player 1111 
inquire/ 
5555 3525 8000 100 call 
6666 3500 8000 100 blind 
8888 2725 8000 50 blind 
total pot: 250 
/inquire 
recv from player 1111: fold
send inquire msg to player 7777 
inquire/ 
1111 650 8000 0 fold 
5555 3525 8000 100 call 
6666 3500 8000 100 blind 
8888 2725 8000 50 blind 
total pot: 250 
/inquire 
recv from player 7777: check
send inquire msg to player 4444 
inquire/ 
7777 0 8000 100 all_in 
1111 650 8000 0 fold 
5555 3525 8000 100 call 
6666 3500 8000 100 blind 
8888 2725 8000 50 blind 
total pot: 350 
/inquire 
recv from player 4444: raise 132
send inquire msg to player 3333 
inquire/ 
4444 2918 8000 232 raise 
7777 0 8000 100 all_in 
1111 650 8000 0 fold 
5555 3525 8000 100 call 
6666 3500 8000 100 blind 
8888 2725 8000 50 blind 
total pot: 582 
/inquire 
recv from player 3333: fold
send inquire msg to player 2222 
inquire/ 
3333 1300 8000 0 fold 
4444 2918 8000 232 raise 
7777 0 8000 100 all_in 
1111 650 8000 0 fold 
5555 3525 8000 100 call 
6666 3500 8000 100 blind 
8888 2725 8000 50 blind 
total pot: 582 
/inquire 
recv from player 2222: fold
send inquire msg to player 8888 
inquire/ 
2222 800 8000 0 fold 
3333 1300 8000 0 fold 
4444 2918 8000 232 raise 
7777 0 8000 100 all_in 
1111 650 8000 0 fold 
5555 3525 8000 100 call 
6666 3500 8000 100 blind 
8888 2725 8000 50 blind 
total pot: 582 
/inquire 
recv from player 8888: check
send inquire msg to player 6666 
inquire/ 
8888 2543 8000 232 call 
2222 800 8000 0 fold 
3333 1300 8000 0 fold 
4444 2918 8000 232 raise 
7777 0 8000 100 all_in 
1111 650 8000 0 fold 
5555 3525 8000 100 call 
6666 3500 8000 100 blind 
total pot: 764 
/inquire 
recv from player 6666: check
send inquire msg to player 5555 
inquire/ 
6666 3368 8000 232 call 
8888 2543 8000 232 call 
2222 800 8000 0 fold 
3333 1300 8000 0 fold 
4444 2918 8000 232 raise 
7777 0 8000 100 all_in 
1111 650 8000 0 fold 
5555 3525 8000 100 call 
total pot: 896 
/inquire 
recv from player 5555: raise 0
send inquire msg to player 4444 
inquire/ 
7777 0 8000 100 all_in 
1111 650 8000 0 fold 
5555 3261 8000 364 raise 
6666 3368 8000 232 call 
8888 2543 8000 232 call 
2222 800 8000 0 fold 
3333 1300 8000 0 fold 
4444 2918 8000 232 raise 
total pot: 1160 
/inquire 
recv from player 4444: check
send inquire msg to player 8888 
inquire/ 
2222 800 8000 0 fold 
3333 1300 8000 0 fold 
4444 2786 8000 364 call 
7777 0 8000 100 all_in 
1111 650 8000 0 fold 
5555 3261 8000 364 raise 
6666 3368 8000 232 call 
8888 2543 8000 232 call 
total pot: 1292 
/inquire 
recv from player 8888: check
send inquire msg to player 6666 
inquire/ 
8888 2411 8000 364 call 
2222 800 8000 0 fold 
3333 1300 8000 0 fold 
4444 2786 8000 364 call 
7777 0 8000 100 all_in 
1111 650 8000 0 fold 
5555 3261 8000 364 raise 
6666 3368 8000 232 call 
total pot: 1424 
/inquire 
recv from player 6666: check
flop/ 
DIAMONDS 7 
DIAMONDS K 
HEARTS K 
/flop 

---flop round bet---
valid player: 8, all in player: 1, fold player: 3
send inquire msg to player 8888 
inquire/ 
2222 800 8000 0 fold 
3333 1300 8000 0 fold 
4444 2786 8000 364 call 
7777 0 8000 100 all_in 
1111 650 8000 0 fold 
5555 3261 8000 364 raise 
6666 3236 8000 364 call 
8888 2411 8000 364 call 
total pot: 1556 
/inquire 
recv from player 8888: check
send inquire msg to player 6666 
inquire/ 
8888 2411 8000 364 check 
2222 800 8000 0 fold 
3333 1300 8000 0 fold 
4444 2786 8000 364 call 
7777 0 8000 100 all_in 
1111 650 8000 0 fold 
5555 3261 8000 364 raise 
6666 3236 8000 364 call 
total pot: 1556 
/inquire 
recv from player 6666: check
send inquire msg to player 5555 
inquire/ 
6666 3236 8000 364 check 
8888 2411 8000 364 check 
2222 800 8000 0 fold 
3333 1300 8000 0 fold 
4444 2786 8000 364 call 
7777 0 8000 100 all_in 
1111 650 8000 0 fold 
5555 3261 8000 364 raise 
total pot: 1556 
/inquire 
recv from player 5555: raise 0
send inquire msg to player 4444 
inquire/ 
7777 0 8000 100 all_in 
1111 650 8000 0 fold 
5555 3161 8000 464 raise 
6666 3236 8000 364 check 
8888 2411 8000 364 check 
2222 800 8000 0 fold 
3333 1300 8000 0 fold 
4444 2786 8000 364 call 
total pot: 1656 
/inquire 
recv from player 4444: fold
send inquire msg to player 8888 
inquire/ 
2222 800 8000 0 fold 
3333 1300 8000 0 fold 
4444 2786 8000 364 fold 
7777 0 8000 100 all_in 
1111 650 8000 0 fold 
5555 3161 8000 464 raise 
6666 3236 8000 364 check 
8888 2411 8000 364 check 
total pot: 1656 
/inquire 
recv from player 8888: check
send inquire msg to player 6666 
inquire/ 
8888 2311 8000 464 call 
2222 800 8000 0 fold 
3333 1300 8000 0 fold 
4444 2786 8000 364 fold 
7777 0 8000 100 all_in 
1111 650 8000 0 fold 
5555 3161 8000 464 raise 
6666 3236 8000 364 check 
total pot: 1756 
/inquire 
recv from player 6666: check
turn/ 
CLUBS K 
/turn 

---turn round bet---
valid player: 8, all in player: 1, fold player: 4
send inquire msg to player 8888 
inquire/ 
2222 800 8000 0 fold 
3333 1300 8000 0 fold 
4444 2786 8000 364 fold 
7777 0 8000 100 all_in 
1111 650 8000 0 fold 
5555 3161 8000 464 raise 
6666 3136 8000 464 call 
8888 2311 8000 464 call 
total pot: 1856 
/inquire 
recv from player 8888: check
send inquire msg to player 6666 
inquire/ 
8888 2311 8000 464 check 
2222 800 8000 0 fold 
3333 1300 8000 0 fold 
4444 2786 8000 364 fold 
7777 0 8000 100 all_in 
1111 650 8000 0 fold 
5555 3161 8000 464 raise 
6666 3136 8000 464 call 
total pot: 1856 
/inquire 
recv from player 6666: check
send inquire msg to player 5555 
inquire/ 
6666 3136 8000 464 check 
8888 2311 8000 464 check 
2222 800 8000 0 fold 
3333 1300 8000 0 fold 
4444 2786 8000 364 fold 
7777 0 8000 100 all_in 
1111 650 8000 0 fold 
5555 3161 8000 464 raise 
total pot: 1856 
/inquire 
recv from player 5555: check
river/ 
SPADES Q 
/river 

---river round bet---
valid player: 8, all in player: 1, fold player: 4
send inquire msg to player 8888 
inquire/ 
2222 800 8000 0 fold 
3333 1300 8000 0 fold 
4444 2786 8000 364 fold 
7777 0 8000 100 all_in 
1111 650 8000 0 fold 
5555 3161 8000 464 check 
6666 3136 8000 464 check 
8888 2311 8000 464 check 
total pot: 1856 
/inquire 
recv from player 8888: check
send inquire msg to player 6666 
inquire/ 
8888 2311 8000 464 check 
2222 800 8000 0 fold 
3333 1300 8000 0 fold 
4444 2786 8000 364 fold 
7777 0 8000 100 all_in 
1111 650 8000 0 fold 
5555 3161 8000 464 check 
6666 3136 8000 464 check 
total pot: 1856 
/inquire 
recv from player 6666: check
send inquire msg to player 5555 
inquire/ 
6666 3136 8000 464 check 
8888 2311 8000 464 check 
2222 800 8000 0 fold 
3333 1300 8000 0 fold 
4444 2786 8000 364 fold 
7777 0 8000 100 all_in 
1111 650 8000 0 fold 
5555 3161 8000 464 check 
total pot: 1856 
/inquire 
recv from player 5555: check

---show down---
showdown/ 
common/ 
DIAMONDS 7 
DIAMONDS K 
HEARTS K 
CLUBS K 
SPADES Q 
/common 
2: 8888 DIAMONDS 8 DIAMONDS 9 THREE_OF_A_KIND 
3: 6666 DIAMONDS 6 SPADES 5 THREE_OF_A_KIND 
3: 5555 HEARTS 3 DIAMONDS 2 THREE_OF_A_KIND 
1: 7777 CLUBS A HEARTS 5 THREE_OF_A_KIND 
/showdown 

---Allocate pot---
pot-win/ 
7777: 764 
8888: 1092 
/pot-win 
it is player 8888's turn to be button

-----12 Hand-----
seat/ 
button: 8888 3403 8000 
small blind: 6666 3136 8000 
big blind: 5555 3161 8000 
1111 650 8000 
7777 764 8000 
4444 2786 8000 
3333 1300 8000 
2222 800 8000 
/seat 
blind/ 
6666: 50 
5555: 100 
/blind 
player 6666:hold/ 
CLUBS K 
SPADES J 
/hold 
player 5555:hold/ 
HEARTS 6 
HEARTS Q 
/hold 
player 1111:hold/ 
HEARTS 3 
DIAMONDS K 
/hold 
player 7777:hold/ 
SPADES A 
CLUBS A 
/hold 
player 4444:hold/ 
SPADES 7 
CLUBS 4 
/hold 
player 3333:hold/ 
CLUBS 7 
CLUBS J 
/hold 
player 2222:hold/ 
DIAMONDS 6 
SPADES 5 
/hold 
player 8888:hold/ 
SPADES 3 
SPADES 10 
/hold 

---pre flop round bet---
valid player: 8, all in player: 0, fold player: 0
send inquire msg to player 1111 
inquire/ 
5555 3061 8000 100 blind 
6666 3086 8000 50 blind 
total pot: 150 
/inquire 
recv from player 1111: fold
send inquire msg to player 7777 
inquire/ 
1111 650 8000 0 fold 
5555 3061 8000 100 blind 
6666 3086 8000 50 blind 
total pot: 150 
/inquire 
recv from player 7777: raise 0
send inquire msg to player 4444 
inquire/ 
7777 564 8000 200 raise 
1111 650 8000 0 fold 
5555 3061 8000 100 blind 
6666 3086 8000 50 blind 
total pot: 350 
/inquire 
recv from player 4444: check
send inquire msg to player 3333 
inquire/ 
4444 2586 8000 200 call 
7777 564 8000 200 raise 
1111 650 8000 0 fold 
5555 3061 8000 100 blind 
6666 3086 8000 50 blind 
total pot: 550 
/inquire 
recv from player 3333: fold
send inquire msg to player 2222 
inquire/ 
3333 1300 8000 0 fold 
4444 2586 8000 200 call 
7777 564 8000 200 raise 
1111 650 8000 0 fold 
5555 3061 8000 100 blind 
6666 3086 8000 50 blind 
total pot: 550 
/inquire 
recv from player 2222: fold
send inquire msg to player 8888 
inquire/ 
2222 800 8000 0 fold 
3333 1300 8000 0 fold 
4444 2586 8000 200 call 
7777 564 8000 200 raise 
1111 650 8000 0 fold 
5555 3061 8000 100 blind 
6666 3086 8000 50 blind 
total pot: 550 
/inquire 
recv from player 8888: check
send inquire msg to player 6666 
inquire/ 
8888 3203 8000 200 call 
2222 800 8000 0 fold 
3333 1300 8000 0 fold 
4444 2586 8000 200 call 
7777 564 8000 200 raise 
1111 650 8000 0 fold 
5555 3061 8000 100 blind 
6666 3086 8000 50 blind 
total pot: 750 
/inquire 
recv from player 6666: check
send inquire msg to player 5555 
inquire/ 
6666 2936 8000 200 call 
8888 3203 8000 200 call 
2222 800 8000 0 fold 
3333 1300 8000 0 fold 
4444 2586 8000 200 call 
7777 564 8000 200 raise 
1111 650 8000 0 fold 
5555 3061 8000 100 blind 
total pot: 900 
/inquire 
recv from player 5555: check
flop/ 
HEARTS 7 
SPADES 8 
HEARTS 5 
/flop 

---flop round bet---
valid player: 8, all in player: 0, fold player: 3
send inquire msg to player 6666 
inquire/ 
8888 3203 8000 200 call 
2222 800 8000 0 fold 
3333 1300 8000 0 fold 
4444 2586 8000 200 call 
7777 564 8000 200 raise 
1111 650 8000 0 fold 
5555 2961 8000 200 call 
6666 2936 8000 200 call 
total pot: 1000 
/inquire 
recv from player 6666: check
send inquire msg to player 5555 
inquire/ 
6666 2936 8000 200 check 
8888 3203 8000 200 call 
2222 800 8000 0 fold 
3333 1300 8000 0 fold 
4444 2586 8000 200 call 
7777 564 8000 200 raise 
1111 650 8000 0 fold 
5555 2961 8000 200 call 
total pot: 1000 
/inquire 
recv from player 5555: raise 0
send inquire msg to player 7777 
inquire/ 
1111 650 8000 0 fold 
5555 2861 8000 300 raise 
6666 2936 8000 200 check 
8888 3203 8000 200 call 
2222 800 8000 0 fold 
3333 1300 8000 0 fold 
4444 2586 8000 200 call 
7777 564 8000 200 raise 
total pot: 1100 
/inquire 
recv from player 7777: fold
send inquire msg to player 4444 
inquire/ 
7777 564 8000 200 fold 
1111 650 8000 0 fold 
5555 2861 8000 300 raise 
6666 2936 8000 200 check 
8888 3203 8000 200 call 
2222 800 8000 0 fold 
3333 1300 8000 0 fold 
4444 2586 8000 200 call 
total pot: 1100 
/inquire 
recv from player 4444: check
send inquire msg to player 8888 
inquire/ 
2222 800 8000 0 fold 
3333 1300 8000 0 fold 
4444 2486 8000 300 call 
7777 564 8000 200 fold 
1111 650 8000 0 fold 
5555 2861 8000 300 raise 
6666 2936 8000 200 check 
8888 3203 8000 200 call 
total pot: 1200 
/inquire 
recv from player 8888: check
send inquire msg to player 6666 
inquire/ 
8888 3103 8000 300 call 
2222 800 8000 0 fold 
3333 1300 8000 0 fold 
4444 2486 8000 300 call 
7777 564 8000 200 fold 
1111 650 8000 0 fold 
5555 2861 8000 300 raise 
6666 2936 8000 200 check 
total pot: 1300 
/inquire 
recv from player 6666: check
turn/ 
DIAMONDS 7 
/turn 

---turn round bet---
valid player: 8, all in player: 0, fold player: 4
send inquire msg to player 6666 
inquire/ 
8888 3103 8000 300 call 
2222 800 8000 0 fold 
3333 1300 8000 0 fold 
4444 2486 8000 300 call 
7777 564 8000 200 fold 
1111 650 8000 0 fold 
5555 2861 8000 300 raise 
6666 2836 8000 300 call 
total pot: 1400 
/inquire 
recv from player 6666: check
send inquire msg to player 5555 
inquire/ 
6666 2836 8000 300 check 
8888 3103 8000 300 call 
2222 800 8000 0 fold 
3333 1300 8000 0 fold 
4444 2486 8000 300 call 
7777 564 8000 200 fold 
1111 650 8000 0 fold 
5555 2861 8000 300 raise 
total pot: 1400 
/inquire 
recv from player 5555: check
send inquire msg to player 4444 
inquire/ 
7777 564 8000 200 fold 
1111 650 8000 0 fold 
5555 2861 8000 300 check 
6666 2836 8000 300 check 
8888 3103 8000 300 call 
2222 800 8000 0 fold 
3333 1300 8000 0 fold 
4444 2486 8000 300 call 
total pot: 1400 
/inquire 
recv from player 4444: check
send inquire msg to player 8888 
inquire/ 
2222 800 8000 0 fold 
3333 1300 8000 0 fold 
4444 2486 8000 300 check 
7777 564 8000 200 fold 
1111 650 8000 0 fold 
5555 2861 8000 300 check 
6666 2836 8000 300 check 
8888 3103 8000 300 call 
total pot: 1400 
/inquire 
recv from player 8888: check
river/ 
DIAMONDS 4 
/river 

---river round bet---
valid player: 8, all in player: 0, fold player: 4
send inquire msg to player 6666 
inquire/ 
8888 3103 8000 300 check 
2222 800 8000 0 fold 
3333 1300 8000 0 fold 
4444 2486 8000 300 check 
7777 564 8000 200 fold 
1111 650 8000 0 fold 
5555 2861 8000 300 check 
6666 2836 8000 300 check 
total pot: 1400 
/inquire 
recv from player 6666: check
send inquire msg to player 5555 
inquire/ 
6666 2836 8000 300 check 
8888 3103 8000 300 check 
2222 800 8000 0 fold 
3333 1300 8000 0 fold 
4444 2486 8000 300 check 
7777 564 8000 200 fold 
1111 650 8000 0 fold 
5555 2861 8000 300 check 
total pot: 1400 
/inquire 
recv from player 5555: check
send inquire msg to player 4444 
inquire/ 
7777 564 8000 200 fold 
1111 650 8000 0 fold 
5555 2861 8000 300 check 
6666 2836 8000 300 check 
8888 3103 8000 300 check 
2222 800 8000 0 fold 
3333 1300 8000 0 fold 
4444 2486 8000 300 check 
total pot: 1400 
/inquire 
recv from player 4444: raise 1181
send inquire msg to player 8888 
inquire/ 
2222 800 8000 0 fold 
3333 1300 8000 0 fold 
4444 1305 8000 1481 raise 
7777 564 8000 200 fold 
1111 650 8000 0 fold 
5555 2861 8000 300 check 
6666 2836 8000 300 check 
8888 3103 8000 300 check 
total pot: 2581 
/inquire 
recv from player 8888: check
send inquire msg to player 6666 
inquire/ 
8888 1922 8000 1481 call 
2222 800 8000 0 fold 
3333 1300 8000 0 fold 
4444 1305 8000 1481 raise 
7777 564 8000 200 fold 
1111 650 8000 0 fold 
5555 2861 8000 300 check 
6666 2836 8000 300 check 
total pot: 3762 
/inquire 
recv from player 6666: check
send inquire msg to player 5555 
inquire/ 
6666 1655 8000 1481 call 
8888 1922 8000 1481 call 
2222 800 8000 0 fold 
3333 1300 8000 0 fold 
4444 1305 8000 1481 raise 
7777 564 8000 200 fold 
1111 650 8000 0 fold 
5555 2861 8000 300 check 
total pot: 4943 
/inquire 
recv from player 5555: raise 0
send inquire msg to player 4444 
inquire/ 
7777 564 8000 200 fold 
1111 650 8000 0 fold 
5555 499 8000 2662 raise 
6666 1655 8000 1481 call 
8888 1922 8000 1481 call 
2222 800 8000 0 fold 
3333 1300 8000 0 fold 
4444 1305 8000 1481 raise 
total pot: 7305 
/inquire 
recv from player 4444: check
send inquire msg to player 8888 
inquire/ 
2222 800 8000 0 fold 
3333 1300 8000 0 fold 
4444 124 8000 2662 call 
7777 564 8000 200 fold 
1111 650 8000 0 fold 
5555 499 8000 2662 raise 
6666 1655 8000 1481 call 
8888 1922 8000 1481 call 
total pot: 8486 
/inquire 
recv from player 8888: check
send inquire msg to player 6666 
inquire/ 
8888 741 8000 2662 call 
2222 800 8000 0 fold 
3333 1300 8000 0 fold 
4444 124 8000 2662 call 
7777 564 8000 200 fold 
1111 650 8000 0 fold 
5555 499 8000 2662 raise 
6666 1655 8000 1481 call 
total pot: 9667 
/inquire 
recv from player 6666: check

---show down---
showdown/ 
common/ 
HEARTS 7 
SPADES 8 
HEARTS 5 
DIAMONDS 7 
DIAMONDS 4 
/common 
3: 6666 CLUBS K SPADES J ONE_PAIR 
2: 5555 HEARTS 6 HEARTS Q STRAIGHT 
1: 4444 SPADES 7 CLUBS 4 FULL_HOUSE 
4: 8888 SPADES 3 SPADES 10 ONE_PAIR 
/showdown 

---Allocate pot---
pot-win/ 
4444: 10848 
/pot-win 
it is player 6666's turn to be button

-----13 Hand-----
seat/ 
button: 6666 474 8000 
small blind: 5555 499 8000 
big blind: 1111 650 8000 
7777 564 8000 
4444 10972 8000 
3333 1300 8000 
2222 800 8000 
8888 741 8000 
/seat 
blind/ 
5555: 50 
1111: 100 
/blind 
player 5555:hold/ 
HEARTS K 
DIAMONDS 7 
/hold 
player 1111:hold/ 
SPADES 10 
DIAMONDS 4 
/hold 
player 7777:hold/ 
SPADES 3 
SPADES 2 
/hold 
player 4444:hold/ 
SPADES J 
HEARTS 9 
/hold 
player 3333:hold/ 
SPADES 8 
CLUBS 4 
/hold 
player 2222:hold/ 
CLUBS K 
HEARTS 6 
/hold 
player 8888:hold/ 
HEARTS 3 
SPADES A 
/hold 
player 6666:hold/ 
DIAMONDS 6 
SPADES 9 
/hold 

---pre flop round bet---
valid player: 8, all in player: 0, fold player: 0
send inquire msg to player 7777 
inquire/ 
1111 550 8000 100 blind 
5555 449 8000 50 blind 
total pot: 150 
/inquire 
recv from player 7777: check
send inquire msg to player 4444 
inquire/ 
7777 464 8000 100 call 
1111 550 8000 100 blind 
5555 449 8000 50 blind 
total pot: 250 
/inquire 
recv from player 4444: raise 697
send inquire msg to player 3333 
inquire/ 
4444 10175 8000 797 raise 
7777 464 8000 100 call 
1111 550 8000 100 blind 
5555 449 8000 50 blind 
total pot: 1047 
/inquire 
recv from player 3333: fold
send inquire msg to player 2222 
inquire/ 
3333 1300 8000 0 fold 
4444 10175 8000 797 raise 
7777 464 8000 100 call 
1111 550 8000 100 blind 
5555 449 8000 50 blind 
total pot: 1047 
/inquire 
recv from player 2222: raise 0
send inquire msg to player 8888 
inquire/ 
2222 0 8000 800 all_in 
3333 1300 8000 0 fold 
4444 10175 8000 797 raise 
7777 464 8000 100 call 
1111 550 8000 100 blind 
5555 449 8000 50 blind 
total pot: 1847 
/inquire 
recv from player 8888: check
send inquire msg to player 6666 
inquire/ 
8888 0 8000 741 all_in 
2222 0 8000 800 all_in 
3333 1300 8000 0 fold 
4444 10175 8000 797 raise 
7777 464 8000 100 call 
1111 550 8000 100 blind 
5555 449 8000 50 blind 
total pot: 2588 
/inquire 
recv from player 6666: check
send inquire msg to player 5555 
inquire/ 
6666 0 8000 474 all_in 
8888 0 8000 741 all_in 
2222 0 8000 800 all_in 
3333 1300 8000 0 fold 
4444 10175 8000 797 raise 
7777 464 8000 100 call 
1111 550 8000 100 blind 
5555 449 8000 50 blind 
total pot: 3062 
/inquire 
recv from player 5555: raise 0
send inquire msg to player 1111 
inquire/ 
5555 0 8000 499 all_in 
6666 0 8000 474 all_in 
8888 0 8000 741 all_in 
2222 0 8000 800 all_in 
3333 1300 8000 0 fold 
4444 10175 8000 797 raise 
7777 464 8000 100 call 
1111 550 8000 100 blind 
total pot: 3511 
/inquire 
recv from player 1111: fold
send inquire msg to player 7777 
inquire/ 
1111 550 8000 100 fold 
5555 0 8000 499 all_in 
6666 0 8000 474 all_in 
8888 0 8000 741 all_in 
2222 0 8000 800 all_in 
3333 1300 8000 0 fold 
4444 10175 8000 797 raise 
7777 464 8000 100 call 
total pot: 3511 
/inquire 
recv from player 7777: check
send inquire msg to player 4444 
inquire/ 
7777 0 8000 564 all_in 
1111 550 8000 100 fold 
5555 0 8000 499 all_in 
6666 0 8000 474 all_in 
8888 0 8000 741 all_in 
2222 0 8000 800 all_in 
3333 1300 8000 0 fold 
4444 10175 8000 797 raise 
total pot: 3975 
/inquire 
recv from player 4444: check
flop/ 
CLUBS 10 
CLUBS 7 
HEARTS 4 
/flop 

---flop round bet---
valid player: 8, all in player: 5, fold player: 2
turn/ 
HEARTS 2 
/turn 

---turn round bet---
valid player: 8, all in player: 5, fold player: 2
river/ 
DIAMONDS K 
/river 

---river round bet---
valid player: 8, all in player: 5, fold player: 2

---show down---
showdown/ 
common/ 
CLUBS 10 
CLUBS 7 
HEARTS 4 
HEARTS 2 
DIAMONDS K 
/common 
1: 5555 HEARTS K DIAMONDS 7 TWO_PAIR 
3: 7777 SPADES 3 SPADES 2 ONE_PAIR 
5: 4444 SPADES J HEARTS 9 HIGH_CARD 
2: 2222 CLUBS K HEARTS 6 ONE_PAIR 
4: 8888 HEARTS 3 SPADES A HIGH_CARD 
6: 6666 DIAMONDS 6 SPADES 9 HIGH_CARD 
/showdown 

---Allocate pot---
pot-win/ 
5555: 3069 
2222: 909 
/pot-win 
it is player 5555's turn to be button

-----14 Hand-----
seat/ 
button: 5555 3069 8000 
small blind: 1111 550 8000 
big blind: 7777 2000 6000 
4444 10172 8000 
3333 1300 8000 
2222 909 8000 
8888 2000 6000 
6666 2000 6000 
/seat 
blind/ 
1111: 50 
7777: 100 
/blind 
player 1111:hold/ 
HEARTS K 
DIAMONDS 7 
/hold 
player 7777:hold/ 
SPADES 10 
DIAMONDS 4 
/hold 
player 4444:hold/ 
SPADES 3 
SPADES 2 
/hold 
player 3333:hold/ 
SPADES J 
HEARTS 9 
/hold 
player 2222:hold/ 
SPADES 8 
CLUBS 4 
/hold 
player 8888:hold/ 
CLUBS K 
HEARTS 6 
/hold 
player 6666:hold/ 
HEARTS 3 
SPADES A 
/hold 
player 5555:hold/ 
DIAMONDS 6 
SPADES 9 
/hold 

---pre flop round bet---
valid player: 8, all in player: 0, fold player: 0
send inquire msg to player 4444 
inquire/ 
7777 1900 6000 100 blind 
1111 500 8000 50 blind 
total pot: 150 
/inquire 
recv from player 4444: raise 492
send inquire msg to player 3333 
inquire/ 
4444 9580 8000 592 raise 
7777 1900 6000 100 blind 
1111 500 8000 50 blind 
total pot: 742 
/inquire 
recv from player 3333: fold
send inquire msg to player 2222 
inquire/ 
3333 1300 8000 0 fold 
4444 9580 8000 592 raise 
7777 1900 6000 100 blind 
1111 500 8000 50 blind 
total pot: 742 
/inquire 
recv from player 2222: check
send inquire msg to player 8888 
inquire/ 
2222 317 8000 592 call 
3333 1300 8000 0 fold 
4444 9580 8000 592 raise 
7777 1900 6000 100 blind 
1111 500 8000 50 blind 
total pot: 1334 
/inquire 
recv from player 8888: check
send inquire msg to player 6666 
inquire/ 
8888 1408 6000 592 call 
2222 317 8000 592 call 
3333 1300 8000 0 fold 
4444 9580 8000 592 raise 
7777 1900 6000 100 blind 
1111 500 8000 50 blind 
total pot: 1926 
/inquire 
recv from player 6666: check
send inquire msg to player 5555 
inquire/ 
6666 1408 6000 592 call 
8888 1408 6000 592 call 
2222 317 8000 592 call 
3333 1300 8000 0 fold 
4444 9580 8000 592 raise 
7777 1900 6000 100 blind 
1111 500 8000 50 blind 
total pot: 2518 
/inquire 
recv from player 5555: check
send inquire msg to player 1111 
inquire/ 
5555 2477 8000 592 call 
6666 1408 6000 592 call 
8888 1408 6000 592 call 
2222 317 8000 592 call 
3333 1300 8000 0 fold 
4444 9580 8000 592 raise 
7777 1900 6000 100 blind 
1111 500 8000 50 blind 
total pot: 3110 
/inquire 
recv from player 1111: fold
send inquire msg to player 7777 
inquire/ 
1111 500 8000 50 fold 
5555 2477 8000 592 call 
6666 1408 6000 592 call 
8888 1408 6000 592 call 
2222 317 8000 592 call 
3333 1300 8000 0 fold 
4444 9580 8000 592 raise 
7777 1900 6000 100 blind 
total pot: 3110 
/inquire 
recv from player 7777: fold
flop/ 
CLUBS 10 
CLUBS 7 
HEARTS 4 
/flop 

---flop round bet---
valid player: 8, all in player: 0, fold player: 3
send inquire msg to player 4444 
inquire/ 
7777 1900 6000 100 fold 
1111 500 8000 50 fold 
5555 2477 8000 592 call 
6666 1408 6000 592 call 
8888 1408 6000 592 call 
2222 317 8000 592 call 
3333 1300 8000 0 fold 
4444 9580 8000 592 raise 
total pot: 3110 
/inquire 
recv from player 4444: fold
send inquire msg to player 2222 
inquire/ 
3333 1300 8000 0 fold 
4444 9580 8000 592 fold 
7777 1900 6000 100 fold 
1111 500 8000 50 fold 
5555 2477 8000 592 call 
6666 1408 6000 592 call 
8888 1408 6000 592 call 
2222 317 8000 592 call 
total pot: 3110 
/inquire 
recv from player 2222: check
send inquire msg to player 8888 
inquire/ 
2222 317 8000 592 check 
3333 1300 8000 0 fold 
4444 9580 8000 592 fold 
7777 1900 6000 100 fold 
1111 500 8000 50 fold 
5555 2477 8000 592 call 
6666 1408 6000 592 call 
8888 1408 6000 592 call 
total pot: 3110 
/inquire 
recv from player 8888: check
send inquire msg to player 6666 
inquire/ 
8888 1408 6000 592 check 
2222 317 8000 592 check 
3333 1300 8000 0 fold 
4444 9580 8000 592 fold 
7777 1900 6000 100 fold 
1111 500 8000 50 fold 
5555 2477 8000 592 call 
6666 1408 6000 592 call 
total pot: 3110 
/inquire 
recv from player 6666: check
send inquire msg to player 5555 
inquire/ 
6666 1408 6000 592 check 
8888 1408 6000 592 check 
2222 317 8000 592 check 
3333 1300 8000 0 fold 
4444 9580 8000 592 fold 
7777 1900 6000 100 fold 
1111 500 8000 50 fold 
5555 2477 8000 592 call 
total pot: 3110 
/inquire 
recv from player 5555: check
turn/ 
HEARTS 2 
/turn 

---turn round bet---
valid player: 8, all in player: 0, fold player: 4
send inquire msg to player 2222 
inquire/ 
3333 1300 8000 0 fold 
4444 9580 8000 592 fold 
7777 1900 6000 100 fold 
1111 500 8000 50 fold 
5555 2477 8000 592 check 
6666 1408 6000 592 check 
8888 1408 6000 592 check 
2222 317 8000 592 check 
total pot: 3110 
/inquire 
recv from player 2222: fold
send inquire msg to player 8888 
inquire/ 
2222 317 8000 592 fold 
3333 1300 8000 0 fold 
4444 9580 8000 592 fold 
7777 1900 6000 100 fold 
1111 500 8000 50 fold 
5555 2477 8000 592 check 
6666 1408 6000 592 check 
8888 1408 6000 592 check 
total pot: 3110 
/inquire 
recv from player 8888: check
send inquire msg to player 6666 
inquire/ 
8888 1408 6000 592 check 
2222 317 8000 592 fold 
3333 1300 8000 0 fold 
4444 9580 8000 592 fold 
7777 1900 6000 100 fold 
1111 500 8000 50 fold 
5555 2477 8000 592 check 
6666 1408 6000 592 check 
total pot: 3110 
/inquire 
recv from player 6666: check
send inquire msg to player 5555 
inquire/ 
6666 1408 6000 592 check 
8888 1408 6000 592 check 
2222 317 8000 592 fold 
3333 1300 8000 0 fold 
4444 9580 8000 592 fold 
7777 1900 6000 100 fold 
1111 500 8000 50 fold 
5555 2477 8000 592 check 
total pot: 3110 
/inquire 
recv from player 5555: raise 0
send inquire msg to player 8888 
inquire/ 
2222 317 8000 592 fold 
3333 1300 8000 0 fold 
4444 9580 8000 592 fold 
7777 1900 6000 100 fold 
1111 500 8000 50 fold 
5555 2377 8000 692 raise 
6666 1408 6000 592 check 
8888 1408 6000 592 check 
total pot: 3210 
/inquire 
recv from player 8888: check
send inquire msg to player 6666 
inquire/ 
8888 1308 6000 692 call 
2222 317 8000 592 fold 
3333 1300 8000 0 fold 
4444 9580 8000 592 fold 
7777 1900 6000 100 fold 
1111 500 8000 50 fold 
5555 2377 8000 692 raise 
6666 1408 6000 592 check 
total pot: 3310 
/inquire 
recv from player 6666: check
river/ 
DIAMONDS K 
/river 

---river round bet---
valid player: 8, all in player: 0, fold player: 5
send inquire msg to player 8888 
inquire/ 
2222 317 8000 592 fold 
3333 1300 8000 0 fold 
4444 9580 8000 592 fold 
7777 1900 6000 100 fold 
1111 500 8000 50 fold 
5555 2377 8000 692 raise 
6666 1308 6000 692 call 
8888 1308 6000 692 call 
total pot: 3410 
/inquire 
recv from player 8888: check
send inquire msg to player 6666 
inquire/ 
8888 1308 6000 692 check 
2222 317 8000 592 fold 
3333 1300 8000 0 fold 
4444 9580 8000 592 fold 
7777 1900 6000 100 fold 
1111 500 8000 50 fold 
5555 2377 8000 692 raise 
6666 1308 6000 692 call 
total pot: 3410 
/inquire 
recv from player 6666: check
send inquire msg to player 5555 
inquire/ 
6666 1308 6000 692 check 
8888 1308 6000 692 check 
2222 317 8000 592 fold 
3333 1300 8000 0 fold 
4444 9580 8000 592 fold 
7777 1900 6000 100 fold 
1111 500 8000 50 fold 
5555 2377 8000 692 raise 
total pot: 3410 
/inquire 
recv from player 5555: check

---show down---
showdown/ 
common/ 
CLUBS 10 
CLUBS 7 
HEARTS 4 
HEARTS 2 
DIAMONDS K 
/common 
1: 8888 CLUBS K HEARTS 6 ONE_PAIR 
2: 6666 HEARTS 3 SPADES A HIGH_CARD 
3: 5555 DIAMONDS 6 SPADES 9 HIGH_CARD 
/showdown 

---Allocate pot---
pot-win/ 
8888: 3410 
/pot-win 
it is player 1111's turn to be button

-----15 Hand-----
seat/ 
button: 1111 500 8000 
small blind: 7777 1900 6000 
big blind: 4444 9580 8000 
3333 1300 8000 
2222 317 8000 
8888 4718 6000 
6666 1308 6000 
5555 2377 8000 
/seat 
blind/ 
7777: 50 
4444: 100 
/blind 
player 7777:hold/ 
DIAMONDS Q 
SPADES 9 
/hold 
player 4444:hold/ 
DIAMONDS 6 
CLUBS J 
/hold 
player 3333:hold/ 
DIAMONDS 10 
CLUBS 5 
/hold 
player 2222:hold/ 
CLUBS 9 
SPADES J 
/hold 
player 8888:hold/ 
SPADES 3 
HEARTS 2 
/hold 
player 6666:hold/ 
HEARTS 4 
CLUBS 2 
/hold 
player 5555:hold/ 
DIAMONDS 3 
DIAMONDS 5 
/hold 
player 1111:hold/ 
SPADES 6 
DIAMONDS 4 
/hold 

---pre flop round bet---
valid player: 8, all in player: 0, fold player: 0
send inquire msg to player 3333 
inquire/ 
4444 9480 8000 100 blind 
7777 1850 6000 50 blind 
total pot: 150 
/inquire 
recv from player 3333: fold
send inquire msg to player 2222 
inquire/ 
3333 1300 8000 0 fold 
4444 9480 8000 100 blind 
7777 1850 6000 50 blind 
total pot: 150 
/inquire 
recv from player 2222: fold
send inquire msg to player 8888 
inquire/ 
2222 317 8000 0 fold 
3333 1300 8000 0 fold 
4444 9480 8000 100 blind 
7777 1850 6000 50 blind 
total pot: 150 
/inquire 
recv from player 8888: check
send inquire msg to player 6666 
inquire/ 
8888 4618 6000 100 call 
2222 317 8000 0 fold 
3333 1300 8000 0 fold 
4444 9480 8000 100 blind 
7777 1850 6000 50 blind 
total pot: 250 
/inquire 
recv from player 6666: check
send inquire msg to player 5555 
inquire/ 
6666 1208 6000 100 call 
8888 4618 6000 100 call 
2222 317 8000 0 fold 
3333 1300 8000 0 fold 
4444 9480 8000 100 blind 
7777 1850 6000 50 blind 
total pot: 350 
/inquire 
recv from player 5555: raise 0
send inquire msg to player 1111 
inquire/ 
5555 2177 8000 200 raise 
6666 1208 6000 100 call 
8888 4618 6000 100 call 
2222 317 8000 0 fold 
3333 1300 8000 0 fold 
4444 9480 8000 100 blind 
7777 1850 6000 50 blind 
total pot: 550 
/inquire 
recv from player 1111: fold
send inquire msg to player 7777 
inquire/ 
1111 500 8000 0 fold 
5555 2177 8000 200 raise 
6666 1208 6000 100 call 
8888 4618 6000 100 call 
2222 317 8000 0 fold 
3333 1300 8000 0 fold 
4444 9480 8000 100 blind 
7777 1850 6000 50 blind 
total pot: 550 
/inquire 
recv from player 7777: check
send inquire msg to player 4444 
inquire/ 
7777 1700 6000 200 call 
1111 500 8000 0 fold 
5555 2177 8000 200 raise 
6666 1208 6000 100 call 
8888 4618 6000 100 call 
2222 317 8000 0 fold 
3333 1300 8000 0 fold 
4444 9480 8000 100 blind 
total pot: 700 
/inquire 
recv from player 4444: check
send inquire msg to player 8888 
inquire/ 
2222 317 8000 0 fold 
3333 1300 8000 0 fold 
4444 9380 8000 200 call 
7777 1700 6000 200 call 
1111 500 8000 0 fold 
5555 2177 8000 200 raise 
6666 1208 6000 100 call 
8888 4618 6000 100 call 
total pot: 800 
/inquire 
recv from player 8888: check
send inquire msg to player 6666 
inquire/ 
8888 4518 6000 200 call 
2222 317 8000 0 fold 
3333 1300 8000 0 fold 
4444 9380 8000 200 call 
7777 1700 6000 200 call 
1111 500 8000 0 fold 
5555 2177 8000 200 raise 
6666 1208 6000 100 call 
total pot: 900 
/inquire 
recv from player 6666: check
flop/ 
HEARTS Q 
CLUBS 7 
SPADES Q 
/flop 

---flop round bet---
valid player: 8, all in player: 0, fold player: 3
send inquire msg to player 7777 
inquire/ 
1111 500 8000 0 fold 
5555 2177 8000 200 raise 
6666 1108 6000 200 call 
8888 4518 6000 200 call 
2222 317 8000 0 fold 
3333 1300 8000 0 fold 
4444 9380 8000 200 call 
7777 1700 6000 200 call 
total pot: 1000 
/inquire 
recv from player 7777: fold
send inquire msg to player 4444 
inquire/ 
7777 1700 6000 200 fold 
1111 500 8000 0 fold 
5555 2177 8000 200 raise 
6666 1108 6000 200 call 
8888 4518 6000 200 call 
2222 317 8000 0 fold 
3333 1300 8000 0 fold 
4444 9380 8000 200 call 
total pot: 1000 
/inquire 
recv from player 4444: check
send inquire msg to player 8888 
inquire/ 
2222 317 8000 0 fold 
3333 1300 8000 0 fold 
4444 9380 8000 200 check 
7777 1700 6000 200 fold 
1111 500 8000 0 fold 
5555 2177 8000 200 raise 
6666 1108 6000 200 call 
8888 4518 6000 200 call 
total pot: 1000 
/inquire 
recv from player 8888: check
send inquire msg to player 6666 
inquire/ 
8888 4518 6000 200 check 
2222 317 8000 0 fold 
3333 1300 8000 0 fold 
4444 9380 8000 200 check 
7777 1700 6000 200 fold 
1111 500 8000 0 fold 
5555 2177 8000 200 raise 
6666 1108 6000 200 call 
total pot: 1000 
/inquire 
recv from player 6666: check
send inquire msg to player 5555 
inquire/ 
6666 1108 6000 200 check 
8888 4518 6000 200 check 
2222 317 8000 0 fold 
3333 1300 8000 0 fold 
4444 9380 8000 200 check 
7777 1700 6000 200 fold 
1111 500 8000 0 fold 
5555 2177 8000 200 raise 
total pot: 1000 
/inquire 
recv from player 5555: raise 0
send inquire msg to player 4444 
inquire/ 
7777 1700 6000 200 fold 
1111 500 8000 0 fold 
5555 2077 8000 300 raise 
6666 1108 6000 200 check 
8888 4518 6000 200 check 
2222 317 8000 0 fold 
3333 1300 8000 0 fold 
4444 9380 8000 200 check 
total pot: 1100 
/inquire 
recv from player 4444: check
send inquire msg to player 8888 
inquire/ 
2222 317 8000 0 fold 
3333 1300 8000 0 fold 
4444 9280 8000 300 call 
7777 1700 6000 200 fold 
1111 500 8000 0 fold 
5555 2077 8000 300 raise 
6666 1108 6000 200 check 
8888 4518 6000 200 check 
total pot: 1200 
/inquire 
recv from player 8888: check
send inquire msg to player 6666 
inquire/ 
8888 4418 6000 300 call 
2222 317 8000 0 fold 
3333 1300 8000 0 fold 
4444 9280 8000 300 call 
7777 1700 6000 200 fold 
1111 500 8000 0 fold 
5555 2077 8000 300 raise 
6666 1108 6000 200 check 
total pot: 1300 
/inquire 
recv from player 6666: check
turn/ 
DIAMONDS A 
/turn 

---turn round bet---
valid player: 8, all in player: 0, fold player: 4
send inquire msg to player 4444 
inquire/ 
7777 1700 6000 200 fold 
1111 500 8000 0 fold 
5555 2077 8000 300 raise 
6666 1008 6000 300 call 
8888 4418 6000 300 call 
2222 317 8000 0 fold 
3333 1300 8000 0 fold 
4444 9280 8000 300 call 
total pot: 1400 
/inquire 
recv from player 4444: fold
send inquire msg to player 8888 
inquire/ 
2222 317 8000 0 fold 
3333 1300 8000 0 fold 
4444 9280 8000 300 fold 
7777 1700 6000 200 fold 
1111 500 8000 0 fold 
5555 2077 8000 300 raise 
6666 1008 6000 300 call 
8888 4418 6000 300 call 
total pot: 1400 
/inquire 
recv from player 8888: check
send inquire msg to player 6666 
inquire/ 
8888 4418 6000 300 check 
2222 317 8000 0 fold 
3333 1300 8000 0 fold 
4444 9280 8000 300 fold 
7777 1700 6000 200 fold 
1111 500 8000 0 fold 
5555 2077 8000 300 raise 
6666 1008 6000 300 call 
total pot: 1400 
/inquire 
recv from player 6666: check
send inquire msg to player 5555 
inquire/ 
6666 1008 6000 300 check 
8888 4418 6000 300 check 
2222 317 8000 0 fold 
3333 1300 8000 0 fold 
4444 9280 8000 300 fold 
7777 1700 6000 200 fold 
1111 500 8000 0 fold 
5555 2077 8000 300 raise 
total pot: 1400 
/inquire 
recv from player 5555: raise 0
send inquire msg to player 8888 
inquire/ 
2222 317 8000 0 fold 
3333 1300 8000 0 fold 
4444 9280 8000 300 fold 
7777 1700 6000 200 fold 
1111 500 8000 0 fold 
5555 1977 8000 400 raise 
6666 1008 6000 300 check 
8888 4418 6000 300 check 
total pot: 1500 
/inquire 
recv from player 8888: check
send inquire msg to player 6666 
inquire/ 
8888 4318 6000 400 call 
2222 317 8000 0 fold 
3333 1300 8000 0 fold 
4444 9280 8000 300 fold 
7777 1700 6000 200 fold 
1111 500 8000 0 fold 
5555 1977 8000 400 raise 
6666 1008 6000 300 check 
total pot: 1600 
/inquire 
recv from player 6666: check
river/ 
CLUBS Q 
/river 

---river round bet---
valid player: 8, all in player: 0, fold player: 5
send inquire msg to player 8888 
inquire/ 
2222 317 8000 0 fold 
3333 1300 8000 0 fold 
4444 9280 8000 300 fold 
7777 1700 6000 200 fold 
1111 500 8000 0 fold 
5555 1977 8000 400 raise 
6666 908 6000 400 call 
8888 4318 6000 400 call 
total pot: 1700 
/inquire 
recv from player 8888: check
send inquire msg to player 6666 
inquire/ 
8888 4318 6000 400 check 
2222 317 8000 0 fold 
3333 1300 8000 0 fold 
4444 9280 8000 300 fold 
7777 1700 6000 200 fold 
1111 500 8000 0 fold 
5555 1977 8000 400 raise 
6666 908 6000 400 call 
total pot: 1700 
/inquire 
recv from player 6666: check
send inquire msg to player 5555 
inquire/ 
6666 908 6000 400 check 
8888 4318 6000 400 check 
2222 317 8000 0 fold 
3333 1300 8000 0 fold 
4444 9280 8000 300 fold 
7777 1700 6000 200 fold 
1111 500 8000 0 fold 
5555 1977 8000 400 raise 
total pot: 1700 
/inquire 
recv from player 5555: raise 0
send inquire msg to player 8888 
inquire/ 
2222 317 8000 0 fold 
3333 1300 8000 0 fold 
4444 9280 8000 300 fold 
7777 1700 6000 200 fold 
1111 500 8000 0 fold 
5555 1877 8000 500 raise 
6666 908 6000 400 check 
8888 4318 6000 400 check 
total pot: 1800 
/inquire 
recv from player 8888: check
send inquire msg to player 6666 
inquire/ 
8888 4218 6000 500 call 
2222 317 8000 0 fold 
3333 1300 8000 0 fold 
4444 9280 8000 300 fold 
7777 1700 6000 200 fold 
1111 500 8000 0 fold 
5555 1877 8000 500 raise 
6666 908 6000 400 check 
total pot: 1900 
/inquire 
recv from player 6666: check

---show down---
showdown/ 
common/ 
HEARTS Q 
CLUBS 7 
SPADES Q 
DIAMONDS A 
CLUBS Q 
/common 
1: 8888 SPADES 3 HEARTS 2 THREE_OF_A_KIND 
1: 6666 HEARTS 4 CLUBS 2 THREE_OF_A_KIND 
1: 5555 DIAMONDS 3 DIAMONDS 5 THREE_OF_A_KIND 
/showdown 

---Allocate pot---
pot-win/ 
8888: 666 
6666: 666 
5555: 666 
/pot-win 
it is player 7777's turn to be button

-----16 Hand-----
seat/ 
button: 7777 1700 6000 
small blind: 4444 9280 8000 
big blind: 3333 1300 8000 
2222 317 8000 
8888 4884 6000 
6666 1474 6000 
5555 2543 8000 
1111 500 8000 
/seat 
blind/ 
4444: 50 
3333: 100 
/blind 
player 4444:hold/ 
SPADES 4 
CLUBS K 
/hold 
player 3333:hold/ 
SPADES J 
SPADES Q 
/hold 
player 2222:hold/ 
HEARTS 9 
DIAMONDS Q 
/hold 
player 8888:hold/ 
DIAMONDS 9 
HEARTS 2 
/hold 
player 6666:hold/ 
CLUBS 5 
SPADES A 
/hold 
player 5555:hold/ 
HEARTS 4 
SPADES 5 
/hold 
player 1111:hold/ 
HEARTS 8 
DIAMONDS 8 
/hold 
player 7777:hold/ 
HEARTS K 
DIAMONDS K 
/hold 

---pre flop round bet---
valid player: 8, all in player: 0, fold player: 0
send inquire msg to player 2222 
inquire/ 
3333 1200 8000 100 blind 
4444 9230 8000 50 blind 
total pot: 150 
/inquire 
recv from player 2222: fold
send inquire msg to player 8888 
inquire/ 
2222 317 8000 0 fold 
3333 1200 8000 100 blind 
4444 9230 8000 50 blind 
total pot: 150 
/inquire 
recv from player 8888: check
send inquire msg to player 6666 
inquire/ 
8888 4784 6000 100 call 
2222 317 8000 0 fold 
3333 1200 8000 100 blind 
4444 9230 8000 50 blind 
total pot: 250 
/inquire 
recv from player 6666: check
send inquire msg to player 5555 
inquire/ 
6666 1374 6000 100 call 
8888 4784 6000 100 call 
2222 317 8000 0 fold 
3333 1200 8000 100 blind 
4444 9230 8000 50 blind 
total pot: 350 
/inquire 
recv from player 5555: check
send inquire msg to player 1111 
inquire/ 
5555 2443 8000 100 call 
6666 1374 6000 100 call 
8888 4784 6000 100 call 
2222 317 8000 0 fold 
3333 1200 8000 100 blind 
4444 9230 8000 50 blind 
total pot: 450 
/inquire 
recv from player 1111: fold
send inquire msg to player 7777 
inquire/ 
1111 500 8000 0 fold 
5555 2443 8000 100 call 
6666 1374 6000 100 call 
8888 4784 6000 100 call 
2222 317 8000 0 fold 
3333 1200 8000 100 blind 
4444 9230 8000 50 blind 
total pot: 450 
/inquire 
recv from player 7777: raise 0
send inquire msg to player 4444 
inquire/ 
7777 1500 6000 200 raise 
1111 500 8000 0 fold 
5555 2443 8000 100 call 
6666 1374 6000 100 call 
8888 4784 6000 100 call 
2222 317 8000 0 fold 
3333 1200 8000 100 blind 
4444 9230 8000 50 blind 
total pot: 650 
/inquire 
recv from player 4444: raise 144
send inquire msg to player 3333 
inquire/ 
4444 8936 8000 344 raise 
7777 1500 6000 200 raise 
1111 500 8000 0 fold 
5555 2443 8000 100 call 
6666 1374 6000 100 call 
8888 4784 6000 100 call 
2222 317 8000 0 fold 
3333 1200 8000 100 blind 
total pot: 944 
/inquire 
recv from player 3333: check
send inquire msg to player 8888 
inquire/ 
2222 317 8000 0 fold 
3333 956 8000 344 call 
4444 8936 8000 344 raise 
7777 1500 6000 200 raise 
1111 500 8000 0 fold 
5555 2443 8000 100 call 
6666 1374 6000 100 call 
8888 4784 6000 100 call 
total pot: 1188 
/inquire 
recv from player 8888: check
send inquire msg to player 6666 
inquire/ 
8888 4540 6000 344 call 
2222 317 8000 0 fold 
3333 956 8000 344 call 
4444 8936 8000 344 raise 
7777 1500 6000 200 raise 
1111 500 8000 0 fold 
5555 2443 8000 100 call 
6666 1374 6000 100 call 
total pot: 1432 
/inquire 
recv from player 6666: check
send inquire msg to player 5555 
inquire/ 
6666 1130 6000 344 call 
8888 4540 6000 344 call 
2222 317 8000 0 fold 
3333 956 8000 344 call 
4444 8936 8000 344 raise 
7777 1500 6000 200 raise 
1111 500 8000 0 fold 
5555 2443 8000 100 call 
total pot: 1676 
/inquire 
recv from player 5555: raise 0
send inquire msg to player 7777 
inquire/ 
1111 500 8000 0 fold 
5555 2055 8000 488 raise 
6666 1130 6000 344 call 
8888 4540 6000 344 call 
2222 317 8000 0 fold 
3333 956 8000 344 call 
4444 8936 8000 344 raise 
7777 1500 6000 200 raise 
total pot: 2064 
/inquire 
recv from player 7777: fold
send inquire msg to player 4444 
inquire/ 
7777 1500 6000 200 fold 
1111 500 8000 0 fold 
5555 2055 8000 488 raise 
6666 1130 6000 344 call 
8888 4540 6000 344 call 
2222 317 8000 0 fold 
3333 956 8000 344 call 
4444 8936 8000 344 raise 
total pot: 2064 
/inquire 
recv from player 4444: check
send inquire msg to player 3333 
inquire/ 
4444 8792 8000 488 call 
7777 1500 6000 200 fold 
1111 500 8000 0 fold 
5555 2055 8000 488 raise 
6666 1130 6000 344 call 
8888 4540 6000 344 call 
2222 317 8000 0 fold 
3333 956 8000 344 call 
total pot: 2208 
/inquire 
recv from player 3333: raise 0
send inquire msg to player 8888 
inquire/ 
2222 317 8000 0 fold 
3333 668 8000 632 raise 
4444 8792 8000 488 call 
7777 1500 6000 200 fold 
1111 500 8000 0 fold 
5555 2055 8000 488 raise 
6666 1130 6000 344 call 
8888 4540 6000 344 call 
total pot: 2496 
/inquire 
recv from player 8888: check
send inquire msg to player 6666 
inquire/ 
8888 4252 6000 632 call 
2222 317 8000 0 fold 
3333 668 8000 632 raise 
4444 8792 8000 488 call 
7777 1500 6000 200 fold 
1111 500 8000 0 fold 
5555 2055 8000 488 raise 
6666 1130 6000 344 call 
total pot: 2784 
/inquire 
recv from player 6666: check
send inquire msg to player 5555 
inquire/ 
6666 842 6000 632 call 
8888 4252 6000 632 call 
2222 317 8000 0 fold 
3333 668 8000 632 raise 
4444 8792 8000 488 call 
7777 1500 6000 200 fold 
1111 500 8000 0 fold 
5555 2055 8000 488 raise 
total pot: 3072 
/inquire 
recv from player 5555: check
send inquire msg to player 4444 
inquire/ 
7777 1500 6000 200 fold 
1111 500 8000 0 fold 
5555 1911 8000 632 call 
6666 842 6000 632 call 
8888 4252 6000 632 call 
2222 317 8000 0 fold 
3333 668 8000 632 raise 
4444 8792 8000 488 call 
total pot: 3216 
/inquire 
recv from player 4444: check
flop/ 
CLUBS 3 
HEARTS 10 
SPADES 8 
/flop 

---flop round bet---
valid player: 8, all in player: 0, fold player: 3
send inquire msg to player 4444 
inquire/ 
7777 1500 6000 200 fold 
1111 500 8000 0 fold 
5555 1911 8000 632 call 
6666 842 6000 632 call 
8888 4252 6000 632 call 
2222 317 8000 0 fold 
3333 668 8000 632 raise 
4444 8648 8000 632 call 
total pot: 3360 
/inquire 
recv from player 4444: fold
send inquire msg to player 3333 
inquire/ 
4444 8648 8000 632 fold 
7777 1500 6000 200 fold 
1111 500 8000 0 fold 
5555 1911 8000 632 call 
6666 842 6000 632 call 
8888 4252 6000 632 call 
2222 317 8000 0 fold 
3333 668 8000 632 raise 
total pot: 3360 
/inquire 
recv from player 3333: raise 0
send inquire msg to player 8888 
inquire/ 
2222 317 8000 0 fold 
3333 568 8000 732 raise 
4444 8648 8000 632 fold 
7777 1500 6000 200 fold 
1111 500 8000 0 fold 
5555 1911 8000 632 call 
6666 842 6000 632 call 
8888 4252 6000 632 call 
total pot: 3460 
/inquire 
recv from player 8888: check
send inquire msg to player 6666 
inquire/ 
8888 4152 6000 732 call 
2222 317 8000 0 fold 
3333 568 8000 732 raise 
4444 8648 8000 632 fold 
7777 1500 6000 200 fold 
1111 500 8000 0 fold 
5555 1911 8000 632 call 
6666 842 6000 632 call 
total pot: 3560 
/inquire 
recv from player 6666: check
send inquire msg to player 5555 
inquire/ 
6666 742 6000 732 call 
8888 4152 6000 732 call 
2222 317 8000 0 fold 
3333 568 8000 732 raise 
4444 8648 8000 632 fold 
7777 1500 6000 200 fold 
1111 500 8000 0 fold 
5555 1911 8000 632 call 
total pot: 3660 
/inquire 
recv from player 5555: check
turn/ 
CLUBS Q 
/turn 

---turn round bet---
valid player: 8, all in player: 0, fold player: 4
send inquire msg to player 3333 
inquire/ 
4444 8648 8000 632 fold 
7777 1500 6000 200 fold 
1111 500 8000 0 fold 
5555 1811 8000 732 call 
6666 742 6000 732 call 
8888 4152 6000 732 call 
2222 317 8000 0 fold 
3333 568 8000 732 raise 
total pot: 3760 
/inquire 
recv from player 3333: fold
send inquire msg to player 8888 
inquire/ 
2222 317 8000 0 fold 
3333 568 8000 732 fold 
4444 8648 8000 632 fold 
7777 1500 6000 200 fold 
1111 500 8000 0 fold 
5555 1811 8000 732 call 
6666 742 6000 732 call 
8888 4152 6000 732 call 
total pot: 3760 
/inquire 
recv from player 8888: check
send inquire msg to player 6666 
inquire/ 
8888 4152 6000 732 check 
2222 317 8000 0 fold 
3333 568 8000 732 fold 
4444 8648 8000 632 fold 
7777 1500 6000 200 fold 
1111 500 8000 0 fold 
5555 1811 8000 732 call 
6666 742 6000 732 call 
total pot: 3760 
/inquire 
recv from player 6666: check
send inquire msg to player 5555 
inquire/ 
6666 742 6000 732 check 
8888 4152 6000 732 check 
2222 317 8000 0 fold 
3333 568 8000 732 fold 
4444 8648 8000 632 fold 
7777 1500 6000 200 fold 
1111 500 8000 0 fold 
5555 1811 8000 732 call 
total pot: 3760 
/inquire 
recv from player 5555: raise 0
send inquire msg to player 8888 
inquire/ 
2222 317 8000 0 fold 
3333 568 8000 732 fold 
4444 8648 8000 632 fold 
7777 1500 6000 200 fold 
1111 500 8000 0 fold 
5555 1711 8000 832 raise 
6666 742 6000 732 check 
8888 4152 6000 732 check 
total pot: 3860 
/inquire 
recv from player 8888: check
send inquire msg to player 6666 
inquire/ 
8888 4052 6000 832 call 
2222 317 8000 0 fold 
3333 568 8000 732 fold 
4444 8648 8000 632 fold 
7777 1500 6000 200 fold 
1111 500 8000 0 fold 
5555 1711 8000 832 raise 
6666 742 6000 732 check 
total pot: 3960 
/inquire 
recv from player 6666: check
river/ 
CLUBS 8 
/river 

---river round bet---
valid player: 8, all in player: 0, fold player: 5
send inquire msg to player 8888 
inquire/ 
2222 317 8000 0 fold 
3333 568 8000 732 fold 
4444 8648 8000 632 fold 
7777 1500 6000 200 fold 
1111 500 8000 0 fold 
5555 1711 8000 832 raise 
6666 642 6000 832 call 
8888 4052 6000 832 call 
total pot: 4060 
/inquire 
recv from player 8888: check
send inquire msg to player 6666 
inquire/ 
8888 4052 6000 832 check 
2222 317 8000 0 fold 
3333 568 8000 732 fold 
4444 8648 8000 632 fold 
7777 1500 6000 200 fold 
1111 500 8000 0 fold 
5555 1711 8000 832 raise 
6666 642 6000 832 call 
total pot: 4060 
/inquire 
recv from player 6666: check
send inquire msg to player 5555 
inquire/ 
6666 642 6000 832 check 
8888 4052 6000 832 check 
2222 317 8000 0 fold 
3333 568 8000 732 fold 
4444 8648 8000 632 fold 
7777 1500 6000 200 fold 
1111 500 8000 0 fold 
5555 1711 8000 832 raise 
total pot: 4060 
/inquire 
recv from player 5555: raise 0
send inquire msg to player 8888 
inquire/ 
2222 317 8000 0 fold 
3333 568 8000 732 fold 
4444 8648 8000 632 fold 
7777 1500 6000 200 fold 
1111 500 8000 0 fold 
5555 1611 8000 932 raise 
6666 642 6000 832 check 
8888 4052 6000 832 check 
total pot: 4160 
/inquire 
recv from player 8888: check
send inquire msg to player 6666 
inquire/ 
8888 3952 6000 932 call 
2222 317 8000 0 fold 
3333 568 8000 732 fold 
4444 8648 8000 632 fold 
7777 1500 6000 200 fold 
1111 500 8000 0 fold 
5555 1611 8000 932 raise 
6666 642 6000 832 check 
total pot: 4260 
/inquire 
recv from player 6666: check

---show down---
showdown/ 
common/ 
CLUBS 3 
HEARTS 10 
SPADES 8 
CLUBS Q 
CLUBS 8 
/common 
2: 8888 DIAMONDS 9 HEARTS 2 ONE_PAIR 
1: 6666 CLUBS 5 SPADES A ONE_PAIR 
3: 5555 HEARTS 4 SPADES 5 ONE_PAIR 
/showdown 

---Allocate pot---
pot-win/ 
6666: 4360 
/pot-win 
it is player 4444's turn to be button

-----17 Hand-----
seat/ 
button: 4444 8648 8000 
small blind: 3333 568 8000 
big blind: 2222 317 8000 
8888 3952 6000 
6666 4902 6000 
5555 1611 8000 
1111 500 8000 
7777 1500 6000 
/seat 
blind/ 
3333: 50 
2222: 100 
/blind 
player 3333:hold/ 
SPADES K 
CLUBS 10 
/hold 
player 2222:hold/ 
DIAMONDS K 
SPADES 2 
/hold 
player 8888:hold/ 
DIAMONDS 3 
HEARTS Q 
/hold 
player 6666:hold/ 
SPADES 10 
HEARTS 7 
/hold 
player 5555:hold/ 
SPADES 5 
DIAMONDS 10 
/hold 
player 1111:hold/ 
SPADES 9 
SPADES J 
/hold 
player 7777:hold/ 
CLUBS 3 
CLUBS 6 
/hold 
player 4444:hold/ 
SPADES 8 
CLUBS 7 
/hold 

---pre flop round bet---
valid player: 8, all in player: 0, fold player: 0
send inquire msg to player 8888 
inquire/ 
2222 217 8000 100 blind 
3333 518 8000 50 blind 
total pot: 150 
/inquire 
recv from player 8888: check
send inquire msg to player 6666 
inquire/ 
8888 3852 6000 100 call 
2222 217 8000 100 blind 
3333 518 8000 50 blind 
total pot: 250 
/inquire 
recv from player 6666: check
send inquire msg to player 5555 
inquire/ 
6666 4802 6000 100 call 
8888 3852 6000 100 call 
2222 217 8000 100 blind 
3333 518 8000 50 blind 
total pot: 350 
/inquire 
recv from player 5555: raise 0
send inquire msg to player 1111 
inquire/ 
5555 1411 8000 200 raise 
6666 4802 6000 100 call 
8888 3852 6000 100 call 
2222 217 8000 100 blind 
3333 518 8000 50 blind 
total pot: 550 
/inquire 
recv from player 1111: check
send inquire msg to player 7777 
inquire/ 
1111 300 8000 200 call 
5555 1411 8000 200 raise 
6666 4802 6000 100 call 
8888 3852 6000 100 call 
2222 217 8000 100 blind 
3333 518 8000 50 blind 
total pot: 750 
/inquire 
recv from player 7777: check
send inquire msg to player 4444 
inquire/ 
7777 1300 6000 200 call 
1111 300 8000 200 call 
5555 1411 8000 200 raise 
6666 4802 6000 100 call 
8888 3852 6000 100 call 
2222 217 8000 100 blind 
3333 518 8000 50 blind 
total pot: 950 
/inquire 
recv from player 4444: check
send inquire msg to player 3333 
inquire/ 
4444 8448 8000 200 call 
7777 1300 6000 200 call 
1111 300 8000 200 call 
5555 1411 8000 200 raise 
6666 4802 6000 100 call 
8888 3852 6000 100 call 
2222 217 8000 100 blind 
3333 518 8000 50 blind 
total pot: 1150 
/inquire 
recv from player 3333: check
send inquire msg to player 2222 
inquire/ 
3333 368 8000 200 call 
4444 8448 8000 200 call 
7777 1300 6000 200 call 
1111 300 8000 200 call 
5555 1411 8000 200 raise 
6666 4802 6000 100 call 
8888 3852 6000 100 call 
2222 217 8000 100 blind 
total pot: 1300 
/inquire 
recv from player 2222: check
send inquire msg to player 8888 
inquire/ 
2222 117 8000 200 call 
3333 368 8000 200 call 
4444 8448 8000 200 call 
7777 1300 6000 200 call 
1111 300 8000 200 call 
5555 1411 8000 200 raise 
6666 4802 6000 100 call 
8888 3852 6000 100 call 
total pot: 1400 
/inquire 
recv from player 8888: check
send inquire msg to player 6666 
inquire/ 
8888 3752 6000 200 call 
2222 117 8000 200 call 
3333 368 8000 200 call 
4444 8448 8000 200 call 
7777 1300 6000 200 call 
1111 300 8000 200 call 
5555 1411 8000 200 raise 
6666 4802 6000 100 call 
total pot: 1500 
/inquire 
recv from player 6666: check
flop/ 
SPADES 6 
HEARTS 5 
DIAMONDS 5 
/flop 

---flop round bet---
valid player: 8, all in player: 0, fold player: 0
send inquire msg to player 3333 
inquire/ 
4444 8448 8000 200 call 
7777 1300 6000 200 call 
1111 300 8000 200 call 
5555 1411 8000 200 raise 
6666 4702 6000 200 call 
8888 3752 6000 200 call 
2222 117 8000 200 call 
3333 368 8000 200 call 
total pot: 1600 
/inquire 
recv from player 3333: fold
send inquire msg to player 2222 
inquire/ 
3333 368 8000 200 fold 
4444 8448 8000 200 call 
7777 1300 6000 200 call 
1111 300 8000 200 call 
5555 1411 8000 200 raise 
6666 4702 6000 200 call 
8888 3752 6000 200 call 
2222 117 8000 200 call 
total pot: 1600 
/inquire 
recv from player 2222: fold
send inquire msg to player 8888 
inquire/ 
2222 117 8000 200 fold 
3333 368 8000 200 fold 
4444 8448 8000 200 call 
7777 1300 6000 200 call 
1111 300 8000 200 call 
5555 1411 8000 200 raise 
6666 4702 6000 200 call 
8888 3752 6000 200 call 
total pot: 1600 
/inquire 
recv from player 8888: check
send inquire msg to player 6666 
inquire/ 
8888 3752 6000 200 check 
2222 117 8000 200 fold 
3333 368 8000 200 fold 
4444 8448 8000 200 call 
7777 1300 6000 200 call 
1111 300 8000 200 call 
5555 1411 8000 200 raise 
6666 4702 6000 200 call 
total pot: 1600 
/inquire 
recv from player 6666: check
send inquire msg to player 5555 
inquire/ 
6666 4702 6000 200 check 
8888 3752 6000 200 check 
2222 117 8000 200 fold 
3333 368 8000 200 fold 
4444 8448 8000 200 call 
7777 1300 6000 200 call 
1111 300 8000 200 call 
5555 1411 8000 200 raise 
total pot: 1600 
/inquire 
recv from player 5555: raise 0
send inquire msg to player 1111 
inquire/ 
5555 1311 8000 300 raise 
6666 4702 6000 200 check 
8888 3752 6000 200 check 
2222 117 8000 200 fold 
3333 368 8000 200 fold 
4444 8448 8000 200 call 
7777 1300 6000 200 call 
1111 300 8000 200 call 
total pot: 1700 
/inquire 
recv from player 1111: check
send inquire msg to player 7777 
inquire/ 
1111 200 8000 300 call 
5555 1311 8000 300 raise 
6666 4702 6000 200 check 
8888 3752 6000 200 check 
2222 117 8000 200 fold 
3333 368 8000 200 fold 
4444 8448 8000 200 call 
7777 1300 6000 200 call 
total pot: 1800 
/inquire 
recv from player 7777: fold
send inquire msg to player 4444 
inquire/ 
7777 1300 6000 200 fold 
1111 200 8000 300 call 
5555 1311 8000 300 raise 
6666 4702 6000 200 check 
8888 3752 6000 200 check 
2222 117 8000 200 fold 
3333 368 8000 200 fold 
4444 8448 8000 200 call 
total pot: 1800 
/inquire 
recv from player 4444: raise 537
send inquire msg to player 8888 
inquire/ 
2222 117 8000 200 fold 
3333 368 8000 200 fold 
4444 7811 8000 837 raise 
7777 1300 6000 200 fold 
1111 200 8000 300 call 
5555 1311 8000 300 raise 
6666 4702 6000 200 check 
8888 3752 6000 200 check 
total pot: 2437 
/inquire 
recv from player 8888: check
send inquire msg to player 6666 
inquire/ 
8888 3115 6000 837 call 
2222 117 8000 200 fold 
3333 368 8000 200 fold 
4444 7811 8000 837 raise 
7777 1300 6000 200 fold 
1111 200 8000 300 call 
5555 1311 8000 300 raise 
6666 4702 6000 200 check 
total pot: 3074 
/inquire 
recv from player 6666: check
send inquire msg to player 5555 
inquire/ 
6666 4065 6000 837 call 
8888 3115 6000 837 call 
2222 117 8000 200 fold 
3333 368 8000 200 fold 
4444 7811 8000 837 raise 
7777 1300 6000 200 fold 
1111 200 8000 300 call 
5555 1311 8000 300 raise 
total pot: 3711 
/inquire 
recv from player 5555: check
send inquire msg to player 1111 
inquire/ 
5555 774 8000 837 call 
6666 4065 6000 837 call 
8888 3115 6000 837 call 
2222 117 8000 200 fold 
3333 368 8000 200 fold 
4444 7811 8000 837 raise 
7777 1300 6000 200 fold 
1111 200 8000 300 call 
total pot: 4248 
/inquire 
recv from player 1111: fold
turn/ 
DIAMONDS A 
/turn 

---turn round bet---
valid player: 8, all in player: 0, fold player: 4
send inquire msg to player 8888 
inquire/ 
2222 117 8000 200 fold 
3333 368 8000 200 fold 
4444 7811 8000 837 raise 
7777 1300 6000 200 fold 
1111 200 8000 300 fold 
5555 774 8000 837 call 
6666 4065 6000 837 call 
8888 3115 6000 837 call 
total pot: 4248 
/inquire 
recv from player 8888: check
send inquire msg to player 6666 
inquire/ 
8888 3115 6000 837 check 
2222 117 8000 200 fold 
3333 368 8000 200 fold 
4444 7811 8000 837 raise 
7777 1300 6000 200 fold 
1111 200 8000 300 fold 
5555 774 8000 837 call 
6666 4065 6000 837 call 
total pot: 4248 
/inquire 
recv from player 6666: check
send inquire msg to player 5555 
inquire/ 
6666 4065 6000 837 check 
8888 3115 6000 837 check 
2222 117 8000 200 fold 
3333 368 8000 200 fold 
4444 7811 8000 837 raise 
7777 1300 6000 200 fold 
1111 200 8000 300 fold 
5555 774 8000 837 call 
total pot: 4248 
/inquire 
recv from player 5555: raise 0
send inquire msg to player 4444 
inquire/ 
7777 1300 6000 200 fold 
1111 200 8000 300 fold 
5555 674 8000 937 raise 
6666 4065 6000 837 check 
8888 3115 6000 837 check 
2222 117 8000 200 fold 
3333 368 8000 200 fold 
4444 7811 8000 837 raise 
total pot: 4348 
/inquire 
recv from player 4444: fold
send inquire msg to player 8888 
inquire/ 
2222 117 8000 200 fold 
3333 368 8000 200 fold 
4444 7811 8000 837 fold 
7777 1300 6000 200 fold 
1111 200 8000 300 fold 
5555 674 8000 937 raise 
6666 4065 6000 837 check 
8888 3115 6000 837 check 
total pot: 4348 
/inquire 
recv from player 8888: check
send inquire msg to player 6666 
inquire/ 
8888 3015 6000 937 call 
2222 117 8000 200 fold 
3333 368 8000 200 fold 
4444 7811 8000 837 fold 
7777 1300 6000 200 fold 
1111 200 8000 300 fold 
5555 674 8000 937 raise 
6666 4065 6000 837 check 
total pot: 4448 
/inquire 
recv from player 6666: check
river/ 
DIAMONDS 2 
/river 

---river round bet---
valid player: 8, all in player: 0, fold player: 5
send inquire msg to player 8888 
inquire/ 
2222 117 8000 200 fold 
3333 368 8000 200 fold 
4444 7811 8000 837 fold 
7777 1300 6000 200 fold 
1111 200 8000 300 fold 
5555 674 8000 937 raise 
6666 3965 6000 937 call 
8888 3015 6000 937 call 
total pot: 4548 
/inquire 
recv from player 8888: check
send inquire msg to player 6666 
inquire/ 
8888 3015 6000 937 check 
2222 117 8000 200 fold 
3333 368 8000 200 fold 
4444 7811 8000 837 fold 
7777 1300 6000 200 fold 
1111 200 8000 300 fold 
5555 674 8000 937 raise 
6666 3965 6000 937 call 
total pot: 4548 
/inquire 
recv from player 6666: check
send inquire msg to player 5555 
inquire/ 
6666 3965 6000 937 check 
8888 3015 6000 937 check 
2222 117 8000 200 fold 
3333 368 8000 200 fold 
4444 7811 8000 837 fold 
7777 1300 6000 200 fold 
1111 200 8000 300 fold 
5555 674 8000 937 raise 
total pot: 4548 
/inquire 
recv from player 5555: raise 0
send inquire msg to player 8888 
inquire/ 
2222 117 8000 200 fold 
3333 368 8000 200 fold 
4444 7811 8000 837 fold 
7777 1300 6000 200 fold 
1111 200 8000 300 fold 
5555 574 8000 1037 raise 
6666 3965 6000 937 check 
8888 3015 6000 937 check 
total pot: 4648 
/inquire 
recv from player 8888: check
send inquire msg to player 6666 
inquire/ 
8888 2915 6000 1037 call 
2222 117 8000 200 fold 
3333 368 8000 200 fold 
4444 7811 8000 837 fold 
7777 1300 6000 200 fold 
1111 200 8000 300 fold 
5555 574 8000 1037 raise 
6666 3965 6000 937 check 
total pot: 4748 
/inquire 
recv from player 6666: check

---show down---
showdown/ 
common/ 
SPADES 6 
HEARTS 5 
DIAMONDS 5 
DIAMONDS A 
DIAMONDS 2 
/common 
2: 8888 DIAMONDS 3 HEARTS Q ONE_PAIR 
3: 6666 SPADES 10 HEARTS 7 ONE_PAIR 
1: 5555 SPADES 5 DIAMONDS 10 THREE_OF_A_KIND 
/showdown 

---Allocate pot---
pot-win/ 
5555: 4848 
/pot-win 
it is player 3333's turn to be button

-----18 Hand-----
seat/ 
button: 3333 368 8000 
small blind: 2222 117 8000 
big blind: 8888 2915 6000 
6666 3865 6000 
5555 5422 8000 
1111 200 8000 
7777 1300 6000 
4444 7811 8000 
/seat 
blind/ 
2222: 50 
8888: 100 
/blind 
player 2222:hold/ 
DIAMONDS 10 
DIAMONDS 5 
/hold 
player 8888:hold/ 
CLUBS K 
CLUBS Q 
/hold 
player 6666:hold/ 
HEARTS 7 
DIAMONDS 6 
/hold 
player 5555:hold/ 
HEARTS 8 
HEARTS 6 
/hold 
player 1111:hold/ 
CLUBS 7 
HEARTS J 
/hold 
player 7777:hold/ 
SPADES J 
SPADES Q 
/hold 
player 4444:hold/ 
CLUBS A 
DIAMONDS 2 
/hold 
player 3333:hold/ 
HEARTS 2 
DIAMONDS 7 
/hold 

---pre flop round bet---
valid player: 8, all in player: 0, fold player: 0
send inquire msg to player 6666 
inquire/ 
8888 2815 6000 100 blind 
2222 67 8000 50 blind 
total pot: 150 
/inquire 
recv from player 6666: check
send inquire msg to player 5555 
inquire/ 
6666 3765 6000 100 call 
8888 2815 6000 100 blind 
2222 67 8000 50 blind 
total pot: 250 
/inquire 
recv from player 5555: raise 0
send inquire msg to player 1111 
inquire/ 
5555 5222 8000 200 raise 
6666 3765 6000 100 call 
8888 2815 6000 100 blind 
2222 67 8000 50 blind 
total pot: 450 
/inquire 
recv from player 1111: fold
send inquire msg to player 7777 
inquire/ 
1111 200 8000 0 fold 
5555 5222 8000 200 raise 
6666 3765 6000 100 call 
8888 2815 6000 100 blind 
2222 67 8000 50 blind 
total pot: 450 
/inquire 
recv from player 7777: raise 0
send inquire msg to player 4444 
inquire/ 
7777 1000 6000 300 raise 
1111 200 8000 0 fold 
5555 5222 8000 200 raise 
6666 3765 6000 100 call 
8888 2815 6000 100 blind 
2222 67 8000 50 blind 
total pot: 750 
/inquire 
recv from player 4444: raise 120
send inquire msg to player 3333 
inquire/ 
4444 7391 8000 420 raise 
7777 1000 6000 300 raise 
1111 200 8000 0 fold 
5555 5222 8000 200 raise 
6666 3765 6000 100 call 
8888 2815 6000 100 blind 
2222 67 8000 50 blind 
total pot: 1170 
/inquire 
recv from player 3333: fold
send inquire msg to player 2222 
inquire/ 
3333 368 8000 0 fold 
4444 7391 8000 420 raise 
7777 1000 6000 300 raise 
1111 200 8000 0 fold 
5555 5222 8000 200 raise 
6666 3765 6000 100 call 
8888 2815 6000 100 blind 
2222 67 8000 50 blind 
total pot: 1170 
/inquire 
recv from player 2222: raise 0
send inquire msg to player 8888 
inquire/ 
2222 0 8000 117 all_in 
3333 368 8000 0 fold 
4444 7391 8000 420 raise 
7777 1000 6000 300 raise 
1111 200 8000 0 fold 
5555 5222 8000 200 raise 
6666 3765 6000 100 call 
8888 2815 6000 100 blind 
total pot: 1237 
/inquire 
recv from player 8888: check
send inquire msg to player 6666 
inquire/ 
8888 2495 6000 420 call 
2222 0 8000 117 all_in 
3333 368 8000 0 fold 
4444 7391 8000 420 raise 
7777 1000 6000 300 raise 
1111 200 8000 0 fold 
5555 5222 8000 200 raise 
6666 3765 6000 100 call 
total pot: 1557 
/inquire 
recv from player 6666: check
send inquire msg to player 5555 
inquire/ 
6666 3445 6000 420 call 
8888 2495 6000 420 call 
2222 0 8000 117 all_in 
3333 368 8000 0 fold 
4444 7391 8000 420 raise 
7777 1000 6000 300 raise 
1111 200 8000 0 fold 
5555 5222 8000 200 raise 
total pot: 1877 
/inquire 
recv from player 5555: raise 0
send inquire msg to player 7777 
inquire/ 
1111 200 8000 0 fold 
5555 4882 8000 540 raise 
6666 3445 6000 420 call 
8888 2495 6000 420 call 
2222 0 8000 117 all_in 
3333 368 8000 0 fold 
4444 7391 8000 420 raise 
7777 1000 6000 300 raise 
total pot: 2217 
/inquire 
recv from player 7777: fold
send inquire msg to player 4444 
inquire/ 
7777 1000 6000 300 fold 
1111 200 8000 0 fold 
5555 4882 8000 540 raise 
6666 3445 6000 420 call 
8888 2495 6000 420 call 
2222 0 8000 117 all_in 
3333 368 8000 0 fold 
4444 7391 8000 420 raise 
total pot: 2217 
/inquire 
recv from player 4444: check
send inquire msg to player 8888 
inquire/ 
2222 0 8000 117 all_in 
3333 368 8000 0 fold 
4444 7271 8000 540 call 
7777 1000 6000 300 fold 
1111 200 8000 0 fold 
5555 4882 8000 540 raise 
6666 3445 6000 420 call 
8888 2495 6000 420 call 
total pot: 2337 
/inquire 
recv from player 8888: check
send inquire msg to player 6666 
inquire/ 
8888 2375 6000 540 call 
2222 0 8000 117 all_in 
3333 368 8000 0 fold 
4444 7271 8000 540 call 
7777 1000 6000 300 fold 
1111 200 8000 0 fold 
5555 4882 8000 540 raise 
6666 3445 6000 420 call 
total pot: 2457 
/inquire 
recv from player 6666: check
flop/ 
SPADES 2 
CLUBS 2 
DIAMONDS 4 
/flop 

---flop round bet---
valid player: 8, all in player: 1, fold player: 3
send inquire msg to player 8888 
inquire/ 
2222 0 8000 117 all_in 
3333 368 8000 0 fold 
4444 7271 8000 540 call 
7777 1000 6000 300 fold 
1111 200 8000 0 fold 
5555 4882 8000 540 raise 
6666 3325 6000 540 call 
8888 2375 6000 540 call 
total pot: 2577 
/inquire 
recv from player 8888: check
send inquire msg to player 6666 
inquire/ 
8888 2375 6000 540 check 
2222 0 8000 117 all_in 
3333 368 8000 0 fold 
4444 7271 8000 540 call 
7777 1000 6000 300 fold 
1111 200 8000 0 fold 
5555 4882 8000 540 raise 
6666 3325 6000 540 call 
total pot: 2577 
/inquire 
recv from player 6666: check
send inquire msg to player 5555 
inquire/ 
6666 3325 6000 540 check 
8888 2375 6000 540 check 
2222 0 8000 117 all_in 
3333 368 8000 0 fold 
4444 7271 8000 540 call 
7777 1000 6000 300 fold 
1111 200 8000 0 fold 
5555 4882 8000 540 raise 
total pot: 2577 
/inquire 
recv from player 5555: check
send inquire msg to player 4444 
inquire/ 
7777 1000 6000 300 fold 
1111 200 8000 0 fold 
5555 4882 8000 540 check 
6666 3325 6000 540 check 
8888 2375 6000 540 check 
2222 0 8000 117 all_in 
3333 368 8000 0 fold 
4444 7271 8000 540 call 
total pot: 2577 
/inquire 
recv from player 4444: raise 3739
send inquire msg to player 8888 
inquire/ 
2222 0 8000 117 all_in 
3333 368 8000 0 fold 
4444 3532 8000 4279 raise 
7777 1000 6000 300 fold 
1111 200 8000 0 fold 
5555 4882 8000 540 check 
6666 3325 6000 540 check 
8888 2375 6000 540 check 
total pot: 6316 
/inquire 
recv from player 8888: check
send inquire msg to player 6666 
inquire/ 
8888 0 6000 2915 all_in 
2222 0 8000 117 all_in 
3333 368 8000 0 fold 
4444 3532 8000 4279 raise 
7777 1000 6000 300 fold 
1111 200 8000 0 fold 
5555 4882 8000 540 check 
6666 3325 6000 540 check 
total pot: 8691 
/inquire 
recv from player 6666: check
send inquire msg to player 5555 
inquire/ 
6666 0 6000 3865 all_in 
8888 0 6000 2915 all_in 
2222 0 8000 117 all_in 
3333 368 8000 0 fold 
4444 3532 8000 4279 raise 
7777 1000 6000 300 fold 
1111 200 8000 0 fold 
5555 4882 8000 540 check 
total pot: 12016 
/inquire 
recv from player 5555: raise 0
send inquire msg to player 4444 
inquire/ 
7777 1000 6000 300 fold 
1111 200 8000 0 fold 
5555 0 8000 5422 all_in 
6666 0 6000 3865 all_in 
8888 0 6000 2915 all_in 
2222 0 8000 117 all_in 
3333 368 8000 0 fold 
4444 3532 8000 4279 raise 
total pot: 16898 
/inquire 
recv from player 4444: fold
turn/ 
SPADES A 
/turn 

---turn round bet---
valid player: 8, all in player: 4, fold player: 4
river/ 
DIAMONDS K 
/river 

---river round bet---
valid player: 8, all in player: 4, fold player: 4

---show down---
showdown/ 
common/ 
SPADES 2 
CLUBS 2 
DIAMONDS 4 
SPADES A 
DIAMONDS K 
/common 
2: 2222 DIAMONDS 10 DIAMONDS 5 ONE_PAIR 
1: 8888 CLUBS K CLUBS Q TWO_PAIR 
4: 6666 HEARTS 7 DIAMONDS 6 ONE_PAIR 
3: 5555 HEARTS 8 HEARTS 6 ONE_PAIR 
/showdown 

---Allocate pot---
pot-win/ 
8888: 13441 
5555: 3457 
/pot-win 
it is player 2222's turn to be button

-----19 Hand-----
seat/ 
button: 2222 2000 6000 
small blind: 8888 13441 6000 
big blind: 6666 2000 4000 
5555 3457 8000 
1111 200 8000 
7777 1000 6000 
4444 3532 8000 
3333 368 8000 
/seat 
blind/ 
8888: 50 
6666: 100 
/blind 
player 8888:hold/ 
DIAMONDS K 
HEARTS 3 
/hold 
player 6666:hold/ 
HEARTS A 
DIAMONDS 6 
/hold 
player 5555:hold/ 
DIAMONDS J 
SPADES 7 
/hold 
player 1111:hold/ 
DIAMONDS 9 
DIAMONDS A 
/hold 
player 7777:hold/ 
SPADES 2 
SPADES K 
/hold 
player 4444:hold/ 
CLUBS J 
CLUBS K 
/hold 
player 3333:hold/ 
CLUBS Q 
HEARTS 8 
/hold 
player 2222:hold/ 
HEARTS J 
SPADES J 
/hold 

---pre flop round bet---
valid player: 8, all in player: 0, fold player: 0
send inquire msg to player 5555 
inquire/ 
6666 1900 4000 100 blind 
8888 13391 6000 50 blind 
total pot: 150 
/inquire 
recv from player 5555: check
send inquire msg to player 1111 
inquire/ 
5555 3357 8000 100 call 
6666 1900 4000 100 blind 
8888 13391 6000 50 blind 
total pot: 250 
/inquire 
recv from player 1111: fold
send inquire msg to player 7777 
inquire/ 
1111 200 8000 0 fold 
5555 3357 8000 100 call 
6666 1900 4000 100 blind 
8888 13391 6000 50 blind 
total pot: 250 
/inquire 
recv from player 7777: fold
send inquire msg to player 4444 
inquire/ 
7777 1000 6000 0 fold 
1111 200 8000 0 fold 
5555 3357 8000 100 call 
6666 1900 4000 100 blind 
8888 13391 6000 50 blind 
total pot: 250 
/inquire 
recv from player 4444: raise 481
send inquire msg to player 3333 
inquire/ 
4444 2951 8000 581 raise 
7777 1000 6000 0 fold 
1111 200 8000 0 fold 
5555 3357 8000 100 call 
6666 1900 4000 100 blind 
8888 13391 6000 50 blind 
total pot: 831 
/inquire 
recv from player 3333: check
send inquire msg to player 2222 
inquire/ 
3333 0 8000 368 all_in 
4444 2951 8000 581 raise 
7777 1000 6000 0 fold 
1111 200 8000 0 fold 
5555 3357 8000 100 call 
6666 1900 4000 100 blind 
8888 13391 6000 50 blind 
total pot: 1199 
/inquire 
recv from player 2222: check
send inquire msg to player 8888 
inquire/ 
2222 1419 6000 581 call 
3333 0 8000 368 all_in 
4444 2951 8000 581 raise 
7777 1000 6000 0 fold 
1111 200 8000 0 fold 
5555 3357 8000 100 call 
6666 1900 4000 100 blind 
8888 13391 6000 50 blind 
total pot: 1780 
/inquire 
recv from player 8888: check
send inquire msg to player 6666 
inquire/ 
8888 12860 6000 581 call 
2222 1419 6000 581 call 
3333 0 8000 368 all_in 
4444 2951 8000 581 raise 
7777 1000 6000 0 fold 
1111 200 8000 0 fold 
5555 3357 8000 100 call 
6666 1900 4000 100 blind 
total pot: 2311 
/inquire 
recv from player 6666: check
send inquire msg to player 5555 
inquire/ 
6666 1419 4000 581 call 
8888 12860 6000 581 call 
2222 1419 6000 581 call 
3333 0 8000 368 all_in 
4444 2951 8000 581 raise 
7777 1000 6000 0 fold 
1111 200 8000 0 fold 
5555 3357 8000 100 call 
total pot: 2792 
/inquire 
recv from player 5555: check
flop/ 
SPADES 9 
SPADES 3 
SPADES 8 
/flop 

---flop round bet---
valid player: 8, all in player: 1, fold player: 2
send inquire msg to player 8888 
inquire/ 
2222 1419 6000 581 call 
3333 0 8000 368 all_in 
4444 2951 8000 581 raise 
7777 1000 6000 0 fold 
1111 200 8000 0 fold 
5555 2876 8000 581 call 
6666 1419 4000 581 call 
8888 12860 6000 581 call 
total pot: 3273 
/inquire 
recv from player 8888: check
send inquire msg to player 6666 
inquire/ 
8888 12860 6000 581 check 
2222 1419 6000 581 call 
3333 0 8000 368 all_in 
4444 2951 8000 581 raise 
7777 1000 6000 0 fold 
1111 200 8000 0 fold 
5555 2876 8000 581 call 
6666 1419 4000 581 call 
total pot: 3273 
/inquire 
recv from player 6666: check
send inquire msg to player 5555 
inquire/ 
6666 1419 4000 581 check 
8888 12860 6000 581 check 
2222 1419 6000 581 call 
3333 0 8000 368 all_in 
4444 2951 8000 581 raise 
7777 1000 6000 0 fold 
1111 200 8000 0 fold 
5555 2876 8000 581 call 
total pot: 3273 
/inquire 
recv from player 5555: check
send inquire msg to player 4444 
inquire/ 
7777 1000 6000 0 fold 
1111 200 8000 0 fold 
5555 2876 8000 581 check 
6666 1419 4000 581 check 
8888 12860 6000 581 check 
2222 1419 6000 581 call 
3333 0 8000 368 all_in 
4444 2951 8000 581 raise 
total pot: 3273 
/inquire 
recv from player 4444: fold
send inquire msg to player 2222 
inquire/ 
3333 0 8000 368 all_in 
4444 2951 8000 581 fold 
7777 1000 6000 0 fold 
1111 200 8000 0 fold 
5555 2876 8000 581 check 
6666 1419 4000 581 check 
8888 12860 6000 581 check 
2222 1419 6000 581 call 
total pot: 3273 
/inquire 
recv from player 2222: fold
turn/ 
SPADES 4 
/turn 

---turn round bet---
valid player: 8, all in player: 1, fold player: 4
send inquire msg to player 8888 
inquire/ 
2222 1419 6000 581 fold 
3333 0 8000 368 all_in 
4444 2951 8000 581 fold 
7777 1000 6000 0 fold 
1111 200 8000 0 fold 
5555 2876 8000 581 check 
6666 1419 4000 581 check 
8888 12860 6000 581 check 
total pot: 3273 
/inquire 
recv from player 8888: check
send inquire msg to player 6666 
inquire/ 
8888 12860 6000 581 check 
2222 1419 6000 581 fold 
3333 0 8000 368 all_in 
4444 2951 8000 581 fold 
7777 1000 6000 0 fold 
1111 200 8000 0 fold 
5555 2876 8000 581 check 
6666 1419 4000 581 check 
total pot: 3273 
/inquire 
recv from player 6666: check
send inquire msg to player 5555 
inquire/ 
6666 1419 4000 581 check 
8888 12860 6000 581 check 
2222 1419 6000 581 fold 
3333 0 8000 368 all_in 
4444 2951 8000 581 fold 
7777 1000 6000 0 fold 
1111 200 8000 0 fold 
5555 2876 8000 581 check 
total pot: 3273 
/inquire 
recv from player 5555: check
river/ 
CLUBS 7 
/river 

---river round bet---
valid player: 8, all in player: 1, fold player: 4
send inquire msg to player 8888 
inquire/ 
2222 1419 6000 581 fold 
3333 0 8000 368 all_in 
4444 2951 8000 581 fold 
7777 1000 6000 0 fold 
1111 200 8000 0 fold 
5555 2876 8000 581 check 
6666 1419 4000 581 check 
8888 12860 6000 581 check 
total pot: 3273 
/inquire 
recv from player 8888: check
send inquire msg to player 6666 
inquire/ 
8888 12860 6000 581 check 
2222 1419 6000 581 fold 
3333 0 8000 368 all_in 
4444 2951 8000 581 fold 
7777 1000 6000 0 fold 
1111 200 8000 0 fold 
5555 2876 8000 581 check 
6666 1419 4000 581 check 
total pot: 3273 
/inquire 
recv from player 6666: check
send inquire msg to player 5555 
inquire/ 
6666 1419 4000 581 check 
8888 12860 6000 581 check 
2222 1419 6000 581 fold 
3333 0 8000 368 all_in 
4444 2951 8000 581 fold 
7777 1000 6000 0 fold 
1111 200 8000 0 fold 
5555 2876 8000 581 check 
total pot: 3273 
/inquire 
recv from player 5555: check

---show down---
showdown/ 
common/ 
SPADES 9 
SPADES 3 
SPADES 8 
SPADES 4 
CLUBS 7 
/common 
3: 8888 DIAMONDS K HEARTS 3 ONE_PAIR 
4: 6666 HEARTS A DIAMONDS 6 HIGH_CARD 
1: 5555 DIAMONDS J SPADES 7 FLUSH 
2: 3333 CLUBS Q HEARTS 8 ONE_PAIR 
/showdown 

---Allocate pot---
pot-win/ 
5555: 3273 
/pot-win 
it is player 8888's turn to be button

-----20 Hand-----
seat/ 
button: 8888 12860 6000 
small blind: 6666 1419 4000 
big blind: 5555 6149 8000 
1111 200 8000 
7777 1000 6000 
4444 2951 8000 
3333 2000 6000 
2222 1419 6000 
/seat 
blind/ 
6666: 50 
5555: 100 
/blind 
player 6666:hold/ 
DIAMONDS K 
HEARTS 3 
/hold 
player 5555:hold/ 
HEARTS A 
DIAMONDS 6 
/hold 
player 1111:hold/ 
DIAMONDS J 
SPADES 7 
/hold 
player 7777:hold/ 
DIAMONDS 9 
DIAMONDS A 
/hold 
player 4444:hold/ 
SPADES 2 
SPADES K 
/hold 
player 3333:hold/ 
CLUBS J 
CLUBS K 
/hold 
player 2222:hold/ 
CLUBS Q 
HEARTS 8 
/hold 
player 8888:hold/ 
HEARTS J 
SPADES J 
/hold 

---pre flop round bet---
valid player: 8, all in player: 0, fold player: 0
send inquire msg to player 1111 
inquire/ 
5555 6049 8000 100 blind 
6666 1369 4000 50 blind 
total pot: 150 
/inquire 
recv from player 1111: check
send inquire msg to player 7777 
inquire/ 
1111 100 8000 100 call 
5555 6049 8000 100 blind 
6666 1369 4000 50 blind 
total pot: 250 
/inquire 
recv from player 7777: check
send inquire msg to player 4444 
inquire/ 
7777 900 6000 100 call 
1111 100 8000 100 call 
5555 6049 8000 100 blind 
6666 1369 4000 50 blind 
total pot: 350 
/inquire 
recv from player 4444: raise 133
send inquire msg to player 3333 
inquire/ 
4444 2718 8000 233 raise 
7777 900 6000 100 call 
1111 100 8000 100 call 
5555 6049 8000 100 blind 
6666 1369 4000 50 blind 
total pot: 583 
/inquire 
recv from player 3333: fold
send inquire msg to player 2222 
inquire/ 
3333 2000 6000 0 fold 
4444 2718 8000 233 raise 
7777 900 6000 100 call 
1111 100 8000 100 call 
5555 6049 8000 100 blind 
6666 1369 4000 50 blind 
total pot: 583 
/inquire 
recv from player 2222: check
send inquire msg to player 8888 
inquire/ 
2222 1186 6000 233 call 
3333 2000 6000 0 fold 
4444 2718 8000 233 raise 
7777 900 6000 100 call 
1111 100 8000 100 call 
5555 6049 8000 100 blind 
6666 1369 4000 50 blind 
total pot: 816 
/inquire 
recv from player 8888: check
send inquire msg to player 6666 
inquire/ 
8888 12627 6000 233 call 
2222 1186 6000 233 call 
3333 2000 6000 0 fold 
4444 2718 8000 233 raise 
7777 900 6000 100 call 
1111 100 8000 100 call 
5555 6049 8000 100 blind 
6666 1369 4000 50 blind 
total pot: 1049 
/inquire 
recv from player 6666: check
send inquire msg to player 5555 
inquire/ 
6666 1186 4000 233 call 
8888 12627 6000 233 call 
2222 1186 6000 233 call 
3333 2000 6000 0 fold 
4444 2718 8000 233 raise 
7777 900 6000 100 call 
1111 100 8000 100 call 
5555 6049 8000 100 blind 
total pot: 1232 
/inquire 
recv from player 5555: check
send inquire msg to player 1111 
inquire/ 
5555 5916 8000 233 call 
6666 1186 4000 233 call 
8888 12627 6000 233 call 
2222 1186 6000 233 call 
3333 2000 6000 0 fold 
4444 2718 8000 233 raise 
7777 900 6000 100 call 
1111 100 8000 100 call 
total pot: 1365 
/inquire 
recv from player 1111: fold
send inquire msg to player 7777 
inquire/ 
1111 100 8000 100 fold 
5555 5916 8000 233 call 
6666 1186 4000 233 call 
8888 12627 6000 233 call 
2222 1186 6000 233 call 
3333 2000 6000 0 fold 
4444 2718 8000 233 raise 
7777 900 6000 100 call 
total pot: 1365 
/inquire 
recv from player 7777: fold
flop/ 
SPADES 9 
SPADES 3 
SPADES 8 
/flop 

---flop round bet---
valid player: 8, all in player: 0, fold player: 3
send inquire msg to player 6666 
inquire/ 
8888 12627 6000 233 call 
2222 1186 6000 233 call 
3333 2000 6000 0 fold 
4444 2718 8000 233 raise 
7777 900 6000 100 fold 
1111 100 8000 100 fold 
5555 5916 8000 233 call 
6666 1186 4000 233 call 
total pot: 1365 
/inquire 
recv from player 6666: check
send inquire msg to player 5555 
inquire/ 
6666 1186 4000 233 check 
8888 12627 6000 233 call 
2222 1186 6000 233 call 
3333 2000 6000 0 fold 
4444 2718 8000 233 raise 
7777 900 6000 100 fold 
1111 100 8000 100 fold 
5555 5916 8000 233 call 
total pot: 1365 
/inquire 
recv from player 5555: check
send inquire msg to player 4444 
inquire/ 
7777 900 6000 100 fold 
1111 100 8000 100 fold 
5555 5916 8000 233 check 
6666 1186 4000 233 check 
8888 12627 6000 233 call 
2222 1186 6000 233 call 
3333 2000 6000 0 fold 
4444 2718 8000 233 raise 
total pot: 1365 
/inquire 
recv from player 4444: raise 1410
send inquire msg to player 2222 
inquire/ 
3333 2000 6000 0 fold 
4444 1308 8000 1643 raise 
7777 900 6000 100 fold 
1111 100 8000 100 fold 
5555 5916 8000 233 check 
6666 1186 4000 233 check 
8888 12627 6000 233 call 
2222 1186 6000 233 call 
total pot: 2775 
/inquire 
recv from player 2222: fold
send inquire msg to player 8888 
inquire/ 
2222 1186 6000 233 fold 
3333 2000 6000 0 fold 
4444 1308 8000 1643 raise 
7777 900 6000 100 fold 
1111 100 8000 100 fold 
5555 5916 8000 233 check 
6666 1186 4000 233 check 
8888 12627 6000 233 call 
total pot: 2775 
/inquire 
recv from player 8888: check
send inquire msg to player 6666 
inquire/ 
8888 11217 6000 1643 call 
2222 1186 6000 233 fold 
3333 2000 6000 0 fold 
4444 1308 8000 1643 raise 
7777 900 6000 100 fold 
1111 100 8000 100 fold 
5555 5916 8000 233 check 
6666 1186 4000 233 check 
total pot: 4185 
/inquire 
recv from player 6666: check
send inquire msg to player 5555 
inquire/ 
6666 0 4000 1419 all_in 
8888 11217 6000 1643 call 
2222 1186 6000 233 fold 
3333 2000 6000 0 fold 
4444 1308 8000 1643 raise 
7777 900 6000 100 fold 
1111 100 8000 100 fold 
5555 5916 8000 233 check 
total pot: 5371 
/inquire 
recv from player 5555: raise 0
send inquire msg to player 4444 
inquire/ 
7777 900 6000 100 fold 
1111 100 8000 100 fold 
5555 3096 8000 3053 raise 
6666 0 4000 1419 all_in 
8888 11217 6000 1643 call 
2222 1186 6000 233 fold 
3333 2000 6000 0 fold 
4444 1308 8000 1643 raise 
total pot: 8191 
/inquire 
recv from player 4444: check
send inquire msg to player 8888 
inquire/ 
2222 1186 6000 233 fold 
3333 2000 6000 0 fold 
4444 0 8000 2951 all_in 
7777 900 6000 100 fold 
1111 100 8000 100 fold 
5555 3096 8000 3053 raise 
6666 0 4000 1419 all_in 
8888 11217 6000 1643 call 
total pot: 9499 
/inquire 
recv from player 8888: check
turn/ 
SPADES 4 
/turn 

---turn round bet---
valid player: 8, all in player: 2, fold player: 4
send inquire msg to player 5555 
inquire/ 
6666 0 4000 1419 all_in 
8888 9807 6000 3053 call 
2222 1186 6000 233 fold 
3333 2000 6000 0 fold 
4444 0 8000 2951 all_in 
7777 900 6000 100 fold 
1111 100 8000 100 fold 
5555 3096 8000 3053 raise 
total pot: 10909 
/inquire 
recv from player 5555: check
send inquire msg to player 8888 
inquire/ 
2222 1186 6000 233 fold 
3333 2000 6000 0 fold 
4444 0 8000 2951 all_in 
7777 900 6000 100 fold 
1111 100 8000 100 fold 
5555 3096 8000 3053 check 
6666 0 4000 1419 all_in 
8888 9807 6000 3053 call 
total pot: 10909 
/inquire 
recv from player 8888: check
river/ 
CLUBS 7 
/river 

---river round bet---
valid player: 8, all in player: 2, fold player: 4
send inquire msg to player 5555 
inquire/ 
6666 0 4000 1419 all_in 
8888 9807 6000 3053 check 
2222 1186 6000 233 fold 
3333 2000 6000 0 fold 
4444 0 8000 2951 all_in 
7777 900 6000 100 fold 
1111 100 8000 100 fold 
5555 3096 8000 3053 check 
total pot: 10909 
/inquire 
recv from player 5555: check
send inquire msg to player 8888 
inquire/ 
2222 1186 6000 233 fold 
3333 2000 6000 0 fold 
4444 0 8000 2951 all_in 
7777 900 6000 100 fold 
1111 100 8000 100 fold 
5555 3096 8000 3053 check 
6666 0 4000 1419 all_in 
8888 9807 6000 3053 check 
total pot: 10909 
/inquire 
recv from player 8888: check

---show down---
showdown/ 
common/ 
SPADES 9 
SPADES 3 
SPADES 8 
SPADES 4 
CLUBS 7 
/common 
3: 6666 DIAMONDS K HEARTS 3 ONE_PAIR 
4: 5555 HEARTS A DIAMONDS 6 HIGH_CARD 
1: 4444 SPADES 2 SPADES K FLUSH 
2: 8888 HEARTS J SPADES J FLUSH 
/showdown 

---Allocate pot---
pot-win/ 
4444: 10705 
8888: 204 
/pot-win 
it is player 6666's turn to be button

-----21 Hand-----
seat/ 
button: 6666 2000 2000 
small blind: 5555 3096 8000 
big blind: 1111 100 8000 
7777 900 6000 
4444 10705 8000 
3333 2000 6000 
2222 1186 6000 
8888 10011 6000 
/seat 
blind/ 
5555: 50 
1111: 100 
/blind 
player 5555:hold/ 
SPADES 8 
DIAMONDS 7 
/hold 
player 1111:hold/ 
CLUBS J 
SPADES 6 
/hold 
player 7777:hold/ 
HEARTS 10 
CLUBS A 
/hold 
player 4444:hold/ 
DIAMONDS 3 
CLUBS 7 
/hold 
player 3333:hold/ 
DIAMONDS 4 
CLUBS 5 
/hold 
player 2222:hold/ 
SPADES Q 
SPADES 4 
/hold 
player 8888:hold/ 
SPADES A 
CLUBS 2 
/hold 
player 6666:hold/ 
DIAMONDS 2 
CLUBS Q 
/hold 

---pre flop round bet---
valid player: 8, all in player: 0, fold player: 0
send inquire msg to player 7777 
inquire/ 
1111 0 8000 100 blind 
5555 3046 8000 50 blind 
total pot: 150 
/inquire 
recv from player 7777: check
send inquire msg to player 4444 
inquire/ 
7777 800 6000 100 call 
1111 0 8000 100 blind 
5555 3046 8000 50 blind 
total pot: 250 
/inquire 
recv from player 4444: check
send inquire msg to player 3333 
inquire/ 
4444 10605 8000 100 call 
7777 800 6000 100 call 
1111 0 8000 100 blind 
5555 3046 8000 50 blind 
total pot: 350 
/inquire 
recv from player 3333: fold
send inquire msg to player 2222 
inquire/ 
3333 2000 6000 0 fold 
4444 10605 8000 100 call 
7777 800 6000 100 call 
1111 0 8000 100 blind 
5555 3046 8000 50 blind 
total pot: 350 
/inquire 
recv from player 2222: fold
send inquire msg to player 8888 
inquire/ 
2222 1186 6000 0 fold 
3333 2000 6000 0 fold 
4444 10605 8000 100 call 
7777 800 6000 100 call 
1111 0 8000 100 blind 
5555 3046 8000 50 blind 
total pot: 350 
/inquire 
recv from player 8888: check
send inquire msg to player 6666 
inquire/ 
8888 9911 6000 100 call 
2222 1186 6000 0 fold 
3333 2000 6000 0 fold 
4444 10605 8000 100 call 
7777 800 6000 100 call 
1111 0 8000 100 blind 
5555 3046 8000 50 blind 
total pot: 450 
/inquire 
recv from player 6666: check
send inquire msg to player 5555 
inquire/ 
6666 1900 2000 100 call 
8888 9911 6000 100 call 
2222 1186 6000 0 fold 
3333 2000 6000 0 fold 
4444 10605 8000 100 call 
7777 800 6000 100 call 
1111 0 8000 100 blind 
5555 3046 8000 50 blind 
total pot: 550 
/inquire 
recv from player 5555: check
send inquire msg to player 1111 
inquire/ 
5555 2996 8000 100 call 
6666 1900 2000 100 call 
8888 9911 6000 100 call 
2222 1186 6000 0 fold 
3333 2000 6000 0 fold 
4444 10605 8000 100 call 
7777 800 6000 100 call 
1111 0 8000 100 blind 
total pot: 600 
/inquire 
recv from player 1111: fold
flop/ 
SPADES J 
DIAMONDS 5 
HEARTS 7 
/flop 

---flop round bet---
valid player: 8, all in player: 0, fold player: 3
send inquire msg to player 5555 
inquire/ 
6666 1900 2000 100 call 
8888 9911 6000 100 call 
2222 1186 6000 0 fold 
3333 2000 6000 0 fold 
4444 10605 8000 100 call 
7777 800 6000 100 call 
1111 0 8000 100 fold 
5555 2996 8000 100 call 
total pot: 600 
/inquire 
recv from player 5555: raise 0
send inquire msg to player 7777 
inquire/ 
1111 0 8000 100 fold 
5555 2896 8000 200 raise 
6666 1900 2000 100 call 
8888 9911 6000 100 call 
2222 1186 6000 0 fold 
3333 2000 6000 0 fold 
4444 10605 8000 100 call 
7777 800 6000 100 call 
total pot: 700 
/inquire 
recv from player 7777: fold
send inquire msg to player 4444 
inquire/ 
7777 800 6000 100 fold 
1111 0 8000 100 fold 
5555 2896 8000 200 raise 
6666 1900 2000 100 call 
8888 9911 6000 100 call 
2222 1186 6000 0 fold 
3333 2000 6000 0 fold 
4444 10605 8000 100 call 
total pot: 700 
/inquire 
recv from player 4444: check
send inquire msg to player 8888 
inquire/ 
2222 1186 6000 0 fold 
3333 2000 6000 0 fold 
4444 10505 8000 200 call 
7777 800 6000 100 fold 
1111 0 8000 100 fold 
5555 2896 8000 200 raise 
6666 1900 2000 100 call 
8888 9911 6000 100 call 
total pot: 800 
/inquire 
recv from player 8888: check
send inquire msg to player 6666 
inquire/ 
8888 9811 6000 200 call 
2222 1186 6000 0 fold 
3333 2000 6000 0 fold 
4444 10505 8000 200 call 
7777 800 6000 100 fold 
1111 0 8000 100 fold 
5555 2896 8000 200 raise 
6666 1900 2000 100 call 
total pot: 900 
/inquire 
recv from player 6666: check
turn/ 
HEARTS 9 
/turn 

---turn round bet---
valid player: 8, all in player: 0, fold player: 4
send inquire msg to player 5555 
inquire/ 
6666 1800 2000 200 call 
8888 9811 6000 200 call 
2222 1186 6000 0 fold 
3333 2000 6000 0 fold 
4444 10505 8000 200 call 
7777 800 6000 100 fold 
1111 0 8000 100 fold 
5555 2896 8000 200 raise 
total pot: 1000 
/inquire 
recv from player 5555: check
send inquire msg to player 4444 
inquire/ 
7777 800 6000 100 fold 
1111 0 8000 100 fold 
5555 2896 8000 200 check 
6666 1800 2000 200 call 
8888 9811 6000 200 call 
2222 1186 6000 0 fold 
3333 2000 6000 0 fold 
4444 10505 8000 200 call 
total pot: 1000 
/inquire 
recv from player 4444: check
send inquire msg to player 8888 
inquire/ 
2222 1186 6000 0 fold 
3333 2000 6000 0 fold 
4444 10505 8000 200 check 
7777 800 6000 100 fold 
1111 0 8000 100 fold 
5555 2896 8000 200 check 
6666 1800 2000 200 call 
8888 9811 6000 200 call 
total pot: 1000 
/inquire 
recv from player 8888: check
send inquire msg to player 6666 
inquire/ 
8888 9811 6000 200 check 
2222 1186 6000 0 fold 
3333 2000 6000 0 fold 
4444 10505 8000 200 check 
7777 800 6000 100 fold 
1111 0 8000 100 fold 
5555 2896 8000 200 check 
6666 1800 2000 200 call 
total pot: 1000 
/inquire 
recv from player 6666: check
river/ 
HEARTS Q 
/river 

---river round bet---
valid player: 8, all in player: 0, fold player: 4
send inquire msg to player 5555 
inquire/ 
6666 1800 2000 200 check 
8888 9811 6000 200 check 
2222 1186 6000 0 fold 
3333 2000 6000 0 fold 
4444 10505 8000 200 check 
7777 800 6000 100 fold 
1111 0 8000 100 fold 
5555 2896 8000 200 check 
total pot: 1000 
/inquire 
recv from player 5555: raise 0
send inquire msg to player 4444 
inquire/ 
7777 800 6000 100 fold 
1111 0 8000 100 fold 
5555 2796 8000 300 raise 
6666 1800 2000 200 check 
8888 9811 6000 200 check 
2222 1186 6000 0 fold 
3333 2000 6000 0 fold 
4444 10505 8000 200 check 
total pot: 1100 
/inquire 
recv from player 4444: fold
send inquire msg to player 8888 
inquire/ 
2222 1186 6000 0 fold 
3333 2000 6000 0 fold 
4444 10505 8000 200 fold 
7777 800 6000 100 fold 
1111 0 8000 100 fold 
5555 2796 8000 300 raise 
6666 1800 2000 200 check 
8888 9811 6000 200 check 
total pot: 1100 
/inquire 
recv from player 8888: check
send inquire msg to player 6666 
inquire/ 
8888 9711 6000 300 call 
2222 1186 6000 0 fold 
3333 2000 6000 0 fold 
4444 10505 8000 200 fold 
7777 800 6000 100 fold 
1111 0 8000 100 fold 
5555 2796 8000 300 raise 
6666 1800 2000 200 check 
total pot: 1200 
/inquire 
recv from player 6666: check

---show down---
showdown/ 
common/ 
SPADES J 
DIAMONDS 5 
HEARTS 7 
HEARTS 9 
HEARTS Q 
/common 
2: 5555 SPADES 8 DIAMONDS 7 ONE_PAIR 
3: 8888 SPADES A CLUBS 2 HIGH_CARD 
1: 6666 DIAMONDS 2 CLUBS Q ONE_PAIR 
/showdown 

---Allocate pot---
pot-win/ 
6666: 1300 
/pot-win 
it is player 5555's turn to be button

-----22 Hand-----
seat/ 
button: 5555 2796 8000 
small blind: 1111 2000 6000 
big blind: 7777 800 6000 
4444 10505 8000 
3333 2000 6000 
2222 1186 6000 
8888 9711 6000 
6666 3000 2000 
/seat 
blind/ 
1111: 50 
7777: 100 
/blind 
player 1111:hold/ 
SPADES 9 
DIAMONDS 10 
/hold 
player 7777:hold/ 
CLUBS 9 
SPADES 10 
/hold 
player 4444:hold/ 
CLUBS J 
DIAMONDS 3 
/hold 
player 3333:hold/ 
CLUBS 3 
DIAMONDS 5 
/hold 
player 2222:hold/ 
CLUBS 8 
SPADES 6 
/hold 
player 8888:hold/ 
DIAMONDS A 
SPADES Q 
/hold 
player 6666:hold/ 
HEARTS 9 
HEARTS 5 
/hold 
player 5555:hold/ 
CLUBS K 
SPADES J 
/hold 

---pre flop round bet---
valid player: 8, all in player: 0, fold player: 0
send inquire msg to player 4444 
inquire/ 
7777 700 6000 100 blind 
1111 1950 6000 50 blind 
total pot: 150 
/inquire 
recv from player 4444: check
send inquire msg to player 3333 
inquire/ 
4444 10405 8000 100 call 
7777 700 6000 100 blind 
1111 1950 6000 50 blind 
total pot: 250 
/inquire 
recv from player 3333: fold
send inquire msg to player 2222 
inquire/ 
3333 2000 6000 0 fold 
4444 10405 8000 100 call 
7777 700 6000 100 blind 
1111 1950 6000 50 blind 
total pot: 250 
/inquire 
recv from player 2222: fold
send inquire msg to player 8888 
inquire/ 
2222 1186 6000 0 fold 
3333 2000 6000 0 fold 
4444 10405 8000 100 call 
7777 700 6000 100 blind 
1111 1950 6000 50 blind 
total pot: 250 
/inquire 
recv from player 8888: check
send inquire msg to player 6666 
inquire/ 
8888 9611 6000 100 call 
2222 1186 6000 0 fold 
3333 2000 6000 0 fold 
4444 10405 8000 100 call 
7777 700 6000 100 blind 
1111 1950 6000 50 blind 
total pot: 350 
/inquire 
recv from player 6666: check
send inquire msg to player 5555 
inquire/ 
6666 2900 2000 100 call 
8888 9611 6000 100 call 
2222 1186 6000 0 fold 
3333 2000 6000 0 fold 
4444 10405 8000 100 call 
7777 700 6000 100 blind 
1111 1950 6000 50 blind 
total pot: 450 
/inquire 
recv from player 5555: check
send inquire msg to player 1111 
inquire/ 
5555 2696 8000 100 call 
6666 2900 2000 100 call 
8888 9611 6000 100 call 
2222 1186 6000 0 fold 
3333 2000 6000 0 fold 
4444 10405 8000 100 call 
7777 700 6000 100 blind 
1111 1950 6000 50 blind 
total pot: 550 
/inquire 
recv from player 1111: raise 0
send inquire msg to player 7777 
inquire/ 
1111 1800 6000 200 raise 
5555 2696 8000 100 call 
6666 2900 2000 100 call 
8888 9611 6000 100 call 
2222 1186 6000 0 fold 
3333 2000 6000 0 fold 
4444 10405 8000 100 call 
7777 700 6000 100 blind 
total pot: 700 
/inquire 
recv from player 7777: check
send inquire msg to player 4444 
inquire/ 
7777 600 6000 200 call 
1111 1800 6000 200 raise 
5555 2696 8000 100 call 
6666 2900 2000 100 call 
8888 9611 6000 100 call 
2222 1186 6000 0 fold 
3333 2000 6000 0 fold 
4444 10405 8000 100 call 
total pot: 800 
/inquire 
recv from player 4444: check
send inquire msg to player 8888 
inquire/ 
2222 1186 6000 0 fold 
3333 2000 6000 0 fold 
4444 10305 8000 200 call 
7777 600 6000 200 call 
1111 1800 6000 200 raise 
5555 2696 8000 100 call 
6666 2900 2000 100 call 
8888 9611 6000 100 call 
total pot: 900 
/inquire 
recv from player 8888: check
send inquire msg to player 6666 
inquire/ 
8888 9511 6000 200 call 
2222 1186 6000 0 fold 
3333 2000 6000 0 fold 
4444 10305 8000 200 call 
7777 600 6000 200 call 
1111 1800 6000 200 raise 
5555 2696 8000 100 call 
6666 2900 2000 100 call 
total pot: 1000 
/inquire 
recv from player 6666: check
send inquire msg to player 5555 
inquire/ 
6666 2800 2000 200 call 
8888 9511 6000 200 call 
2222 1186 6000 0 fold 
3333 2000 6000 0 fold 
4444 10305 8000 200 call 
7777 600 6000 200 call 
1111 1800 6000 200 raise 
5555 2696 8000 100 call 
total pot: 1100 
/inquire 
recv from player 5555: check
flop/ 
DIAMONDS 6 
HEARTS 6 
DIAMONDS J 
/flop 

---flop round bet---
valid player: 8, all in player: 0, fold player: 2
send inquire msg to player 1111 
inquire/ 
5555 2596 8000 200 call 
6666 2800 2000 200 call 
8888 9511 6000 200 call 
2222 1186 6000 0 fold 
3333 2000 6000 0 fold 
4444 10305 8000 200 call 
7777 600 6000 200 call 
1111 1800 6000 200 raise 
total pot: 1200 
/inquire 
recv from player 1111: raise 0
send inquire msg to player 7777 
inquire/ 
1111 1700 6000 300 raise 
5555 2596 8000 200 call 
6666 2800 2000 200 call 
8888 9511 6000 200 call 
2222 1186 6000 0 fold 
3333 2000 6000 0 fold 
4444 10305 8000 200 call 
7777 600 6000 200 call 
total pot: 1300 
/inquire 
recv from player 7777: fold
send inquire msg to player 4444 
inquire/ 
7777 600 6000 200 fold 
1111 1700 6000 300 raise 
5555 2596 8000 200 call 
6666 2800 2000 200 call 
8888 9511 6000 200 call 
2222 1186 6000 0 fold 
3333 2000 6000 0 fold 
4444 10305 8000 200 call 
total pot: 1300 
/inquire 
recv from player 4444: raise 790
send inquire msg to player 8888 
inquire/ 
2222 1186 6000 0 fold 
3333 2000 6000 0 fold 
4444 9415 8000 1090 raise 
7777 600 6000 200 fold 
1111 1700 6000 300 raise 
5555 2596 8000 200 call 
6666 2800 2000 200 call 
8888 9511 6000 200 call 
total pot: 2190 
/inquire 
recv from player 8888: check
send inquire msg to player 6666 
inquire/ 
8888 8621 6000 1090 call 
2222 1186 6000 0 fold 
3333 2000 6000 0 fold 
4444 9415 8000 1090 raise 
7777 600 6000 200 fold 
1111 1700 6000 300 raise 
5555 2596 8000 200 call 
6666 2800 2000 200 call 
total pot: 3080 
/inquire 
recv from player 6666: check
send inquire msg to player 5555 
inquire/ 
6666 1910 2000 1090 call 
8888 8621 6000 1090 call 
2222 1186 6000 0 fold 
3333 2000 6000 0 fold 
4444 9415 8000 1090 raise 
7777 600 6000 200 fold 
1111 1700 6000 300 raise 
5555 2596 8000 200 call 
total pot: 3970 
/inquire 
recv from player 5555: check
send inquire msg to player 1111 
inquire/ 
5555 1706 8000 1090 call 
6666 1910 2000 1090 call 
8888 8621 6000 1090 call 
2222 1186 6000 0 fold 
3333 2000 6000 0 fold 
4444 9415 8000 1090 raise 
7777 600 6000 200 fold 
1111 1700 6000 300 raise 
total pot: 4860 
/inquire 
recv from player 1111: raise 0
send inquire msg to player 4444 
inquire/ 
7777 600 6000 200 fold 
1111 120 6000 1880 raise 
5555 1706 8000 1090 call 
6666 1910 2000 1090 call 
8888 8621 6000 1090 call 
2222 1186 6000 0 fold 
3333 2000 6000 0 fold 
4444 9415 8000 1090 raise 
total pot: 6440 
/inquire 
recv from player 4444: check
send inquire msg to player 8888 
inquire/ 
2222 1186 6000 0 fold 
3333 2000 6000 0 fold 
4444 8625 8000 1880 call 
7777 600 6000 200 fold 
1111 120 6000 1880 raise 
5555 1706 8000 1090 call 
6666 1910 2000 1090 call 
8888 8621 6000 1090 call 
total pot: 7230 
/inquire 
recv from player 8888: check
send inquire msg to player 6666 
inquire/ 
8888 7831 6000 1880 call 
2222 1186 6000 0 fold 
3333 2000 6000 0 fold 
4444 8625 8000 1880 call 
7777 600 6000 200 fold 
1111 120 6000 1880 raise 
5555 1706 8000 1090 call 
6666 1910 2000 1090 call 
total pot: 8020 
/inquire 
recv from player 6666: check
send inquire msg to player 5555 
inquire/ 
6666 1120 2000 1880 call 
8888 7831 6000 1880 call 
2222 1186 6000 0 fold 
3333 2000 6000 0 fold 
4444 8625 8000 1880 call 
7777 600 6000 200 fold 
1111 120 6000 1880 raise 
5555 1706 8000 1090 call 
total pot: 8810 
/inquire 
recv from player 5555: check
turn/ 
DIAMONDS 4 
/turn 

---turn round bet---
valid player: 8, all in player: 0, fold player: 3
send inquire msg to player 1111 
inquire/ 
5555 916 8000 1880 call 
6666 1120 2000 1880 call 
8888 7831 6000 1880 call 
2222 1186 6000 0 fold 
3333 2000 6000 0 fold 
4444 8625 8000 1880 call 
7777 600 6000 200 fold 
1111 120 6000 1880 raise 
total pot: 9600 
/inquire 
recv from player 1111: raise 0
send inquire msg to player 4444 
inquire/ 
7777 600 6000 200 fold 
1111 20 6000 1980 raise 
5555 916 8000 1880 call 
6666 1120 2000 1880 call 
8888 7831 6000 1880 call 
2222 1186 6000 0 fold 
3333 2000 6000 0 fold 
4444 8625 8000 1880 call 
total pot: 9700 
/inquire 
recv from player 4444: fold
send inquire msg to player 8888 
inquire/ 
2222 1186 6000 0 fold 
3333 2000 6000 0 fold 
4444 8625 8000 1880 fold 
7777 600 6000 200 fold 
1111 20 6000 1980 raise 
5555 916 8000 1880 call 
6666 1120 2000 1880 call 
8888 7831 6000 1880 call 
total pot: 9700 
/inquire 
recv from player 8888: check
send inquire msg to player 6666 
inquire/ 
8888 7731 6000 1980 call 
2222 1186 6000 0 fold 
3333 2000 6000 0 fold 
4444 8625 8000 1880 fold 
7777 600 6000 200 fold 
1111 20 6000 1980 raise 
5555 916 8000 1880 call 
6666 1120 2000 1880 call 
total pot: 9800 
/inquire 
recv from player 6666: check
send inquire msg to player 5555 
inquire/ 
6666 1020 2000 1980 call 
8888 7731 6000 1980 call 
2222 1186 6000 0 fold 
3333 2000 6000 0 fold 
4444 8625 8000 1880 fold 
7777 600 6000 200 fold 
1111 20 6000 1980 raise 
5555 916 8000 1880 call 
total pot: 9900 
/inquire 
recv from player 5555: check
river/ 
CLUBS 6 
/river 

---river round bet---
valid player: 8, all in player: 0, fold player: 4
send inquire msg to player 1111 
inquire/ 
5555 816 8000 1980 call 
6666 1020 2000 1980 call 
8888 7731 6000 1980 call 
2222 1186 6000 0 fold 
3333 2000 6000 0 fold 
4444 8625 8000 1880 fold 
7777 600 6000 200 fold 
1111 20 6000 1980 raise 
total pot: 10000 
/inquire 
recv from player 1111: check
send inquire msg to player 8888 
inquire/ 
2222 1186 6000 0 fold 
3333 2000 6000 0 fold 
4444 8625 8000 1880 fold 
7777 600 6000 200 fold 
1111 20 6000 1980 check 
5555 816 8000 1980 call 
6666 1020 2000 1980 call 
8888 7731 6000 1980 call 
total pot: 10000 
/inquire 
recv from player 8888: check
send inquire msg to player 6666 
inquire/ 
8888 7731 6000 1980 check 
2222 1186 6000 0 fold 
3333 2000 6000 0 fold 
4444 8625 8000 1880 fold 
7777 600 6000 200 fold 
1111 20 6000 1980 check 
5555 816 8000 1980 call 
6666 1020 2000 1980 call 
total pot: 10000 
/inquire 
recv from player 6666: check
send inquire msg to player 5555 
inquire/ 
6666 1020 2000 1980 check 
8888 7731 6000 1980 check 
2222 1186 6000 0 fold 
3333 2000 6000 0 fold 
4444 8625 8000 1880 fold 
7777 600 6000 200 fold 
1111 20 6000 1980 check 
5555 816 8000 1980 call 
total pot: 10000 
/inquire 
recv from player 5555: check

---show down---
showdown/ 
common/ 
DIAMONDS 6 
HEARTS 6 
DIAMONDS J 
DIAMONDS 4 
CLUBS 6 
/common 
3: 1111 SPADES 9 DIAMONDS 10 THREE_OF_A_KIND 
2: 8888 DIAMONDS A SPADES Q THREE_OF_A_KIND 
4: 6666 HEARTS 9 HEARTS 5 THREE_OF_A_KIND 
1: 5555 CLUBS K SPADES J FULL_HOUSE 
/showdown 

---Allocate pot---
pot-win/ 
5555: 10000 
/pot-win 
it is player 1111's turn to be button

-----23 Hand-----
seat/ 
button: 1111 2000 4020 
small blind: 7777 600 6000 
big blind: 4444 8625 8000 
3333 2000 6000 
2222 1186 6000 
8888 7731 6000 
6666 1020 2000 
5555 10816 8000 
/seat 
blind/ 
7777: 50 
4444: 100 
/blind 
player 7777:hold/ 
DIAMONDS 2 
HEARTS A 
/hold 
player 4444:hold/ 
CLUBS A 
CLUBS J 
/hold 
player 3333:hold/ 
HEARTS 7 
DIAMONDS 3 
/hold 
player 2222:hold/ 
HEARTS 10 
SPADES 7 
/hold 
player 8888:hold/ 
SPADES 2 
HEARTS K 
/hold 
player 6666:hold/ 
CLUBS 10 
SPADES 10 
/hold 
player 5555:hold/ 
DIAMONDS K 
DIAMONDS Q 
/hold 
player 1111:hold/ 
CLUBS 7 
DIAMONDS 7 
/hold 

---pre flop round bet---
valid player: 8, all in player: 0, fold player: 0
send inquire msg to player 3333 
inquire/ 
4444 8525 8000 100 blind 
7777 550 6000 50 blind 
total pot: 150 
/inquire 
recv from player 3333: fold
send inquire msg to player 2222 
inquire/ 
3333 2000 6000 0 fold 
4444 8525 8000 100 blind 
7777 550 6000 50 blind 
total pot: 150 
/inquire 
recv from player 2222: check
send inquire msg to player 8888 
inquire/ 
2222 1086 6000 100 call 
3333 2000 6000 0 fold 
4444 8525 8000 100 blind 
7777 550 6000 50 blind 
total pot: 250 
/inquire 
recv from player 8888: check
send inquire msg to player 6666 
inquire/ 
8888 7631 6000 100 call 
2222 1086 6000 100 call 
3333 2000 6000 0 fold 
4444 8525 8000 100 blind 
7777 550 6000 50 blind 
total pot: 350 
/inquire 
recv from player 6666: check
send inquire msg to player 5555 
inquire/ 
6666 920 2000 100 call 
8888 7631 6000 100 call 
2222 1086 6000 100 call 
3333 2000 6000 0 fold 
4444 8525 8000 100 blind 
7777 550 6000 50 blind 
total pot: 450 
/inquire 
recv from player 5555: raise 0
send inquire msg to player 1111 
inquire/ 
5555 10616 8000 200 raise 
6666 920 2000 100 call 
8888 7631 6000 100 call 
2222 1086 6000 100 call 
3333 2000 6000 0 fold 
4444 8525 8000 100 blind 
7777 550 6000 50 blind 
total pot: 650 
/inquire 
recv from player 1111: fold
send inquire msg to player 7777 
inquire/ 
1111 2000 4020 0 fold 
5555 10616 8000 200 raise 
6666 920 2000 100 call 
8888 7631 6000 100 call 
2222 1086 6000 100 call 
3333 2000 6000 0 fold 
4444 8525 8000 100 blind 
7777 550 6000 50 blind 
total pot: 650 
/inquire 
recv from player 7777: raise 0
send inquire msg to player 4444 
inquire/ 
7777 300 6000 300 raise 
1111 2000 4020 0 fold 
5555 10616 8000 200 raise 
6666 920 2000 100 call 
8888 7631 6000 100 call 
2222 1086 6000 100 call 
3333 2000 6000 0 fold 
4444 8525 8000 100 blind 
total pot: 900 
/inquire 
recv from player 4444: check
send inquire msg to player 2222 
inquire/ 
3333 2000 6000 0 fold 
4444 8325 8000 300 call 
7777 300 6000 300 raise 
1111 2000 4020 0 fold 
5555 10616 8000 200 raise 
6666 920 2000 100 call 
8888 7631 6000 100 call 
2222 1086 6000 100 call 
total pot: 1100 
/inquire 
recv from player 2222: fold
send inquire msg to player 8888 
inquire/ 
2222 1086 6000 100 fold 
3333 2000 6000 0 fold 
4444 8325 8000 300 call 
7777 300 6000 300 raise 
1111 2000 4020 0 fold 
5555 10616 8000 200 raise 
6666 920 2000 100 call 
8888 7631 6000 100 call 
total pot: 1100 
/inquire 
recv from player 8888: check
send inquire msg to player 6666 
inquire/ 
8888 7431 6000 300 call 
2222 1086 6000 100 fold 
3333 2000 6000 0 fold 
4444 8325 8000 300 call 
7777 300 6000 300 raise 
1111 2000 4020 0 fold 
5555 10616 8000 200 raise 
6666 920 2000 100 call 
total pot: 1300 
/inquire 
recv from player 6666: check
send inquire msg to player 5555 
inquire/ 
6666 720 2000 300 call 
8888 7431 6000 300 call 
2222 1086 6000 100 fold 
3333 2000 6000 0 fold 
4444 8325 8000 300 call 
7777 300 6000 300 raise 
1111 2000 4020 0 fold 
5555 10616 8000 200 raise 
total pot: 1500 
/inquire 
recv from player 5555: raise 0
send inquire msg to player 7777 
inquire/ 
1111 2000 4020 0 fold 
5555 10416 8000 400 raise 
6666 720 2000 300 call 
8888 7431 6000 300 call 
2222 1086 6000 100 fold 
3333 2000 6000 0 fold 
4444 8325 8000 300 call 
7777 300 6000 300 raise 
total pot: 1700 
/inquire 
recv from player 7777: check
send inquire msg to player 4444 
inquire/ 
7777 200 6000 400 call 
1111 2000 4020 0 fold 
5555 10416 8000 400 raise 
6666 720 2000 300 call 
8888 7431 6000 300 call 
2222 1086 6000 100 fold 
3333 2000 6000 0 fold 
4444 8325 8000 300 call 
total pot: 1800 
/inquire 
recv from player 4444: raise 815
send inquire msg to player 8888 
inquire/ 
2222 1086 6000 100 fold 
3333 2000 6000 0 fold 
4444 7410 8000 1215 raise 
7777 200 6000 400 call 
1111 2000 4020 0 fold 
5555 10416 8000 400 raise 
6666 720 2000 300 call 
8888 7431 6000 300 call 
total pot: 2715 
/inquire 
recv from player 8888: check
send inquire msg to player 6666 
inquire/ 
8888 6516 6000 1215 call 
2222 1086 6000 100 fold 
3333 2000 6000 0 fold 
4444 7410 8000 1215 raise 
7777 200 6000 400 call 
1111 2000 4020 0 fold 
5555 10416 8000 400 raise 
6666 720 2000 300 call 
total pot: 3630 
/inquire 
recv from player 6666: check
send inquire msg to player 5555 
inquire/ 
6666 0 2000 1020 all_in 
8888 6516 6000 1215 call 
2222 1086 6000 100 fold 
3333 2000 6000 0 fold 
4444 7410 8000 1215 raise 
7777 200 6000 400 call 
1111 2000 4020 0 fold 
5555 10416 8000 400 raise 
total pot: 4350 
/inquire 
recv from player 5555: check
send inquire msg to player 7777 
inquire/ 
1111 2000 4020 0 fold 
5555 9601 8000 1215 call 
6666 0 2000 1020 all_in 
8888 6516 6000 1215 call 
2222 1086 6000 100 fold 
3333 2000 6000 0 fold 
4444 7410 8000 1215 raise 
7777 200 6000 400 call 
total pot: 5165 
/inquire 
recv from player 7777: check
flop/ 
HEARTS 5 
CLUBS 5 
DIAMONDS 6 
/flop 

---flop round bet---
valid player: 8, all in player: 2, fold player: 3
send inquire msg to player 4444 
inquire/ 
7777 0 6000 600 all_in 
1111 2000 4020 0 fold 
5555 9601 8000 1215 call 
6666 0 2000 1020 all_in 
8888 6516 6000 1215 call 
2222 1086 6000 100 fold 
3333 2000 6000 0 fold 
4444 7410 8000 1215 raise 
total pot: 5365 
/inquire 
recv from player 4444: check
send inquire msg to player 8888 
inquire/ 
2222 1086 6000 100 fold 
3333 2000 6000 0 fold 
4444 7410 8000 1215 check 
7777 0 6000 600 all_in 
1111 2000 4020 0 fold 
5555 9601 8000 1215 call 
6666 0 2000 1020 all_in 
8888 6516 6000 1215 call 
total pot: 5365 
/inquire 
recv from player 8888: check
send inquire msg to player 5555 
inquire/ 
6666 0 2000 1020 all_in 
8888 6516 6000 1215 check 
2222 1086 6000 100 fold 
3333 2000 6000 0 fold 
4444 7410 8000 1215 check 
7777 0 6000 600 all_in 
1111 2000 4020 0 fold 
5555 9601 8000 1215 call 
total pot: 5365 
/inquire 
recv from player 5555: raise 0
send inquire msg to player 4444 
inquire/ 
7777 0 6000 600 all_in 
1111 2000 4020 0 fold 
5555 9501 8000 1315 raise 
6666 0 2000 1020 all_in 
8888 6516 6000 1215 check 
2222 1086 6000 100 fold 
3333 2000 6000 0 fold 
4444 7410 8000 1215 check 
total pot: 5465 
/inquire 
recv from player 4444: check
send inquire msg to player 8888 
inquire/ 
2222 1086 6000 100 fold 
3333 2000 6000 0 fold 
4444 7310 8000 1315 call 
7777 0 6000 600 all_in 
1111 2000 4020 0 fold 
5555 9501 8000 1315 raise 
6666 0 2000 1020 all_in 
8888 6516 6000 1215 check 
total pot: 5565 
/inquire 
recv from player 8888: check
turn/ 
CLUBS 6 
/turn 

---turn round bet---
valid player: 8, all in player: 2, fold player: 3
send inquire msg to player 4444 
inquire/ 
7777 0 6000 600 all_in 
1111 2000 4020 0 fold 
5555 9501 8000 1315 raise 
6666 0 2000 1020 all_in 
8888 6416 6000 1315 call 
2222 1086 6000 100 fold 
3333 2000 6000 0 fold 
4444 7310 8000 1315 call 
total pot: 5665 
/inquire 
recv from player 4444: check
send inquire msg to player 8888 
inquire/ 
2222 1086 6000 100 fold 
3333 2000 6000 0 fold 
4444 7310 8000 1315 check 
7777 0 6000 600 all_in 
1111 2000 4020 0 fold 
5555 9501 8000 1315 raise 
6666 0 2000 1020 all_in 
8888 6416 6000 1315 call 
total pot: 5665 
/inquire 
recv from player 8888: check
send inquire msg to player 5555 
inquire/ 
6666 0 2000 1020 all_in 
8888 6416 6000 1315 check 
2222 1086 6000 100 fold 
3333 2000 6000 0 fold 
4444 7310 8000 1315 check 
7777 0 6000 600 all_in 
1111 2000 4020 0 fold 
5555 9501 8000 1315 raise 
total pot: 5665 
/inquire 
recv from player 5555: check
river/ 
DIAMONDS 8 
/river 

---river round bet---
valid player: 8, all in player: 2, fold player: 3
send inquire msg to player 4444 
inquire/ 
7777 0 6000 600 all_in 
1111 2000 4020 0 fold 
5555 9501 8000 1315 check 
6666 0 2000 1020 all_in 
8888 6416 6000 1315 check 
2222 1086 6000 100 fold 
3333 2000 6000 0 fold 
4444 7310 8000 1315 check 
total pot: 5665 
/inquire 
recv from player 4444: fold
send inquire msg to player 8888 
inquire/ 
2222 1086 6000 100 fold 
3333 2000 6000 0 fold 
4444 7310 8000 1315 fold 
7777 0 6000 600 all_in 
1111 2000 4020 0 fold 
5555 9501 8000 1315 check 
6666 0 2000 1020 all_in 
8888 6416 6000 1315 check 
total pot: 5665 
/inquire 
recv from player 8888: check
send inquire msg to player 5555 
inquire/ 
6666 0 2000 1020 all_in 
8888 6416 6000 1315 check 
2222 1086 6000 100 fold 
3333 2000 6000 0 fold 
4444 7310 8000 1315 fold 
7777 0 6000 600 all_in 
1111 2000 4020 0 fold 
5555 9501 8000 1315 check 
total pot: 5665 
/inquire 
recv from player 5555: raise 0
send inquire msg to player 8888 
inquire/ 
2222 1086 6000 100 fold 
3333 2000 6000 0 fold 
4444 7310 8000 1315 fold 
7777 0 6000 600 all_in 
1111 2000 4020 0 fold 
5555 9401 8000 1415 raise 
6666 0 2000 1020 all_in 
8888 6416 6000 1315 check 
total pot: 5765 
/inquire 
recv from player 8888: check

---show down---
showdown/ 
common/ 
HEARTS 5 
CLUBS 5 
DIAMONDS 6 
CLUBS 6 
DIAMONDS 8 
/common 
2: 7777 DIAMONDS 2 HEARTS A TWO_PAIR 
3: 8888 SPADES 2 HEARTS K TWO_PAIR 
1: 6666 CLUBS 10 SPADES 10 TWO_PAIR 
3: 5555 DIAMONDS K DIAMONDS Q TWO_PAIR 
/showdown 

---Allocate pot---
pot-win/ 
6666: 5075 
8888: 395 
5555: 395 
/pot-win 
it is player 7777's turn to be button

-----24 Hand-----
seat/ 
button: 7777 2000 4000 
small blind: 4444 7310 8000 
big blind: 3333 2000 6000 
2222 1086 6000 
8888 6711 6000 
6666 5075 2000 
5555 9796 8000 
1111 2000 4020 
/seat 
blind/ 
4444: 50 
3333: 100 
/blind 
player 4444:hold/ 
SPADES 7 
HEARTS 2 
/hold 
player 3333:hold/ 
SPADES 9 
CLUBS J 
/hold 
player 2222:hold/ 
DIAMONDS 9 
DIAMONDS K 
/hold 
player 8888:hold/ 
HEARTS 5 
HEARTS 8 
/hold 
player 6666:hold/ 
HEARTS 9 
DIAMONDS 2 
/hold 
player 5555:hold/ 
SPADES 6 
SPADES A 
/hold 
player 1111:hold/ 
HEARTS 6 
DIAMONDS 5 
/hold 
player 7777:hold/ 
DIAMONDS 3 
HEARTS 10 
/hold 

---pre flop round bet---
valid player: 8, all in player: 0, fold player: 0
send inquire msg to player 2222 
inquire/ 
3333 1900 6000 100 blind 
4444 7260 8000 50 blind 
total pot: 150 
/inquire 
recv from player 2222: fold
send inquire msg to player 8888 
inquire/ 
2222 1086 6000 0 fold 
3333 1900 6000 100 blind 
4444 7260 8000 50 blind 
total pot: 150 
/inquire 
recv from player 8888: check
send inquire msg to player 6666 
inquire/ 
8888 6611 6000 100 call 
2222 1086 6000 0 fold 
3333 1900 6000 100 blind 
4444 7260 8000 50 blind 
total pot: 250 
/inquire 
recv from player 6666: check
send inquire msg to player 5555 
inquire/ 
6666 4975 2000 100 call 
8888 6611 6000 100 call 
2222 1086 6000 0 fold 
3333 1900 6000 100 blind 
4444 7260 8000 50 blind 
total pot: 350 
/inquire 
recv from player 5555: raise 0
send inquire msg to player 1111 
inquire/ 
5555 9596 8000 200 raise 
6666 4975 2000 100 call 
8888 6611 6000 100 call 
2222 1086 6000 0 fold 
3333 1900 6000 100 blind 
4444 7260 8000 50 blind 
total pot: 550 
/inquire 
recv from player 1111: check
send inquire msg to player 7777 
inquire/ 
1111 1800 4020 200 call 
5555 9596 8000 200 raise 
6666 4975 2000 100 call 
8888 6611 6000 100 call 
2222 1086 6000 0 fold 
3333 1900 6000 100 blind 
4444 7260 8000 50 blind 
total pot: 750 
/inquire 
recv from player 7777: fold
send inquire msg to player 4444 
inquire/ 
7777 2000 4000 0 fold 
1111 1800 4020 200 call 
5555 9596 8000 200 raise 
6666 4975 2000 100 call 
8888 6611 6000 100 call 
2222 1086 6000 0 fold 
3333 1900 6000 100 blind 
4444 7260 8000 50 blind 
total pot: 750 
/inquire 
recv from player 4444: fold
send inquire msg to player 3333 
inquire/ 
4444 7260 8000 50 fold 
7777 2000 4000 0 fold 
1111 1800 4020 200 call 
5555 9596 8000 200 raise 
6666 4975 2000 100 call 
8888 6611 6000 100 call 
2222 1086 6000 0 fold 
3333 1900 6000 100 blind 
total pot: 750 
/inquire 
recv from player 3333: raise 0
send inquire msg to player 8888 
inquire/ 
2222 1086 6000 0 fold 
3333 1700 6000 300 raise 
4444 7260 8000 50 fold 
7777 2000 4000 0 fold 
1111 1800 4020 200 call 
5555 9596 8000 200 raise 
6666 4975 2000 100 call 
8888 6611 6000 100 call 
total pot: 950 
/inquire 
recv from player 8888: check
send inquire msg to player 6666 
inquire/ 
8888 6411 6000 300 call 
2222 1086 6000 0 fold 
3333 1700 6000 300 raise 
4444 7260 8000 50 fold 
7777 2000 4000 0 fold 
1111 1800 4020 200 call 
5555 9596 8000 200 raise 
6666 4975 2000 100 call 
total pot: 1150 
/inquire 
recv from player 6666: check
send inquire msg to player 5555 
inquire/ 
6666 4775 2000 300 call 
8888 6411 6000 300 call 
2222 1086 6000 0 fold 
3333 1700 6000 300 raise 
4444 7260 8000 50 fold 
7777 2000 4000 0 fold 
1111 1800 4020 200 call 
5555 9596 8000 200 raise 
total pot: 1350 
/inquire 
recv from player 5555: raise 0
send inquire msg to player 1111 
inquire/ 
5555 9396 8000 400 raise 
6666 4775 2000 300 call 
8888 6411 6000 300 call 
2222 1086 6000 0 fold 
3333 1700 6000 300 raise 
4444 7260 8000 50 fold 
7777 2000 4000 0 fold 
1111 1800 4020 200 call 
total pot: 1550 
/inquire 
recv from player 1111: fold
send inquire msg to player 3333 
inquire/ 
4444 7260 8000 50 fold 
7777 2000 4000 0 fold 
1111 1800 4020 200 fold 
5555 9396 8000 400 raise 
6666 4775 2000 300 call 
8888 6411 6000 300 call 
2222 1086 6000 0 fold 
3333 1700 6000 300 raise 
total pot: 1550 
/inquire 
recv from player 3333: check
send inquire msg to player 8888 
inquire/ 
2222 1086 6000 0 fold 
3333 1600 6000 400 call 
4444 7260 8000 50 fold 
7777 2000 4000 0 fold 
1111 1800 4020 200 fold 
5555 9396 8000 400 raise 
6666 4775 2000 300 call 
8888 6411 6000 300 call 
total pot: 1650 
/inquire 
recv from player 8888: check
send inquire msg to player 6666 
inquire/ 
8888 6311 6000 400 call 
2222 1086 6000 0 fold 
3333 1600 6000 400 call 
4444 7260 8000 50 fold 
7777 2000 4000 0 fold 
1111 1800 4020 200 fold 
5555 9396 8000 400 raise 
6666 4775 2000 300 call 
total pot: 1750 
/inquire 
recv from player 6666: check
flop/ 
CLUBS 6 
CLUBS 4 
HEARTS Q 
/flop 

---flop round bet---
valid player: 8, all in player: 0, fold player: 4
send inquire msg to player 3333 
inquire/ 
4444 7260 8000 50 fold 
7777 2000 4000 0 fold 
1111 1800 4020 200 fold 
5555 9396 8000 400 raise 
6666 4675 2000 400 call 
8888 6311 6000 400 call 
2222 1086 6000 0 fold 
3333 1600 6000 400 call 
total pot: 1850 
/inquire 
recv from player 3333: raise 0
send inquire msg to player 8888 
inquire/ 
2222 1086 6000 0 fold 
3333 1500 6000 500 raise 
4444 7260 8000 50 fold 
7777 2000 4000 0 fold 
1111 1800 4020 200 fold 
5555 9396 8000 400 raise 
6666 4675 2000 400 call 
8888 6311 6000 400 call 
total pot: 1950 
/inquire 
recv from player 8888: check
send inquire msg to player 6666 
inquire/ 
8888 6211 6000 500 call 
2222 1086 6000 0 fold 
3333 1500 6000 500 raise 
4444 7260 8000 50 fold 
7777 2000 4000 0 fold 
1111 1800 4020 200 fold 
5555 9396 8000 400 raise 
6666 4675 2000 400 call 
total pot: 2050 
/inquire 
recv from player 6666: check
send inquire msg to player 5555 
inquire/ 
6666 4575 2000 500 call 
8888 6211 6000 500 call 
2222 1086 6000 0 fold 
3333 1500 6000 500 raise 
4444 7260 8000 50 fold 
7777 2000 4000 0 fold 
1111 1800 4020 200 fold 
5555 9396 8000 400 raise 
total pot: 2150 
/inquire 
recv from player 5555: raise 0
send inquire msg to player 3333 
inquire/ 
4444 7260 8000 50 fold 
7777 2000 4000 0 fold 
1111 1800 4020 200 fold 
5555 9196 8000 600 raise 
6666 4575 2000 500 call 
8888 6211 6000 500 call 
2222 1086 6000 0 fold 
3333 1500 6000 500 raise 
total pot: 2350 
/inquire 
recv from player 3333: fold
send inquire msg to player 8888 
inquire/ 
2222 1086 6000 0 fold 
3333 1500 6000 500 fold 
4444 7260 8000 50 fold 
7777 2000 4000 0 fold 
1111 1800 4020 200 fold 
5555 9196 8000 600 raise 
6666 4575 2000 500 call 
8888 6211 6000 500 call 
total pot: 2350 
/inquire 
recv from player 8888: check
send inquire msg to player 6666 
inquire/ 
8888 6111 6000 600 call 
2222 1086 6000 0 fold 
3333 1500 6000 500 fold 
4444 7260 8000 50 fold 
7777 2000 4000 0 fold 
1111 1800 4020 200 fold 
5555 9196 8000 600 raise 
6666 4575 2000 500 call 
total pot: 2450 
/inquire 
recv from player 6666: check
turn/ 
DIAMONDS 8 
/turn 

---turn round bet---
valid player: 8, all in player: 0, fold player: 5
send inquire msg to player 8888 
inquire/ 
2222 1086 6000 0 fold 
3333 1500 6000 500 fold 
4444 7260 8000 50 fold 
7777 2000 4000 0 fold 
1111 1800 4020 200 fold 
5555 9196 8000 600 raise 
6666 4475 2000 600 call 
8888 6111 6000 600 call 
total pot: 2550 
/inquire 
recv from player 8888: check
send inquire msg to player 6666 
inquire/ 
8888 6111 6000 600 check 
2222 1086 6000 0 fold 
3333 1500 6000 500 fold 
4444 7260 8000 50 fold 
7777 2000 4000 0 fold 
1111 1800 4020 200 fold 
5555 9196 8000 600 raise 
6666 4475 2000 600 call 
total pot: 2550 
/inquire 
recv from player 6666: check
send inquire msg to player 5555 
inquire/ 
6666 4475 2000 600 check 
8888 6111 6000 600 check 
2222 1086 6000 0 fold 
3333 1500 6000 500 fold 
4444 7260 8000 50 fold 
7777 2000 4000 0 fold 
1111 1800 4020 200 fold 
5555 9196 8000 600 raise 
total pot: 2550 
/inquire 
recv from player 5555: check
river/ 
SPADES 8 
/river 

---river round bet---
valid player: 8, all in player: 0, fold player: 5
send inquire msg to player 8888 
inquire/ 
2222 1086 6000 0 fold 
3333 1500 6000 500 fold 
4444 7260 8000 50 fold 
7777 2000 4000 0 fold 
1111 1800 4020 200 fold 
5555 9196 8000 600 check 
6666 4475 2000 600 check 
8888 6111 6000 600 check 
total pot: 2550 
/inquire 
recv from player 8888: check
send inquire msg to player 6666 
inquire/ 
8888 6111 6000 600 check 
2222 1086 6000 0 fold 
3333 1500 6000 500 fold 
4444 7260 8000 50 fold 
7777 2000 4000 0 fold 
1111 1800 4020 200 fold 
5555 9196 8000 600 check 
6666 4475 2000 600 check 
total pot: 2550 
/inquire 
recv from player 6666: check
send inquire msg to player 5555 
inquire/ 
6666 4475 2000 600 check 
8888 6111 6000 600 check 
2222 1086 6000 0 fold 
3333 1500 6000 500 fold 
4444 7260 8000 50 fold 
7777 2000 4000 0 fold 
1111 1800 4020 200 fold 
5555 9196 8000 600 check 
total pot: 2550 
/inquire 
recv from player 5555: check

---show down---
showdown/ 
common/ 
CLUBS 6 
CLUBS 4 
HEARTS Q 
DIAMONDS 8 
SPADES 8 
/common 
1: 8888 HEARTS 5 HEARTS 8 THREE_OF_A_KIND 
3: 6666 HEARTS 9 DIAMONDS 2 ONE_PAIR 
2: 5555 SPADES 6 SPADES A TWO_PAIR 
/showdown 

---Allocate pot---
pot-win/ 
8888: 2550 
/pot-win 
it is player 4444's turn to be button

-----25 Hand-----
seat/ 
button: 4444 7260 8000 
small blind: 3333 1500 6000 
big blind: 2222 1086 6000 
8888 8661 6000 
6666 4475 2000 
5555 9196 8000 
1111 1800 4020 
7777 2000 4000 
/seat 
blind/ 
3333: 50 
2222: 100 
/blind 
player 3333:hold/ 
SPADES 7 
HEARTS 2 
/hold 
player 2222:hold/ 
SPADES 9 
CLUBS J 
/hold 
player 8888:hold/ 
DIAMONDS 9 
DIAMONDS K 
/hold 
player 6666:hold/ 
HEARTS 5 
HEARTS 8 
/hold 
player 5555:hold/ 
HEARTS 9 
DIAMONDS 2 
/hold 
player 1111:hold/ 
SPADES 6 
SPADES A 
/hold 
player 7777:hold/ 
HEARTS 6 
DIAMONDS 5 
/hold 
player 4444:hold/ 
DIAMONDS 3 
HEARTS 10 
/hold 

---pre flop round bet---
valid player: 8, all in player: 0, fold player: 0
send inquire msg to player 8888 
inquire/ 
2222 986 6000 100 blind 
3333 1450 6000 50 blind 
total pot: 150 
/inquire 
recv from player 8888: check
send inquire msg to player 6666 
inquire/ 
8888 8561 6000 100 call 
2222 986 6000 100 blind 
3333 1450 6000 50 blind 
total pot: 250 
/inquire 
recv from player 6666: check
send inquire msg to player 5555 
inquire/ 
6666 4375 2000 100 call 
8888 8561 6000 100 call 
2222 986 6000 100 blind 
3333 1450 6000 50 blind 
total pot: 350 
/inquire 
recv from player 5555: check
send inquire msg to player 1111 
inquire/ 
5555 9096 8000 100 call 
6666 4375 2000 100 call 
8888 8561 6000 100 call 
2222 986 6000 100 blind 
3333 1450 6000 50 blind 
total pot: 450 
/inquire 
recv from player 1111: fold
send inquire msg to player 7777 
inquire/ 
1111 1800 4020 0 fold 
5555 9096 8000 100 call 
6666 4375 2000 100 call 
8888 8561 6000 100 call 
2222 986 6000 100 blind 
3333 1450 6000 50 blind 
total pot: 450 
/inquire 
recv from player 7777: check
send inquire msg to player 4444 
inquire/ 
7777 1900 4000 100 call 
1111 1800 4020 0 fold 
5555 9096 8000 100 call 
6666 4375 2000 100 call 
8888 8561 6000 100 call 
2222 986 6000 100 blind 
3333 1450 6000 50 blind 
total pot: 550 
/inquire 
recv from player 4444: check
send inquire msg to player 3333 
inquire/ 
4444 7160 8000 100 call 
7777 1900 4000 100 call 
1111 1800 4020 0 fold 
5555 9096 8000 100 call 
6666 4375 2000 100 call 
8888 8561 6000 100 call 
2222 986 6000 100 blind 
3333 1450 6000 50 blind 
total pot: 650 
/inquire 
recv from player 3333: fold
send inquire msg to player 2222 
inquire/ 
3333 1450 6000 50 fold 
4444 7160 8000 100 call 
7777 1900 4000 100 call 
1111 1800 4020 0 fold 
5555 9096 8000 100 call 
6666 4375 2000 100 call 
8888 8561 6000 100 call 
2222 986 6000 100 blind 
total pot: 650 
/inquire 
recv from player 2222: fold
flop/ 
CLUBS 6 
CLUBS 4 
HEARTS Q 
/flop 

---flop round bet---
valid player: 8, all in player: 0, fold player: 3
send inquire msg to player 8888 
inquire/ 
2222 986 6000 100 fold 
3333 1450 6000 50 fold 
4444 7160 8000 100 call 
7777 1900 4000 100 call 
1111 1800 4020 0 fold 
5555 9096 8000 100 call 
6666 4375 2000 100 call 
8888 8561 6000 100 call 
total pot: 650 
/inquire 
recv from player 8888: check
send inquire msg to player 6666 
inquire/ 
8888 8561 6000 100 check 
2222 986 6000 100 fold 
3333 1450 6000 50 fold 
4444 7160 8000 100 call 
7777 1900 4000 100 call 
1111 1800 4020 0 fold 
5555 9096 8000 100 call 
6666 4375 2000 100 call 
total pot: 650 
/inquire 
recv from player 6666: check
send inquire msg to player 5555 
inquire/ 
6666 4375 2000 100 check 
8888 8561 6000 100 check 
2222 986 6000 100 fold 
3333 1450 6000 50 fold 
4444 7160 8000 100 call 
7777 1900 4000 100 call 
1111 1800 4020 0 fold 
5555 9096 8000 100 call 
total pot: 650 
/inquire 
recv from player 5555: check
send inquire msg to player 7777 
inquire/ 
1111 1800 4020 0 fold 
5555 9096 8000 100 check 
6666 4375 2000 100 check 
8888 8561 6000 100 check 
2222 986 6000 100 fold 
3333 1450 6000 50 fold 
4444 7160 8000 100 call 
7777 1900 4000 100 call 
total pot: 650 
/inquire 
recv from player 7777: fold
send inquire msg to player 4444 
inquire/ 
7777 1900 4000 100 fold 
1111 1800 4020 0 fold 
5555 9096 8000 100 check 
6666 4375 2000 100 check 
8888 8561 6000 100 check 
2222 986 6000 100 fold 
3333 1450 6000 50 fold 
4444 7160 8000 100 call 
total pot: 650 
/inquire 
recv from player 4444: check
turn/ 
DIAMONDS 8 
/turn 

---turn round bet---
valid player: 8, all in player: 0, fold player: 4
send inquire msg to player 8888 
inquire/ 
2222 986 6000 100 fold 
3333 1450 6000 50 fold 
4444 7160 8000 100 check 
7777 1900 4000 100 fold 
1111 1800 4020 0 fold 
5555 9096 8000 100 check 
6666 4375 2000 100 check 
8888 8561 6000 100 check 
total pot: 650 
/inquire 
recv from player 8888: check
send inquire msg to player 6666 
inquire/ 
8888 8561 6000 100 check 
2222 986 6000 100 fold 
3333 1450 6000 50 fold 
4444 7160 8000 100 check 
7777 1900 4000 100 fold 
1111 1800 4020 0 fold 
5555 9096 8000 100 check 
6666 4375 2000 100 check 
total pot: 650 
/inquire 
recv from player 6666: check
send inquire msg to player 5555 
inquire/ 
6666 4375 2000 100 check 
8888 8561 6000 100 check 
2222 986 6000 100 fold 
3333 1450 6000 50 fold 
4444 7160 8000 100 check 
7777 1900 4000 100 fold 
1111 1800 4020 0 fold 
5555 9096 8000 100 check 
total pot: 650 
/inquire 
recv from player 5555: raise 0
send inquire msg to player 4444 
inquire/ 
7777 1900 4000 100 fold 
1111 1800 4020 0 fold 
5555 8996 8000 200 raise 
6666 4375 2000 100 check 
8888 8561 6000 100 check 
2222 986 6000 100 fold 
3333 1450 6000 50 fold 
4444 7160 8000 100 check 
total pot: 750 
/inquire 
recv from player 4444: fold
send inquire msg to player 8888 
inquire/ 
2222 986 6000 100 fold 
3333 1450 6000 50 fold 
4444 7160 8000 100 fold 
7777 1900 4000 100 fold 
1111 1800 4020 0 fold 
5555 8996 8000 200 raise 
6666 4375 2000 100 check 
8888 8561 6000 100 check 
total pot: 750 
/inquire 
recv from player 8888: check
send inquire msg to player 6666 
inquire/ 
8888 8461 6000 200 call 
2222 986 6000 100 fold 
3333 1450 6000 50 fold 
4444 7160 8000 100 fold 
7777 1900 4000 100 fold 
1111 1800 4020 0 fold 
5555 8996 8000 200 raise 
6666 4375 2000 100 check 
total pot: 850 
/inquire 
recv from player 6666: check
river/ 
SPADES 8 
/river 

---river round bet---
valid player: 8, all in player: 0, fold player: 5
send inquire msg to player 8888 
inquire/ 
2222 986 6000 100 fold 
3333 1450 6000 50 fold 
4444 7160 8000 100 fold 
7777 1900 4000 100 fold 
1111 1800 4020 0 fold 
5555 8996 8000 200 raise 
6666 4275 2000 200 call 
8888 8461 6000 200 call 
total pot: 950 
/inquire 
recv from player 8888: check
send inquire msg to player 6666 
inquire/ 
8888 8461 6000 200 check 
2222 986 6000 100 fold 
3333 1450 6000 50 fold 
4444 7160 8000 100 fold 
7777 1900 4000 100 fold 
1111 1800 4020 0 fold 
5555 8996 8000 200 raise 
6666 4275 2000 200 call 
total pot: 950 
/inquire 
recv from player 6666: check
send inquire msg to player 5555 
inquire/ 
6666 4275 2000 200 check 
8888 8461 6000 200 check 
2222 986 6000 100 fold 
3333 1450 6000 50 fold 
4444 7160 8000 100 fold 
7777 1900 4000 100 fold 
1111 1800 4020 0 fold 
5555 8996 8000 200 raise 
total pot: 950 
/inquire 
recv from player 5555: check

---show down---
showdown/ 
common/ 
CLUBS 6 
CLUBS 4 
HEARTS Q 
DIAMONDS 8 
SPADES 8 
/common 
2: 8888 DIAMONDS 9 DIAMONDS K ONE_PAIR 
1: 6666 HEARTS 5 HEARTS 8 THREE_OF_A_KIND 
3: 5555 HEARTS 9 DIAMONDS 2 ONE_PAIR 
/showdown 

---Allocate pot---
pot-win/ 
6666: 950 
/pot-win 
it is player 3333's turn to be button

-----26 Hand-----
seat/ 
button: 3333 1450 6000 
small blind: 2222 986 6000 
big blind: 8888 8461 6000 
6666 5225 2000 
5555 8996 8000 
1111 1800 4020 
7777 1900 4000 
4444 7160 8000 
/seat 
blind/ 
2222: 50 
8888: 100 
/blind 
player 2222:hold/ 
HEARTS Q 
CLUBS 10 
/hold 
player 8888:hold/ 
HEARTS A 
DIAMONDS 6 
/hold 
player 6666:hold/ 
CLUBS 3 
SPADES A 
/hold 
player 5555:hold/ 
CLUBS 4 
SPADES 4 
/hold 
player 1111:hold/ 
SPADES 9 
DIAMONDS 8 
/hold 
player 7777:hold/ 
CLUBS 9 
CLUBS 6 
/hold 
player 4444:hold/ 
SPADES J 
SPADES 2 
/hold 
player 3333:hold/ 
CLUBS 5 
HEARTS 9 
/hold 

---pre flop round bet---
valid player: 8, all in player: 0, fold player: 0
send inquire msg to player 6666 
inquire/ 
8888 8361 6000 100 blind 
2222 936 6000 50 blind 
total pot: 150 
/inquire 
recv from player 6666: check
send inquire msg to player 5555 
inquire/ 
6666 5125 2000 100 call 
8888 8361 6000 100 blind 
2222 936 6000 50 blind 
total pot: 250 
/inquire 
recv from player 5555: raise 0
send inquire msg to player 1111 
inquire/ 
5555 8796 8000 200 raise 
6666 5125 2000 100 call 
8888 8361 6000 100 blind 
2222 936 6000 50 blind 
total pot: 450 
/inquire 
recv from player 1111: raise 0
send inquire msg to player 7777 
inquire/ 
1111 1500 4020 300 raise 
5555 8796 8000 200 raise 
6666 5125 2000 100 call 
8888 8361 6000 100 blind 
2222 936 6000 50 blind 
total pot: 750 
/inquire 
recv from player 7777: check
send inquire msg to player 4444 
inquire/ 
7777 1600 4000 300 call 
1111 1500 4020 300 raise 
5555 8796 8000 200 raise 
6666 5125 2000 100 call 
8888 8361 6000 100 blind 
2222 936 6000 50 blind 
total pot: 1050 
/inquire 
recv from player 4444: raise 164
send inquire msg to player 3333 
inquire/ 
4444 6696 8000 464 raise 
7777 1600 4000 300 call 
1111 1500 4020 300 raise 
5555 8796 8000 200 raise 
6666 5125 2000 100 call 
8888 8361 6000 100 blind 
2222 936 6000 50 blind 
total pot: 1514 
/inquire 
recv from player 3333: check
send inquire msg to player 2222 
inquire/ 
3333 986 6000 464 call 
4444 6696 8000 464 raise 
7777 1600 4000 300 call 
1111 1500 4020 300 raise 
5555 8796 8000 200 raise 
6666 5125 2000 100 call 
8888 8361 6000 100 blind 
2222 936 6000 50 blind 
total pot: 1978 
/inquire 
recv from player 2222: fold
send inquire msg to player 8888 
inquire/ 
2222 936 6000 50 fold 
3333 986 6000 464 call 
4444 6696 8000 464 raise 
7777 1600 4000 300 call 
1111 1500 4020 300 raise 
5555 8796 8000 200 raise 
6666 5125 2000 100 call 
8888 8361 6000 100 blind 
total pot: 1978 
/inquire 
recv from player 8888: check
send inquire msg to player 6666 
inquire/ 
8888 7997 6000 464 call 
2222 936 6000 50 fold 
3333 986 6000 464 call 
4444 6696 8000 464 raise 
7777 1600 4000 300 call 
1111 1500 4020 300 raise 
5555 8796 8000 200 raise 
6666 5125 2000 100 call 
total pot: 2342 
/inquire 
recv from player 6666: check
send inquire msg to player 5555 
inquire/ 
6666 4761 2000 464 call 
8888 7997 6000 464 call 
2222 936 6000 50 fold 
3333 986 6000 464 call 
4444 6696 8000 464 raise 
7777 1600 4000 300 call 
1111 1500 4020 300 raise 
5555 8796 8000 200 raise 
total pot: 2706 
/inquire 
recv from player 5555: raise 0
send inquire msg to player 1111 
inquire/ 
5555 8368 8000 628 raise 
6666 4761 2000 464 call 
8888 7997 6000 464 call 
2222 936 6000 50 fold 
3333 986 6000 464 call 
4444 6696 8000 464 raise 
7777 1600 4000 300 call 
1111 1500 4020 300 raise 
total pot: 3134 
/inquire 
recv from player 1111: raise 0
send inquire msg to player 7777 
inquire/ 
1111 1008 4020 792 raise 
5555 8368 8000 628 raise 
6666 4761 2000 464 call 
8888 7997 6000 464 call 
2222 936 6000 50 fold 
3333 986 6000 464 call 
4444 6696 8000 464 raise 
7777 1600 4000 300 call 
total pot: 3626 
/inquire 
recv from player 7777: check
send inquire msg to player 4444 
inquire/ 
7777 1108 4000 792 call 
1111 1008 4020 792 raise 
5555 8368 8000 628 raise 
6666 4761 2000 464 call 
8888 7997 6000 464 call 
2222 936 6000 50 fold 
3333 986 6000 464 call 
4444 6696 8000 464 raise 
total pot: 4118 
/inquire 
recv from player 4444: check
send inquire msg to player 3333 
inquire/ 
4444 6368 8000 792 call 
7777 1108 4000 792 call 
1111 1008 4020 792 raise 
5555 8368 8000 628 raise 
6666 4761 2000 464 call 
8888 7997 6000 464 call 
2222 936 6000 50 fold 
3333 986 6000 464 call 
total pot: 4446 
/inquire 
recv from player 3333: check
send inquire msg to player 8888 
inquire/ 
2222 936 6000 50 fold 
3333 658 6000 792 call 
4444 6368 8000 792 call 
7777 1108 4000 792 call 
1111 1008 4020 792 raise 
5555 8368 8000 628 raise 
6666 4761 2000 464 call 
8888 7997 6000 464 call 
total pot: 4774 
/inquire 
recv from player 8888: check
send inquire msg to player 6666 
inquire/ 
8888 7669 6000 792 call 
2222 936 6000 50 fold 
3333 658 6000 792 call 
4444 6368 8000 792 call 
7777 1108 4000 792 call 
1111 1008 4020 792 raise 
5555 8368 8000 628 raise 
6666 4761 2000 464 call 
total pot: 5102 
/inquire 
recv from player 6666: check
send inquire msg to player 5555 
inquire/ 
6666 4433 2000 792 call 
8888 7669 6000 792 call 
2222 936 6000 50 fold 
3333 658 6000 792 call 
4444 6368 8000 792 call 
7777 1108 4000 792 call 
1111 1008 4020 792 raise 
5555 8368 8000 628 raise 
total pot: 5430 
/inquire 
recv from player 5555: raise 0
send inquire msg to player 1111 
inquire/ 
5555 8040 8000 956 raise 
6666 4433 2000 792 call 
8888 7669 6000 792 call 
2222 936 6000 50 fold 
3333 658 6000 792 call 
4444 6368 8000 792 call 
7777 1108 4000 792 call 
1111 1008 4020 792 raise 
total pot: 5758 
/inquire 
recv from player 1111: check
send inquire msg to player 7777 
inquire/ 
1111 844 4020 956 call 
5555 8040 8000 956 raise 
6666 4433 2000 792 call 
8888 7669 6000 792 call 
2222 936 6000 50 fold 
3333 658 6000 792 call 
4444 6368 8000 792 call 
7777 1108 4000 792 call 
total pot: 5922 
/inquire 
recv from player 7777: fold
send inquire msg to player 4444 
inquire/ 
7777 1108 4000 792 fold 
1111 844 4020 956 call 
5555 8040 8000 956 raise 
6666 4433 2000 792 call 
8888 7669 6000 792 call 
2222 936 6000 50 fold 
3333 658 6000 792 call 
4444 6368 8000 792 call 
total pot: 5922 
/inquire 
recv from player 4444: check
send inquire msg to player 3333 
inquire/ 
4444 6204 8000 956 call 
7777 1108 4000 792 fold 
1111 844 4020 956 call 
5555 8040 8000 956 raise 
6666 4433 2000 792 call 
8888 7669 6000 792 call 
2222 936 6000 50 fold 
3333 658 6000 792 call 
total pot: 6086 
/inquire 
recv from player 3333: fold
send inquire msg to player 8888 
inquire/ 
2222 936 6000 50 fold 
3333 658 6000 792 fold 
4444 6204 8000 956 call 
7777 1108 4000 792 fold 
1111 844 4020 956 call 
5555 8040 8000 956 raise 
6666 4433 2000 792 call 
8888 7669 6000 792 call 
total pot: 6086 
/inquire 
recv from player 8888: check
send inquire msg to player 6666 
inquire/ 
8888 7505 6000 956 call 
2222 936 6000 50 fold 
3333 658 6000 792 fold 
4444 6204 8000 956 call 
7777 1108 4000 792 fold 
1111 844 4020 956 call 
5555 8040 8000 956 raise 
6666 4433 2000 792 call 
total pot: 6250 
/inquire 
recv from player 6666: check
flop/ 
SPADES 6 
CLUBS Q 
SPADES 8 
/flop 

---flop round bet---
valid player: 8, all in player: 0, fold player: 3
send inquire msg to player 8888 
inquire/ 
2222 936 6000 50 fold 
3333 658 6000 792 fold 
4444 6204 8000 956 call 
7777 1108 4000 792 fold 
1111 844 4020 956 call 
5555 8040 8000 956 raise 
6666 4269 2000 956 call 
8888 7505 6000 956 call 
total pot: 6414 
/inquire 
recv from player 8888: check
send inquire msg to player 6666 
inquire/ 
8888 7505 6000 956 check 
2222 936 6000 50 fold 
3333 658 6000 792 fold 
4444 6204 8000 956 call 
7777 1108 4000 792 fold 
1111 844 4020 956 call 
5555 8040 8000 956 raise 
6666 4269 2000 956 call 
total pot: 6414 
/inquire 
recv from player 6666: check
send inquire msg to player 5555 
inquire/ 
6666 4269 2000 956 check 
8888 7505 6000 956 check 
2222 936 6000 50 fold 
3333 658 6000 792 fold 
4444 6204 8000 956 call 
7777 1108 4000 792 fold 
1111 844 4020 956 call 
5555 8040 8000 956 raise 
total pot: 6414 
/inquire 
recv from player 5555: check
send inquire msg to player 1111 
inquire/ 
5555 8040 8000 956 check 
6666 4269 2000 956 check 
8888 7505 6000 956 check 
2222 936 6000 50 fold 
3333 658 6000 792 fold 
4444 6204 8000 956 call 
7777 1108 4000 792 fold 
1111 844 4020 956 call 
total pot: 6414 
/inquire 
recv from player 1111: raise 0
send inquire msg to player 4444 
inquire/ 
7777 1108 4000 792 fold 
1111 744 4020 1056 raise 
5555 8040 8000 956 check 
6666 4269 2000 956 check 
8888 7505 6000 956 check 
2222 936 6000 50 fold 
3333 658 6000 792 fold 
4444 6204 8000 956 call 
total pot: 6514 
/inquire 
recv from player 4444: check
send inquire msg to player 8888 
inquire/ 
2222 936 6000 50 fold 
3333 658 6000 792 fold 
4444 6104 8000 1056 call 
7777 1108 4000 792 fold 
1111 744 4020 1056 raise 
5555 8040 8000 956 check 
6666 4269 2000 956 check 
8888 7505 6000 956 check 
total pot: 6614 
/inquire 
recv from player 8888: check
send inquire msg to player 6666 
inquire/ 
8888 7405 6000 1056 call 
2222 936 6000 50 fold 
3333 658 6000 792 fold 
4444 6104 8000 1056 call 
7777 1108 4000 792 fold 
1111 744 4020 1056 raise 
5555 8040 8000 956 check 
6666 4269 2000 956 check 
total pot: 6714 
/inquire 
recv from player 6666: check
send inquire msg to player 5555 
inquire/ 
6666 4169 2000 1056 call 
8888 7405 6000 1056 call 
2222 936 6000 50 fold 
3333 658 6000 792 fold 
4444 6104 8000 1056 call 
7777 1108 4000 792 fold 
1111 744 4020 1056 raise 
5555 8040 8000 956 check 
total pot: 6814 
/inquire 
recv from player 5555: check
turn/ 
HEARTS 2 
/turn 

---turn round bet---
valid player: 8, all in player: 0, fold player: 3
send inquire msg to player 8888 
inquire/ 
2222 936 6000 50 fold 
3333 658 6000 792 fold 
4444 6104 8000 1056 call 
7777 1108 4000 792 fold 
1111 744 4020 1056 raise 
5555 7940 8000 1056 call 
6666 4169 2000 1056 call 
8888 7405 6000 1056 call 
total pot: 6914 
/inquire 
recv from player 8888: check
send inquire msg to player 6666 
inquire/ 
8888 7405 6000 1056 check 
2222 936 6000 50 fold 
3333 658 6000 792 fold 
4444 6104 8000 1056 call 
7777 1108 4000 792 fold 
1111 744 4020 1056 raise 
5555 7940 8000 1056 call 
6666 4169 2000 1056 call 
total pot: 6914 
/inquire 
recv from player 6666: check
send inquire msg to player 5555 
inquire/ 
6666 4169 2000 1056 check 
8888 7405 6000 1056 check 
2222 936 6000 50 fold 
3333 658 6000 792 fold 
4444 6104 8000 1056 call 
7777 1108 4000 792 fold 
1111 744 4020 1056 raise 
5555 7940 8000 1056 call 
total pot: 6914 
/inquire 
recv from player 5555: check
send inquire msg to player 1111 
inquire/ 
5555 7940 8000 1056 check 
6666 4169 2000 1056 check 
8888 7405 6000 1056 check 
2222 936 6000 50 fold 
3333 658 6000 792 fold 
4444 6104 8000 1056 call 
7777 1108 4000 792 fold 
1111 744 4020 1056 raise 
total pot: 6914 
/inquire 
recv from player 1111: fold
send inquire msg to player 4444 
inquire/ 
7777 1108 4000 792 fold 
1111 744 4020 1056 fold 
5555 7940 8000 1056 check 
6666 4169 2000 1056 check 
8888 7405 6000 1056 check 
2222 936 6000 50 fold 
3333 658 6000 792 fold 
4444 6104 8000 1056 call 
total pot: 6914 
/inquire 
recv from player 4444: check
river/ 
SPADES 10 
/river 

---river round bet---
valid player: 8, all in player: 0, fold player: 4
send inquire msg to player 8888 
inquire/ 
2222 936 6000 50 fold 
3333 658 6000 792 fold 
4444 6104 8000 1056 check 
7777 1108 4000 792 fold 
1111 744 4020 1056 fold 
5555 7940 8000 1056 check 
6666 4169 2000 1056 check 
8888 7405 6000 1056 check 
total pot: 6914 
/inquire 
recv from player 8888: check
send inquire msg to player 6666 
inquire/ 
8888 7405 6000 1056 check 
2222 936 6000 50 fold 
3333 658 6000 792 fold 
4444 6104 8000 1056 check 
7777 1108 4000 792 fold 
1111 744 4020 1056 fold 
5555 7940 8000 1056 check 
6666 4169 2000 1056 check 
total pot: 6914 
/inquire 
recv from player 6666: check
send inquire msg to player 5555 
inquire/ 
6666 4169 2000 1056 check 
8888 7405 6000 1056 check 
2222 936 6000 50 fold 
3333 658 6000 792 fold 
4444 6104 8000 1056 check 
7777 1108 4000 792 fold 
1111 744 4020 1056 fold 
5555 7940 8000 1056 check 
total pot: 6914 
/inquire 
recv from player 5555: raise 0
send inquire msg to player 4444 
inquire/ 
7777 1108 4000 792 fold 
1111 744 4020 1056 fold 
5555 7840 8000 1156 raise 
6666 4169 2000 1056 check 
8888 7405 6000 1056 check 
2222 936 6000 50 fold 
3333 658 6000 792 fold 
4444 6104 8000 1056 check 
total pot: 7014 
/inquire 
recv from player 4444: raise 2599
send inquire msg to player 8888 
inquire/ 
2222 936 6000 50 fold 
3333 658 6000 792 fold 
4444 3405 8000 3755 raise 
7777 1108 4000 792 fold 
1111 744 4020 1056 fold 
5555 7840 8000 1156 raise 
6666 4169 2000 1056 check 
8888 7405 6000 1056 check 
total pot: 9713 
/inquire 
recv from player 8888: check
send inquire msg to player 6666 
inquire/ 
8888 4706 6000 3755 call 
2222 936 6000 50 fold 
3333 658 6000 792 fold 
4444 3405 8000 3755 raise 
7777 1108 4000 792 fold 
1111 744 4020 1056 fold 
5555 7840 8000 1156 raise 
6666 4169 2000 1056 check 
total pot: 12412 
/inquire 
recv from player 6666: check
send inquire msg to player 5555 
inquire/ 
6666 1470 2000 3755 call 
8888 4706 6000 3755 call 
2222 936 6000 50 fold 
3333 658 6000 792 fold 
4444 3405 8000 3755 raise 
7777 1108 4000 792 fold 
1111 744 4020 1056 fold 
5555 7840 8000 1156 raise 
total pot: 15111 
/inquire 
recv from player 5555: check

---show down---
showdown/ 
common/ 
SPADES 6 
CLUBS Q 
SPADES 8 
HEARTS 2 
SPADES 10 
/common 
2: 8888 HEARTS A DIAMONDS 6 ONE_PAIR 
4: 6666 CLUBS 3 SPADES A HIGH_CARD 
3: 5555 CLUBS 4 SPADES 4 ONE_PAIR 
1: 4444 SPADES J SPADES 2 FLUSH 
/showdown 

---Allocate pot---
pot-win/ 
4444: 17710 
/pot-win 
it is player 2222's turn to be button

-----27 Hand-----
seat/ 
button: 2222 936 6000 
small blind: 8888 4706 6000 
big blind: 6666 1470 2000 
5555 5241 8000 
1111 744 4020 
7777 1108 4000 
4444 21115 8000 
3333 658 6000 
/seat 
blind/ 
8888: 50 
6666: 100 
/blind 
player 8888:hold/ 
HEARTS 6 
DIAMONDS 3 
/hold 
player 6666:hold/ 
HEARTS 2 
SPADES 3 
/hold 
player 5555:hold/ 
DIAMONDS 4 
DIAMONDS J 
/hold 
player 1111:hold/ 
SPADES K 
HEARTS 8 
/hold 
player 7777:hold/ 
SPADES 8 
SPADES 7 
/hold 
player 4444:hold/ 
CLUBS 4 
CLUBS J 
/hold 
player 3333:hold/ 
CLUBS 3 
DIAMONDS 8 
/hold 
player 2222:hold/ 
SPADES Q 
DIAMONDS A 
/hold 

---pre flop round bet---
valid player: 8, all in player: 0, fold player: 0
send inquire msg to player 5555 
inquire/ 
6666 1370 2000 100 blind 
8888 4656 6000 50 blind 
total pot: 150 
/inquire 
recv from player 5555: check
send inquire msg to player 1111 
inquire/ 
5555 5141 8000 100 call 
6666 1370 2000 100 blind 
8888 4656 6000 50 blind 
total pot: 250 
/inquire 
recv from player 1111: fold
send inquire msg to player 7777 
inquire/ 
1111 744 4020 0 fold 
5555 5141 8000 100 call 
6666 1370 2000 100 blind 
8888 4656 6000 50 blind 
total pot: 250 
/inquire 
recv from player 7777: check
send inquire msg to player 4444 
inquire/ 
7777 1008 4000 100 call 
1111 744 4020 0 fold 
5555 5141 8000 100 call 
6666 1370 2000 100 blind 
8888 4656 6000 50 blind 
total pot: 350 
/inquire 
recv from player 4444: check
send inquire msg to player 3333 
inquire/ 
4444 21015 8000 100 call 
7777 1008 4000 100 call 
1111 744 4020 0 fold 
5555 5141 8000 100 call 
6666 1370 2000 100 blind 
8888 4656 6000 50 blind 
total pot: 450 
/inquire 
recv from player 3333: raise 0
send inquire msg to player 2222 
inquire/ 
3333 458 6000 200 raise 
4444 21015 8000 100 call 
7777 1008 4000 100 call 
1111 744 4020 0 fold 
5555 5141 8000 100 call 
6666 1370 2000 100 blind 
8888 4656 6000 50 blind 
total pot: 650 
/inquire 
recv from player 2222: fold
send inquire msg to player 8888 
inquire/ 
2222 936 6000 0 fold 
3333 458 6000 200 raise 
4444 21015 8000 100 call 
7777 1008 4000 100 call 
1111 744 4020 0 fold 
5555 5141 8000 100 call 
6666 1370 2000 100 blind 
8888 4656 6000 50 blind 
total pot: 650 
/inquire 
recv from player 8888: check
send inquire msg to player 6666 
inquire/ 
8888 4506 6000 200 call 
2222 936 6000 0 fold 
3333 458 6000 200 raise 
4444 21015 8000 100 call 
7777 1008 4000 100 call 
1111 744 4020 0 fold 
5555 5141 8000 100 call 
6666 1370 2000 100 blind 
total pot: 800 
/inquire 
recv from player 6666: check
send inquire msg to player 5555 
inquire/ 
6666 1270 2000 200 call 
8888 4506 6000 200 call 
2222 936 6000 0 fold 
3333 458 6000 200 raise 
4444 21015 8000 100 call 
7777 1008 4000 100 call 
1111 744 4020 0 fold 
5555 5141 8000 100 call 
total pot: 900 
/inquire 
recv from player 5555: raise 0
send inquire msg to player 7777 
inquire/ 
1111 744 4020 0 fold 
5555 4941 8000 300 raise 
6666 1270 2000 200 call 
8888 4506 6000 200 call 
2222 936 6000 0 fold 
3333 458 6000 200 raise 
4444 21015 8000 100 call 
7777 1008 4000 100 call 
total pot: 1100 
/inquire 
recv from player 7777: check
send inquire msg to player 4444 
inquire/ 
7777 808 4000 300 call 
1111 744 4020 0 fold 
5555 4941 8000 300 raise 
6666 1270 2000 200 call 
8888 4506 6000 200 call 
2222 936 6000 0 fold 
3333 458 6000 200 raise 
4444 21015 8000 100 call 
total pot: 1300 
/inquire 
recv from player 4444: raise 870
send inquire msg to player 3333 
inquire/ 
4444 19945 8000 1170 raise 
7777 808 4000 300 call 
1111 744 4020 0 fold 
5555 4941 8000 300 raise 
6666 1270 2000 200 call 
8888 4506 6000 200 call 
2222 936 6000 0 fold 
3333 458 6000 200 raise 
total pot: 2370 
/inquire 
recv from player 3333: fold
send inquire msg to player 8888 
inquire/ 
2222 936 6000 0 fold 
3333 458 6000 200 fold 
4444 19945 8000 1170 raise 
7777 808 4000 300 call 
1111 744 4020 0 fold 
5555 4941 8000 300 raise 
6666 1270 2000 200 call 
8888 4506 6000 200 call 
total pot: 2370 
/inquire 
recv from player 8888: check
send inquire msg to player 6666 
inquire/ 
8888 3536 6000 1170 call 
2222 936 6000 0 fold 
3333 458 6000 200 fold 
4444 19945 8000 1170 raise 
7777 808 4000 300 call 
1111 744 4020 0 fold 
5555 4941 8000 300 raise 
6666 1270 2000 200 call 
total pot: 3340 
/inquire 
recv from player 6666: check
send inquire msg to player 5555 
inquire/ 
6666 300 2000 1170 call 
8888 3536 6000 1170 call 
2222 936 6000 0 fold 
3333 458 6000 200 fold 
4444 19945 8000 1170 raise 
7777 808 4000 300 call 
1111 744 4020 0 fold 
5555 4941 8000 300 raise 
total pot: 4310 
/inquire 
recv from player 5555: check
send inquire msg to player 7777 
inquire/ 
1111 744 4020 0 fold 
5555 4071 8000 1170 call 
6666 300 2000 1170 call 
8888 3536 6000 1170 call 
2222 936 6000 0 fold 
3333 458 6000 200 fold 
4444 19945 8000 1170 raise 
7777 808 4000 300 call 
total pot: 5180 
/inquire 
recv from player 7777: check
flop/ 
CLUBS 10 
CLUBS 5 
DIAMONDS 5 
/flop 

---flop round bet---
valid player: 8, all in player: 1, fold player: 3
send inquire msg to player 8888 
inquire/ 
2222 936 6000 0 fold 
3333 458 6000 200 fold 
4444 19945 8000 1170 raise 
7777 0 4000 1108 all_in 
1111 744 4020 0 fold 
5555 4071 8000 1170 call 
6666 300 2000 1170 call 
8888 3536 6000 1170 call 
total pot: 5988 
/inquire 
recv from player 8888: check
send inquire msg to player 6666 
inquire/ 
8888 3536 6000 1170 check 
2222 936 6000 0 fold 
3333 458 6000 200 fold 
4444 19945 8000 1170 raise 
7777 0 4000 1108 all_in 
1111 744 4020 0 fold 
5555 4071 8000 1170 call 
6666 300 2000 1170 call 
total pot: 5988 
/inquire 
recv from player 6666: check
send inquire msg to player 5555 
inquire/ 
6666 300 2000 1170 check 
8888 3536 6000 1170 check 
2222 936 6000 0 fold 
3333 458 6000 200 fold 
4444 19945 8000 1170 raise 
7777 0 4000 1108 all_in 
1111 744 4020 0 fold 
5555 4071 8000 1170 call 
total pot: 5988 
/inquire 
recv from player 5555: check
send inquire msg to player 4444 
inquire/ 
7777 0 4000 1108 all_in 
1111 744 4020 0 fold 
5555 4071 8000 1170 check 
6666 300 2000 1170 check 
8888 3536 6000 1170 check 
2222 936 6000 0 fold 
3333 458 6000 200 fold 
4444 19945 8000 1170 raise 
total pot: 5988 
/inquire 
recv from player 4444: check
turn/ 
DIAMONDS 7 
/turn 

---turn round bet---
valid player: 8, all in player: 1, fold player: 3
send inquire msg to player 8888 
inquire/ 
2222 936 6000 0 fold 
3333 458 6000 200 fold 
4444 19945 8000 1170 check 
7777 0 4000 1108 all_in 
1111 744 4020 0 fold 
5555 4071 8000 1170 check 
6666 300 2000 1170 check 
8888 3536 6000 1170 check 
total pot: 5988 
/inquire 
recv from player 8888: check
send inquire msg to player 6666 
inquire/ 
8888 3536 6000 1170 check 
2222 936 6000 0 fold 
3333 458 6000 200 fold 
4444 19945 8000 1170 check 
7777 0 4000 1108 all_in 
1111 744 4020 0 fold 
5555 4071 8000 1170 check 
6666 300 2000 1170 check 
total pot: 5988 
/inquire 
recv from player 6666: check
send inquire msg to player 5555 
inquire/ 
6666 300 2000 1170 check 
8888 3536 6000 1170 check 
2222 936 6000 0 fold 
3333 458 6000 200 fold 
4444 19945 8000 1170 check 
7777 0 4000 1108 all_in 
1111 744 4020 0 fold 
5555 4071 8000 1170 check 
total pot: 5988 
/inquire 
recv from player 5555: check
send inquire msg to player 4444 
inquire/ 
7777 0 4000 1108 all_in 
1111 744 4020 0 fold 
5555 4071 8000 1170 check 
6666 300 2000 1170 check 
8888 3536 6000 1170 check 
2222 936 6000 0 fold 
3333 458 6000 200 fold 
4444 19945 8000 1170 check 
total pot: 5988 
/inquire 
recv from player 4444: check
river/ 
SPADES J 
/river 

---river round bet---
valid player: 8, all in player: 1, fold player: 3
send inquire msg to player 8888 
inquire/ 
2222 936 6000 0 fold 
3333 458 6000 200 fold 
4444 19945 8000 1170 check 
7777 0 4000 1108 all_in 
1111 744 4020 0 fold 
5555 4071 8000 1170 check 
6666 300 2000 1170 check 
8888 3536 6000 1170 check 
total pot: 5988 
/inquire 
recv from player 8888: check
send inquire msg to player 6666 
inquire/ 
8888 3536 6000 1170 check 
2222 936 6000 0 fold 
3333 458 6000 200 fold 
4444 19945 8000 1170 check 
7777 0 4000 1108 all_in 
1111 744 4020 0 fold 
5555 4071 8000 1170 check 
6666 300 2000 1170 check 
total pot: 5988 
/inquire 
recv from player 6666: check
send inquire msg to player 5555 
inquire/ 
6666 300 2000 1170 check 
8888 3536 6000 1170 check 
2222 936 6000 0 fold 
3333 458 6000 200 fold 
4444 19945 8000 1170 check 
7777 0 4000 1108 all_in 
1111 744 4020 0 fold 
5555 4071 8000 1170 check 
total pot: 5988 
/inquire 
recv from player 5555: raise 0
send inquire msg to player 4444 
inquire/ 
7777 0 4000 1108 all_in 
1111 744 4020 0 fold 
5555 3971 8000 1270 raise 
6666 300 2000 1170 check 
8888 3536 6000 1170 check 
2222 936 6000 0 fold 
3333 458 6000 200 fold 
4444 19945 8000 1170 check 
total pot: 6088 
/inquire 
recv from player 4444: check
send inquire msg to player 8888 
inquire/ 
2222 936 6000 0 fold 
3333 458 6000 200 fold 
4444 19845 8000 1270 call 
7777 0 4000 1108 all_in 
1111 744 4020 0 fold 
5555 3971 8000 1270 raise 
6666 300 2000 1170 check 
8888 3536 6000 1170 check 
total pot: 6188 
/inquire 
recv from player 8888: check
send inquire msg to player 6666 
inquire/ 
8888 3436 6000 1270 call 
2222 936 6000 0 fold 
3333 458 6000 200 fold 
4444 19845 8000 1270 call 
7777 0 4000 1108 all_in 
1111 744 4020 0 fold 
5555 3971 8000 1270 raise 
6666 300 2000 1170 check 
total pot: 6288 
/inquire 
recv from player 6666: check

---show down---
showdown/ 
common/ 
CLUBS 10 
CLUBS 5 
DIAMONDS 5 
DIAMONDS 7 
SPADES J 
/common 
3: 8888 HEARTS 6 DIAMONDS 3 ONE_PAIR 
3: 6666 HEARTS 2 SPADES 3 ONE_PAIR 
1: 5555 DIAMONDS 4 DIAMONDS J TWO_PAIR 
2: 7777 SPADES 8 SPADES 7 TWO_PAIR 
1: 4444 CLUBS 4 CLUBS J TWO_PAIR 
/showdown 

---Allocate pot---
pot-win/ 
5555: 3194 
4444: 3194 
/pot-win 
it is player 8888's turn to be button

-----28 Hand-----
seat/ 
button: 8888 3436 6000 
small blind: 6666 200 2000 
big blind: 5555 7165 8000 
1111 744 4020 
7777 2000 2000 
4444 23039 8000 
3333 458 6000 
2222 936 6000 
/seat 
blind/ 
6666: 50 
5555: 100 
/blind 
player 6666:hold/ 
DIAMONDS 10 
DIAMONDS 2 
/hold 
player 5555:hold/ 
DIAMONDS 3 
HEARTS 9 
/hold 
player 1111:hold/ 
CLUBS 7 
CLUBS 9 
/hold 
player 7777:hold/ 
SPADES 5 
SPADES K 
/hold 
player 4444:hold/ 
DIAMONDS K 
HEARTS 7 
/hold 
player 3333:hold/ 
SPADES 7 
CLUBS 8 
/hold 
player 2222:hold/ 
HEARTS J 
HEARTS 6 
/hold 
player 8888:hold/ 
SPADES J 
DIAMONDS J 
/hold 

---pre flop round bet---
valid player: 8, all in player: 0, fold player: 0
send inquire msg to player 1111 
inquire/ 
5555 7065 8000 100 blind 
6666 150 2000 50 blind 
total pot: 150 
/inquire 
recv from player 1111: fold
send inquire msg to player 7777 
inquire/ 
1111 744 4020 0 fold 
5555 7065 8000 100 blind 
6666 150 2000 50 blind 
total pot: 150 
/inquire 
recv from player 7777: fold
send inquire msg to player 4444 
inquire/ 
7777 2000 2000 0 fold 
1111 744 4020 0 fold 
5555 7065 8000 100 blind 
6666 150 2000 50 blind 
total pot: 150 
/inquire 
recv from player 4444: raise 1103
send inquire msg to player 3333 
inquire/ 
4444 21836 8000 1203 raise 
7777 2000 2000 0 fold 
1111 744 4020 0 fold 
5555 7065 8000 100 blind 
6666 150 2000 50 blind 
total pot: 1353 
/inquire 
recv from player 3333: raise 0
send inquire msg to player 2222 
inquire/ 
3333 0 6000 458 all_in 
4444 21836 8000 1203 raise 
7777 2000 2000 0 fold 
1111 744 4020 0 fold 
5555 7065 8000 100 blind 
6666 150 2000 50 blind 
total pot: 1811 
/inquire 
recv from player 2222: raise 0
send inquire msg to player 8888 
inquire/ 
2222 0 6000 936 all_in 
3333 0 6000 458 all_in 
4444 21836 8000 1203 raise 
7777 2000 2000 0 fold 
1111 744 4020 0 fold 
5555 7065 8000 100 blind 
6666 150 2000 50 blind 
total pot: 2747 
/inquire 
recv from player 8888: check
send inquire msg to player 6666 
inquire/ 
8888 2233 6000 1203 call 
2222 0 6000 936 all_in 
3333 0 6000 458 all_in 
4444 21836 8000 1203 raise 
7777 2000 2000 0 fold 
1111 744 4020 0 fold 
5555 7065 8000 100 blind 
6666 150 2000 50 blind 
total pot: 3950 
/inquire 
recv from player 6666: check
send inquire msg to player 5555 
inquire/ 
6666 0 2000 200 all_in 
8888 2233 6000 1203 call 
2222 0 6000 936 all_in 
3333 0 6000 458 all_in 
4444 21836 8000 1203 raise 
7777 2000 2000 0 fold 
1111 744 4020 0 fold 
5555 7065 8000 100 blind 
total pot: 4100 
/inquire 
recv from player 5555: raise 0
send inquire msg to player 4444 
inquire/ 
7777 2000 2000 0 fold 
1111 744 4020 0 fold 
5555 4859 8000 2306 raise 
6666 0 2000 200 all_in 
8888 2233 6000 1203 call 
2222 0 6000 936 all_in 
3333 0 6000 458 all_in 
4444 21836 8000 1203 raise 
total pot: 6306 
/inquire 
recv from player 4444: check
send inquire msg to player 8888 
inquire/ 
2222 0 6000 936 all_in 
3333 0 6000 458 all_in 
4444 20733 8000 2306 call 
7777 2000 2000 0 fold 
1111 744 4020 0 fold 
5555 4859 8000 2306 raise 
6666 0 2000 200 all_in 
8888 2233 6000 1203 call 
total pot: 7409 
/inquire 
recv from player 8888: check
flop/ 
DIAMONDS 5 
CLUBS Q 
DIAMONDS 8 
/flop 

---flop round bet---
valid player: 8, all in player: 3, fold player: 2
send inquire msg to player 5555 
inquire/ 
6666 0 2000 200 all_in 
8888 1130 6000 2306 call 
2222 0 6000 936 all_in 
3333 0 6000 458 all_in 
4444 20733 8000 2306 call 
7777 2000 2000 0 fold 
1111 744 4020 0 fold 
5555 4859 8000 2306 raise 
total pot: 8512 
/inquire 
recv from player 5555: raise 0
send inquire msg to player 4444 
inquire/ 
7777 2000 2000 0 fold 
1111 744 4020 0 fold 
5555 4759 8000 2406 raise 
6666 0 2000 200 all_in 
8888 1130 6000 2306 call 
2222 0 6000 936 all_in 
3333 0 6000 458 all_in 
4444 20733 8000 2306 call 
total pot: 8612 
/inquire 
recv from player 4444: fold
send inquire msg to player 8888 
inquire/ 
2222 0 6000 936 all_in 
3333 0 6000 458 all_in 
4444 20733 8000 2306 fold 
7777 2000 2000 0 fold 
1111 744 4020 0 fold 
5555 4759 8000 2406 raise 
6666 0 2000 200 all_in 
8888 1130 6000 2306 call 
total pot: 8612 
/inquire 
recv from player 8888: check
turn/ 
DIAMONDS 6 
/turn 

---turn round bet---
valid player: 8, all in player: 3, fold player: 3
send inquire msg to player 5555 
inquire/ 
6666 0 2000 200 all_in 
8888 1030 6000 2406 call 
2222 0 6000 936 all_in 
3333 0 6000 458 all_in 
4444 20733 8000 2306 fold 
7777 2000 2000 0 fold 
1111 744 4020 0 fold 
5555 4759 8000 2406 raise 
total pot: 8712 
/inquire 
recv from player 5555: check
send inquire msg to player 8888 
inquire/ 
2222 0 6000 936 all_in 
3333 0 6000 458 all_in 
4444 20733 8000 2306 fold 
7777 2000 2000 0 fold 
1111 744 4020 0 fold 
5555 4759 8000 2406 check 
6666 0 2000 200 all_in 
8888 1030 6000 2406 call 
total pot: 8712 
/inquire 
recv from player 8888: check
river/ 
SPADES 9 
/river 

---river round bet---
valid player: 8, all in player: 3, fold player: 3
send inquire msg to player 5555 
inquire/ 
6666 0 2000 200 all_in 
8888 1030 6000 2406 check 
2222 0 6000 936 all_in 
3333 0 6000 458 all_in 
4444 20733 8000 2306 fold 
7777 2000 2000 0 fold 
1111 744 4020 0 fold 
5555 4759 8000 2406 check 
total pot: 8712 
/inquire 
recv from player 5555: raise 0
send inquire msg to player 8888 
inquire/ 
2222 0 6000 936 all_in 
3333 0 6000 458 all_in 
4444 20733 8000 2306 fold 
7777 2000 2000 0 fold 
1111 744 4020 0 fold 
5555 4659 8000 2506 raise 
6666 0 2000 200 all_in 
8888 1030 6000 2406 check 
total pot: 8812 
/inquire 
recv from player 8888: check

---show down---
showdown/ 
common/ 
DIAMONDS 5 
CLUBS Q 
DIAMONDS 8 
DIAMONDS 6 
SPADES 9 
/common 
1: 6666 DIAMONDS 10 DIAMONDS 2 FLUSH 
4: 5555 DIAMONDS 3 HEARTS 9 ONE_PAIR 
2: 3333 SPADES 7 CLUBS 8 STRAIGHT 
5: 2222 HEARTS J HEARTS 6 ONE_PAIR 
3: 8888 SPADES J DIAMONDS J ONE_PAIR 
/showdown 

---Allocate pot---
pot-win/ 
6666: 3306 
3333: 1032 
8888: 4574 
/pot-win 
it is player 6666's turn to be button

-----29 Hand-----
seat/ 
button: 6666 3306 2000 
small blind: 5555 4659 8000 
big blind: 1111 744 4020 
7777 2000 2000 
4444 20733 8000 
3333 1032 6000 
2222 2000 4000 
8888 5504 6000 
/seat 
blind/ 
5555: 50 
1111: 100 
/blind 
player 5555:hold/ 
DIAMONDS 3 
CLUBS 7 
/hold 
player 1111:hold/ 
HEARTS 10 
HEARTS 8 
/hold 
player 7777:hold/ 
HEARTS K 
DIAMONDS 7 
/hold 
player 4444:hold/ 
DIAMONDS 10 
CLUBS 5 
/hold 
player 3333:hold/ 
SPADES 5 
DIAMONDS 6 
/hold 
player 2222:hold/ 
DIAMONDS 8 
HEARTS 5 
/hold 
player 8888:hold/ 
HEARTS A 
SPADES 8 
/hold 
player 6666:hold/ 
HEARTS 9 
CLUBS 9 
/hold 

---pre flop round bet---
valid player: 8, all in player: 0, fold player: 0
send inquire msg to player 7777 
inquire/ 
1111 644 4020 100 blind 
5555 4609 8000 50 blind 
total pot: 150 
/inquire 
recv from player 7777: fold
send inquire msg to player 4444 
inquire/ 
7777 2000 2000 0 fold 
1111 644 4020 100 blind 
5555 4609 8000 50 blind 
total pot: 150 
/inquire 
recv from player 4444: raise 506
send inquire msg to player 3333 
inquire/ 
4444 20127 8000 606 raise 
7777 2000 2000 0 fold 
1111 644 4020 100 blind 
5555 4609 8000 50 blind 
total pot: 756 
/inquire 
recv from player 3333: fold
send inquire msg to player 2222 
inquire/ 
3333 1032 6000 0 fold 
4444 20127 8000 606 raise 
7777 2000 2000 0 fold 
1111 644 4020 100 blind 
5555 4609 8000 50 blind 
total pot: 756 
/inquire 
recv from player 2222: fold
send inquire msg to player 8888 
inquire/ 
2222 2000 4000 0 fold 
3333 1032 6000 0 fold 
4444 20127 8000 606 raise 
7777 2000 2000 0 fold 
1111 644 4020 100 blind 
5555 4609 8000 50 blind 
total pot: 756 
/inquire 
recv from player 8888: check
send inquire msg to player 6666 
inquire/ 
8888 4898 6000 606 call 
2222 2000 4000 0 fold 
3333 1032 6000 0 fold 
4444 20127 8000 606 raise 
7777 2000 2000 0 fold 
1111 644 4020 100 blind 
5555 4609 8000 50 blind 
total pot: 1362 
/inquire 
recv from player 6666: check
send inquire msg to player 5555 
inquire/ 
6666 2700 2000 606 call 
8888 4898 6000 606 call 
2222 2000 4000 0 fold 
3333 1032 6000 0 fold 
4444 20127 8000 606 raise 
7777 2000 2000 0 fold 
1111 644 4020 100 blind 
5555 4609 8000 50 blind 
total pot: 1968 
/inquire 
recv from player 5555: raise 0
send inquire msg to player 1111 
inquire/ 
5555 3547 8000 1112 raise 
6666 2700 2000 606 call 
8888 4898 6000 606 call 
2222 2000 4000 0 fold 
3333 1032 6000 0 fold 
4444 20127 8000 606 raise 
7777 2000 2000 0 fold 
1111 644 4020 100 blind 
total pot: 3030 
/inquire 
recv from player 1111: fold
send inquire msg to player 4444 
inquire/ 
7777 2000 2000 0 fold 
1111 644 4020 100 fold 
5555 3547 8000 1112 raise 
6666 2700 2000 606 call 
8888 4898 6000 606 call 
2222 2000 4000 0 fold 
3333 1032 6000 0 fold 
4444 20127 8000 606 raise 
total pot: 3030 
/inquire 
recv from player 4444: fold
send inquire msg to player 8888 
inquire/ 
2222 2000 4000 0 fold 
3333 1032 6000 0 fold 
4444 20127 8000 606 fold 
7777 2000 2000 0 fold 
1111 644 4020 100 fold 
5555 3547 8000 1112 raise 
6666 2700 2000 606 call 
8888 4898 6000 606 call 
total pot: 3030 
/inquire 
recv from player 8888: check
send inquire msg to player 6666 
inquire/ 
8888 4392 6000 1112 call 
2222 2000 4000 0 fold 
3333 1032 6000 0 fold 
4444 20127 8000 606 fold 
7777 2000 2000 0 fold 
1111 644 4020 100 fold 
5555 3547 8000 1112 raise 
6666 2700 2000 606 call 
total pot: 3536 
/inquire 
recv from player 6666: check
flop/ 
SPADES 10 
SPADES 9 
HEARTS 3 
/flop 

---flop round bet---
valid player: 8, all in player: 0, fold player: 5
send inquire msg to player 5555 
inquire/ 
6666 2194 2000 1112 call 
8888 4392 6000 1112 call 
2222 2000 4000 0 fold 
3333 1032 6000 0 fold 
4444 20127 8000 606 fold 
7777 2000 2000 0 fold 
1111 644 4020 100 fold 
5555 3547 8000 1112 raise 
total pot: 4042 
/inquire 
recv from player 5555: check
send inquire msg to player 8888 
inquire/ 
2222 2000 4000 0 fold 
3333 1032 6000 0 fold 
4444 20127 8000 606 fold 
7777 2000 2000 0 fold 
1111 644 4020 100 fold 
5555 3547 8000 1112 check 
6666 2194 2000 1112 call 
8888 4392 6000 1112 call 
total pot: 4042 
/inquire 
recv from player 8888: check
send inquire msg to player 6666 
inquire/ 
8888 4392 6000 1112 check 
2222 2000 4000 0 fold 
3333 1032 6000 0 fold 
4444 20127 8000 606 fold 
7777 2000 2000 0 fold 
1111 644 4020 100 fold 
5555 3547 8000 1112 check 
6666 2194 2000 1112 call 
total pot: 4042 
/inquire 
recv from player 6666: check
turn/ 
HEARTS 6 
/turn 

---turn round bet---
valid player: 8, all in player: 0, fold player: 5
send inquire msg to player 5555 
inquire/ 
6666 2194 2000 1112 check 
8888 4392 6000 1112 check 
2222 2000 4000 0 fold 
3333 1032 6000 0 fold 
4444 20127 8000 606 fold 
7777 2000 2000 0 fold 
1111 644 4020 100 fold 
5555 3547 8000 1112 check 
total pot: 4042 
/inquire 
recv from player 5555: raise 0
send inquire msg to player 8888 
inquire/ 
2222 2000 4000 0 fold 
3333 1032 6000 0 fold 
4444 20127 8000 606 fold 
7777 2000 2000 0 fold 
1111 644 4020 100 fold 
5555 3447 8000 1212 raise 
6666 2194 2000 1112 check 
8888 4392 6000 1112 check 
total pot: 4142 
/inquire 
recv from player 8888: check
send inquire msg to player 6666 
inquire/ 
8888 4292 6000 1212 call 
2222 2000 4000 0 fold 
3333 1032 6000 0 fold 
4444 20127 8000 606 fold 
7777 2000 2000 0 fold 
1111 644 4020 100 fold 
5555 3447 8000 1212 raise 
6666 2194 2000 1112 check 
total pot: 4242 
/inquire 
recv from player 6666: check
river/ 
SPADES 2 
/river 

---river round bet---
valid player: 8, all in player: 0, fold player: 5
send inquire msg to player 5555 
inquire/ 
6666 2094 2000 1212 call 
8888 4292 6000 1212 call 
2222 2000 4000 0 fold 
3333 1032 6000 0 fold 
4444 20127 8000 606 fold 
7777 2000 2000 0 fold 
1111 644 4020 100 fold 
5555 3447 8000 1212 raise 
total pot: 4342 
/inquire 
recv from player 5555: raise 0
send inquire msg to player 8888 
inquire/ 
2222 2000 4000 0 fold 
3333 1032 6000 0 fold 
4444 20127 8000 606 fold 
7777 2000 2000 0 fold 
1111 644 4020 100 fold 
5555 3347 8000 1312 raise 
6666 2094 2000 1212 call 
8888 4292 6000 1212 call 
total pot: 4442 
/inquire 
recv from player 8888: check
send inquire msg to player 6666 
inquire/ 
8888 4192 6000 1312 call 
2222 2000 4000 0 fold 
3333 1032 6000 0 fold 
4444 20127 8000 606 fold 
7777 2000 2000 0 fold 
1111 644 4020 100 fold 
5555 3347 8000 1312 raise 
6666 2094 2000 1212 call 
total pot: 4542 
/inquire 
recv from player 6666: check

---show down---
showdown/ 
common/ 
SPADES 10 
SPADES 9 
HEARTS 3 
HEARTS 6 
SPADES 2 
/common 
2: 5555 DIAMONDS 3 CLUBS 7 ONE_PAIR 
3: 8888 HEARTS A SPADES 8 HIGH_CARD 
1: 6666 HEARTS 9 CLUBS 9 THREE_OF_A_KIND 
/showdown 

---Allocate pot---
pot-win/ 
6666: 4642 
/pot-win 
it is player 5555's turn to be button

-----30 Hand-----
seat/ 
button: 5555 3347 8000 
small blind: 1111 644 4020 
big blind: 7777 2000 2000 
4444 20127 8000 
3333 1032 6000 
2222 2000 4000 
8888 4192 6000 
6666 6636 2000 
/seat 
blind/ 
1111: 50 
7777: 100 
/blind 
player 1111:hold/ 
DIAMONDS 6 
DIAMONDS Q 
/hold 
player 7777:hold/ 
SPADES 4 
CLUBS 2 
/hold 
player 4444:hold/ 
CLUBS 4 
HEARTS 4 
/hold 
player 3333:hold/ 
HEARTS J 
CLUBS 5 
/hold 
player 2222:hold/ 
CLUBS 10 
CLUBS K 
/hold 
player 8888:hold/ 
HEARTS 10 
SPADES 9 
/hold 
player 6666:hold/ 
HEARTS 5 
CLUBS Q 
/hold 
player 5555:hold/ 
SPADES 7 
SPADES K 
/hold 

---pre flop round bet---
valid player: 8, all in player: 0, fold player: 0
send inquire msg to player 4444 
inquire/ 
7777 1900 2000 100 blind 
1111 594 4020 50 blind 
total pot: 150 
/inquire 
recv from player 4444: check
send inquire msg to player 3333 
inquire/ 
4444 20027 8000 100 call 
7777 1900 2000 100 blind 
1111 594 4020 50 blind 
total pot: 250 
/inquire 
recv from player 3333: check
send inquire msg to player 2222 
inquire/ 
3333 932 6000 100 call 
4444 20027 8000 100 call 
7777 1900 2000 100 blind 
1111 594 4020 50 blind 
total pot: 350 
/inquire 
recv from player 2222: check
send inquire msg to player 8888 
inquire/ 
2222 1900 4000 100 call 
3333 932 6000 100 call 
4444 20027 8000 100 call 
7777 1900 2000 100 blind 
1111 594 4020 50 blind 
total pot: 450 
/inquire 
recv from player 8888: check
send inquire msg to player 6666 
inquire/ 
8888 4092 6000 100 call 
2222 1900 4000 100 call 
3333 932 6000 100 call 
4444 20027 8000 100 call 
7777 1900 2000 100 blind 
1111 594 4020 50 blind 
total pot: 550 
/inquire 
recv from player 6666: check
send inquire msg to player 5555 
inquire/ 
6666 6536 2000 100 call 
8888 4092 6000 100 call 
2222 1900 4000 100 call 
3333 932 6000 100 call 
4444 20027 8000 100 call 
7777 1900 2000 100 blind 
1111 594 4020 50 blind 
total pot: 650 
/inquire 
recv from player 5555: raise 0
send inquire msg to player 1111 
inquire/ 
5555 3147 8000 200 raise 
6666 6536 2000 100 call 
8888 4092 6000 100 call 
2222 1900 4000 100 call 
3333 932 6000 100 call 
4444 20027 8000 100 call 
7777 1900 2000 100 blind 
1111 594 4020 50 blind 
total pot: 850 
/inquire 
recv from player 1111: fold
send inquire msg to player 7777 
inquire/ 
1111 594 4020 50 fold 
5555 3147 8000 200 raise 
6666 6536 2000 100 call 
8888 4092 6000 100 call 
2222 1900 4000 100 call 
3333 932 6000 100 call 
4444 20027 8000 100 call 
7777 1900 2000 100 blind 
total pot: 850 
/inquire 
recv from player 7777: check
send inquire msg to player 4444 
inquire/ 
7777 1800 2000 200 call 
1111 594 4020 50 fold 
5555 3147 8000 200 raise 
6666 6536 2000 100 call 
8888 4092 6000 100 call 
2222 1900 4000 100 call 
3333 932 6000 100 call 
4444 20027 8000 100 call 
total pot: 950 
/inquire 
recv from player 4444: check
send inquire msg to player 3333 
inquire/ 
4444 19927 8000 200 call 
7777 1800 2000 200 call 
1111 594 4020 50 fold 
5555 3147 8000 200 raise 
6666 6536 2000 100 call 
8888 4092 6000 100 call 
2222 1900 4000 100 call 
3333 932 6000 100 call 
total pot: 1050 
/inquire 
recv from player 3333: check
send inquire msg to player 2222 
inquire/ 
3333 832 6000 200 call 
4444 19927 8000 200 call 
7777 1800 2000 200 call 
1111 594 4020 50 fold 
5555 3147 8000 200 raise 
6666 6536 2000 100 call 
8888 4092 6000 100 call 
2222 1900 4000 100 call 
total pot: 1150 
/inquire 
recv from player 2222: fold
send inquire msg to player 8888 
inquire/ 
2222 1900 4000 100 fold 
3333 832 6000 200 call 
4444 19927 8000 200 call 
7777 1800 2000 200 call 
1111 594 4020 50 fold 
5555 3147 8000 200 raise 
6666 6536 2000 100 call 
8888 4092 6000 100 call 
total pot: 1150 
/inquire 
recv from player 8888: check
send inquire msg to player 6666 
inquire/ 
8888 3992 6000 200 call 
2222 1900 4000 100 fold 
3333 832 6000 200 call 
4444 19927 8000 200 call 
7777 1800 2000 200 call 
1111 594 4020 50 fold 
5555 3147 8000 200 raise 
6666 6536 2000 100 call 
total pot: 1250 
/inquire 
recv from player 6666: check
flop/ 
CLUBS 8 
DIAMONDS 5 
DIAMONDS 4 
/flop 

---flop round bet---
valid player: 8, all in player: 0, fold player: 2
send inquire msg to player 7777 
inquire/ 
1111 594 4020 50 fold 
5555 3147 8000 200 raise 
6666 6436 2000 200 call 
8888 3992 6000 200 call 
2222 1900 4000 100 fold 
3333 832 6000 200 call 
4444 19927 8000 200 call 
7777 1800 2000 200 call 
total pot: 1350 
/inquire 
recv from player 7777: fold
send inquire msg to player 4444 
inquire/ 
7777 1800 2000 200 fold 
1111 594 4020 50 fold 
5555 3147 8000 200 raise 
6666 6436 2000 200 call 
8888 3992 6000 200 call 
2222 1900 4000 100 fold 
3333 832 6000 200 call 
4444 19927 8000 200 call 
total pot: 1350 
/inquire 
recv from player 4444: raise 8438
send inquire msg to player 3333 
inquire/ 
4444 11489 8000 8638 raise 
7777 1800 2000 200 fold 
1111 594 4020 50 fold 
5555 3147 8000 200 raise 
6666 6436 2000 200 call 
8888 3992 6000 200 call 
2222 1900 4000 100 fold 
3333 832 6000 200 call 
total pot: 9788 
/inquire 
recv from player 3333: fold
send inquire msg to player 8888 
inquire/ 
2222 1900 4000 100 fold 
3333 832 6000 200 fold 
4444 11489 8000 8638 raise 
7777 1800 2000 200 fold 
1111 594 4020 50 fold 
5555 3147 8000 200 raise 
6666 6436 2000 200 call 
8888 3992 6000 200 call 
total pot: 9788 
/inquire 
recv from player 8888: check
send inquire msg to player 6666 
inquire/ 
8888 0 6000 4192 all_in 
2222 1900 4000 100 fold 
3333 832 6000 200 fold 
4444 11489 8000 8638 raise 
7777 1800 2000 200 fold 
1111 594 4020 50 fold 
5555 3147 8000 200 raise 
6666 6436 2000 200 call 
total pot: 13780 
/inquire 
recv from player 6666: check
send inquire msg to player 5555 
inquire/ 
6666 0 2000 6636 all_in 
8888 0 6000 4192 all_in 
2222 1900 4000 100 fold 
3333 832 6000 200 fold 
4444 11489 8000 8638 raise 
7777 1800 2000 200 fold 
1111 594 4020 50 fold 
5555 3147 8000 200 raise 
total pot: 20216 
/inquire 
recv from player 5555: raise 0
turn/ 
DIAMONDS J 
/turn 

---turn round bet---
valid player: 8, all in player: 3, fold player: 4
river/ 
DIAMONDS K 
/river 

---river round bet---
valid player: 8, all in player: 3, fold player: 4

---show down---
showdown/ 
common/ 
CLUBS 8 
DIAMONDS 5 
DIAMONDS 4 
DIAMONDS J 
DIAMONDS K 
/common 
1: 4444 CLUBS 4 HEARTS 4 THREE_OF_A_KIND 
4: 8888 HEARTS 10 SPADES 9 HIGH_CARD 
3: 6666 HEARTS 5 CLUBS Q ONE_PAIR 
2: 5555 SPADES 7 SPADES K ONE_PAIR 
/showdown 

---Allocate pot---
pot-win/ 
4444: 23363 
/pot-win 
it is player 1111's turn to be button

-----31 Hand-----
seat/ 
button: 1111 594 4020 
small blind: 7777 1800 2000 
big blind: 4444 34852 8000 
3333 832 6000 
2222 1900 4000 
8888 2000 4000 
6666 2000 0 
5555 2000 6000 
/seat 
blind/ 
7777: 50 
4444: 100 
/blind 
player 7777:hold/ 
SPADES 2 
CLUBS 10 
/hold 
player 4444:hold/ 
DIAMONDS J 
CLUBS 2 
/hold 
player 3333:hold/ 
SPADES 7 
CLUBS K 
/hold 
player 2222:hold/ 
CLUBS Q 
DIAMONDS 5 
/hold 
player 8888:hold/ 
DIAMONDS 3 
SPADES 6 
/hold 
player 6666:hold/ 
DIAMONDS A 
SPADES 9 
/hold 
player 5555:hold/ 
HEARTS 5 
DIAMONDS K 
/hold 
player 1111:hold/ 
HEARTS 9 
CLUBS A 
/hold 

---pre flop round bet---
valid player: 8, all in player: 0, fold player: 0
send inquire msg to player 3333 
inquire/ 
4444 34752 8000 100 blind 
7777 1750 2000 50 blind 
total pot: 150 
/inquire 
recv from player 3333: raise 0
send inquire msg to player 2222 
inquire/ 
3333 632 6000 200 raise 
4444 34752 8000 100 blind 
7777 1750 2000 50 blind 
total pot: 350 
/inquire 
recv from player 2222: fold
send inquire msg to player 8888 
inquire/ 
2222 1900 4000 0 fold 
3333 632 6000 200 raise 
4444 34752 8000 100 blind 
7777 1750 2000 50 blind 
total pot: 350 
/inquire 
recv from player 8888: check
send inquire msg to player 6666 
inquire/ 
8888 1800 4000 200 call 
2222 1900 4000 0 fold 
3333 632 6000 200 raise 
4444 34752 8000 100 blind 
7777 1750 2000 50 blind 
total pot: 550 
/inquire 
recv from player 6666: check
send inquire msg to player 5555 
inquire/ 
6666 1800 0 200 call 
8888 1800 4000 200 call 
2222 1900 4000 0 fold 
3333 632 6000 200 raise 
4444 34752 8000 100 blind 
7777 1750 2000 50 blind 
total pot: 750 
/inquire 
recv from player 5555: raise 0
send inquire msg to player 1111 
inquire/ 
5555 1700 6000 300 raise 
6666 1800 0 200 call 
8888 1800 4000 200 call 
2222 1900 4000 0 fold 
3333 632 6000 200 raise 
4444 34752 8000 100 blind 
7777 1750 2000 50 blind 
total pot: 1050 
/inquire 
recv from player 1111: fold
send inquire msg to player 7777 
inquire/ 
1111 594 4020 0 fold 
5555 1700 6000 300 raise 
6666 1800 0 200 call 
8888 1800 4000 200 call 
2222 1900 4000 0 fold 
3333 632 6000 200 raise 
4444 34752 8000 100 blind 
7777 1750 2000 50 blind 
total pot: 1050 
/inquire 
recv from player 7777: check
send inquire msg to player 4444 
inquire/ 
7777 1500 2000 300 call 
1111 594 4020 0 fold 
5555 1700 6000 300 raise 
6666 1800 0 200 call 
8888 1800 4000 200 call 
2222 1900 4000 0 fold 
3333 632 6000 200 raise 
4444 34752 8000 100 blind 
total pot: 1300 
/inquire 
recv from player 4444: raise 156
send inquire msg to player 3333 
inquire/ 
4444 34396 8000 456 raise 
7777 1500 2000 300 call 
1111 594 4020 0 fold 
5555 1700 6000 300 raise 
6666 1800 0 200 call 
8888 1800 4000 200 call 
2222 1900 4000 0 fold 
3333 632 6000 200 raise 
total pot: 1656 
/inquire 
recv from player 3333: fold
send inquire msg to player 8888 
inquire/ 
2222 1900 4000 0 fold 
3333 632 6000 200 fold 
4444 34396 8000 456 raise 
7777 1500 2000 300 call 
1111 594 4020 0 fold 
5555 1700 6000 300 raise 
6666 1800 0 200 call 
8888 1800 4000 200 call 
total pot: 1656 
/inquire 
recv from player 8888: check
send inquire msg to player 6666 
inquire/ 
8888 1544 4000 456 call 
2222 1900 4000 0 fold 
3333 632 6000 200 fold 
4444 34396 8000 456 raise 
7777 1500 2000 300 call 
1111 594 4020 0 fold 
5555 1700 6000 300 raise 
6666 1800 0 200 call 
total pot: 1912 
/inquire 
recv from player 6666: check
send inquire msg to player 5555 
inquire/ 
6666 1544 0 456 call 
8888 1544 4000 456 call 
2222 1900 4000 0 fold 
3333 632 6000 200 fold 
4444 34396 8000 456 raise 
7777 1500 2000 300 call 
1111 594 4020 0 fold 
5555 1700 6000 300 raise 
total pot: 2168 
/inquire 
recv from player 5555: raise 0
send inquire msg to player 7777 
inquire/ 
1111 594 4020 0 fold 
5555 1388 6000 612 raise 
6666 1544 0 456 call 
8888 1544 4000 456 call 
2222 1900 4000 0 fold 
3333 632 6000 200 fold 
4444 34396 8000 456 raise 
7777 1500 2000 300 call 
total pot: 2480 
/inquire 
recv from player 7777: check
send inquire msg to player 4444 
inquire/ 
7777 1188 2000 612 call 
1111 594 4020 0 fold 
5555 1388 6000 612 raise 
6666 1544 0 456 call 
8888 1544 4000 456 call 
2222 1900 4000 0 fold 
3333 632 6000 200 fold 
4444 34396 8000 456 raise 
total pot: 2792 
/inquire 
recv from player 4444: check
send inquire msg to player 8888 
inquire/ 
2222 1900 4000 0 fold 
3333 632 6000 200 fold 
4444 34240 8000 612 call 
7777 1188 2000 612 call 
1111 594 4020 0 fold 
5555 1388 6000 612 raise 
6666 1544 0 456 call 
8888 1544 4000 456 call 
total pot: 2948 
/inquire 
recv from player 8888: check
send inquire msg to player 6666 
inquire/ 
8888 1388 4000 612 call 
2222 1900 4000 0 fold 
3333 632 6000 200 fold 
4444 34240 8000 612 call 
7777 1188 2000 612 call 
1111 594 4020 0 fold 
5555 1388 6000 612 raise 
6666 1544 0 456 call 
total pot: 3104 
/inquire 
recv from player 6666: check
flop/ 
SPADES 10 
DIAMONDS 6 
SPADES 3 
/flop 

---flop round bet---
valid player: 8, all in player: 0, fold player: 3
send inquire msg to player 7777 
inquire/ 
1111 594 4020 0 fold 
5555 1388 6000 612 raise 
6666 1388 0 612 call 
8888 1388 4000 612 call 
2222 1900 4000 0 fold 
3333 632 6000 200 fold 
4444 34240 8000 612 call 
7777 1188 2000 612 call 
total pot: 3260 
/inquire 
recv from player 7777: fold
send inquire msg to player 4444 
inquire/ 
7777 1188 2000 612 fold 
1111 594 4020 0 fold 
5555 1388 6000 612 raise 
6666 1388 0 612 call 
8888 1388 4000 612 call 
2222 1900 4000 0 fold 
3333 632 6000 200 fold 
4444 34240 8000 612 call 
total pot: 3260 
/inquire 
recv from player 4444: check
send inquire msg to player 8888 
inquire/ 
2222 1900 4000 0 fold 
3333 632 6000 200 fold 
4444 34240 8000 612 check 
7777 1188 2000 612 fold 
1111 594 4020 0 fold 
5555 1388 6000 612 raise 
6666 1388 0 612 call 
8888 1388 4000 612 call 
total pot: 3260 
/inquire 
recv from player 8888: check
send inquire msg to player 6666 
inquire/ 
8888 1388 4000 612 check 
2222 1900 4000 0 fold 
3333 632 6000 200 fold 
4444 34240 8000 612 check 
7777 1188 2000 612 fold 
1111 594 4020 0 fold 
5555 1388 6000 612 raise 
6666 1388 0 612 call 
total pot: 3260 
/inquire 
recv from player 6666: check
send inquire msg to player 5555 
inquire/ 
6666 1388 0 612 check 
8888 1388 4000 612 check 
2222 1900 4000 0 fold 
3333 632 6000 200 fold 
4444 34240 8000 612 check 
7777 1188 2000 612 fold 
1111 594 4020 0 fold 
5555 1388 6000 612 raise 
total pot: 3260 
/inquire 
recv from player 5555: raise 0
send inquire msg to player 4444 
inquire/ 
7777 1188 2000 612 fold 
1111 594 4020 0 fold 
5555 1288 6000 712 raise 
6666 1388 0 612 check 
8888 1388 4000 612 check 
2222 1900 4000 0 fold 
3333 632 6000 200 fold 
4444 34240 8000 612 check 
total pot: 3360 
/inquire 
recv from player 4444: check
send inquire msg to player 8888 
inquire/ 
2222 1900 4000 0 fold 
3333 632 6000 200 fold 
4444 34140 8000 712 call 
7777 1188 2000 612 fold 
1111 594 4020 0 fold 
5555 1288 6000 712 raise 
6666 1388 0 612 check 
8888 1388 4000 612 check 
total pot: 3460 
/inquire 
recv from player 8888: check
send inquire msg to player 6666 
inquire/ 
8888 1288 4000 712 call 
2222 1900 4000 0 fold 
3333 632 6000 200 fold 
4444 34140 8000 712 call 
7777 1188 2000 612 fold 
1111 594 4020 0 fold 
5555 1288 6000 712 raise 
6666 1388 0 612 check 
total pot: 3560 
/inquire 
recv from player 6666: check
turn/ 
HEARTS K 
/turn 

---turn round bet---
valid player: 8, all in player: 0, fold player: 4
send inquire msg to player 4444 
inquire/ 
7777 1188 2000 612 fold 
1111 594 4020 0 fold 
5555 1288 6000 712 raise 
6666 1288 0 712 call 
8888 1288 4000 712 call 
2222 1900 4000 0 fold 
3333 632 6000 200 fold 
4444 34140 8000 712 call 
total pot: 3660 
/inquire 
recv from player 4444: check
send inquire msg to player 8888 
inquire/ 
2222 1900 4000 0 fold 
3333 632 6000 200 fold 
4444 34140 8000 712 check 
7777 1188 2000 612 fold 
1111 594 4020 0 fold 
5555 1288 6000 712 raise 
6666 1288 0 712 call 
8888 1288 4000 712 call 
total pot: 3660 
/inquire 
recv from player 8888: check
send inquire msg to player 6666 
inquire/ 
8888 1288 4000 712 check 
2222 1900 4000 0 fold 
3333 632 6000 200 fold 
4444 34140 8000 712 check 
7777 1188 2000 612 fold 
1111 594 4020 0 fold 
5555 1288 6000 712 raise 
6666 1288 0 712 call 
total pot: 3660 
/inquire 
recv from player 6666: check
send inquire msg to player 5555 
inquire/ 
6666 1288 0 712 check 
8888 1288 4000 712 check 
2222 1900 4000 0 fold 
3333 632 6000 200 fold 
4444 34140 8000 712 check 
7777 1188 2000 612 fold 
1111 594 4020 0 fold 
5555 1288 6000 712 raise 
total pot: 3660 
/inquire 
recv from player 5555: check
river/ 
DIAMONDS 7 
/river 

---river round bet---
valid player: 8, all in player: 0, fold player: 4
send inquire msg to player 4444 
inquire/ 
7777 1188 2000 612 fold 
1111 594 4020 0 fold 
5555 1288 6000 712 check 
6666 1288 0 712 check 
8888 1288 4000 712 check 
2222 1900 4000 0 fold 
3333 632 6000 200 fold 
4444 34140 8000 712 check 
total pot: 3660 
/inquire 
recv from player 4444: check
send inquire msg to player 8888 
inquire/ 
2222 1900 4000 0 fold 
3333 632 6000 200 fold 
4444 34140 8000 712 check 
7777 1188 2000 612 fold 
1111 594 4020 0 fold 
5555 1288 6000 712 check 
6666 1288 0 712 check 
8888 1288 4000 712 check 
total pot: 3660 
/inquire 
recv from player 8888: check
send inquire msg to player 6666 
inquire/ 
8888 1288 4000 712 check 
2222 1900 4000 0 fold 
3333 632 6000 200 fold 
4444 34140 8000 712 check 
7777 1188 2000 612 fold 
1111 594 4020 0 fold 
5555 1288 6000 712 check 
6666 1288 0 712 check 
total pot: 3660 
/inquire 
recv from player 6666: check
send inquire msg to player 5555 
inquire/ 
6666 1288 0 712 check 
8888 1288 4000 712 check 
2222 1900 4000 0 fold 
3333 632 6000 200 fold 
4444 34140 8000 712 check 
7777 1188 2000 612 fold 
1111 594 4020 0 fold 
5555 1288 6000 712 check 
total pot: 3660 
/inquire 
recv from player 5555: raise 0
send inquire msg to player 4444 
inquire/ 
7777 1188 2000 612 fold 
1111 594 4020 0 fold 
5555 1188 6000 812 raise 
6666 1288 0 712 check 
8888 1288 4000 712 check 
2222 1900 4000 0 fold 
3333 632 6000 200 fold 
4444 34140 8000 712 check 
total pot: 3760 
/inquire 
recv from player 4444: fold
send inquire msg to player 8888 
inquire/ 
2222 1900 4000 0 fold 
3333 632 6000 200 fold 
4444 34140 8000 712 fold 
7777 1188 2000 612 fold 
1111 594 4020 0 fold 
5555 1188 6000 812 raise 
6666 1288 0 712 check 
8888 1288 4000 712 check 
total pot: 3760 
/inquire 
recv from player 8888: check
send inquire msg to player 6666 
inquire/ 
8888 1188 4000 812 call 
2222 1900 4000 0 fold 
3333 632 6000 200 fold 
4444 34140 8000 712 fold 
7777 1188 2000 612 fold 
1111 594 4020 0 fold 
5555 1188 6000 812 raise 
6666 1288 0 712 check 
total pot: 3860 
/inquire 
recv from player 6666: check

---show down---
showdown/ 
common/ 
SPADES 10 
DIAMONDS 6 
SPADES 3 
HEARTS K 
DIAMONDS 7 
/common 
1: 8888 DIAMONDS 3 SPADES 6 TWO_PAIR 
3: 6666 DIAMONDS A SPADES 9 HIGH_CARD 
2: 5555 HEARTS 5 DIAMONDS K ONE_PAIR 
/showdown 

---Allocate pot---
pot-win/ 
8888: 3960 
/pot-win 
it is player 7777's turn to be button

-----32 Hand-----
seat/ 
button: 7777 1188 2000 
small blind: 4444 34140 8000 
big blind: 3333 632 6000 
2222 1900 4000 
8888 5148 4000 
6666 1188 0 
5555 1188 6000 
1111 594 4020 
/seat 
blind/ 
4444: 50 
3333: 100 
/blind 
player 4444:hold/ 
SPADES 6 
HEARTS 3 
/hold 
player 3333:hold/ 
SPADES 5 
CLUBS 8 
/hold 
player 2222:hold/ 
HEARTS 6 
SPADES 7 
/hold 
player 8888:hold/ 
HEARTS J 
SPADES 8 
/hold 
player 6666:hold/ 
HEARTS 10 
SPADES Q 
/hold 
player 5555:hold/ 
HEARTS 9 
HEARTS 4 
/hold 
player 1111:hold/ 
CLUBS K 
DIAMONDS 6 
/hold 
player 7777:hold/ 
HEARTS K 
SPADES 4 
/hold 

---pre flop round bet---
valid player: 8, all in player: 0, fold player: 0
send inquire msg to player 2222 
inquire/ 
3333 532 6000 100 blind 
4444 34090 8000 50 blind 
total pot: 150 
/inquire 
recv from player 2222: fold
send inquire msg to player 8888 
inquire/ 
2222 1900 4000 0 fold 
3333 532 6000 100 blind 
4444 34090 8000 50 blind 
total pot: 150 
/inquire 
recv from player 8888: check
send inquire msg to player 6666 
inquire/ 
8888 5048 4000 100 call 
2222 1900 4000 0 fold 
3333 532 6000 100 blind 
4444 34090 8000 50 blind 
total pot: 250 
/inquire 
recv from player 6666: check
send inquire msg to player 5555 
inquire/ 
6666 1088 0 100 call 
8888 5048 4000 100 call 
2222 1900 4000 0 fold 
3333 532 6000 100 blind 
4444 34090 8000 50 blind 
total pot: 350 
/inquire 
recv from player 5555: raise 0
send inquire msg to player 1111 
inquire/ 
5555 988 6000 200 raise 
6666 1088 0 100 call 
8888 5048 4000 100 call 
2222 1900 4000 0 fold 
3333 532 6000 100 blind 
4444 34090 8000 50 blind 
total pot: 550 
/inquire 
recv from player 1111: fold
send inquire msg to player 7777 
inquire/ 
1111 594 4020 0 fold 
5555 988 6000 200 raise 
6666 1088 0 100 call 
8888 5048 4000 100 call 
2222 1900 4000 0 fold 
3333 532 6000 100 blind 
4444 34090 8000 50 blind 
total pot: 550 
/inquire 
recv from player 7777: check
send inquire msg to player 4444 
inquire/ 
7777 988 2000 200 call 
1111 594 4020 0 fold 
5555 988 6000 200 raise 
6666 1088 0 100 call 
8888 5048 4000 100 call 
2222 1900 4000 0 fold 
3333 532 6000 100 blind 
4444 34090 8000 50 blind 
total pot: 750 
/inquire 
recv from player 4444: raise 174
send inquire msg to player 3333 
inquire/ 
4444 33766 8000 374 raise 
7777 988 2000 200 call 
1111 594 4020 0 fold 
5555 988 6000 200 raise 
6666 1088 0 100 call 
8888 5048 4000 100 call 
2222 1900 4000 0 fold 
3333 532 6000 100 blind 
total pot: 1074 
/inquire 
recv from player 3333: fold
send inquire msg to player 8888 
inquire/ 
2222 1900 4000 0 fold 
3333 532 6000 100 fold 
4444 33766 8000 374 raise 
7777 988 2000 200 call 
1111 594 4020 0 fold 
5555 988 6000 200 raise 
6666 1088 0 100 call 
8888 5048 4000 100 call 
total pot: 1074 
/inquire 
recv from player 8888: check
send inquire msg to player 6666 
inquire/ 
8888 4774 4000 374 call 
2222 1900 4000 0 fold 
3333 532 6000 100 fold 
4444 33766 8000 374 raise 
7777 988 2000 200 call 
1111 594 4020 0 fold 
5555 988 6000 200 raise 
6666 1088 0 100 call 
total pot: 1348 
/inquire 
recv from player 6666: check
send inquire msg to player 5555 
inquire/ 
6666 814 0 374 call 
8888 4774 4000 374 call 
2222 1900 4000 0 fold 
3333 532 6000 100 fold 
4444 33766 8000 374 raise 
7777 988 2000 200 call 
1111 594 4020 0 fold 
5555 988 6000 200 raise 
total pot: 1622 
/inquire 
recv from player 5555: raise 0
send inquire msg to player 7777 
inquire/ 
1111 594 4020 0 fold 
5555 640 6000 548 raise 
6666 814 0 374 call 
8888 4774 4000 374 call 
2222 1900 4000 0 fold 
3333 532 6000 100 fold 
4444 33766 8000 374 raise 
7777 988 2000 200 call 
total pot: 1970 
/inquire 
recv from player 7777: check
send inquire msg to player 4444 
inquire/ 
7777 640 2000 548 call 
1111 594 4020 0 fold 
5555 640 6000 548 raise 
6666 814 0 374 call 
8888 4774 4000 374 call 
2222 1900 4000 0 fold 
3333 532 6000 100 fold 
4444 33766 8000 374 raise 
total pot: 2318 
/inquire 
recv from player 4444: check
send inquire msg to player 8888 
inquire/ 
2222 1900 4000 0 fold 
3333 532 6000 100 fold 
4444 33592 8000 548 call 
7777 640 2000 548 call 
1111 594 4020 0 fold 
5555 640 6000 548 raise 
6666 814 0 374 call 
8888 4774 4000 374 call 
total pot: 2492 
/inquire 
recv from player 8888: check
send inquire msg to player 6666 
inquire/ 
8888 4600 4000 548 call 
2222 1900 4000 0 fold 
3333 532 6000 100 fold 
4444 33592 8000 548 call 
7777 640 2000 548 call 
1111 594 4020 0 fold 
5555 640 6000 548 raise 
6666 814 0 374 call 
total pot: 2666 
/inquire 
recv from player 6666: check
flop/ 
SPADES A 
CLUBS 5 
DIAMONDS A 
/flop 

---flop round bet---
valid player: 8, all in player: 0, fold player: 3
send inquire msg to player 4444 
inquire/ 
7777 640 2000 548 call 
1111 594 4020 0 fold 
5555 640 6000 548 raise 
6666 640 0 548 call 
8888 4600 4000 548 call 
2222 1900 4000 0 fold 
3333 532 6000 100 fold 
4444 33592 8000 548 call 
total pot: 2840 
/inquire 
recv from player 4444: check
send inquire msg to player 8888 
inquire/ 
2222 1900 4000 0 fold 
3333 532 6000 100 fold 
4444 33592 8000 548 check 
7777 640 2000 548 call 
1111 594 4020 0 fold 
5555 640 6000 548 raise 
6666 640 0 548 call 
8888 4600 4000 548 call 
total pot: 2840 
/inquire 
recv from player 8888: check
send inquire msg to player 6666 
inquire/ 
8888 4600 4000 548 check 
2222 1900 4000 0 fold 
3333 532 6000 100 fold 
4444 33592 8000 548 check 
7777 640 2000 548 call 
1111 594 4020 0 fold 
5555 640 6000 548 raise 
6666 640 0 548 call 
total pot: 2840 
/inquire 
recv from player 6666: check
send inquire msg to player 5555 
inquire/ 
6666 640 0 548 check 
8888 4600 4000 548 check 
2222 1900 4000 0 fold 
3333 532 6000 100 fold 
4444 33592 8000 548 check 
7777 640 2000 548 call 
1111 594 4020 0 fold 
5555 640 6000 548 raise 
total pot: 2840 
/inquire 
recv from player 5555: raise 0
send inquire msg to player 7777 
inquire/ 
1111 594 4020 0 fold 
5555 540 6000 648 raise 
6666 640 0 548 check 
8888 4600 4000 548 check 
2222 1900 4000 0 fold 
3333 532 6000 100 fold 
4444 33592 8000 548 check 
7777 640 2000 548 call 
total pot: 2940 
/inquire 
recv from player 7777: fold
send inquire msg to player 4444 
inquire/ 
7777 640 2000 548 fold 
1111 594 4020 0 fold 
5555 540 6000 648 raise 
6666 640 0 548 check 
8888 4600 4000 548 check 
2222 1900 4000 0 fold 
3333 532 6000 100 fold 
4444 33592 8000 548 check 
total pot: 2940 
/inquire 
recv from player 4444: check
send inquire msg to player 8888 
inquire/ 
2222 1900 4000 0 fold 
3333 532 6000 100 fold 
4444 33492 8000 648 call 
7777 640 2000 548 fold 
1111 594 4020 0 fold 
5555 540 6000 648 raise 
6666 640 0 548 check 
8888 4600 4000 548 check 
total pot: 3040 
/inquire 
recv from player 8888: check
send inquire msg to player 6666 
inquire/ 
8888 4500 4000 648 call 
2222 1900 4000 0 fold 
3333 532 6000 100 fold 
4444 33492 8000 648 call 
7777 640 2000 548 fold 
1111 594 4020 0 fold 
5555 540 6000 648 raise 
6666 640 0 548 check 
total pot: 3140 
/inquire 
recv from player 6666: check
turn/ 
HEARTS A 
/turn 

---turn round bet---
valid player: 8, all in player: 0, fold player: 4
send inquire msg to player 4444 
inquire/ 
7777 640 2000 548 fold 
1111 594 4020 0 fold 
5555 540 6000 648 raise 
6666 540 0 648 call 
8888 4500 4000 648 call 
2222 1900 4000 0 fold 
3333 532 6000 100 fold 
4444 33492 8000 648 call 
total pot: 3240 
/inquire 
recv from player 4444: check
send inquire msg to player 8888 
inquire/ 
2222 1900 4000 0 fold 
3333 532 6000 100 fold 
4444 33492 8000 648 check 
7777 640 2000 548 fold 
1111 594 4020 0 fold 
5555 540 6000 648 raise 
6666 540 0 648 call 
8888 4500 4000 648 call 
total pot: 3240 
/inquire 
recv from player 8888: check
send inquire msg to player 6666 
inquire/ 
8888 4500 4000 648 check 
2222 1900 4000 0 fold 
3333 532 6000 100 fold 
4444 33492 8000 648 check 
7777 640 2000 548 fold 
1111 594 4020 0 fold 
5555 540 6000 648 raise 
6666 540 0 648 call 
total pot: 3240 
/inquire 
recv from player 6666: check
send inquire msg to player 5555 
inquire/ 
6666 540 0 648 check 
8888 4500 4000 648 check 
2222 1900 4000 0 fold 
3333 532 6000 100 fold 
4444 33492 8000 648 check 
7777 640 2000 548 fold 
1111 594 4020 0 fold 
5555 540 6000 648 raise 
total pot: 3240 
/inquire 
recv from player 5555: check
river/ 
DIAMONDS K 
/river 

---river round bet---
valid player: 8, all in player: 0, fold player: 4
send inquire msg to player 4444 
inquire/ 
7777 640 2000 548 fold 
1111 594 4020 0 fold 
5555 540 6000 648 check 
6666 540 0 648 check 
8888 4500 4000 648 check 
2222 1900 4000 0 fold 
3333 532 6000 100 fold 
4444 33492 8000 648 check 
total pot: 3240 
/inquire 
recv from player 4444: check
send inquire msg to player 8888 
inquire/ 
2222 1900 4000 0 fold 
3333 532 6000 100 fold 
4444 33492 8000 648 check 
7777 640 2000 548 fold 
1111 594 4020 0 fold 
5555 540 6000 648 check 
6666 540 0 648 check 
8888 4500 4000 648 check 
total pot: 3240 
/inquire 
recv from player 8888: check
send inquire msg to player 6666 
inquire/ 
8888 4500 4000 648 check 
2222 1900 4000 0 fold 
3333 532 6000 100 fold 
4444 33492 8000 648 check 
7777 640 2000 548 fold 
1111 594 4020 0 fold 
5555 540 6000 648 check 
6666 540 0 648 check 
total pot: 3240 
/inquire 
recv from player 6666: check
send inquire msg to player 5555 
inquire/ 
6666 540 0 648 check 
8888 4500 4000 648 check 
2222 1900 4000 0 fold 
3333 532 6000 100 fold 
4444 33492 8000 648 check 
7777 640 2000 548 fold 
1111 594 4020 0 fold 
5555 540 6000 648 check 
total pot: 3240 
/inquire 
recv from player 5555: raise 0
send inquire msg to player 4444 
inquire/ 
7777 640 2000 548 fold 
1111 594 4020 0 fold 
5555 440 6000 748 raise 
6666 540 0 648 check 
8888 4500 4000 648 check 
2222 1900 4000 0 fold 
3333 532 6000 100 fold 
4444 33492 8000 648 check 
total pot: 3340 
/inquire 
recv from player 4444: fold
send inquire msg to player 8888 
inquire/ 
2222 1900 4000 0 fold 
3333 532 6000 100 fold 
4444 33492 8000 648 fold 
7777 640 2000 548 fold 
1111 594 4020 0 fold 
5555 440 6000 748 raise 
6666 540 0 648 check 
8888 4500 4000 648 check 
total pot: 3340 
/inquire 
recv from player 8888: check
send inquire msg to player 6666 
inquire/ 
8888 4400 4000 748 call 
2222 1900 4000 0 fold 
3333 532 6000 100 fold 
4444 33492 8000 648 fold 
7777 640 2000 548 fold 
1111 594 4020 0 fold 
5555 440 6000 748 raise 
6666 540 0 648 check 
total pot: 3440 
/inquire 
recv from player 6666: check

---show down---
showdown/ 
common/ 
SPADES A 
CLUBS 5 
DIAMONDS A 
HEARTS A 
DIAMONDS K 
/common 
2: 8888 HEARTS J SPADES 8 THREE_OF_A_KIND 
1: 6666 HEARTS 10 SPADES Q THREE_OF_A_KIND 
3: 5555 HEARTS 9 HEARTS 4 THREE_OF_A_KIND 
/showdown 

---Allocate pot---
pot-win/ 
6666: 3540 
/pot-win 
it is player 4444's turn to be button

-----33 Hand-----
seat/ 
button: 4444 33492 8000 
small blind: 3333 532 6000 
big blind: 2222 1900 4000 
8888 4400 4000 
6666 3980 0 
5555 440 6000 
1111 594 4020 
7777 640 2000 
/seat 
blind/ 
3333: 50 
2222: 100 
/blind 
player 3333:hold/ 
HEARTS 7 
SPADES J 
/hold 
player 2222:hold/ 
SPADES 6 
SPADES Q 
/hold 
player 8888:hold/ 
DIAMONDS 2 
HEARTS 10 
/hold 
player 6666:hold/ 
DIAMONDS 3 
CLUBS A 
/hold 
player 5555:hold/ 
DIAMONDS 4 
CLUBS 7 
/hold 
player 1111:hold/ 
SPADES 5 
SPADES A 
/hold 
player 7777:hold/ 
CLUBS 8 
DIAMONDS K 
/hold 
player 4444:hold/ 
SPADES 7 
HEARTS 5 
/hold 

---pre flop round bet---
valid player: 8, all in player: 0, fold player: 0
send inquire msg to player 8888 
inquire/ 
2222 1800 4000 100 blind 
3333 482 6000 50 blind 
total pot: 150 
/inquire 
recv from player 8888: check
send inquire msg to player 6666 
inquire/ 
8888 4300 4000 100 call 
2222 1800 4000 100 blind 
3333 482 6000 50 blind 
total pot: 250 
/inquire 
recv from player 6666: check
send inquire msg to player 5555 
inquire/ 
6666 3880 0 100 call 
8888 4300 4000 100 call 
2222 1800 4000 100 blind 
3333 482 6000 50 blind 
total pot: 350 
/inquire 
recv from player 5555: check
send inquire msg to player 1111 
inquire/ 
5555 340 6000 100 call 
6666 3880 0 100 call 
8888 4300 4000 100 call 
2222 1800 4000 100 blind 
3333 482 6000 50 blind 
total pot: 450 
/inquire 
recv from player 1111: raise 0
send inquire msg to player 7777 
inquire/ 
1111 394 4020 200 raise 
5555 340 6000 100 call 
6666 3880 0 100 call 
8888 4300 4000 100 call 
2222 1800 4000 100 blind 
3333 482 6000 50 blind 
total pot: 650 
/inquire 
recv from player 7777: check
send inquire msg to player 4444 
inquire/ 
7777 440 2000 200 call 
1111 394 4020 200 raise 
5555 340 6000 100 call 
6666 3880 0 100 call 
8888 4300 4000 100 call 
2222 1800 4000 100 blind 
3333 482 6000 50 blind 
total pot: 850 
/inquire 
recv from player 4444: check
send inquire msg to player 3333 
inquire/ 
4444 33292 8000 200 call 
7777 440 2000 200 call 
1111 394 4020 200 raise 
5555 340 6000 100 call 
6666 3880 0 100 call 
8888 4300 4000 100 call 
2222 1800 4000 100 blind 
3333 482 6000 50 blind 
total pot: 1050 
/inquire 
recv from player 3333: raise 0
send inquire msg to player 2222 
inquire/ 
3333 232 6000 300 raise 
4444 33292 8000 200 call 
7777 440 2000 200 call 
1111 394 4020 200 raise 
5555 340 6000 100 call 
6666 3880 0 100 call 
8888 4300 4000 100 call 
2222 1800 4000 100 blind 
total pot: 1300 
/inquire 
recv from player 2222: fold
send inquire msg to player 8888 
inquire/ 
2222 1800 4000 100 fold 
3333 232 6000 300 raise 
4444 33292 8000 200 call 
7777 440 2000 200 call 
1111 394 4020 200 raise 
5555 340 6000 100 call 
6666 3880 0 100 call 
8888 4300 4000 100 call 
total pot: 1300 
/inquire 
recv from player 8888: check
send inquire msg to player 6666 
inquire/ 
8888 4100 4000 300 call 
2222 1800 4000 100 fold 
3333 232 6000 300 raise 
4444 33292 8000 200 call 
7777 440 2000 200 call 
1111 394 4020 200 raise 
5555 340 6000 100 call 
6666 3880 0 100 call 
total pot: 1500 
/inquire 
recv from player 6666: check
send inquire msg to player 5555 
inquire/ 
6666 3680 0 300 call 
8888 4100 4000 300 call 
2222 1800 4000 100 fold 
3333 232 6000 300 raise 
4444 33292 8000 200 call 
7777 440 2000 200 call 
1111 394 4020 200 raise 
5555 340 6000 100 call 
total pot: 1700 
/inquire 
recv from player 5555: check
send inquire msg to player 1111 
inquire/ 
5555 140 6000 300 call 
6666 3680 0 300 call 
8888 4100 4000 300 call 
2222 1800 4000 100 fold 
3333 232 6000 300 raise 
4444 33292 8000 200 call 
7777 440 2000 200 call 
1111 394 4020 200 raise 
total pot: 1900 
/inquire 
recv from player 1111: check
send inquire msg to player 7777 
inquire/ 
1111 294 4020 300 call 
5555 140 6000 300 call 
6666 3680 0 300 call 
8888 4100 4000 300 call 
2222 1800 4000 100 fold 
3333 232 6000 300 raise 
4444 33292 8000 200 call 
7777 440 2000 200 call 
total pot: 2000 
/inquire 
recv from player 7777: check
send inquire msg to player 4444 
inquire/ 
7777 340 2000 300 call 
1111 294 4020 300 call 
5555 140 6000 300 call 
6666 3680 0 300 call 
8888 4100 4000 300 call 
2222 1800 4000 100 fold 
3333 232 6000 300 raise 
4444 33292 8000 200 call 
total pot: 2100 
/inquire 
recv from player 4444: raise 931
send inquire msg to player 3333 
inquire/ 
4444 32261 8000 1231 raise 
7777 340 2000 300 call 
1111 294 4020 300 call 
5555 140 6000 300 call 
6666 3680 0 300 call 
8888 4100 4000 300 call 
2222 1800 4000 100 fold 
3333 232 6000 300 raise 
total pot: 3131 
/inquire 
recv from player 3333: fold
send inquire msg to player 8888 
inquire/ 
2222 1800 4000 100 fold 
3333 232 6000 300 fold 
4444 32261 8000 1231 raise 
7777 340 2000 300 call 
1111 294 4020 300 call 
5555 140 6000 300 call 
6666 3680 0 300 call 
8888 4100 4000 300 call 
total pot: 3131 
/inquire 
recv from player 8888: check
send inquire msg to player 6666 
inquire/ 
8888 3169 4000 1231 call 
2222 1800 4000 100 fold 
3333 232 6000 300 fold 
4444 32261 8000 1231 raise 
7777 340 2000 300 call 
1111 294 4020 300 call 
5555 140 6000 300 call 
6666 3680 0 300 call 
total pot: 4062 
/inquire 
recv from player 6666: check
send inquire msg to player 5555 
inquire/ 
6666 2749 0 1231 call 
8888 3169 4000 1231 call 
2222 1800 4000 100 fold 
3333 232 6000 300 fold 
4444 32261 8000 1231 raise 
7777 340 2000 300 call 
1111 294 4020 300 call 
5555 140 6000 300 call 
total pot: 4993 
/inquire 
recv from player 5555: check
send inquire msg to player 1111 
inquire/ 
5555 0 6000 440 all_in 
6666 2749 0 1231 call 
8888 3169 4000 1231 call 
2222 1800 4000 100 fold 
3333 232 6000 300 fold 
4444 32261 8000 1231 raise 
7777 340 2000 300 call 
1111 294 4020 300 call 
total pot: 5133 
/inquire 
recv from player 1111: fold
send inquire msg to player 7777 
inquire/ 
1111 294 4020 300 fold 
5555 0 6000 440 all_in 
6666 2749 0 1231 call 
8888 3169 4000 1231 call 
2222 1800 4000 100 fold 
3333 232 6000 300 fold 
4444 32261 8000 1231 raise 
7777 340 2000 300 call 
total pot: 5133 
/inquire 
recv from player 7777: check
flop/ 
DIAMONDS 8 
SPADES 9 
DIAMONDS A 
/flop 

---flop round bet---
valid player: 8, all in player: 2, fold player: 3
send inquire msg to player 8888 
inquire/ 
2222 1800 4000 100 fold 
3333 232 6000 300 fold 
4444 32261 8000 1231 raise 
7777 0 2000 640 all_in 
1111 294 4020 300 fold 
5555 0 6000 440 all_in 
6666 2749 0 1231 call 
8888 3169 4000 1231 call 
total pot: 5473 
/inquire 
recv from player 8888: check
send inquire msg to player 6666 
inquire/ 
8888 3169 4000 1231 check 
2222 1800 4000 100 fold 
3333 232 6000 300 fold 
4444 32261 8000 1231 raise 
7777 0 2000 640 all_in 
1111 294 4020 300 fold 
5555 0 6000 440 all_in 
6666 2749 0 1231 call 
total pot: 5473 
/inquire 
recv from player 6666: check
send inquire msg to player 4444 
inquire/ 
7777 0 2000 640 all_in 
1111 294 4020 300 fold 
5555 0 6000 440 all_in 
6666 2749 0 1231 check 
8888 3169 4000 1231 check 
2222 1800 4000 100 fold 
3333 232 6000 300 fold 
4444 32261 8000 1231 raise 
total pot: 5473 
/inquire 
recv from player 4444: check
turn/ 
CLUBS J 
/turn 

---turn round bet---
valid player: 8, all in player: 2, fold player: 3
send inquire msg to player 8888 
inquire/ 
2222 1800 4000 100 fold 
3333 232 6000 300 fold 
4444 32261 8000 1231 check 
7777 0 2000 640 all_in 
1111 294 4020 300 fold 
5555 0 6000 440 all_in 
6666 2749 0 1231 check 
8888 3169 4000 1231 check 
total pot: 5473 
/inquire 
recv from player 8888: check
send inquire msg to player 6666 
inquire/ 
8888 3169 4000 1231 check 
2222 1800 4000 100 fold 
3333 232 6000 300 fold 
4444 32261 8000 1231 check 
7777 0 2000 640 all_in 
1111 294 4020 300 fold 
5555 0 6000 440 all_in 
6666 2749 0 1231 check 
total pot: 5473 
/inquire 
recv from player 6666: check
send inquire msg to player 4444 
inquire/ 
7777 0 2000 640 all_in 
1111 294 4020 300 fold 
5555 0 6000 440 all_in 
6666 2749 0 1231 check 
8888 3169 4000 1231 check 
2222 1800 4000 100 fold 
3333 232 6000 300 fold 
4444 32261 8000 1231 check 
total pot: 5473 
/inquire 
recv from player 4444: check
river/ 
HEARTS K 
/river 

---river round bet---
valid player: 8, all in player: 2, fold player: 3
send inquire msg to player 8888 
inquire/ 
2222 1800 4000 100 fold 
3333 232 6000 300 fold 
4444 32261 8000 1231 check 
7777 0 2000 640 all_in 
1111 294 4020 300 fold 
5555 0 6000 440 all_in 
6666 2749 0 1231 check 
8888 3169 4000 1231 check 
total pot: 5473 
/inquire 
recv from player 8888: check
send inquire msg to player 6666 
inquire/ 
8888 3169 4000 1231 check 
2222 1800 4000 100 fold 
3333 232 6000 300 fold 
4444 32261 8000 1231 check 
7777 0 2000 640 all_in 
1111 294 4020 300 fold 
5555 0 6000 440 all_in 
6666 2749 0 1231 check 
total pot: 5473 
/inquire 
recv from player 6666: check
send inquire msg to player 4444 
inquire/ 
7777 0 2000 640 all_in 
1111 294 4020 300 fold 
5555 0 6000 440 all_in 
6666 2749 0 1231 check 
8888 3169 4000 1231 check 
2222 1800 4000 100 fold 
3333 232 6000 300 fold 
4444 32261 8000 1231 check 
total pot: 5473 
/inquire 
recv from player 4444: fold

---show down---
showdown/ 
common/ 
DIAMONDS 8 
SPADES 9 
DIAMONDS A 
CLUBS J 
HEARTS K 
/common 
3: 8888 DIAMONDS 2 HEARTS 10 HIGH_CARD 
2: 6666 DIAMONDS 3 CLUBS A ONE_PAIR 
4: 5555 DIAMONDS 4 CLUBS 7 HIGH_CARD 
1: 7777 CLUBS 8 DIAMONDS K TWO_PAIR 
/showdown 

---Allocate pot---
pot-win/ 
7777: 4291 
6666: 1182 
/pot-win 
it is player 3333's turn to be button

-----34 Hand-----
seat/ 
button: 3333 232 6000 
small blind: 2222 1800 4000 
big blind: 8888 3169 4000 
6666 3931 0 
5555 2000 4000 
1111 294 4020 
7777 4291 2000 
4444 32261 8000 
/seat 
blind/ 
2222: 50 
8888: 100 
/blind 
player 2222:hold/ 
HEARTS 4 
DIAMONDS 8 
/hold 
player 8888:hold/ 
SPADES A 
CLUBS 5 
/hold 
player 6666:hold/ 
DIAMONDS Q 
CLUBS 4 
/hold 
player 5555:hold/ 
SPADES Q 
CLUBS Q 
/hold 
player 1111:hold/ 
SPADES 9 
HEARTS 3 
/hold 
player 7777:hold/ 
CLUBS 6 
CLUBS 7 
/hold 
player 4444:hold/ 
DIAMONDS 5 
SPADES 3 
/hold 
player 3333:hold/ 
SPADES 4 
DIAMONDS 4 
/hold 

---pre flop round bet---
valid player: 8, all in player: 0, fold player: 0
send inquire msg to player 6666 
inquire/ 
8888 3069 4000 100 blind 
2222 1750 4000 50 blind 
total pot: 150 
/inquire 
recv from player 6666: check
send inquire msg to player 5555 
inquire/ 
6666 3831 0 100 call 
8888 3069 4000 100 blind 
2222 1750 4000 50 blind 
total pot: 250 
/inquire 
recv from player 5555: check
send inquire msg to player 1111 
inquire/ 
5555 1900 4000 100 call 
6666 3831 0 100 call 
8888 3069 4000 100 blind 
2222 1750 4000 50 blind 
total pot: 350 
/inquire 
recv from player 1111: check
send inquire msg to player 7777 
inquire/ 
1111 194 4020 100 call 
5555 1900 4000 100 call 
6666 3831 0 100 call 
8888 3069 4000 100 blind 
2222 1750 4000 50 blind 
total pot: 450 
/inquire 
recv from player 7777: check
send inquire msg to player 4444 
inquire/ 
7777 4191 2000 100 call 
1111 194 4020 100 call 
5555 1900 4000 100 call 
6666 3831 0 100 call 
8888 3069 4000 100 blind 
2222 1750 4000 50 blind 
total pot: 550 
/inquire 
recv from player 4444: raise 1144
send inquire msg to player 3333 
inquire/ 
4444 31017 8000 1244 raise 
7777 4191 2000 100 call 
1111 194 4020 100 call 
5555 1900 4000 100 call 
6666 3831 0 100 call 
8888 3069 4000 100 blind 
2222 1750 4000 50 blind 
total pot: 1794 
/inquire 
recv from player 3333: fold
send inquire msg to player 2222 
inquire/ 
3333 232 6000 0 fold 
4444 31017 8000 1244 raise 
7777 4191 2000 100 call 
1111 194 4020 100 call 
5555 1900 4000 100 call 
6666 3831 0 100 call 
8888 3069 4000 100 blind 
2222 1750 4000 50 blind 
total pot: 1794 
/inquire 
recv from player 2222: fold
send inquire msg to player 8888 
inquire/ 
2222 1750 4000 50 fold 
3333 232 6000 0 fold 
4444 31017 8000 1244 raise 
7777 4191 2000 100 call 
1111 194 4020 100 call 
5555 1900 4000 100 call 
6666 3831 0 100 call 
8888 3069 4000 100 blind 
total pot: 1794 
/inquire 
recv from player 8888: check
send inquire msg to player 6666 
inquire/ 
8888 1925 4000 1244 call 
2222 1750 4000 50 fold 
3333 232 6000 0 fold 
4444 31017 8000 1244 raise 
7777 4191 2000 100 call 
1111 194 4020 100 call 
5555 1900 4000 100 call 
6666 3831 0 100 call 
total pot: 2938 
/inquire 
recv from player 6666: check
send inquire msg to player 5555 
inquire/ 
6666 2687 0 1244 call 
8888 1925 4000 1244 call 
2222 1750 4000 50 fold 
3333 232 6000 0 fold 
4444 31017 8000 1244 raise 
7777 4191 2000 100 call 
1111 194 4020 100 call 
5555 1900 4000 100 call 
total pot: 4082 
/inquire 
recv from player 5555: check
send inquire msg to player 1111 
inquire/ 
5555 756 4000 1244 call 
6666 2687 0 1244 call 
8888 1925 4000 1244 call 
2222 1750 4000 50 fold 
3333 232 6000 0 fold 
4444 31017 8000 1244 raise 
7777 4191 2000 100 call 
1111 194 4020 100 call 
total pot: 5226 
/inquire 
recv from player 1111: fold
send inquire msg to player 7777 
inquire/ 
1111 194 4020 100 fold 
5555 756 4000 1244 call 
6666 2687 0 1244 call 
8888 1925 4000 1244 call 
2222 1750 4000 50 fold 
3333 232 6000 0 fold 
4444 31017 8000 1244 raise 
7777 4191 2000 100 call 
total pot: 5226 
/inquire 
recv from player 7777: check
flop/ 
SPADES J 
HEARTS Q 
SPADES 5 
/flop 

---flop round bet---
valid player: 8, all in player: 0, fold player: 3
send inquire msg to player 8888 
inquire/ 
2222 1750 4000 50 fold 
3333 232 6000 0 fold 
4444 31017 8000 1244 raise 
7777 3047 2000 1244 call 
1111 194 4020 100 fold 
5555 756 4000 1244 call 
6666 2687 0 1244 call 
8888 1925 4000 1244 call 
total pot: 6370 
/inquire 
recv from player 8888: check
send inquire msg to player 6666 
inquire/ 
8888 1925 4000 1244 check 
2222 1750 4000 50 fold 
3333 232 6000 0 fold 
4444 31017 8000 1244 raise 
7777 3047 2000 1244 call 
1111 194 4020 100 fold 
5555 756 4000 1244 call 
6666 2687 0 1244 call 
total pot: 6370 
/inquire 
recv from player 6666: check
send inquire msg to player 5555 
inquire/ 
6666 2687 0 1244 check 
8888 1925 4000 1244 check 
2222 1750 4000 50 fold 
3333 232 6000 0 fold 
4444 31017 8000 1244 raise 
7777 3047 2000 1244 call 
1111 194 4020 100 fold 
5555 756 4000 1244 call 
total pot: 6370 
/inquire 
recv from player 5555: check
send inquire msg to player 7777 
inquire/ 
1111 194 4020 100 fold 
5555 756 4000 1244 check 
6666 2687 0 1244 check 
8888 1925 4000 1244 check 
2222 1750 4000 50 fold 
3333 232 6000 0 fold 
4444 31017 8000 1244 raise 
7777 3047 2000 1244 call 
total pot: 6370 
/inquire 
recv from player 7777: fold
send inquire msg to player 4444 
inquire/ 
7777 3047 2000 1244 fold 
1111 194 4020 100 fold 
5555 756 4000 1244 check 
6666 2687 0 1244 check 
8888 1925 4000 1244 check 
2222 1750 4000 50 fold 
3333 232 6000 0 fold 
4444 31017 8000 1244 raise 
total pot: 6370 
/inquire 
recv from player 4444: check
turn/ 
DIAMONDS 10 
/turn 

---turn round bet---
valid player: 8, all in player: 0, fold player: 4
send inquire msg to player 8888 
inquire/ 
2222 1750 4000 50 fold 
3333 232 6000 0 fold 
4444 31017 8000 1244 check 
7777 3047 2000 1244 fold 
1111 194 4020 100 fold 
5555 756 4000 1244 check 
6666 2687 0 1244 check 
8888 1925 4000 1244 check 
total pot: 6370 
/inquire 
recv from player 8888: check
send inquire msg to player 6666 
inquire/ 
8888 1925 4000 1244 check 
2222 1750 4000 50 fold 
3333 232 6000 0 fold 
4444 31017 8000 1244 check 
7777 3047 2000 1244 fold 
1111 194 4020 100 fold 
5555 756 4000 1244 check 
6666 2687 0 1244 check 
total pot: 6370 
/inquire 
recv from player 6666: check
send inquire msg to player 5555 
inquire/ 
6666 2687 0 1244 check 
8888 1925 4000 1244 check 
2222 1750 4000 50 fold 
3333 232 6000 0 fold 
4444 31017 8000 1244 check 
7777 3047 2000 1244 fold 
1111 194 4020 100 fold 
5555 756 4000 1244 check 
total pot: 6370 
/inquire 
recv from player 5555: check
send inquire msg to player 4444 
inquire/ 
7777 3047 2000 1244 fold 
1111 194 4020 100 fold 
5555 756 4000 1244 check 
6666 2687 0 1244 check 
8888 1925 4000 1244 check 
2222 1750 4000 50 fold 
3333 232 6000 0 fold 
4444 31017 8000 1244 check 
total pot: 6370 
/inquire 
recv from player 4444: check
river/ 
SPADES 7 
/river 

---river round bet---
valid player: 8, all in player: 0, fold player: 4
send inquire msg to player 8888 
inquire/ 
2222 1750 4000 50 fold 
3333 232 6000 0 fold 
4444 31017 8000 1244 check 
7777 3047 2000 1244 fold 
1111 194 4020 100 fold 
5555 756 4000 1244 check 
6666 2687 0 1244 check 
8888 1925 4000 1244 check 
total pot: 6370 
/inquire 
recv from player 8888: check
send inquire msg to player 6666 
inquire/ 
8888 1925 4000 1244 check 
2222 1750 4000 50 fold 
3333 232 6000 0 fold 
4444 31017 8000 1244 check 
7777 3047 2000 1244 fold 
1111 194 4020 100 fold 
5555 756 4000 1244 check 
6666 2687 0 1244 check 
total pot: 6370 
/inquire 
recv from player 6666: check
send inquire msg to player 5555 
inquire/ 
6666 2687 0 1244 check 
8888 1925 4000 1244 check 
2222 1750 4000 50 fold 
3333 232 6000 0 fold 
4444 31017 8000 1244 check 
7777 3047 2000 1244 fold 
1111 194 4020 100 fold 
5555 756 4000 1244 check 
total pot: 6370 
/inquire 
recv from player 5555: raise 0
send inquire msg to player 4444 
inquire/ 
7777 3047 2000 1244 fold 
1111 194 4020 100 fold 
5555 656 4000 1344 raise 
6666 2687 0 1244 check 
8888 1925 4000 1244 check 
2222 1750 4000 50 fold 
3333 232 6000 0 fold 
4444 31017 8000 1244 check 
total pot: 6470 
/inquire 
recv from player 4444: check
send inquire msg to player 8888 
inquire/ 
2222 1750 4000 50 fold 
3333 232 6000 0 fold 
4444 30917 8000 1344 call 
7777 3047 2000 1244 fold 
1111 194 4020 100 fold 
5555 656 4000 1344 raise 
6666 2687 0 1244 check 
8888 1925 4000 1244 check 
total pot: 6570 
/inquire 
recv from player 8888: check
send inquire msg to player 6666 
inquire/ 
8888 1825 4000 1344 call 
2222 1750 4000 50 fold 
3333 232 6000 0 fold 
4444 30917 8000 1344 call 
7777 3047 2000 1244 fold 
1111 194 4020 100 fold 
5555 656 4000 1344 raise 
6666 2687 0 1244 check 
total pot: 6670 
/inquire 
recv from player 6666: check

---show down---
showdown/ 
common/ 
SPADES J 
HEARTS Q 
SPADES 5 
DIAMONDS 10 
SPADES 7 
/common 
3: 8888 SPADES A CLUBS 5 ONE_PAIR 
2: 6666 DIAMONDS Q CLUBS 4 ONE_PAIR 
1: 5555 SPADES Q CLUBS Q THREE_OF_A_KIND 
4: 4444 DIAMONDS 5 SPADES 3 ONE_PAIR 
/showdown 

---Allocate pot---
pot-win/ 
5555: 6770 
/pot-win 
it is player 2222's turn to be button

-----35 Hand-----
seat/ 
button: 2222 1750 4000 
small blind: 8888 1825 4000 
big blind: 6666 2587 0 
5555 7426 4000 
1111 194 4020 
7777 3047 2000 
4444 30917 8000 
3333 232 6000 
/seat 
blind/ 
8888: 50 
6666: 100 
/blind 
player 8888:hold/ 
DIAMONDS 7 
HEARTS A 
/hold 
player 6666:hold/ 
SPADES 2 
HEARTS 7 
/hold 
player 5555:hold/ 
SPADES 3 
DIAMONDS 9 
/hold 
player 1111:hold/ 
CLUBS K 
CLUBS 2 
/hold 
player 7777:hold/ 
SPADES Q 
SPADES 8 
/hold 
player 4444:hold/ 
SPADES A 
CLUBS 5 
/hold 
player 3333:hold/ 
CLUBS Q 
DIAMONDS 3 
/hold 
player 2222:hold/ 
DIAMONDS 2 
DIAMONDS A 
/hold 

---pre flop round bet---
valid player: 8, all in player: 0, fold player: 0
send inquire msg to player 5555 
inquire/ 
6666 2487 0 100 blind 
8888 1775 4000 50 blind 
total pot: 150 
/inquire 
recv from player 5555: check
send inquire msg to player 1111 
inquire/ 
5555 7326 4000 100 call 
6666 2487 0 100 blind 
8888 1775 4000 50 blind 
total pot: 250 
/inquire 
recv from player 1111: fold
send inquire msg to player 7777 
inquire/ 
1111 194 4020 0 fold 
5555 7326 4000 100 call 
6666 2487 0 100 blind 
8888 1775 4000 50 blind 
total pot: 250 
/inquire 
recv from player 7777: check
send inquire msg to player 4444 
inquire/ 
7777 2947 2000 100 call 
1111 194 4020 0 fold 
5555 7326 4000 100 call 
6666 2487 0 100 blind 
8888 1775 4000 50 blind 
total pot: 350 
/inquire 
recv from player 4444: raise 1841
send inquire msg to player 3333 
inquire/ 
4444 28976 8000 1941 raise 
7777 2947 2000 100 call 
1111 194 4020 0 fold 
5555 7326 4000 100 call 
6666 2487 0 100 blind 
8888 1775 4000 50 blind 
total pot: 2291 
/inquire 
recv from player 3333: fold
send inquire msg to player 2222 
inquire/ 
3333 232 6000 0 fold 
4444 28976 8000 1941 raise 
7777 2947 2000 100 call 
1111 194 4020 0 fold 
5555 7326 4000 100 call 
6666 2487 0 100 blind 
8888 1775 4000 50 blind 
total pot: 2291 
/inquire 
recv from player 2222: fold
send inquire msg to player 8888 
inquire/ 
2222 1750 4000 0 fold 
3333 232 6000 0 fold 
4444 28976 8000 1941 raise 
7777 2947 2000 100 call 
1111 194 4020 0 fold 
5555 7326 4000 100 call 
6666 2487 0 100 blind 
8888 1775 4000 50 blind 
total pot: 2291 
/inquire 
recv from player 8888: check
send inquire msg to player 6666 
inquire/ 
8888 0 4000 1825 all_in 
2222 1750 4000 0 fold 
3333 232 6000 0 fold 
4444 28976 8000 1941 raise 
7777 2947 2000 100 call 
1111 194 4020 0 fold 
5555 7326 4000 100 call 
6666 2487 0 100 blind 
total pot: 4066 
/inquire 
recv from player 6666: check
send inquire msg to player 5555 
inquire/ 
6666 646 0 1941 call 
8888 0 4000 1825 all_in 
2222 1750 4000 0 fold 
3333 232 6000 0 fold 
4444 28976 8000 1941 raise 
7777 2947 2000 100 call 
1111 194 4020 0 fold 
5555 7326 4000 100 call 
total pot: 5907 
/inquire 
recv from player 5555: raise 0
send inquire msg to player 7777 
inquire/ 
1111 194 4020 0 fold 
5555 3644 4000 3782 raise 
6666 646 0 1941 call 
8888 0 4000 1825 all_in 
2222 1750 4000 0 fold 
3333 232 6000 0 fold 
4444 28976 8000 1941 raise 
7777 2947 2000 100 call 
total pot: 9589 
/inquire 
recv from player 7777: check
send inquire msg to player 4444 
inquire/ 
7777 0 2000 3047 all_in 
1111 194 4020 0 fold 
5555 3644 4000 3782 raise 
6666 646 0 1941 call 
8888 0 4000 1825 all_in 
2222 1750 4000 0 fold 
3333 232 6000 0 fold 
4444 28976 8000 1941 raise 
total pot: 12536 
/inquire 
recv from player 4444: check
send inquire msg to player 6666 
inquire/ 
8888 0 4000 1825 all_in 
2222 1750 4000 0 fold 
3333 232 6000 0 fold 
4444 27135 8000 3782 call 
7777 0 2000 3047 all_in 
1111 194 4020 0 fold 
5555 3644 4000 3782 raise 
6666 646 0 1941 call 
total pot: 14377 
/inquire 
recv from player 6666: check
flop/ 
CLUBS 4 
DIAMONDS J 
SPADES 9 
/flop 

---flop round bet---
valid player: 8, all in player: 3, fold player: 3
send inquire msg to player 5555 
inquire/ 
6666 0 0 2587 all_in 
8888 0 4000 1825 all_in 
2222 1750 4000 0 fold 
3333 232 6000 0 fold 
4444 27135 8000 3782 call 
7777 0 2000 3047 all_in 
1111 194 4020 0 fold 
5555 3644 4000 3782 raise 
total pot: 15023 
/inquire 
recv from player 5555: check
send inquire msg to player 4444 
inquire/ 
7777 0 2000 3047 all_in 
1111 194 4020 0 fold 
5555 3644 4000 3782 check 
6666 0 0 2587 all_in 
8888 0 4000 1825 all_in 
2222 1750 4000 0 fold 
3333 232 6000 0 fold 
4444 27135 8000 3782 call 
total pot: 15023 
/inquire 
recv from player 4444: check
turn/ 
SPADES 10 
/turn 

---turn round bet---
valid player: 8, all in player: 3, fold player: 3
send inquire msg to player 5555 
inquire/ 
6666 0 0 2587 all_in 
8888 0 4000 1825 all_in 
2222 1750 4000 0 fold 
3333 232 6000 0 fold 
4444 27135 8000 3782 check 
7777 0 2000 3047 all_in 
1111 194 4020 0 fold 
5555 3644 4000 3782 check 
total pot: 15023 
/inquire 
recv from player 5555: check
send inquire msg to player 4444 
inquire/ 
7777 0 2000 3047 all_in 
1111 194 4020 0 fold 
5555 3644 4000 3782 check 
6666 0 0 2587 all_in 
8888 0 4000 1825 all_in 
2222 1750 4000 0 fold 
3333 232 6000 0 fold 
4444 27135 8000 3782 check 
total pot: 15023 
/inquire 
recv from player 4444: check
river/ 
DIAMONDS K 
/river 

---river round bet---
valid player: 8, all in player: 3, fold player: 3
send inquire msg to player 5555 
inquire/ 
6666 0 0 2587 all_in 
8888 0 4000 1825 all_in 
2222 1750 4000 0 fold 
3333 232 6000 0 fold 
4444 27135 8000 3782 check 
7777 0 2000 3047 all_in 
1111 194 4020 0 fold 
5555 3644 4000 3782 check 
total pot: 15023 
/inquire 
recv from player 5555: raise 0
send inquire msg to player 4444 
inquire/ 
7777 0 2000 3047 all_in 
1111 194 4020 0 fold 
5555 3544 4000 3882 raise 
6666 0 0 2587 all_in 
8888 0 4000 1825 all_in 
2222 1750 4000 0 fold 
3333 232 6000 0 fold 
4444 27135 8000 3782 check 
total pot: 15123 
/inquire 
recv from player 4444: fold

---show down---
showdown/ 
common/ 
CLUBS 4 
DIAMONDS J 
SPADES 9 
SPADES 10 
DIAMONDS K 
/common 
3: 8888 DIAMONDS 7 HEARTS A HIGH_CARD 
4: 6666 SPADES 2 HEARTS 7 HIGH_CARD 
2: 5555 SPADES 3 DIAMONDS 9 ONE_PAIR 
1: 7777 SPADES Q SPADES 8 STRAIGHT 
/showdown 

---Allocate pot---
pot-win/ 
7777: 14288 
5555: 835 
/pot-win 
it is player 8888's turn to be button

-----36 Hand-----
seat/ 
button: 8888 2000 2000 
small blind: 5555 4379 4000 
big blind: 1111 194 4020 
7777 14288 2000 
4444 27135 8000 
3333 232 6000 
2222 1750 4000 
/seat 
blind/ 
5555: 50 
1111: 100 
/blind 
player 5555:hold/ 
HEARTS J 
CLUBS Q 
/hold 
player 1111:hold/ 
DIAMONDS 6 
SPADES A 
/hold 
player 7777:hold/ 
HEARTS 8 
HEARTS 4 
/hold 
player 4444:hold/ 
SPADES K 
DIAMONDS 2 
/hold 
player 3333:hold/ 
SPADES Q 
DIAMONDS 5 
/hold 
player 2222:hold/ 
SPADES 10 
HEARTS 10 
/hold 
player 8888:hold/ 
CLUBS 4 
SPADES 8 
/hold 

---pre flop round bet---
valid player: 7, all in player: 0, fold player: 0
send inquire msg to player 7777 
inquire/ 
1111 94 4020 100 blind 
5555 4329 4000 50 blind 
total pot: 150 
/inquire 
recv from player 7777: check
send inquire msg to player 4444 
inquire/ 
7777 14188 2000 100 call 
1111 94 4020 100 blind 
5555 4329 4000 50 blind 
total pot: 250 
/inquire 
recv from player 4444: raise 952
send inquire msg to player 3333 
inquire/ 
4444 26083 8000 1052 raise 
7777 14188 2000 100 call 
1111 94 4020 100 blind 
5555 4329 4000 50 blind 
total pot: 1302 
/inquire 
recv from player 3333: raise 0
send inquire msg to player 2222 
inquire/ 
3333 0 6000 232 all_in 
4444 26083 8000 1052 raise 
7777 14188 2000 100 call 
1111 94 4020 100 blind 
5555 4329 4000 50 blind 
total pot: 1534 
/inquire 
recv from player 2222: check
send inquire msg to player 8888 
inquire/ 
2222 698 4000 1052 call 
3333 0 6000 232 all_in 
4444 26083 8000 1052 raise 
7777 14188 2000 100 call 
1111 94 4020 100 blind 
5555 4329 4000 50 blind 
total pot: 2586 
/inquire 
recv from player 8888: check
send inquire msg to player 5555 
inquire/ 
8888 948 2000 1052 call 
2222 698 4000 1052 call 
3333 0 6000 232 all_in 
4444 26083 8000 1052 raise 
7777 14188 2000 100 call 
1111 94 4020 100 blind 
5555 4329 4000 50 blind 
total pot: 3638 
/inquire 
recv from player 5555: raise 0
send inquire msg to player 1111 
inquire/ 
5555 2375 4000 2004 raise 
8888 948 2000 1052 call 
2222 698 4000 1052 call 
3333 0 6000 232 all_in 
4444 26083 8000 1052 raise 
7777 14188 2000 100 call 
1111 94 4020 100 blind 
total pot: 5592 
/inquire 
recv from player 1111: fold
send inquire msg to player 7777 
inquire/ 
1111 94 4020 100 fold 
5555 2375 4000 2004 raise 
8888 948 2000 1052 call 
2222 698 4000 1052 call 
3333 0 6000 232 all_in 
4444 26083 8000 1052 raise 
7777 14188 2000 100 call 
total pot: 5592 
/inquire 
recv from player 7777: check
send inquire msg to player 4444 
inquire/ 
7777 12284 2000 2004 call 
1111 94 4020 100 fold 
5555 2375 4000 2004 raise 
8888 948 2000 1052 call 
2222 698 4000 1052 call 
3333 0 6000 232 all_in 
4444 26083 8000 1052 raise 
total pot: 7496 
/inquire 
recv from player 4444: check
send inquire msg to player 2222 
inquire/ 
3333 0 6000 232 all_in 
4444 25131 8000 2004 call 
7777 12284 2000 2004 call 
1111 94 4020 100 fold 
5555 2375 4000 2004 raise 
8888 948 2000 1052 call 
2222 698 4000 1052 call 
total pot: 8448 
/inquire 
recv from player 2222: raise 0
send inquire msg to player 8888 
inquire/ 
2222 0 4000 1750 all_in 
3333 0 6000 232 all_in 
4444 25131 8000 2004 call 
7777 12284 2000 2004 call 
1111 94 4020 100 fold 
5555 2375 4000 2004 raise 
8888 948 2000 1052 call 
total pot: 9146 
/inquire 
recv from player 8888: check
flop/ 
CLUBS 2 
SPADES 9 
HEARTS Q 
/flop 

---flop round bet---
valid player: 7, all in player: 3, fold player: 1
send inquire msg to player 5555 
inquire/ 
8888 0 2000 2000 all_in 
2222 0 4000 1750 all_in 
3333 0 6000 232 all_in 
4444 25131 8000 2004 call 
7777 12284 2000 2004 call 
1111 94 4020 100 fold 
5555 2375 4000 2004 raise 
total pot: 10094 
/inquire 
recv from player 5555: raise 0
send inquire msg to player 7777 
inquire/ 
1111 94 4020 100 fold 
5555 2275 4000 2104 raise 
8888 0 2000 2000 all_in 
2222 0 4000 1750 all_in 
3333 0 6000 232 all_in 
4444 25131 8000 2004 call 
7777 12284 2000 2004 call 
total pot: 10194 
/inquire 
recv from player 7777: fold
send inquire msg to player 4444 
inquire/ 
7777 12284 2000 2004 fold 
1111 94 4020 100 fold 
5555 2275 4000 2104 raise 
8888 0 2000 2000 all_in 
2222 0 4000 1750 all_in 
3333 0 6000 232 all_in 
4444 25131 8000 2004 call 
total pot: 10194 
/inquire 
recv from player 4444: check
turn/ 
SPADES 3 
/turn 

---turn round bet---
valid player: 7, all in player: 3, fold player: 2
send inquire msg to player 5555 
inquire/ 
8888 0 2000 2000 all_in 
2222 0 4000 1750 all_in 
3333 0 6000 232 all_in 
4444 25031 8000 2104 call 
7777 12284 2000 2004 fold 
1111 94 4020 100 fold 
5555 2275 4000 2104 raise 
total pot: 10294 
/inquire 
recv from player 5555: raise 0
send inquire msg to player 4444 
inquire/ 
7777 12284 2000 2004 fold 
1111 94 4020 100 fold 
5555 2175 4000 2204 raise 
8888 0 2000 2000 all_in 
2222 0 4000 1750 all_in 
3333 0 6000 232 all_in 
4444 25031 8000 2104 call 
total pot: 10394 
/inquire 
recv from player 4444: check
river/ 
CLUBS 9 
/river 

---river round bet---
valid player: 7, all in player: 3, fold player: 2
send inquire msg to player 5555 
inquire/ 
8888 0 2000 2000 all_in 
2222 0 4000 1750 all_in 
3333 0 6000 232 all_in 
4444 24931 8000 2204 call 
7777 12284 2000 2004 fold 
1111 94 4020 100 fold 
5555 2175 4000 2204 raise 
total pot: 10494 
/inquire 
recv from player 5555: check
send inquire msg to player 4444 
inquire/ 
7777 12284 2000 2004 fold 
1111 94 4020 100 fold 
5555 2175 4000 2204 check 
8888 0 2000 2000 all_in 
2222 0 4000 1750 all_in 
3333 0 6000 232 all_in 
4444 24931 8000 2204 call 
total pot: 10494 
/inquire 
recv from player 4444: check

---show down---
showdown/ 
common/ 
CLUBS 2 
SPADES 9 
HEARTS Q 
SPADES 3 
CLUBS 9 
/common 
1: 5555 HEARTS J CLUBS Q TWO_PAIR 
4: 4444 SPADES K DIAMONDS 2 TWO_PAIR 
2: 3333 SPADES Q DIAMONDS 5 TWO_PAIR 
3: 2222 SPADES 10 HEARTS 10 TWO_PAIR 
5: 8888 CLUBS 4 SPADES 8 ONE_PAIR 
/showdown 

---Allocate pot---
pot-win/ 
5555: 10494 
/pot-win 
it is player 5555's turn to be button

-----37 Hand-----
seat/ 
button: 5555 12669 4000 
small blind: 1111 2000 2114 
big blind: 7777 12284 2000 
4444 24931 8000 
3333 2000 4000 
2222 2000 2000 
8888 2000 0 
/seat 
blind/ 
1111: 50 
7777: 100 
/blind 
player 1111:hold/ 
DIAMONDS K 
SPADES 10 
/hold 
player 7777:hold/ 
CLUBS J 
HEARTS 3 
/hold 
player 4444:hold/ 
SPADES 7 
HEARTS Q 
/hold 
player 3333:hold/ 
SPADES K 
HEARTS J 
/hold 
player 2222:hold/ 
CLUBS 5 
CLUBS 8 
/hold 
player 8888:hold/ 
CLUBS 7 
CLUBS 10 
/hold 
player 5555:hold/ 
HEARTS 4 
SPADES 9 
/hold 

---pre flop round bet---
valid player: 7, all in player: 0, fold player: 0
send inquire msg to player 4444 
inquire/ 
7777 12184 2000 100 blind 
1111 1950 2114 50 blind 
total pot: 150 
/inquire 
recv from player 4444: raise 935
send inquire msg to player 3333 
inquire/ 
4444 23896 8000 1035 raise 
7777 12184 2000 100 blind 
1111 1950 2114 50 blind 
total pot: 1185 
/inquire 
recv from player 3333: fold
send inquire msg to player 2222 
inquire/ 
3333 2000 4000 0 fold 
4444 23896 8000 1035 raise 
7777 12184 2000 100 blind 
1111 1950 2114 50 blind 
total pot: 1185 
/inquire 
recv from player 2222: check
send inquire msg to player 8888 
inquire/ 
2222 965 2000 1035 call 
3333 2000 4000 0 fold 
4444 23896 8000 1035 raise 
7777 12184 2000 100 blind 
1111 1950 2114 50 blind 
total pot: 2220 
/inquire 
recv from player 8888: check
send inquire msg to player 5555 
inquire/ 
8888 965 0 1035 call 
2222 965 2000 1035 call 
3333 2000 4000 0 fold 
4444 23896 8000 1035 raise 
7777 12184 2000 100 blind 
1111 1950 2114 50 blind 
total pot: 3255 
/inquire 
recv from player 5555: raise 0
send inquire msg to player 1111 
inquire/ 
5555 10699 4000 1970 raise 
8888 965 0 1035 call 
2222 965 2000 1035 call 
3333 2000 4000 0 fold 
4444 23896 8000 1035 raise 
7777 12184 2000 100 blind 
1111 1950 2114 50 blind 
total pot: 5225 
/inquire 
recv from player 1111: check
send inquire msg to player 7777 
inquire/ 
1111 30 2114 1970 call 
5555 10699 4000 1970 raise 
8888 965 0 1035 call 
2222 965 2000 1035 call 
3333 2000 4000 0 fold 
4444 23896 8000 1035 raise 
7777 12184 2000 100 blind 
total pot: 7145 
/inquire 
recv from player 7777: fold
send inquire msg to player 4444 
inquire/ 
7777 12184 2000 100 fold 
1111 30 2114 1970 call 
5555 10699 4000 1970 raise 
8888 965 0 1035 call 
2222 965 2000 1035 call 
3333 2000 4000 0 fold 
4444 23896 8000 1035 raise 
total pot: 7145 
/inquire 
recv from player 4444: check
send inquire msg to player 2222 
inquire/ 
3333 2000 4000 0 fold 
4444 22961 8000 1970 call 
7777 12184 2000 100 fold 
1111 30 2114 1970 call 
5555 10699 4000 1970 raise 
8888 965 0 1035 call 
2222 965 2000 1035 call 
total pot: 8080 
/inquire 
recv from player 2222: fold
send inquire msg to player 8888 
inquire/ 
2222 965 2000 1035 fold 
3333 2000 4000 0 fold 
4444 22961 8000 1970 call 
7777 12184 2000 100 fold 
1111 30 2114 1970 call 
5555 10699 4000 1970 raise 
8888 965 0 1035 call 
total pot: 8080 
/inquire 
recv from player 8888: check
flop/ 
DIAMONDS 7 
HEARTS 5 
CLUBS 6 
/flop 

---flop round bet---
valid player: 7, all in player: 0, fold player: 3
send inquire msg to player 1111 
inquire/ 
5555 10699 4000 1970 raise 
8888 30 0 1970 call 
2222 965 2000 1035 fold 
3333 2000 4000 0 fold 
4444 22961 8000 1970 call 
7777 12184 2000 100 fold 
1111 30 2114 1970 call 
total pot: 9015 
/inquire 
recv from player 1111: fold
send inquire msg to player 4444 
inquire/ 
7777 12184 2000 100 fold 
1111 30 2114 1970 fold 
5555 10699 4000 1970 raise 
8888 30 0 1970 call 
2222 965 2000 1035 fold 
3333 2000 4000 0 fold 
4444 22961 8000 1970 call 
total pot: 9015 
/inquire 
recv from player 4444: fold
send inquire msg to player 8888 
inquire/ 
2222 965 2000 1035 fold 
3333 2000 4000 0 fold 
4444 22961 8000 1970 fold 
7777 12184 2000 100 fold 
1111 30 2114 1970 fold 
5555 10699 4000 1970 raise 
8888 30 0 1970 call 
total pot: 9015 
/inquire 
recv from player 8888: check
send inquire msg to player 5555 
inquire/ 
8888 30 0 1970 check 
2222 965 2000 1035 fold 
3333 2000 4000 0 fold 
4444 22961 8000 1970 fold 
7777 12184 2000 100 fold 
1111 30 2114 1970 fold 
5555 10699 4000 1970 raise 
total pot: 9015 
/inquire 
recv from player 5555: check
turn/ 
SPADES 8 
/turn 

---turn round bet---
valid player: 7, all in player: 0, fold player: 5
send inquire msg to player 8888 
inquire/ 
2222 965 2000 1035 fold 
3333 2000 4000 0 fold 
4444 22961 8000 1970 fold 
7777 12184 2000 100 fold 
1111 30 2114 1970 fold 
5555 10699 4000 1970 check 
8888 30 0 1970 check 
total pot: 9015 
/inquire 
recv from player 8888: check
send inquire msg to player 5555 
inquire/ 
8888 30 0 1970 check 
2222 965 2000 1035 fold 
3333 2000 4000 0 fold 
4444 22961 8000 1970 fold 
7777 12184 2000 100 fold 
1111 30 2114 1970 fold 
5555 10699 4000 1970 check 
total pot: 9015 
/inquire 
recv from player 5555: check
river/ 
SPADES Q 
/river 

---river round bet---
valid player: 7, all in player: 0, fold player: 5
send inquire msg to player 8888 
inquire/ 
2222 965 2000 1035 fold 
3333 2000 4000 0 fold 
4444 22961 8000 1970 fold 
7777 12184 2000 100 fold 
1111 30 2114 1970 fold 
5555 10699 4000 1970 check 
8888 30 0 1970 check 
total pot: 9015 
/inquire 
recv from player 8888: check
send inquire msg to player 5555 
inquire/ 
8888 30 0 1970 check 
2222 965 2000 1035 fold 
3333 2000 4000 0 fold 
4444 22961 8000 1970 fold 
7777 12184 2000 100 fold 
1111 30 2114 1970 fold 
5555 10699 4000 1970 check 
total pot: 9015 
/inquire 
recv from player 5555: check

---show down---
showdown/ 
common/ 
DIAMONDS 7 
HEARTS 5 
CLUBS 6 
SPADES 8 
SPADES Q 
/common 
2: 8888 CLUBS 7 CLUBS 10 ONE_PAIR 
1: 5555 HEARTS 4 SPADES 9 STRAIGHT 
/showdown 

---Allocate pot---
pot-win/ 
5555: 9015 
/pot-win 
it is player 1111's turn to be button

-----38 Hand-----
seat/ 
button: 1111 2000 144 
small blind: 7777 12184 2000 
big blind: 4444 22961 8000 
3333 2000 4000 
2222 965 2000 
5555 19714 4000 
/seat 
blind/ 
7777: 50 
4444: 100 
/blind 
player 7777:hold/ 
CLUBS 3 
HEARTS 5 
/hold 
player 4444:hold/ 
SPADES 7 
HEARTS Q 
/hold 
player 3333:hold/ 
CLUBS 6 
CLUBS 7 
/hold 
player 2222:hold/ 
CLUBS Q 
CLUBS J 
/hold 
player 5555:hold/ 
DIAMONDS 4 
DIAMONDS J 
/hold 
player 1111:hold/ 
CLUBS 4 
SPADES J 
/hold 

---pre flop round bet---
valid player: 6, all in player: 0, fold player: 0
send inquire msg to player 3333 
inquire/ 
4444 22861 8000 100 blind 
7777 12134 2000 50 blind 
total pot: 150 
/inquire 
recv from player 3333: check
send inquire msg to player 2222 
inquire/ 
3333 1900 4000 100 call 
4444 22861 8000 100 blind 
7777 12134 2000 50 blind 
total pot: 250 
/inquire 
recv from player 2222: fold
send inquire msg to player 5555 
inquire/ 
2222 965 2000 0 fold 
3333 1900 4000 100 call 
4444 22861 8000 100 blind 
7777 12134 2000 50 blind 
total pot: 250 
/inquire 
recv from player 5555: raise 0
send inquire msg to player 1111 
inquire/ 
5555 19514 4000 200 raise 
2222 965 2000 0 fold 
3333 1900 4000 100 call 
4444 22861 8000 100 blind 
7777 12134 2000 50 blind 
total pot: 450 
/inquire 
recv from player 1111: fold
send inquire msg to player 7777 
inquire/ 
1111 2000 144 0 fold 
5555 19514 4000 200 raise 
2222 965 2000 0 fold 
3333 1900 4000 100 call 
4444 22861 8000 100 blind 
7777 12134 2000 50 blind 
total pot: 450 
/inquire 
recv from player 7777: check
send inquire msg to player 4444 
inquire/ 
7777 11984 2000 200 call 
1111 2000 144 0 fold 
5555 19514 4000 200 raise 
2222 965 2000 0 fold 
3333 1900 4000 100 call 
4444 22861 8000 100 blind 
total pot: 600 
/inquire 
recv from player 4444: check
send inquire msg to player 3333 
inquire/ 
4444 22761 8000 200 call 
7777 11984 2000 200 call 
1111 2000 144 0 fold 
5555 19514 4000 200 raise 
2222 965 2000 0 fold 
3333 1900 4000 100 call 
total pot: 700 
/inquire 
recv from player 3333: check
flop/ 
SPADES 8 
SPADES A 
HEARTS 8 
/flop 

---flop round bet---
valid player: 6, all in player: 0, fold player: 2
send inquire msg to player 7777 
inquire/ 
1111 2000 144 0 fold 
5555 19514 4000 200 raise 
2222 965 2000 0 fold 
3333 1800 4000 200 call 
4444 22761 8000 200 call 
7777 11984 2000 200 call 
total pot: 800 
/inquire 
recv from player 7777: fold
send inquire msg to player 4444 
inquire/ 
7777 11984 2000 200 fold 
1111 2000 144 0 fold 
5555 19514 4000 200 raise 
2222 965 2000 0 fold 
3333 1800 4000 200 call 
4444 22761 8000 200 call 
total pot: 800 
/inquire 
recv from player 4444: check
send inquire msg to player 3333 
inquire/ 
4444 22761 8000 200 check 
7777 11984 2000 200 fold 
1111 2000 144 0 fold 
5555 19514 4000 200 raise 
2222 965 2000 0 fold 
3333 1800 4000 200 call 
total pot: 800 
/inquire 
recv from player 3333: fold
send inquire msg to player 5555 
inquire/ 
2222 965 2000 0 fold 
3333 1800 4000 200 fold 
4444 22761 8000 200 check 
7777 11984 2000 200 fold 
1111 2000 144 0 fold 
5555 19514 4000 200 raise 
total pot: 800 
/inquire 
recv from player 5555: check
turn/ 
CLUBS 9 
/turn 

---turn round bet---
valid player: 6, all in player: 0, fold player: 4
send inquire msg to player 4444 
inquire/ 
7777 11984 2000 200 fold 
1111 2000 144 0 fold 
5555 19514 4000 200 check 
2222 965 2000 0 fold 
3333 1800 4000 200 fold 
4444 22761 8000 200 check 
total pot: 800 
/inquire 
recv from player 4444: check
send inquire msg to player 5555 
inquire/ 
2222 965 2000 0 fold 
3333 1800 4000 200 fold 
4444 22761 8000 200 check 
7777 11984 2000 200 fold 
1111 2000 144 0 fold 
5555 19514 4000 200 check 
total pot: 800 
/inquire 
recv from player 5555: raise 0
send inquire msg to player 4444 
inquire/ 
7777 11984 2000 200 fold 
1111 2000 144 0 fold 
5555 19414 4000 300 raise 
2222 965 2000 0 fold 
3333 1800 4000 200 fold 
4444 22761 8000 200 check 
total pot: 900 
/inquire 
recv from player 4444: check
river/ 
HEARTS 4 
/river 

---river round bet---
valid player: 6, all in player: 0, fold player: 4
send inquire msg to player 4444 
inquire/ 
7777 11984 2000 200 fold 
1111 2000 144 0 fold 
5555 19414 4000 300 raise 
2222 965 2000 0 fold 
3333 1800 4000 200 fold 
4444 22661 8000 300 call 
total pot: 1000 
/inquire 
recv from player 4444: fold
send inquire msg to player 5555 
inquire/ 
2222 965 2000 0 fold 
3333 1800 4000 200 fold 
4444 22661 8000 300 fold 
7777 11984 2000 200 fold 
1111 2000 144 0 fold 
5555 19414 4000 300 raise 
total pot: 1000 
/inquire 
recv from player 5555: check

--- 1 players not fold, don't need show down---

---Allocate pot---
Only player at seat 4 not fold, win all the pot 1000
pot-win/ 
5555: 1000 
/pot-win 
it is player 7777's turn to be button

-----39 Hand-----
seat/ 
button: 7777 11984 2000 
small blind: 4444 22661 8000 
big blind: 3333 1800 4000 
2222 965 2000 
5555 20414 4000 
1111 2000 144 
/seat 
blind/ 
4444: 50 
3333: 100 
/blind 
player 4444:hold/ 
CLUBS 6 
DIAMONDS 9 
/hold 
player 3333:hold/ 
CLUBS 3 
DIAMONDS 5 
/hold 
player 2222:hold/ 
HEARTS 2 
CLUBS 9 
/hold 
player 5555:hold/ 
HEARTS A 
SPADES 7 
/hold 
player 1111:hold/ 
HEARTS 8 
HEARTS 9 
/hold 
player 7777:hold/ 
CLUBS 2 
HEARTS K 
/hold 

---pre flop round bet---
valid player: 6, all in player: 0, fold player: 0
send inquire msg to player 2222 
inquire/ 
3333 1700 4000 100 blind 
4444 22611 8000 50 blind 
total pot: 150 
/inquire 
recv from player 2222: raise 0
send inquire msg to player 5555 
inquire/ 
2222 765 2000 200 raise 
3333 1700 4000 100 blind 
4444 22611 8000 50 blind 
total pot: 350 
/inquire 
recv from player 5555: raise 0
send inquire msg to player 1111 
inquire/ 
5555 20114 4000 300 raise 
2222 765 2000 200 raise 
3333 1700 4000 100 blind 
4444 22611 8000 50 blind 
total pot: 650 
/inquire 
recv from player 1111: fold
send inquire msg to player 7777 
inquire/ 
1111 2000 144 0 fold 
5555 20114 4000 300 raise 
2222 765 2000 200 raise 
3333 1700 4000 100 blind 
4444 22611 8000 50 blind 
total pot: 650 
/inquire 
recv from player 7777: check
send inquire msg to player 4444 
inquire/ 
7777 11684 2000 300 call 
1111 2000 144 0 fold 
5555 20114 4000 300 raise 
2222 765 2000 200 raise 
3333 1700 4000 100 blind 
4444 22611 8000 50 blind 
total pot: 950 
/inquire 
recv from player 4444: raise 74
send inquire msg to player 3333 
inquire/ 
4444 22261 8000 400 raise 
7777 11684 2000 300 call 
1111 2000 144 0 fold 
5555 20114 4000 300 raise 
2222 765 2000 200 raise 
3333 1700 4000 100 blind 
total pot: 1300 
/inquire 
recv from player 3333: raise 0
send inquire msg to player 2222 
inquire/ 
3333 1300 4000 500 raise 
4444 22261 8000 400 raise 
7777 11684 2000 300 call 
1111 2000 144 0 fold 
5555 20114 4000 300 raise 
2222 765 2000 200 raise 
total pot: 1700 
/inquire 
recv from player 2222: raise 0
send inquire msg to player 5555 
inquire/ 
2222 365 2000 600 raise 
3333 1300 4000 500 raise 
4444 22261 8000 400 raise 
7777 11684 2000 300 call 
1111 2000 144 0 fold 
5555 20114 4000 300 raise 
total pot: 2100 
/inquire 
recv from player 5555: check
send inquire msg to player 7777 
inquire/ 
1111 2000 144 0 fold 
5555 19814 4000 600 call 
2222 365 2000 600 raise 
3333 1300 4000 500 raise 
4444 22261 8000 400 raise 
7777 11684 2000 300 call 
total pot: 2400 
/inquire 
recv from player 7777: check
send inquire msg to player 4444 
inquire/ 
7777 11384 2000 600 call 
1111 2000 144 0 fold 
5555 19814 4000 600 call 
2222 365 2000 600 raise 
3333 1300 4000 500 raise 
4444 22261 8000 400 raise 
total pot: 2700 
/inquire 
recv from player 4444: check
send inquire msg to player 3333 
inquire/ 
4444 22061 8000 600 call 
7777 11384 2000 600 call 
1111 2000 144 0 fold 
5555 19814 4000 600 call 
2222 365 2000 600 raise 
3333 1300 4000 500 raise 
total pot: 2900 
/inquire 
recv from player 3333: fold
flop/ 
DIAMONDS 4 
CLUBS J 
CLUBS 5 
/flop 

---flop round bet---
valid player: 6, all in player: 0, fold player: 2
send inquire msg to player 4444 
inquire/ 
7777 11384 2000 600 call 
1111 2000 144 0 fold 
5555 19814 4000 600 call 
2222 365 2000 600 raise 
3333 1300 4000 500 fold 
4444 22061 8000 600 call 
total pot: 2900 
/inquire 
recv from player 4444: check
send inquire msg to player 2222 
inquire/ 
3333 1300 4000 500 fold 
4444 22061 8000 600 check 
7777 11384 2000 600 call 
1111 2000 144 0 fold 
5555 19814 4000 600 call 
2222 365 2000 600 raise 
total pot: 2900 
/inquire 
recv from player 2222: raise 0
send inquire msg to player 5555 
inquire/ 
2222 265 2000 700 raise 
3333 1300 4000 500 fold 
4444 22061 8000 600 check 
7777 11384 2000 600 call 
1111 2000 144 0 fold 
5555 19814 4000 600 call 
total pot: 3000 
/inquire 
recv from player 5555: raise 0
send inquire msg to player 7777 
inquire/ 
1111 2000 144 0 fold 
5555 19614 4000 800 raise 
2222 265 2000 700 raise 
3333 1300 4000 500 fold 
4444 22061 8000 600 check 
7777 11384 2000 600 call 
total pot: 3200 
/inquire 
recv from player 7777: fold
send inquire msg to player 4444 
inquire/ 
7777 11384 2000 600 fold 
1111 2000 144 0 fold 
5555 19614 4000 800 raise 
2222 265 2000 700 raise 
3333 1300 4000 500 fold 
4444 22061 8000 600 check 
total pot: 3200 
/inquire 
recv from player 4444: check
send inquire msg to player 2222 
inquire/ 
3333 1300 4000 500 fold 
4444 21861 8000 800 call 
7777 11384 2000 600 fold 
1111 2000 144 0 fold 
5555 19614 4000 800 raise 
2222 265 2000 700 raise 
total pot: 3400 
/inquire 
recv from player 2222: fold
turn/ 
SPADES 10 
/turn 

---turn round bet---
valid player: 6, all in player: 0, fold player: 4
send inquire msg to player 4444 
inquire/ 
7777 11384 2000 600 fold 
1111 2000 144 0 fold 
5555 19614 4000 800 raise 
2222 265 2000 700 fold 
3333 1300 4000 500 fold 
4444 21861 8000 800 call 
total pot: 3400 
/inquire 
recv from player 4444: fold
send inquire msg to player 5555 
inquire/ 
2222 265 2000 700 fold 
3333 1300 4000 500 fold 
4444 21861 8000 800 fold 
7777 11384 2000 600 fold 
1111 2000 144 0 fold 
5555 19614 4000 800 raise 
total pot: 3400 
/inquire 
recv from player 5555: check

---river round bet---
valid player: 6, all in player: 0, fold player: 5

--- 1 players not fold, don't need show down---

---Allocate pot---
Only player at seat 3 not fold, win all the pot 3400
pot-win/ 
5555: 3400 
/pot-win 
it is player 4444's turn to be button

-----40 Hand-----
seat/ 
button: 4444 21861 8000 
small blind: 3333 1300 4000 
big blind: 2222 265 2000 
5555 23014 4000 
1111 2000 144 
7777 11384 2000 
/seat 
blind/ 
3333: 50 
2222: 100 
/blind 
player 3333:hold/ 
DIAMONDS 2 
DIAMONDS 8 
/hold 
player 2222:hold/ 
DIAMONDS 3 
SPADES 5 
/hold 
player 5555:hold/ 
SPADES Q 
HEARTS 2 
/hold 
player 1111:hold/ 
DIAMONDS 9 
SPADES 3 
/hold 
player 7777:hold/ 
DIAMONDS Q 
CLUBS 3 
/hold 
player 4444:hold/ 
SPADES K 
HEARTS 6 
/hold 

---pre flop round bet---
valid player: 6, all in player: 0, fold player: 0
send inquire msg to player 5555 
inquire/ 
2222 165 2000 100 blind 
3333 1250 4000 50 blind 
total pot: 150 
/inquire 
recv from player 5555: check
send inquire msg to player 1111 
inquire/ 
5555 22914 4000 100 call 
2222 165 2000 100 blind 
3333 1250 4000 50 blind 
total pot: 250 
/inquire 
recv from player 1111: fold
send inquire msg to player 7777 
inquire/ 
1111 2000 144 0 fold 
5555 22914 4000 100 call 
2222 165 2000 100 blind 
3333 1250 4000 50 blind 
total pot: 250 
/inquire 
recv from player 7777: check
send inquire msg to player 4444 
inquire/ 
7777 11284 2000 100 call 
1111 2000 144 0 fold 
5555 22914 4000 100 call 
2222 165 2000 100 blind 
3333 1250 4000 50 blind 
total pot: 350 
/inquire 
recv from player 4444: raise 663
send inquire msg to player 3333 
inquire/ 
4444 21098 8000 763 raise 
7777 11284 2000 100 call 
1111 2000 144 0 fold 
5555 22914 4000 100 call 
2222 165 2000 100 blind 
3333 1250 4000 50 blind 
total pot: 1113 
/inquire 
recv from player 3333: raise 0
send inquire msg to player 2222 
inquire/ 
3333 0 4000 1300 all_in 
4444 21098 8000 763 raise 
7777 11284 2000 100 call 
1111 2000 144 0 fold 
5555 22914 4000 100 call 
2222 165 2000 100 blind 
total pot: 2363 
/inquire 
recv from player 2222: fold
send inquire msg to player 5555 
inquire/ 
2222 165 2000 100 fold 
3333 0 4000 1300 all_in 
4444 21098 8000 763 raise 
7777 11284 2000 100 call 
1111 2000 144 0 fold 
5555 22914 4000 100 call 
total pot: 2363 
/inquire 
recv from player 5555: check
send inquire msg to player 7777 
inquire/ 
1111 2000 144 0 fold 
5555 21714 4000 1300 call 
2222 165 2000 100 fold 
3333 0 4000 1300 all_in 
4444 21098 8000 763 raise 
7777 11284 2000 100 call 
total pot: 3563 
/inquire 
recv from player 7777: check
send inquire msg to player 4444 
inquire/ 
7777 10084 2000 1300 call 
1111 2000 144 0 fold 
5555 21714 4000 1300 call 
2222 165 2000 100 fold 
3333 0 4000 1300 all_in 
4444 21098 8000 763 raise 
total pot: 4763 
/inquire 
recv from player 4444: check
flop/ 
SPADES 2 
SPADES 10 
HEARTS A 
/flop 

---flop round bet---
valid player: 6, all in player: 1, fold player: 2
send inquire msg to player 5555 
inquire/ 
2222 165 2000 100 fold 
3333 0 4000 1300 all_in 
4444 20561 8000 1300 call 
7777 10084 2000 1300 call 
1111 2000 144 0 fold 
5555 21714 4000 1300 call 
total pot: 5300 
/inquire 
recv from player 5555: raise 0
send inquire msg to player 7777 
inquire/ 
1111 2000 144 0 fold 
5555 21614 4000 1400 raise 
2222 165 2000 100 fold 
3333 0 4000 1300 all_in 
4444 20561 8000 1300 call 
7777 10084 2000 1300 call 
total pot: 5400 
/inquire 
recv from player 7777: fold
send inquire msg to player 4444 
inquire/ 
7777 10084 2000 1300 fold 
1111 2000 144 0 fold 
5555 21614 4000 1400 raise 
2222 165 2000 100 fold 
3333 0 4000 1300 all_in 
4444 20561 8000 1300 call 
total pot: 5400 
/inquire 
recv from player 4444: check
turn/ 
DIAMONDS J 
/turn 

---turn round bet---
valid player: 6, all in player: 1, fold player: 3
send inquire msg to player 5555 
inquire/ 
2222 165 2000 100 fold 
3333 0 4000 1300 all_in 
4444 20461 8000 1400 call 
7777 10084 2000 1300 fold 
1111 2000 144 0 fold 
5555 21614 4000 1400 raise 
total pot: 5500 
/inquire 
recv from player 5555: check
send inquire msg to player 4444 
inquire/ 
7777 10084 2000 1300 fold 
1111 2000 144 0 fold 
5555 21614 4000 1400 check 
2222 165 2000 100 fold 
3333 0 4000 1300 all_in 
4444 20461 8000 1400 call 
total pot: 5500 
/inquire 
recv from player 4444: check
river/ 
DIAMONDS A 
/river 

---river round bet---
valid player: 6, all in player: 1, fold player: 3
send inquire msg to player 5555 
inquire/ 
2222 165 2000 100 fold 
3333 0 4000 1300 all_in 
4444 20461 8000 1400 check 
7777 10084 2000 1300 fold 
1111 2000 144 0 fold 
5555 21614 4000 1400 check 
total pot: 5500 
/inquire 
recv from player 5555: check
send inquire msg to player 4444 
inquire/ 
7777 10084 2000 1300 fold 
1111 2000 144 0 fold 
5555 21614 4000 1400 check 
2222 165 2000 100 fold 
3333 0 4000 1300 all_in 
4444 20461 8000 1400 check 
total pot: 5500 
/inquire 
recv from player 4444: check

---show down---
showdown/ 
common/ 
SPADES 2 
SPADES 10 
HEARTS A 
DIAMONDS J 
DIAMONDS A 
/common 
2: 3333 DIAMONDS 2 DIAMONDS 8 TWO_PAIR 
1: 5555 SPADES Q HEARTS 2 TWO_PAIR 
3: 4444 SPADES K HEARTS 6 ONE_PAIR 
/showdown 

---Allocate pot---
pot-win/ 
5555: 5500 
/pot-win 
it is player 3333's turn to be button

-----41 Hand-----
seat/ 
button: 3333 2000 2000 
small blind: 2222 165 2000 
big blind: 5555 27114 4000 
1111 2000 144 
7777 10084 2000 
4444 20461 8000 
/seat 
blind/ 
2222: 50 
5555: 100 
/blind 
player 2222:hold/ 
SPADES 7 
DIAMONDS J 
/hold 
player 5555:hold/ 
CLUBS 9 
CLUBS 7 
/hold 
player 1111:hold/ 
CLUBS A 
CLUBS 8 
/hold 
player 7777:hold/ 
DIAMONDS 5 
SPADES K 
/hold 
player 4444:hold/ 
DIAMONDS 6 
SPADES 8 
/hold 
player 3333:hold/ 
SPADES A 
CLUBS 2 
/hold 

---pre flop round bet---
valid player: 6, all in player: 0, fold player: 0
send inquire msg to player 1111 
inquire/ 
5555 27014 4000 100 blind 
2222 115 2000 50 blind 
total pot: 150 
/inquire 
recv from player 1111: fold
send inquire msg to player 7777 
inquire/ 
1111 2000 144 0 fold 
5555 27014 4000 100 blind 
2222 115 2000 50 blind 
total pot: 150 
/inquire 
recv from player 7777: check
send inquire msg to player 4444 
inquire/ 
7777 9984 2000 100 call 
1111 2000 144 0 fold 
5555 27014 4000 100 blind 
2222 115 2000 50 blind 
total pot: 250 
/inquire 
recv from player 4444: raise 274
send inquire msg to player 3333 
inquire/ 
4444 20087 8000 374 raise 
7777 9984 2000 100 call 
1111 2000 144 0 fold 
5555 27014 4000 100 blind 
2222 115 2000 50 blind 
total pot: 624 
/inquire 
recv from player 3333: fold
send inquire msg to player 2222 
inquire/ 
3333 2000 2000 0 fold 
4444 20087 8000 374 raise 
7777 9984 2000 100 call 
1111 2000 144 0 fold 
5555 27014 4000 100 blind 
2222 115 2000 50 blind 
total pot: 624 
/inquire 
recv from player 2222: fold
send inquire msg to player 5555 
inquire/ 
2222 115 2000 50 fold 
3333 2000 2000 0 fold 
4444 20087 8000 374 raise 
7777 9984 2000 100 call 
1111 2000 144 0 fold 
5555 27014 4000 100 blind 
total pot: 624 
/inquire 
recv from player 5555: raise 0
send inquire msg to player 7777 
inquire/ 
1111 2000 144 0 fold 
5555 26466 4000 648 raise 
2222 115 2000 50 fold 
3333 2000 2000 0 fold 
4444 20087 8000 374 raise 
7777 9984 2000 100 call 
total pot: 1172 
/inquire 
recv from player 7777: fold
send inquire msg to player 4444 
inquire/ 
7777 9984 2000 100 fold 
1111 2000 144 0 fold 
5555 26466 4000 648 raise 
2222 115 2000 50 fold 
3333 2000 2000 0 fold 
4444 20087 8000 374 raise 
total pot: 1172 
/inquire 
recv from player 4444: fold

---flop round bet---
valid player: 6, all in player: 0, fold player: 5

---turn round bet---
valid player: 6, all in player: 0, fold player: 5

---river round bet---
valid player: 6, all in player: 0, fold player: 5

--- 1 players not fold, don't need show down---

---Allocate pot---
Only player at seat 1 not fold, win all the pot 1172
pot-win/ 
5555: 1172 
/pot-win 
it is player 2222's turn to be button

-----42 Hand-----
seat/ 
button: 2222 115 2000 
small blind: 5555 27638 4000 
big blind: 1111 2000 144 
7777 9984 2000 
4444 20087 8000 
3333 2000 2000 
/seat 
blind/ 
5555: 50 
1111: 100 
/blind 
player 5555:hold/ 
HEARTS K 
DIAMONDS 10 
/hold 
player 1111:hold/ 
DIAMONDS 3 
SPADES 4 
/hold 
player 7777:hold/ 
SPADES 8 
SPADES K 
/hold 
player 4444:hold/ 
HEARTS 5 
DIAMONDS 9 
/hold 
player 3333:hold/ 
CLUBS 8 
CLUBS J 
/hold 
player 2222:hold/ 
HEARTS 9 
SPADES J 
/hold 

---pre flop round bet---
valid player: 6, all in player: 0, fold player: 0
send inquire msg to player 7777 
inquire/ 
1111 1900 144 100 blind 
5555 27588 4000 50 blind 
total pot: 150 
/inquire 
recv from player 7777: check
send inquire msg to player 4444 
inquire/ 
7777 9884 2000 100 call 
1111 1900 144 100 blind 
5555 27588 4000 50 blind 
total pot: 250 
/inquire 
recv from player 4444: raise 234
send inquire msg to player 3333 
inquire/ 
4444 19753 8000 334 raise 
7777 9884 2000 100 call 
1111 1900 144 100 blind 
5555 27588 4000 50 blind 
total pot: 584 
/inquire 
recv from player 3333: check
send inquire msg to player 2222 
inquire/ 
3333 1666 2000 334 call 
4444 19753 8000 334 raise 
7777 9884 2000 100 call 
1111 1900 144 100 blind 
5555 27588 4000 50 blind 
total pot: 918 
/inquire 
recv from player 2222: fold
send inquire msg to player 5555 
inquire/ 
2222 115 2000 0 fold 
3333 1666 2000 334 call 
4444 19753 8000 334 raise 
7777 9884 2000 100 call 
1111 1900 144 100 blind 
5555 27588 4000 50 blind 
total pot: 918 
/inquire 
recv from player 5555: raise 0
send inquire msg to player 1111 
inquire/ 
5555 27070 4000 568 raise 
2222 115 2000 0 fold 
3333 1666 2000 334 call 
4444 19753 8000 334 raise 
7777 9884 2000 100 call 
1111 1900 144 100 blind 
total pot: 1436 
/inquire 
recv from player 1111: check
send inquire msg to player 7777 
inquire/ 
1111 1432 144 568 call 
5555 27070 4000 568 raise 
2222 115 2000 0 fold 
3333 1666 2000 334 call 
4444 19753 8000 334 raise 
7777 9884 2000 100 call 
total pot: 1904 
/inquire 
recv from player 7777: fold
send inquire msg to player 4444 
inquire/ 
7777 9884 2000 100 fold 
1111 1432 144 568 call 
5555 27070 4000 568 raise 
2222 115 2000 0 fold 
3333 1666 2000 334 call 
4444 19753 8000 334 raise 
total pot: 1904 
/inquire 
recv from player 4444: check
send inquire msg to player 3333 
inquire/ 
4444 19519 8000 568 call 
7777 9884 2000 100 fold 
1111 1432 144 568 call 
5555 27070 4000 568 raise 
2222 115 2000 0 fold 
3333 1666 2000 334 call 
total pot: 2138 
/inquire 
recv from player 3333: check
flop/ 
DIAMONDS Q 
HEARTS A 
SPADES 6 
/flop 

---flop round bet---
valid player: 6, all in player: 0, fold player: 2
send inquire msg to player 5555 
inquire/ 
2222 115 2000 0 fold 
3333 1432 2000 568 call 
4444 19519 8000 568 call 
7777 9884 2000 100 fold 
1111 1432 144 568 call 
5555 27070 4000 568 raise 
total pot: 2372 
/inquire 
recv from player 5555: raise 0
send inquire msg to player 1111 
inquire/ 
5555 26970 4000 668 raise 
2222 115 2000 0 fold 
3333 1432 2000 568 call 
4444 19519 8000 568 call 
7777 9884 2000 100 fold 
1111 1432 144 568 call 
total pot: 2472 
/inquire 
recv from player 1111: raise 0
send inquire msg to player 4444 
inquire/ 
7777 9884 2000 100 fold 
1111 1232 144 768 raise 
5555 26970 4000 668 raise 
2222 115 2000 0 fold 
3333 1432 2000 568 call 
4444 19519 8000 568 call 
total pot: 2672 
/inquire 
recv from player 4444: fold
send inquire msg to player 3333 
inquire/ 
4444 19519 8000 568 fold 
7777 9884 2000 100 fold 
1111 1232 144 768 raise 
5555 26970 4000 668 raise 
2222 115 2000 0 fold 
3333 1432 2000 568 call 
total pot: 2672 
/inquire 
recv from player 3333: fold
send inquire msg to player 5555 
inquire/ 
2222 115 2000 0 fold 
3333 1432 2000 568 fold 
4444 19519 8000 568 fold 
7777 9884 2000 100 fold 
1111 1232 144 768 raise 
5555 26970 4000 668 raise 
total pot: 2672 
/inquire 
recv from player 5555: check
turn/ 
HEARTS 10 
/turn 

---turn round bet---
valid player: 6, all in player: 0, fold player: 4
send inquire msg to player 5555 
inquire/ 
2222 115 2000 0 fold 
3333 1432 2000 568 fold 
4444 19519 8000 568 fold 
7777 9884 2000 100 fold 
1111 1232 144 768 raise 
5555 26870 4000 768 call 
total pot: 2772 
/inquire 
recv from player 5555: raise 0
send inquire msg to player 1111 
inquire/ 
5555 26770 4000 868 raise 
2222 115 2000 0 fold 
3333 1432 2000 568 fold 
4444 19519 8000 568 fold 
7777 9884 2000 100 fold 
1111 1232 144 768 raise 
total pot: 2872 
/inquire 
recv from player 1111: fold

---river round bet---
valid player: 6, all in player: 0, fold player: 5

--- 1 players not fold, don't need show down---

---Allocate pot---
Only player at seat 0 not fold, win all the pot 2872
pot-win/ 
5555: 2872 
/pot-win 
it is player 5555's turn to be button

-----43 Hand-----
seat/ 
button: 5555 29642 4000 
small blind: 1111 1232 144 
big blind: 7777 9884 2000 
4444 19519 8000 
3333 1432 2000 
2222 115 2000 
/seat 
blind/ 
1111: 50 
7777: 100 
/blind 
player 1111:hold/ 
DIAMONDS 5 
CLUBS 2 
/hold 
player 7777:hold/ 
DIAMONDS 7 
SPADES 8 
/hold 
player 4444:hold/ 
SPADES 7 
DIAMONDS Q 
/hold 
player 3333:hold/ 
HEARTS 4 
DIAMONDS K 
/hold 
player 2222:hold/ 
HEARTS 9 
DIAMONDS A 
/hold 
player 5555:hold/ 
HEARTS 2 
CLUBS 8 
/hold 

---pre flop round bet---
valid player: 6, all in player: 0, fold player: 0
send inquire msg to player 4444 
inquire/ 
7777 9784 2000 100 blind 
1111 1182 144 50 blind 
total pot: 150 
/inquire 
recv from player 4444: raise 669
send inquire msg to player 3333 
inquire/ 
4444 18750 8000 769 raise 
7777 9784 2000 100 blind 
1111 1182 144 50 blind 
total pot: 919 
/inquire 
recv from player 3333: fold
send inquire msg to player 2222 
inquire/ 
3333 1432 2000 0 fold 
4444 18750 8000 769 raise 
7777 9784 2000 100 blind 
1111 1182 144 50 blind 
total pot: 919 
/inquire 
recv from player 2222: fold
send inquire msg to player 5555 
inquire/ 
2222 115 2000 0 fold 
3333 1432 2000 0 fold 
4444 18750 8000 769 raise 
7777 9784 2000 100 blind 
1111 1182 144 50 blind 
total pot: 919 
/inquire 
recv from player 5555: raise 0
send inquire msg to player 1111 
inquire/ 
5555 28204 4000 1438 raise 
2222 115 2000 0 fold 
3333 1432 2000 0 fold 
4444 18750 8000 769 raise 
7777 9784 2000 100 blind 
1111 1182 144 50 blind 
total pot: 2357 
/inquire 
recv from player 1111: fold
send inquire msg to player 7777 
inquire/ 
1111 1182 144 50 fold 
5555 28204 4000 1438 raise 
2222 115 2000 0 fold 
3333 1432 2000 0 fold 
4444 18750 8000 769 raise 
7777 9784 2000 100 blind 
total pot: 2357 
/inquire 
recv from player 7777: check
send inquire msg to player 4444 
inquire/ 
7777 8446 2000 1438 call 
1111 1182 144 50 fold 
5555 28204 4000 1438 raise 
2222 115 2000 0 fold 
3333 1432 2000 0 fold 
4444 18750 8000 769 raise 
total pot: 3695 
/inquire 
recv from player 4444: check
flop/ 
CLUBS A 
DIAMONDS 6 
DIAMONDS 3 
/flop 

---flop round bet---
valid player: 6, all in player: 0, fold player: 3
send inquire msg to player 7777 
inquire/ 
1111 1182 144 50 fold 
5555 28204 4000 1438 raise 
2222 115 2000 0 fold 
3333 1432 2000 0 fold 
4444 18081 8000 1438 call 
7777 8446 2000 1438 call 
total pot: 4364 
/inquire 
recv from player 7777: fold
send inquire msg to player 4444 
inquire/ 
7777 8446 2000 1438 fold 
1111 1182 144 50 fold 
5555 28204 4000 1438 raise 
2222 115 2000 0 fold 
3333 1432 2000 0 fold 
4444 18081 8000 1438 call 
total pot: 4364 
/inquire 
recv from player 4444: check
send inquire msg to player 5555 
inquire/ 
2222 115 2000 0 fold 
3333 1432 2000 0 fold 
4444 18081 8000 1438 check 
7777 8446 2000 1438 fold 
1111 1182 144 50 fold 
5555 28204 4000 1438 raise 
total pot: 4364 
/inquire 
recv from player 5555: check
turn/ 
DIAMONDS 10 
/turn 

---turn round bet---
valid player: 6, all in player: 0, fold player: 4
send inquire msg to player 4444 
inquire/ 
7777 8446 2000 1438 fold 
1111 1182 144 50 fold 
5555 28204 4000 1438 check 
2222 115 2000 0 fold 
3333 1432 2000 0 fold 
4444 18081 8000 1438 check 
total pot: 4364 
/inquire 
recv from player 4444: check
send inquire msg to player 5555 
inquire/ 
2222 115 2000 0 fold 
3333 1432 2000 0 fold 
4444 18081 8000 1438 check 
7777 8446 2000 1438 fold 
1111 1182 144 50 fold 
5555 28204 4000 1438 check 
total pot: 4364 
/inquire 
recv from player 5555: raise 0
send inquire msg to player 4444 
inquire/ 
7777 8446 2000 1438 fold 
1111 1182 144 50 fold 
5555 28104 4000 1538 raise 
2222 115 2000 0 fold 
3333 1432 2000 0 fold 
4444 18081 8000 1438 check 
total pot: 4464 
/inquire 
recv from player 4444: check
river/ 
SPADES 10 
/river 

---river round bet---
valid player: 6, all in player: 0, fold player: 4
send inquire msg to player 4444 
inquire/ 
7777 8446 2000 1438 fold 
1111 1182 144 50 fold 
5555 28104 4000 1538 raise 
2222 115 2000 0 fold 
3333 1432 2000 0 fold 
4444 17981 8000 1538 call 
total pot: 4564 
/inquire 
recv from player 4444: check
send inquire msg to player 5555 
inquire/ 
2222 115 2000 0 fold 
3333 1432 2000 0 fold 
4444 17981 8000 1538 check 
7777 8446 2000 1438 fold 
1111 1182 144 50 fold 
5555 28104 4000 1538 raise 
total pot: 4564 
/inquire 
recv from player 5555: check

---show down---
showdown/ 
common/ 
CLUBS A 
DIAMONDS 6 
DIAMONDS 3 
DIAMONDS 10 
SPADES 10 
/common 
1: 4444 SPADES 7 DIAMONDS Q ONE_PAIR 
2: 5555 HEARTS 2 CLUBS 8 ONE_PAIR 
/showdown 

---Allocate pot---
pot-win/ 
4444: 4564 
/pot-win 
it is player 1111's turn to be button

-----44 Hand-----
seat/ 
button: 1111 1182 144 
small blind: 7777 8446 2000 
big blind: 4444 22545 8000 
3333 1432 2000 
2222 115 2000 
5555 28104 4000 
/seat 
blind/ 
7777: 50 
4444: 100 
/blind 
player 7777:hold/ 
DIAMONDS 8 
HEARTS 2 
/hold 
player 4444:hold/ 
DIAMONDS 3 
CLUBS 3 
/hold 
player 3333:hold/ 
DIAMONDS 2 
HEARTS Q 
/hold 
player 2222:hold/ 
SPADES 5 
HEARTS J 
/hold 
player 5555:hold/ 
SPADES 7 
DIAMONDS 5 
/hold 
player 1111:hold/ 
SPADES K 
SPADES Q 
/hold 

---pre flop round bet---
valid player: 6, all in player: 0, fold player: 0
send inquire msg to player 3333 
inquire/ 
4444 22445 8000 100 blind 
7777 8396 2000 50 blind 
total pot: 150 
/inquire 
recv from player 3333: fold
send inquire msg to player 2222 
inquire/ 
3333 1432 2000 0 fold 
4444 22445 8000 100 blind 
7777 8396 2000 50 blind 
total pot: 150 
/inquire 
recv from player 2222: fold
send inquire msg to player 5555 
inquire/ 
2222 115 2000 0 fold 
3333 1432 2000 0 fold 
4444 22445 8000 100 blind 
7777 8396 2000 50 blind 
total pot: 150 
/inquire 
recv from player 5555: raise 0
send inquire msg to player 1111 
inquire/ 
5555 27904 4000 200 raise 
2222 115 2000 0 fold 
3333 1432 2000 0 fold 
4444 22445 8000 100 blind 
7777 8396 2000 50 blind 
total pot: 350 
/inquire 
recv from player 1111: check
send inquire msg to player 7777 
inquire/ 
1111 982 144 200 call 
5555 27904 4000 200 raise 
2222 115 2000 0 fold 
3333 1432 2000 0 fold 
4444 22445 8000 100 blind 
7777 8396 2000 50 blind 
total pot: 550 
/inquire 
recv from player 7777: check
send inquire msg to player 4444 
inquire/ 
7777 8246 2000 200 call 
1111 982 144 200 call 
5555 27904 4000 200 raise 
2222 115 2000 0 fold 
3333 1432 2000 0 fold 
4444 22445 8000 100 blind 
total pot: 700 
/inquire 
recv from player 4444: raise 332
send inquire msg to player 5555 
inquire/ 
2222 115 2000 0 fold 
3333 1432 2000 0 fold 
4444 22013 8000 532 raise 
7777 8246 2000 200 call 
1111 982 144 200 call 
5555 27904 4000 200 raise 
total pot: 1132 
/inquire 
recv from player 5555: check
send inquire msg to player 1111 
inquire/ 
5555 27572 4000 532 call 
2222 115 2000 0 fold 
3333 1432 2000 0 fold 
4444 22013 8000 532 raise 
7777 8246 2000 200 call 
1111 982 144 200 call 
total pot: 1464 
/inquire 
recv from player 1111: fold
send inquire msg to player 7777 
inquire/ 
1111 982 144 200 fold 
5555 27572 4000 532 call 
2222 115 2000 0 fold 
3333 1432 2000 0 fold 
4444 22013 8000 532 raise 
7777 8246 2000 200 call 
total pot: 1464 
/inquire 
recv from player 7777: check
flop/ 
SPADES 3 
HEARTS 9 
DIAMONDS J 
/flop 

---flop round bet---
valid player: 6, all in player: 0, fold player: 3
send inquire msg to player 7777 
inquire/ 
1111 982 144 200 fold 
5555 27572 4000 532 call 
2222 115 2000 0 fold 
3333 1432 2000 0 fold 
4444 22013 8000 532 raise 
7777 7914 2000 532 call 
total pot: 1796 
/inquire 
recv from player 7777: fold
send inquire msg to player 4444 
inquire/ 
7777 7914 2000 532 fold 
1111 982 144 200 fold 
5555 27572 4000 532 call 
2222 115 2000 0 fold 
3333 1432 2000 0 fold 
4444 22013 8000 532 raise 
total pot: 1796 
/inquire 
recv from player 4444: check
send inquire msg to player 5555 
inquire/ 
2222 115 2000 0 fold 
3333 1432 2000 0 fold 
4444 22013 8000 532 check 
7777 7914 2000 532 fold 
1111 982 144 200 fold 
5555 27572 4000 532 call 
total pot: 1796 
/inquire 
recv from player 5555: check
turn/ 
DIAMONDS Q 
/turn 

---turn round bet---
valid player: 6, all in player: 0, fold player: 4
send inquire msg to player 4444 
inquire/ 
7777 7914 2000 532 fold 
1111 982 144 200 fold 
5555 27572 4000 532 check 
2222 115 2000 0 fold 
3333 1432 2000 0 fold 
4444 22013 8000 532 check 
total pot: 1796 
/inquire 
recv from player 4444: check
send inquire msg to player 5555 
inquire/ 
2222 115 2000 0 fold 
3333 1432 2000 0 fold 
4444 22013 8000 532 check 
7777 7914 2000 532 fold 
1111 982 144 200 fold 
5555 27572 4000 532 check 
total pot: 1796 
/inquire 
recv from player 5555: raise 0
send inquire msg to player 4444 
inquire/ 
7777 7914 2000 532 fold 
1111 982 144 200 fold 
5555 27472 4000 632 raise 
2222 115 2000 0 fold 
3333 1432 2000 0 fold 
4444 22013 8000 532 check 
total pot: 1896 
/inquire 
recv from player 4444: check
river/ 
HEARTS 5 
/river 

---river round bet---
valid player: 6, all in player: 0, fold player: 4
send inquire msg to player 4444 
inquire/ 
7777 7914 2000 532 fold 
1111 982 144 200 fold 
5555 27472 4000 632 raise 
2222 115 2000 0 fold 
3333 1432 2000 0 fold 
4444 21913 8000 632 call 
total pot: 1996 
/inquire 
recv from player 4444: check
send inquire msg to player 5555 
inquire/ 
2222 115 2000 0 fold 
3333 1432 2000 0 fold 
4444 21913 8000 632 check 
7777 7914 2000 532 fold 
1111 982 144 200 fold 
5555 27472 4000 632 raise 
total pot: 1996 
/inquire 
recv from player 5555: check

---show down---
showdown/ 
common/ 
SPADES 3 
HEARTS 9 
DIAMONDS J 
DIAMONDS Q 
HEARTS 5 
/common 
1: 4444 DIAMONDS 3 CLUBS 3 THREE_OF_A_KIND 
2: 5555 SPADES 7 DIAMONDS 5 ONE_PAIR 
/showdown 

---Allocate pot---
pot-win/ 
4444: 1996 
/pot-win 
it is player 7777's turn to be button

-----45 Hand-----
seat/ 
button: 7777 7914 2000 
small blind: 4444 23909 8000 
big blind: 3333 1432 2000 
2222 115 2000 
5555 27472 4000 
1111 982 144 
/seat 
blind/ 
4444: 50 
3333: 100 
/blind 
player 4444:hold/ 
DIAMONDS A 
DIAMONDS 6 
/hold 
player 3333:hold/ 
HEARTS 8 
CLUBS 4 
/hold 
player 2222:hold/ 
SPADES 2 
HEARTS 5 
/hold 
player 5555:hold/ 
HEARTS 4 
SPADES 10 
/hold 
player 1111:hold/ 
CLUBS 2 
HEARTS Q 
/hold 
player 7777:hold/ 
HEARTS 3 
CLUBS K 
/hold 

---pre flop round bet---
valid player: 6, all in player: 0, fold player: 0
send inquire msg to player 2222 
inquire/ 
3333 1332 2000 100 blind 
4444 23859 8000 50 blind 
total pot: 150 
/inquire 
recv from player 2222: fold
send inquire msg to player 5555 
inquire/ 
2222 115 2000 0 fold 
3333 1332 2000 100 blind 
4444 23859 8000 50 blind 
total pot: 150 
/inquire 
recv from player 5555: check
send inquire msg to player 1111 
inquire/ 
5555 27372 4000 100 call 
2222 115 2000 0 fold 
3333 1332 2000 100 blind 
4444 23859 8000 50 blind 
total pot: 250 
/inquire 
recv from player 1111: fold
send inquire msg to player 7777 
inquire/ 
1111 982 144 0 fold 
5555 27372 4000 100 call 
2222 115 2000 0 fold 
3333 1332 2000 100 blind 
4444 23859 8000 50 blind 
total pot: 250 
/inquire 
recv from player 7777: fold
send inquire msg to player 4444 
inquire/ 
7777 7914 2000 0 fold 
1111 982 144 0 fold 
5555 27372 4000 100 call 
2222 115 2000 0 fold 
3333 1332 2000 100 blind 
4444 23859 8000 50 blind 
total pot: 250 
/inquire 
recv from player 4444: raise 1248
send inquire msg to player 3333 
inquire/ 
4444 22561 8000 1348 raise 
7777 7914 2000 0 fold 
1111 982 144 0 fold 
5555 27372 4000 100 call 
2222 115 2000 0 fold 
3333 1332 2000 100 blind 
total pot: 1548 
/inquire 
recv from player 3333: raise 0
send inquire msg to player 5555 
inquire/ 
2222 115 2000 0 fold 
3333 0 2000 1432 all_in 
4444 22561 8000 1348 raise 
7777 7914 2000 0 fold 
1111 982 144 0 fold 
5555 27372 4000 100 call 
total pot: 2880 
/inquire 
recv from player 5555: raise 0
send inquire msg to player 4444 
inquire/ 
7777 7914 2000 0 fold 
1111 982 144 0 fold 
5555 24792 4000 2680 raise 
2222 115 2000 0 fold 
3333 0 2000 1432 all_in 
4444 22561 8000 1348 raise 
total pot: 5460 
/inquire 
recv from player 4444: check
flop/ 
CLUBS Q 
SPADES 4 
CLUBS 10 
/flop 

---flop round bet---
valid player: 6, all in player: 1, fold player: 3
send inquire msg to player 4444 
inquire/ 
7777 7914 2000 0 fold 
1111 982 144 0 fold 
5555 24792 4000 2680 raise 
2222 115 2000 0 fold 
3333 0 2000 1432 all_in 
4444 21229 8000 2680 call 
total pot: 6792 
/inquire 
recv from player 4444: fold
send inquire msg to player 5555 
inquire/ 
2222 115 2000 0 fold 
3333 0 2000 1432 all_in 
4444 21229 8000 2680 fold 
7777 7914 2000 0 fold 
1111 982 144 0 fold 
5555 24792 4000 2680 raise 
total pot: 6792 
/inquire 
recv from player 5555: check
turn/ 
DIAMONDS Q 
/turn 

---turn round bet---
valid player: 6, all in player: 1, fold player: 4
river/ 
HEARTS 6 
/river 

---river round bet---
valid player: 6, all in player: 1, fold player: 4

---show down---
showdown/ 
common/ 
CLUBS Q 
SPADES 4 
CLUBS 10 
DIAMONDS Q 
HEARTS 6 
/common 
2: 3333 HEARTS 8 CLUBS 4 TWO_PAIR 
1: 5555 HEARTS 4 SPADES 10 TWO_PAIR 
/showdown 

---Allocate pot---
pot-win/ 
5555: 6792 
/pot-win 
it is player 4444's turn to be button

-----46 Hand-----
seat/ 
button: 4444 21229 8000 
small blind: 3333 2000 0 
big blind: 2222 115 2000 
5555 31584 4000 
1111 982 144 
7777 7914 2000 
/seat 
blind/ 
3333: 50 
2222: 100 
/blind 
player 3333:hold/ 
SPADES 8 
SPADES J 
/hold 
player 2222:hold/ 
CLUBS 5 
CLUBS 10 
/hold 
player 5555:hold/ 
HEARTS 5 
HEARTS 7 
/hold 
player 1111:hold/ 
SPADES 3 
CLUBS J 
/hold 
player 7777:hold/ 
CLUBS 8 
SPADES 7 
/hold 
player 4444:hold/ 
CLUBS 2 
SPADES 4 
/hold 

---pre flop round bet---
valid player: 6, all in player: 0, fold player: 0
send inquire msg to player 5555 
inquire/ 
2222 15 2000 100 blind 
3333 1950 0 50 blind 
total pot: 150 
/inquire 
recv from player 5555: raise 0
send inquire msg to player 1111 
inquire/ 
5555 31384 4000 200 raise 
2222 15 2000 100 blind 
3333 1950 0 50 blind 
total pot: 350 
/inquire 
recv from player 1111: raise 0
send inquire msg to player 7777 
inquire/ 
1111 682 144 300 raise 
5555 31384 4000 200 raise 
2222 15 2000 100 blind 
3333 1950 0 50 blind 
total pot: 650 
/inquire 
recv from player 7777: check
send inquire msg to player 4444 
inquire/ 
7777 7614 2000 300 call 
1111 682 144 300 raise 
5555 31384 4000 200 raise 
2222 15 2000 100 blind 
3333 1950 0 50 blind 
total pot: 950 
/inquire 
recv from player 4444: check
send inquire msg to player 3333 
inquire/ 
4444 20929 8000 300 call 
7777 7614 2000 300 call 
1111 682 144 300 raise 
5555 31384 4000 200 raise 
2222 15 2000 100 blind 
3333 1950 0 50 blind 
total pot: 1250 
/inquire 
recv from player 3333: check
send inquire msg to player 2222 
inquire/ 
3333 1700 0 300 call 
4444 20929 8000 300 call 
7777 7614 2000 300 call 
1111 682 144 300 raise 
5555 31384 4000 200 raise 
2222 15 2000 100 blind 
total pot: 1500 
/inquire 
recv from player 2222: check
send inquire msg to player 5555 
inquire/ 
2222 0 2000 115 all_in 
3333 1700 0 300 call 
4444 20929 8000 300 call 
7777 7614 2000 300 call 
1111 682 144 300 raise 
5555 31384 4000 200 raise 
total pot: 1515 
/inquire 
recv from player 5555: check
flop/ 
SPADES 9 
DIAMONDS K 
DIAMONDS J 
/flop 

---flop round bet---
valid player: 6, all in player: 1, fold player: 0
send inquire msg to player 3333 
inquire/ 
4444 20929 8000 300 call 
7777 7614 2000 300 call 
1111 682 144 300 raise 
5555 31284 4000 300 call 
2222 0 2000 115 all_in 
3333 1700 0 300 call 
total pot: 1615 
/inquire 
recv from player 3333: fold
send inquire msg to player 5555 
inquire/ 
2222 0 2000 115 all_in 
3333 1700 0 300 fold 
4444 20929 8000 300 call 
7777 7614 2000 300 call 
1111 682 144 300 raise 
5555 31284 4000 300 call 
total pot: 1615 
/inquire 
recv from player 5555: raise 0
send inquire msg to player 1111 
inquire/ 
5555 31184 4000 400 raise 
2222 0 2000 115 all_in 
3333 1700 0 300 fold 
4444 20929 8000 300 call 
7777 7614 2000 300 call 
1111 682 144 300 raise 
total pot: 1715 
/inquire 
recv from player 1111: check
send inquire msg to player 7777 
inquire/ 
1111 582 144 400 call 
5555 31184 4000 400 raise 
2222 0 2000 115 all_in 
3333 1700 0 300 fold 
4444 20929 8000 300 call 
7777 7614 2000 300 call 
total pot: 1815 
/inquire 
recv from player 7777: fold
send inquire msg to player 4444 
inquire/ 
7777 7614 2000 300 fold 
1111 582 144 400 call 
5555 31184 4000 400 raise 
2222 0 2000 115 all_in 
3333 1700 0 300 fold 
4444 20929 8000 300 call 
total pot: 1815 
/inquire 
recv from player 4444: check
turn/ 
CLUBS 9 
/turn 

---turn round bet---
valid player: 6, all in player: 1, fold player: 2
send inquire msg to player 5555 
inquire/ 
2222 0 2000 115 all_in 
3333 1700 0 300 fold 
4444 20829 8000 400 call 
7777 7614 2000 300 fold 
1111 582 144 400 call 
5555 31184 4000 400 raise 
total pot: 1915 
/inquire 
recv from player 5555: check
send inquire msg to player 1111 
inquire/ 
5555 31184 4000 400 check 
2222 0 2000 115 all_in 
3333 1700 0 300 fold 
4444 20829 8000 400 call 
7777 7614 2000 300 fold 
1111 582 144 400 call 
total pot: 1915 
/inquire 
recv from player 1111: fold
send inquire msg to player 4444 
inquire/ 
7777 7614 2000 300 fold 
1111 582 144 400 fold 
5555 31184 4000 400 check 
2222 0 2000 115 all_in 
3333 1700 0 300 fold 
4444 20829 8000 400 call 
total pot: 1915 
/inquire 
recv from player 4444: fold
river/ 
HEARTS 3 
/river 

---river round bet---
valid player: 6, all in player: 1, fold player: 4

---show down---
showdown/ 
common/ 
SPADES 9 
DIAMONDS K 
DIAMONDS J 
CLUBS 9 
HEARTS 3 
/common 
1: 2222 CLUBS 5 CLUBS 10 ONE_PAIR 
2: 5555 HEARTS 5 HEARTS 7 ONE_PAIR 
/showdown 

---Allocate pot---
pot-win/ 
2222: 1630 
5555: 285 
/pot-win 
it is player 3333's turn to be button

-----47 Hand-----
seat/ 
button: 3333 1700 0 
small blind: 2222 1630 2000 
big blind: 5555 31469 4000 
1111 582 144 
7777 7614 2000 
4444 20829 8000 
/seat 
blind/ 
2222: 50 
5555: 100 
/blind 
player 2222:hold/ 
SPADES 7 
HEARTS 6 
/hold 
player 5555:hold/ 
CLUBS J 
DIAMONDS 4 
/hold 
player 1111:hold/ 
SPADES 9 
DIAMONDS 3 
/hold 
player 7777:hold/ 
DIAMONDS 2 
DIAMONDS K 
/hold 
player 4444:hold/ 
HEARTS K 
CLUBS Q 
/hold 
player 3333:hold/ 
SPADES Q 
SPADES 10 
/hold 

---pre flop round bet---
valid player: 6, all in player: 0, fold player: 0
send inquire msg to player 1111 
inquire/ 
5555 31369 4000 100 blind 
2222 1580 2000 50 blind 
total pot: 150 
/inquire 
recv from player 1111: fold
send inquire msg to player 7777 
inquire/ 
1111 582 144 0 fold 
5555 31369 4000 100 blind 
2222 1580 2000 50 blind 
total pot: 150 
/inquire 
recv from player 7777: check
send inquire msg to player 4444 
inquire/ 
7777 7514 2000 100 call 
1111 582 144 0 fold 
5555 31369 4000 100 blind 
2222 1580 2000 50 blind 
total pot: 250 
/inquire 
recv from player 4444: raise 2527
send inquire msg to player 3333 
inquire/ 
4444 18202 8000 2627 raise 
7777 7514 2000 100 call 
1111 582 144 0 fold 
5555 31369 4000 100 blind 
2222 1580 2000 50 blind 
total pot: 2877 
/inquire 
recv from player 3333: fold
send inquire msg to player 2222 
inquire/ 
3333 1700 0 0 fold 
4444 18202 8000 2627 raise 
7777 7514 2000 100 call 
1111 582 144 0 fold 
5555 31369 4000 100 blind 
2222 1580 2000 50 blind 
total pot: 2877 
/inquire 
recv from player 2222: fold
send inquire msg to player 5555 
inquire/ 
2222 1580 2000 50 fold 
3333 1700 0 0 fold 
4444 18202 8000 2627 raise 
7777 7514 2000 100 call 
1111 582 144 0 fold 
5555 31369 4000 100 blind 
total pot: 2877 
/inquire 
recv from player 5555: check
send inquire msg to player 7777 
inquire/ 
1111 582 144 0 fold 
5555 28842 4000 2627 call 
2222 1580 2000 50 fold 
3333 1700 0 0 fold 
4444 18202 8000 2627 raise 
7777 7514 2000 100 call 
total pot: 5404 
/inquire 
recv from player 7777: check
flop/ 
HEARTS 8 
SPADES K 
DIAMONDS A 
/flop 

---flop round bet---
valid player: 6, all in player: 0, fold player: 3
send inquire msg to player 5555 
inquire/ 
2222 1580 2000 50 fold 
3333 1700 0 0 fold 
4444 18202 8000 2627 raise 
7777 4987 2000 2627 call 
1111 582 144 0 fold 
5555 28842 4000 2627 call 
total pot: 7931 
/inquire 
recv from player 5555: raise 0
send inquire msg to player 7777 
inquire/ 
1111 582 144 0 fold 
5555 28742 4000 2727 raise 
2222 1580 2000 50 fold 
3333 1700 0 0 fold 
4444 18202 8000 2627 raise 
7777 4987 2000 2627 call 
total pot: 8031 
/inquire 
recv from player 7777: fold
send inquire msg to player 4444 
inquire/ 
7777 4987 2000 2627 fold 
1111 582 144 0 fold 
5555 28742 4000 2727 raise 
2222 1580 2000 50 fold 
3333 1700 0 0 fold 
4444 18202 8000 2627 raise 
total pot: 8031 
/inquire 
recv from player 4444: check
turn/ 
DIAMONDS 5 
/turn 

---turn round bet---
valid player: 6, all in player: 0, fold player: 4
send inquire msg to player 5555 
inquire/ 
2222 1580 2000 50 fold 
3333 1700 0 0 fold 
4444 18102 8000 2727 call 
7777 4987 2000 2627 fold 
1111 582 144 0 fold 
5555 28742 4000 2727 raise 
total pot: 8131 
/inquire 
recv from player 5555: raise 0
send inquire msg to player 4444 
inquire/ 
7777 4987 2000 2627 fold 
1111 582 144 0 fold 
5555 28642 4000 2827 raise 
2222 1580 2000 50 fold 
3333 1700 0 0 fold 
4444 18102 8000 2727 call 
total pot: 8231 
/inquire 
recv from player 4444: check
river/ 
CLUBS 8 
/river 

---river round bet---
valid player: 6, all in player: 0, fold player: 4
send inquire msg to player 5555 
inquire/ 
2222 1580 2000 50 fold 
3333 1700 0 0 fold 
4444 18002 8000 2827 call 
7777 4987 2000 2627 fold 
1111 582 144 0 fold 
5555 28642 4000 2827 raise 
total pot: 8331 
/inquire 
recv from player 5555: raise 0
send inquire msg to player 4444 
inquire/ 
7777 4987 2000 2627 fold 
1111 582 144 0 fold 
5555 28542 4000 2927 raise 
2222 1580 2000 50 fold 
3333 1700 0 0 fold 
4444 18002 8000 2827 call 
total pot: 8431 
/inquire 
recv from player 4444: check

---show down---
showdown/ 
common/ 
HEARTS 8 
SPADES K 
DIAMONDS A 
DIAMONDS 5 
CLUBS 8 
/common 
2: 5555 CLUBS J DIAMONDS 4 ONE_PAIR 
1: 4444 HEARTS K CLUBS Q TWO_PAIR 
/showdown 

---Allocate pot---
pot-win/ 
4444: 8531 
/pot-win 
it is player 2222's turn to be button

-----48 Hand-----
seat/ 
button: 2222 1580 2000 
small blind: 5555 28542 4000 
big blind: 1111 582 144 
7777 4987 2000 
4444 26433 8000 
3333 1700 0 
/seat 
blind/ 
5555: 50 
1111: 100 
/blind 
player 5555:hold/ 
HEARTS 8 
SPADES 10 
/hold 
player 1111:hold/ 
DIAMONDS 2 
HEARTS Q 
/hold 
player 7777:hold/ 
CLUBS 9 
DIAMONDS J 
/hold 
player 4444:hold/ 
SPADES Q 
DIAMONDS 9 
/hold 
player 3333:hold/ 
DIAMONDS A 
SPADES J 
/hold 
player 2222:hold/ 
CLUBS 10 
HEARTS J 
/hold 

---pre flop round bet---
valid player: 6, all in player: 0, fold player: 0
send inquire msg to player 7777 
inquire/ 
1111 482 144 100 blind 
5555 28492 4000 50 blind 
total pot: 150 
/inquire 
recv from player 7777: check
send inquire msg to player 4444 
inquire/ 
7777 4887 2000 100 call 
1111 482 144 100 blind 
5555 28492 4000 50 blind 
total pot: 250 
/inquire 
recv from player 4444: raise 1749
send inquire msg to player 3333 
inquire/ 
4444 24584 8000 1849 raise 
7777 4887 2000 100 call 
1111 482 144 100 blind 
5555 28492 4000 50 blind 
total pot: 2099 
/inquire 
recv from player 3333: fold
send inquire msg to player 2222 
inquire/ 
3333 1700 0 0 fold 
4444 24584 8000 1849 raise 
7777 4887 2000 100 call 
1111 482 144 100 blind 
5555 28492 4000 50 blind 
total pot: 2099 
/inquire 
recv from player 2222: fold
send inquire msg to player 5555 
inquire/ 
2222 1580 2000 0 fold 
3333 1700 0 0 fold 
4444 24584 8000 1849 raise 
7777 4887 2000 100 call 
1111 482 144 100 blind 
5555 28492 4000 50 blind 
total pot: 2099 
/inquire 
recv from player 5555: raise 0
send inquire msg to player 1111 
inquire/ 
5555 24944 4000 3598 raise 
2222 1580 2000 0 fold 
3333 1700 0 0 fold 
4444 24584 8000 1849 raise 
7777 4887 2000 100 call 
1111 482 144 100 blind 
total pot: 5647 
/inquire 
recv from player 1111: fold
send inquire msg to player 7777 
inquire/ 
1111 482 144 100 fold 
5555 24944 4000 3598 raise 
2222 1580 2000 0 fold 
3333 1700 0 0 fold 
4444 24584 8000 1849 raise 
7777 4887 2000 100 call 
total pot: 5647 
/inquire 
recv from player 7777: check
send inquire msg to player 4444 
inquire/ 
7777 1389 2000 3598 call 
1111 482 144 100 fold 
5555 24944 4000 3598 raise 
2222 1580 2000 0 fold 
3333 1700 0 0 fold 
4444 24584 8000 1849 raise 
total pot: 9145 
/inquire 
recv from player 4444: check
flop/ 
SPADES 7 
HEARTS 3 
CLUBS 5 
/flop 

---flop round bet---
valid player: 6, all in player: 0, fold player: 3
send inquire msg to player 5555 
inquire/ 
2222 1580 2000 0 fold 
3333 1700 0 0 fold 
4444 22835 8000 3598 call 
7777 1389 2000 3598 call 
1111 482 144 100 fold 
5555 24944 4000 3598 raise 
total pot: 10894 
/inquire 
recv from player 5555: check
send inquire msg to player 7777 
inquire/ 
1111 482 144 100 fold 
5555 24944 4000 3598 check 
2222 1580 2000 0 fold 
3333 1700 0 0 fold 
4444 22835 8000 3598 call 
7777 1389 2000 3598 call 
total pot: 10894 
/inquire 
recv from player 7777: fold
send inquire msg to player 4444 
inquire/ 
7777 1389 2000 3598 fold 
1111 482 144 100 fold 
5555 24944 4000 3598 check 
2222 1580 2000 0 fold 
3333 1700 0 0 fold 
4444 22835 8000 3598 call 
total pot: 10894 
/inquire 
recv from player 4444: check
turn/ 
DIAMONDS 5 
/turn 

---turn round bet---
valid player: 6, all in player: 0, fold player: 4
send inquire msg to player 5555 
inquire/ 
2222 1580 2000 0 fold 
3333 1700 0 0 fold 
4444 22835 8000 3598 check 
7777 1389 2000 3598 fold 
1111 482 144 100 fold 
5555 24944 4000 3598 check 
total pot: 10894 
/inquire 
recv from player 5555: raise 0
send inquire msg to player 4444 
inquire/ 
7777 1389 2000 3598 fold 
1111 482 144 100 fold 
5555 24844 4000 3698 raise 
2222 1580 2000 0 fold 
3333 1700 0 0 fold 
4444 22835 8000 3598 check 
total pot: 10994 
/inquire 
recv from player 4444: check
river/ 
DIAMONDS 10 
/river 

---river round bet---
valid player: 6, all in player: 0, fold player: 4
send inquire msg to player 5555 
inquire/ 
2222 1580 2000 0 fold 
3333 1700 0 0 fold 
4444 22735 8000 3698 call 
7777 1389 2000 3598 fold 
1111 482 144 100 fold 
5555 24844 4000 3698 raise 
total pot: 11094 
/inquire 
recv from player 5555: check
send inquire msg to player 4444 
inquire/ 
7777 1389 2000 3598 fold 
1111 482 144 100 fold 
5555 24844 4000 3698 check 
2222 1580 2000 0 fold 
3333 1700 0 0 fold 
4444 22735 8000 3698 call 
total pot: 11094 
/inquire 
recv from player 4444: check

---show down---
showdown/ 
common/ 
SPADES 7 
HEARTS 3 
CLUBS 5 
DIAMONDS 5 
DIAMONDS 10 
/common 
1: 5555 HEARTS 8 SPADES 10 TWO_PAIR 
2: 4444 SPADES Q DIAMONDS 9 ONE_PAIR 
/showdown 

---Allocate pot---
pot-win/ 
5555: 11094 
/pot-win 
it is player 5555's turn to be button

-----49 Hand-----
seat/ 
button: 5555 35938 4000 
small blind: 1111 482 144 
big blind: 7777 1389 2000 
4444 22735 8000 
3333 1700 0 
2222 1580 2000 
/seat 
blind/ 
1111: 50 
7777: 100 
/blind 
player 1111:hold/ 
DIAMONDS 8 
DIAMONDS 3 
/hold 
player 7777:hold/ 
DIAMONDS K 
HEARTS 6 
/hold 
player 4444:hold/ 
CLUBS 2 
HEARTS Q 
/hold 
player 3333:hold/ 
DIAMONDS J 
HEARTS K 
/hold 
player 2222:hold/ 
CLUBS 10 
CLUBS 6 
/hold 
player 5555:hold/ 
CLUBS K 
CLUBS 5 
/hold 

---pre flop round bet---
valid player: 6, all in player: 0, fold player: 0
send inquire msg to player 4444 
inquire/ 
7777 1289 2000 100 blind 
1111 432 144 50 blind 
total pot: 150 
/inquire 
recv from player 4444: raise 394
send inquire msg to player 3333 
inquire/ 
4444 22241 8000 494 raise 
7777 1289 2000 100 blind 
1111 432 144 50 blind 
total pot: 644 
/inquire 
recv from player 3333: fold
send inquire msg to player 2222 
inquire/ 
3333 1700 0 0 fold 
4444 22241 8000 494 raise 
7777 1289 2000 100 blind 
1111 432 144 50 blind 
total pot: 644 
/inquire 
recv from player 2222: fold
send inquire msg to player 5555 
inquire/ 
2222 1580 2000 0 fold 
3333 1700 0 0 fold 
4444 22241 8000 494 raise 
7777 1289 2000 100 blind 
1111 432 144 50 blind 
total pot: 644 
/inquire 
recv from player 5555: raise 0
send inquire msg to player 1111 
inquire/ 
5555 35050 4000 888 raise 
2222 1580 2000 0 fold 
3333 1700 0 0 fold 
4444 22241 8000 494 raise 
7777 1289 2000 100 blind 
1111 432 144 50 blind 
total pot: 1532 
/inquire 
recv from player 1111: fold
send inquire msg to player 7777 
inquire/ 
1111 432 144 50 fold 
5555 35050 4000 888 raise 
2222 1580 2000 0 fold 
3333 1700 0 0 fold 
4444 22241 8000 494 raise 
7777 1289 2000 100 blind 
total pot: 1532 
/inquire 
recv from player 7777: fold
send inquire msg to player 4444 
inquire/ 
7777 1289 2000 100 fold 
1111 432 144 50 fold 
5555 35050 4000 888 raise 
2222 1580 2000 0 fold 
3333 1700 0 0 fold 
4444 22241 8000 494 raise 
total pot: 1532 
/inquire 
recv from player 4444: fold

---flop round bet---
valid player: 6, all in player: 0, fold player: 5

---turn round bet---
valid player: 6, all in player: 0, fold player: 5

---river round bet---
valid player: 6, all in player: 0, fold player: 5

--- 1 players not fold, don't need show down---

---Allocate pot---
Only player at seat 7 not fold, win all the pot 1532
pot-win/ 
5555: 1532 
/pot-win 
it is player 1111's turn to be button

-----50 Hand-----
seat/ 
button: 1111 432 144 
small blind: 7777 1289 2000 
big blind: 4444 22241 8000 
3333 1700 0 
2222 1580 2000 
5555 36582 4000 
/seat 
blind/ 
7777: 50 
4444: 100 
/blind 
player 7777:hold/ 
HEARTS 5 
HEARTS J 
/hold 
player 4444:hold/ 
DIAMONDS A 
DIAMONDS 6 
/hold 
player 3333:hold/ 
SPADES A 
CLUBS Q 
/hold 
player 2222:hold/ 
DIAMONDS 4 
HEARTS 10 
/hold 
player 5555:hold/ 
CLUBS 5 
SPADES 9 
/hold 
player 1111:hold/ 
CLUBS 4 
HEARTS K 
/hold 

---pre flop round bet---
valid player: 6, all in player: 0, fold player: 0
send inquire msg to player 3333 
inquire/ 
4444 22141 8000 100 blind 
7777 1239 2000 50 blind 
total pot: 150 
/inquire 
recv from player 3333: fold
send inquire msg to player 2222 
inquire/ 
3333 1700 0 0 fold 
4444 22141 8000 100 blind 
7777 1239 2000 50 blind 
total pot: 150 
/inquire 
recv from player 2222: check
send inquire msg to player 5555 
inquire/ 
2222 1480 2000 100 call 
3333 1700 0 0 fold 
4444 22141 8000 100 blind 
7777 1239 2000 50 blind 
total pot: 250 
/inquire 
recv from player 5555: check
send inquire msg to player 1111 
inquire/ 
5555 36482 4000 100 call 
2222 1480 2000 100 call 
3333 1700 0 0 fold 
4444 22141 8000 100 blind 
7777 1239 2000 50 blind 
total pot: 350 
/inquire 
recv from player 1111: fold
send inquire msg to player 7777 
inquire/ 
1111 432 144 0 fold 
5555 36482 4000 100 call 
2222 1480 2000 100 call 
3333 1700 0 0 fold 
4444 22141 8000 100 blind 
7777 1239 2000 50 blind 
total pot: 350 
/inquire 
recv from player 7777: check
send inquire msg to player 4444 
inquire/ 
7777 1189 2000 100 call 
1111 432 144 0 fold 
5555 36482 4000 100 call 
2222 1480 2000 100 call 
3333 1700 0 0 fold 
4444 22141 8000 100 blind 
total pot: 400 
/inquire 
recv from player 4444: raise 1604
send inquire msg to player 2222 
inquire/ 
3333 1700 0 0 fold 
4444 20537 8000 1704 raise 
7777 1189 2000 100 call 
1111 432 144 0 fold 
5555 36482 4000 100 call 
2222 1480 2000 100 call 
total pot: 2004 
/inquire 
recv from player 2222: check
send inquire msg to player 5555 
inquire/ 
2222 0 2000 1580 all_in 
3333 1700 0 0 fold 
4444 20537 8000 1704 raise 
7777 1189 2000 100 call 
1111 432 144 0 fold 
5555 36482 4000 100 call 
total pot: 3484 
/inquire 
recv from player 5555: check
send inquire msg to player 7777 
inquire/ 
1111 432 144 0 fold 
5555 34878 4000 1704 call 
2222 0 2000 1580 all_in 
3333 1700 0 0 fold 
4444 20537 8000 1704 raise 
7777 1189 2000 100 call 
total pot: 5088 
/inquire 
recv from player 7777: check
flop/ 
CLUBS 6 
CLUBS 9 
DIAMONDS 7 
/flop 

---flop round bet---
valid player: 6, all in player: 2, fold player: 2
send inquire msg to player 4444 
inquire/ 
7777 0 2000 1289 all_in 
1111 432 144 0 fold 
5555 34878 4000 1704 call 
2222 0 2000 1580 all_in 
3333 1700 0 0 fold 
4444 20537 8000 1704 raise 
total pot: 6277 
/inquire 
recv from player 4444: check
send inquire msg to player 5555 
inquire/ 
2222 0 2000 1580 all_in 
3333 1700 0 0 fold 
4444 20537 8000 1704 check 
7777 0 2000 1289 all_in 
1111 432 144 0 fold 
5555 34878 4000 1704 call 
total pot: 6277 
/inquire 
recv from player 5555: raise 0
send inquire msg to player 4444 
inquire/ 
7777 0 2000 1289 all_in 
1111 432 144 0 fold 
5555 34778 4000 1804 raise 
2222 0 2000 1580 all_in 
3333 1700 0 0 fold 
4444 20537 8000 1704 check 
total pot: 6377 
/inquire 
recv from player 4444: check
turn/ 
CLUBS 2 
/turn 

---turn round bet---
valid player: 6, all in player: 2, fold player: 2
send inquire msg to player 4444 
inquire/ 
7777 0 2000 1289 all_in 
1111 432 144 0 fold 
5555 34778 4000 1804 raise 
2222 0 2000 1580 all_in 
3333 1700 0 0 fold 
4444 20437 8000 1804 call 
total pot: 6477 
/inquire 
recv from player 4444: check
send inquire msg to player 5555 
inquire/ 
2222 0 2000 1580 all_in 
3333 1700 0 0 fold 
4444 20437 8000 1804 check 
7777 0 2000 1289 all_in 
1111 432 144 0 fold 
5555 34778 4000 1804 raise 
total pot: 6477 
/inquire 
recv from player 5555: check
river/ 
SPADES 3 
/river 

---river round bet---
valid player: 6, all in player: 2, fold player: 2
send inquire msg to player 4444 
inquire/ 
7777 0 2000 1289 all_in 
1111 432 144 0 fold 
5555 34778 4000 1804 check 
2222 0 2000 1580 all_in 
3333 1700 0 0 fold 
4444 20437 8000 1804 check 
total pot: 6477 
/inquire 
recv from player 4444: check
send inquire msg to player 5555 
inquire/ 
2222 0 2000 1580 all_in 
3333 1700 0 0 fold 
4444 20437 8000 1804 check 
7777 0 2000 1289 all_in 
1111 432 144 0 fold 
5555 34778 4000 1804 check 
total pot: 6477 
/inquire 
recv from player 5555: raise 0
send inquire msg to player 4444 
inquire/ 
7777 0 2000 1289 all_in 
1111 432 144 0 fold 
5555 34678 4000 1904 raise 
2222 0 2000 1580 all_in 
3333 1700 0 0 fold 
4444 20437 8000 1804 check 
total pot: 6577 
/inquire 
recv from player 4444: check

---show down---
showdown/ 
common/ 
CLUBS 6 
CLUBS 9 
DIAMONDS 7 
CLUBS 2 
SPADES 3 
/common 
3: 7777 HEARTS 5 HEARTS J HIGH_CARD 
2: 4444 DIAMONDS A DIAMONDS 6 ONE_PAIR 
4: 2222 DIAMONDS 4 HEARTS 10 HIGH_CARD 
1: 5555 CLUBS 5 SPADES 9 ONE_PAIR 
/showdown 

---Allocate pot---
pot-win/ 
5555: 6677 
/pot-win 
it is player 7777's turn to be button

-----51 Hand-----
seat/ 
button: 7777 2000 0 
small blind: 4444 20337 8000 
big blind: 3333 1700 0 
2222 2000 0 
5555 41355 4000 
1111 432 144 
/seat 
blind/ 
4444: 50 
3333: 100 
/blind 
player 4444:hold/ 
SPADES 6 
CLUBS Q 
/hold 
player 3333:hold/ 
SPADES 3 
HEARTS 5 
/hold 
player 2222:hold/ 
HEARTS 10 
SPADES Q 
/hold 
player 5555:hold/ 
HEARTS 3 
DIAMONDS J 
/hold 
player 1111:hold/ 
DIAMONDS A 
SPADES 4 
/hold 
player 7777:hold/ 
CLUBS A 
CLUBS 3 
/hold 

---pre flop round bet---
valid player: 6, all in player: 0, fold player: 0
send inquire msg to player 2222 
inquire/ 
3333 1600 0 100 blind 
4444 20287 8000 50 blind 
total pot: 150 
/inquire 
recv from player 2222: check
send inquire msg to player 5555 
inquire/ 
2222 1900 0 100 call 
3333 1600 0 100 blind 
4444 20287 8000 50 blind 
total pot: 250 
/inquire 
recv from player 5555: check
send inquire msg to player 1111 
inquire/ 
5555 41255 4000 100 call 
2222 1900 0 100 call 
3333 1600 0 100 blind 
4444 20287 8000 50 blind 
total pot: 350 
/inquire 
recv from player 1111: check
send inquire msg to player 7777 
inquire/ 
1111 332 144 100 call 
5555 41255 4000 100 call 
2222 1900 0 100 call 
3333 1600 0 100 blind 
4444 20287 8000 50 blind 
total pot: 450 
/inquire 
recv from player 7777: check
send inquire msg to player 4444 
inquire/ 
7777 1900 0 100 call 
1111 332 144 100 call 
5555 41255 4000 100 call 
2222 1900 0 100 call 
3333 1600 0 100 blind 
4444 20287 8000 50 blind 
total pot: 550 
/inquire 
recv from player 4444: check
send inquire msg to player 3333 
inquire/ 
4444 20237 8000 100 call 
7777 1900 0 100 call 
1111 332 144 100 call 
5555 41255 4000 100 call 
2222 1900 0 100 call 
3333 1600 0 100 blind 
total pot: 600 
/inquire 
recv from player 3333: raise 0
send inquire msg to player 2222 
inquire/ 
3333 1500 0 200 raise 
4444 20237 8000 100 call 
7777 1900 0 100 call 
1111 332 144 100 call 
5555 41255 4000 100 call 
2222 1900 0 100 call 
total pot: 700 
/inquire 
recv from player 2222: fold
send inquire msg to player 5555 
inquire/ 
2222 1900 0 100 fold 
3333 1500 0 200 raise 
4444 20237 8000 100 call 
7777 1900 0 100 call 
1111 332 144 100 call 
5555 41255 4000 100 call 
total pot: 700 
/inquire 
recv from player 5555: check
send inquire msg to player 1111 
inquire/ 
5555 41155 4000 200 call 
2222 1900 0 100 fold 
3333 1500 0 200 raise 
4444 20237 8000 100 call 
7777 1900 0 100 call 
1111 332 144 100 call 
total pot: 800 
/inquire 
recv from player 1111: raise 0
send inquire msg to player 7777 
inquire/ 
1111 132 144 300 raise 
5555 41155 4000 200 call 
2222 1900 0 100 fold 
3333 1500 0 200 raise 
4444 20237 8000 100 call 
7777 1900 0 100 call 
total pot: 1000 
/inquire 
recv from player 7777: check
send inquire msg to player 4444 
inquire/ 
7777 1700 0 300 call 
1111 132 144 300 raise 
5555 41155 4000 200 call 
2222 1900 0 100 fold 
3333 1500 0 200 raise 
4444 20237 8000 100 call 
total pot: 1200 
/inquire 
recv from player 4444: raise 195
send inquire msg to player 3333 
inquire/ 
4444 19842 8000 495 raise 
7777 1700 0 300 call 
1111 132 144 300 raise 
5555 41155 4000 200 call 
2222 1900 0 100 fold 
3333 1500 0 200 raise 
total pot: 1595 
/inquire 
recv from player 3333: fold
send inquire msg to player 5555 
inquire/ 
2222 1900 0 100 fold 
3333 1500 0 200 fold 
4444 19842 8000 495 raise 
7777 1700 0 300 call 
1111 132 144 300 raise 
5555 41155 4000 200 call 
total pot: 1595 
/inquire 
recv from player 5555: raise 0
send inquire msg to player 1111 
inquire/ 
5555 40665 4000 690 raise 
2222 1900 0 100 fold 
3333 1500 0 200 fold 
4444 19842 8000 495 raise 
7777 1700 0 300 call 
1111 132 144 300 raise 
total pot: 2085 
/inquire 
recv from player 1111: check
send inquire msg to player 7777 
inquire/ 
1111 0 144 432 all_in 
5555 40665 4000 690 raise 
2222 1900 0 100 fold 
3333 1500 0 200 fold 
4444 19842 8000 495 raise 
7777 1700 0 300 call 
total pot: 2217 
/inquire 
recv from player 7777: check
send inquire msg to player 4444 
inquire/ 
7777 1310 0 690 call 
1111 0 144 432 all_in 
5555 40665 4000 690 raise 
2222 1900 0 100 fold 
3333 1500 0 200 fold 
4444 19842 8000 495 raise 
total pot: 2607 
/inquire 
recv from player 4444: check
flop/ 
DIAMONDS 9 
SPADES J 
DIAMONDS K 
/flop 

---flop round bet---
valid player: 6, all in player: 1, fold player: 2
send inquire msg to player 4444 
inquire/ 
7777 1310 0 690 call 
1111 0 144 432 all_in 
5555 40665 4000 690 raise 
2222 1900 0 100 fold 
3333 1500 0 200 fold 
4444 19647 8000 690 call 
total pot: 2802 
/inquire 
recv from player 4444: check
send inquire msg to player 5555 
inquire/ 
2222 1900 0 100 fold 
3333 1500 0 200 fold 
4444 19647 8000 690 check 
7777 1310 0 690 call 
1111 0 144 432 all_in 
5555 40665 4000 690 raise 
total pot: 2802 
/inquire 
recv from player 5555: check
send inquire msg to player 7777 
inquire/ 
1111 0 144 432 all_in 
5555 40665 4000 690 check 
2222 1900 0 100 fold 
3333 1500 0 200 fold 
4444 19647 8000 690 check 
7777 1310 0 690 call 
total pot: 2802 
/inquire 
recv from player 7777: fold
turn/ 
SPADES K 
/turn 

---turn round bet---
valid player: 6, all in player: 1, fold player: 3
send inquire msg to player 4444 
inquire/ 
7777 1310 0 690 fold 
1111 0 144 432 all_in 
5555 40665 4000 690 check 
2222 1900 0 100 fold 
3333 1500 0 200 fold 
4444 19647 8000 690 check 
total pot: 2802 
/inquire 
recv from player 4444: check
send inquire msg to player 5555 
inquire/ 
2222 1900 0 100 fold 
3333 1500 0 200 fold 
4444 19647 8000 690 check 
7777 1310 0 690 fold 
1111 0 144 432 all_in 
5555 40665 4000 690 check 
total pot: 2802 
/inquire 
recv from player 5555: check
river/ 
DIAMONDS 4 
/river 

---river round bet---
valid player: 6, all in player: 1, fold player: 3
send inquire msg to player 4444 
inquire/ 
7777 1310 0 690 fold 
1111 0 144 432 all_in 
5555 40665 4000 690 check 
2222 1900 0 100 fold 
3333 1500 0 200 fold 
4444 19647 8000 690 check 
total pot: 2802 
/inquire 
recv from player 4444: check
send inquire msg to player 5555 
inquire/ 
2222 1900 0 100 fold 
3333 1500 0 200 fold 
4444 19647 8000 690 check 
7777 1310 0 690 fold 
1111 0 144 432 all_in 
5555 40665 4000 690 check 
total pot: 2802 
/inquire 
recv from player 5555: check

---show down---
showdown/ 
common/ 
DIAMONDS 9 
SPADES J 
DIAMONDS K 
SPADES K 
DIAMONDS 4 
/common 
3: 4444 SPADES 6 CLUBS Q ONE_PAIR 
1: 5555 HEARTS 3 DIAMONDS J TWO_PAIR 
2: 1111 DIAMONDS A SPADES 4 TWO_PAIR 
/showdown 

---Allocate pot---
pot-win/ 
5555: 2802 
/pot-win 
it is player 4444's turn to be button

-----52 Hand-----
seat/ 
button: 4444 19647 8000 
small blind: 3333 1500 0 
big blind: 2222 1900 0 
5555 43467 4000 
1111 144 0 
7777 1310 0 
/seat 
blind/ 
3333: 50 
2222: 100 
/blind 
player 3333:hold/ 
DIAMONDS 8 
HEARTS A 
/hold 
player 2222:hold/ 
CLUBS A 
DIAMONDS 7 
/hold 
player 5555:hold/ 
CLUBS 9 
SPADES 10 
/hold 
player 1111:hold/ 
HEARTS Q 
DIAMONDS Q 
/hold 
player 7777:hold/ 
HEARTS K 
SPADES 4 
/hold 
player 4444:hold/ 
HEARTS 3 
SPADES 8 
/hold 

---pre flop round bet---
valid player: 6, all in player: 0, fold player: 0
send inquire msg to player 5555 
inquire/ 
2222 1800 0 100 blind 
3333 1450 0 50 blind 
total pot: 150 
/inquire 
recv from player 5555: check
send inquire msg to player 1111 
inquire/ 
5555 43367 4000 100 call 
2222 1800 0 100 blind 
3333 1450 0 50 blind 
total pot: 250 
/inquire 
recv from player 1111: check
send inquire msg to player 7777 
inquire/ 
1111 44 0 100 call 
5555 43367 4000 100 call 
2222 1800 0 100 blind 
3333 1450 0 50 blind 
total pot: 350 
/inquire 
recv from player 7777: check
send inquire msg to player 4444 
inquire/ 
7777 1210 0 100 call 
1111 44 0 100 call 
5555 43367 4000 100 call 
2222 1800 0 100 blind 
3333 1450 0 50 blind 
total pot: 450 
/inquire 
recv from player 4444: check
send inquire msg to player 3333 
inquire/ 
4444 19547 8000 100 call 
7777 1210 0 100 call 
1111 44 0 100 call 
5555 43367 4000 100 call 
2222 1800 0 100 blind 
3333 1450 0 50 blind 
total pot: 550 
/inquire 
recv from player 3333: fold
send inquire msg to player 2222 
inquire/ 
3333 1450 0 50 fold 
4444 19547 8000 100 call 
7777 1210 0 100 call 
1111 44 0 100 call 
5555 43367 4000 100 call 
2222 1800 0 100 blind 
total pot: 550 
/inquire 
recv from player 2222: fold
flop/ 
DIAMONDS 3 
HEARTS 4 
DIAMONDS 2 
/flop 

---flop round bet---
valid player: 6, all in player: 0, fold player: 2
send inquire msg to player 5555 
inquire/ 
2222 1800 0 100 fold 
3333 1450 0 50 fold 
4444 19547 8000 100 call 
7777 1210 0 100 call 
1111 44 0 100 call 
5555 43367 4000 100 call 
total pot: 550 
/inquire 
recv from player 5555: check
send inquire msg to player 1111 
inquire/ 
5555 43367 4000 100 check 
2222 1800 0 100 fold 
3333 1450 0 50 fold 
4444 19547 8000 100 call 
7777 1210 0 100 call 
1111 44 0 100 call 
total pot: 550 
/inquire 
recv from player 1111: fold
send inquire msg to player 7777 
inquire/ 
1111 44 0 100 fold 
5555 43367 4000 100 check 
2222 1800 0 100 fold 
3333 1450 0 50 fold 
4444 19547 8000 100 call 
7777 1210 0 100 call 
total pot: 550 
/inquire 
recv from player 7777: fold
send inquire msg to player 4444 
inquire/ 
7777 1210 0 100 fold 
1111 44 0 100 fold 
5555 43367 4000 100 check 
2222 1800 0 100 fold 
3333 1450 0 50 fold 
4444 19547 8000 100 call 
total pot: 550 
/inquire 
recv from player 4444: check
turn/ 
CLUBS J 
/turn 

---turn round bet---
valid player: 6, all in player: 0, fold player: 4
send inquire msg to player 5555 
inquire/ 
2222 1800 0 100 fold 
3333 1450 0 50 fold 
4444 19547 8000 100 check 
7777 1210 0 100 fold 
1111 44 0 100 fold 
5555 43367 4000 100 check 
total pot: 550 
/inquire 
recv from player 5555: check
send inquire msg to player 4444 
inquire/ 
7777 1210 0 100 fold 
1111 44 0 100 fold 
5555 43367 4000 100 check 
2222 1800 0 100 fold 
3333 1450 0 50 fold 
4444 19547 8000 100 check 
total pot: 550 
/inquire 
recv from player 4444: check
river/ 
CLUBS K 
/river 

---river round bet---
valid player: 6, all in player: 0, fold player: 4
send inquire msg to player 5555 
inquire/ 
2222 1800 0 100 fold 
3333 1450 0 50 fold 
4444 19547 8000 100 check 
7777 1210 0 100 fold 
1111 44 0 100 fold 
5555 43367 4000 100 check 
total pot: 550 
/inquire 
recv from player 5555: check
send inquire msg to player 4444 
inquire/ 
7777 1210 0 100 fold 
1111 44 0 100 fold 
5555 43367 4000 100 check 
2222 1800 0 100 fold 
3333 1450 0 50 fold 
4444 19547 8000 100 check 
total pot: 550 
/inquire 
recv from player 4444: check

---show down---
showdown/ 
common/ 
DIAMONDS 3 
HEARTS 4 
DIAMONDS 2 
CLUBS J 
CLUBS K 
/common 
2: 5555 CLUBS 9 SPADES 10 HIGH_CARD 
1: 4444 HEARTS 3 SPADES 8 ONE_PAIR 
/showdown 

---Allocate pot---
pot-win/ 
4444: 550 
/pot-win 
it is player 3333's turn to be button

-----53 Hand-----
seat/ 
button: 3333 1450 0 
small blind: 2222 1800 0 
big blind: 5555 43367 4000 
7777 1210 0 
4444 20097 8000 
/seat 
blind/ 
2222: 50 
5555: 100 
/blind 
player 2222:hold/ 
HEARTS 3 
CLUBS 4 
/hold 
player 5555:hold/ 
HEARTS Q 
SPADES A 
/hold 
player 7777:hold/ 
CLUBS A 
DIAMONDS 4 
/hold 
player 4444:hold/ 
SPADES 7 
DIAMONDS A 
/hold 
player 3333:hold/ 
DIAMONDS 2 
CLUBS K 
/hold 

---pre flop round bet---
valid player: 5, all in player: 0, fold player: 0
send inquire msg to player 7777 
inquire/ 
5555 43267 4000 100 blind 
2222 1750 0 50 blind 
total pot: 150 
/inquire 
recv from player 7777: fold
send inquire msg to player 4444 
inquire/ 
7777 1210 0 0 fold 
5555 43267 4000 100 blind 
2222 1750 0 50 blind 
total pot: 150 
/inquire 
recv from player 4444: check
send inquire msg to player 3333 
inquire/ 
4444 19997 8000 100 call 
7777 1210 0 0 fold 
5555 43267 4000 100 blind 
2222 1750 0 50 blind 
total pot: 250 
/inquire 
recv from player 3333: check
send inquire msg to player 2222 
inquire/ 
3333 1350 0 100 call 
4444 19997 8000 100 call 
7777 1210 0 0 fold 
5555 43267 4000 100 blind 
2222 1750 0 50 blind 
total pot: 350 
/inquire 
recv from player 2222: raise 0
send inquire msg to player 5555 
inquire/ 
2222 1600 0 200 raise 
3333 1350 0 100 call 
4444 19997 8000 100 call 
7777 1210 0 0 fold 
5555 43267 4000 100 blind 
total pot: 500 
/inquire 
recv from player 5555: check
send inquire msg to player 4444 
inquire/ 
7777 1210 0 0 fold 
5555 43167 4000 200 call 
2222 1600 0 200 raise 
3333 1350 0 100 call 
4444 19997 8000 100 call 
total pot: 600 
/inquire 
recv from player 4444: raise 1023
send inquire msg to player 3333 
inquire/ 
4444 18874 8000 1223 raise 
7777 1210 0 0 fold 
5555 43167 4000 200 call 
2222 1600 0 200 raise 
3333 1350 0 100 call 
total pot: 1723 
/inquire 
recv from player 3333: fold
send inquire msg to player 2222 
inquire/ 
3333 1350 0 100 fold 
4444 18874 8000 1223 raise 
7777 1210 0 0 fold 
5555 43167 4000 200 call 
2222 1600 0 200 raise 
total pot: 1723 
/inquire 
recv from player 2222: fold
send inquire msg to player 5555 
inquire/ 
2222 1600 0 200 fold 
3333 1350 0 100 fold 
4444 18874 8000 1223 raise 
7777 1210 0 0 fold 
5555 43167 4000 200 call 
total pot: 1723 
/inquire 
recv from player 5555: raise 0
send inquire msg to player 4444 
inquire/ 
7777 1210 0 0 fold 
5555 41121 4000 2246 raise 
2222 1600 0 200 fold 
3333 1350 0 100 fold 
4444 18874 8000 1223 raise 
total pot: 3769 
/inquire 
recv from player 4444: fold

---flop round bet---
valid player: 5, all in player: 0, fold player: 4

---turn round bet---
valid player: 5, all in player: 0, fold player: 4

---river round bet---
valid player: 5, all in player: 0, fold player: 4

--- 1 players not fold, don't need show down---

---Allocate pot---
Only player at seat 1 not fold, win all the pot 3769
pot-win/ 
5555: 3769 
/pot-win 
it is player 2222's turn to be button

-----54 Hand-----
seat/ 
button: 2222 1600 0 
small blind: 5555 44890 4000 
big blind: 7777 1210 0 
4444 18874 8000 
3333 1350 0 
/seat 
blind/ 
5555: 50 
7777: 100 
/blind 
player 5555:hold/ 
SPADES J 
CLUBS 6 
/hold 
player 7777:hold/ 
CLUBS 8 
SPADES 2 
/hold 
player 4444:hold/ 
DIAMONDS 2 
HEARTS 4 
/hold 
player 3333:hold/ 
CLUBS 3 
DIAMONDS 3 
/hold 
player 2222:hold/ 
HEARTS 8 
HEARTS 9 
/hold 

---pre flop round bet---
valid player: 5, all in player: 0, fold player: 0
send inquire msg to player 4444 
inquire/ 
7777 1110 0 100 blind 
5555 44840 4000 50 blind 
total pot: 150 
/inquire 
recv from player 4444: check
send inquire msg to player 3333 
inquire/ 
4444 18774 8000 100 call 
7777 1110 0 100 blind 
5555 44840 4000 50 blind 
total pot: 250 
/inquire 
recv from player 3333: fold
send inquire msg to player 2222 
inquire/ 
3333 1350 0 0 fold 
4444 18774 8000 100 call 
7777 1110 0 100 blind 
5555 44840 4000 50 blind 
total pot: 250 
/inquire 
recv from player 2222: fold
send inquire msg to player 5555 
inquire/ 
2222 1600 0 0 fold 
3333 1350 0 0 fold 
4444 18774 8000 100 call 
7777 1110 0 100 blind 
5555 44840 4000 50 blind 
total pot: 250 
/inquire 
recv from player 5555: check
send inquire msg to player 7777 
inquire/ 
5555 44790 4000 100 call 
2222 1600 0 0 fold 
3333 1350 0 0 fold 
4444 18774 8000 100 call 
7777 1110 0 100 blind 
total pot: 300 
/inquire 
recv from player 7777: check
flop/ 
HEARTS 5 
DIAMONDS A 
SPADES K 
/flop 

---flop round bet---
valid player: 5, all in player: 0, fold player: 2
send inquire msg to player 5555 
inquire/ 
2222 1600 0 0 fold 
3333 1350 0 0 fold 
4444 18774 8000 100 call 
7777 1110 0 100 check 
5555 44790 4000 100 call 
total pot: 300 
/inquire 
recv from player 5555: check
send inquire msg to player 7777 
inquire/ 
5555 44790 4000 100 check 
2222 1600 0 0 fold 
3333 1350 0 0 fold 
4444 18774 8000 100 call 
7777 1110 0 100 check 
total pot: 300 
/inquire 
recv from player 7777: fold
send inquire msg to player 4444 
inquire/ 
7777 1110 0 100 fold 
5555 44790 4000 100 check 
2222 1600 0 0 fold 
3333 1350 0 0 fold 
4444 18774 8000 100 call 
total pot: 300 
/inquire 
recv from player 4444: check
turn/ 
DIAMONDS 6 
/turn 

---turn round bet---
valid player: 5, all in player: 0, fold player: 3
send inquire msg to player 5555 
inquire/ 
2222 1600 0 0 fold 
3333 1350 0 0 fold 
4444 18774 8000 100 check 
7777 1110 0 100 fold 
5555 44790 4000 100 check 
total pot: 300 
/inquire 
recv from player 5555: check
send inquire msg to player 4444 
inquire/ 
7777 1110 0 100 fold 
5555 44790 4000 100 check 
2222 1600 0 0 fold 
3333 1350 0 0 fold 
4444 18774 8000 100 check 
total pot: 300 
/inquire 
recv from player 4444: check
river/ 
CLUBS 9 
/river 

---river round bet---
valid player: 5, all in player: 0, fold player: 3
send inquire msg to player 5555 
inquire/ 
2222 1600 0 0 fold 
3333 1350 0 0 fold 
4444 18774 8000 100 check 
7777 1110 0 100 fold 
5555 44790 4000 100 check 
total pot: 300 
/inquire 
recv from player 5555: check
send inquire msg to player 4444 
inquire/ 
7777 1110 0 100 fold 
5555 44790 4000 100 check 
2222 1600 0 0 fold 
3333 1350 0 0 fold 
4444 18774 8000 100 check 
total pot: 300 
/inquire 
recv from player 4444: check

---show down---
showdown/ 
common/ 
HEARTS 5 
DIAMONDS A 
SPADES K 
DIAMONDS 6 
CLUBS 9 
/common 
1: 5555 SPADES J CLUBS 6 ONE_PAIR 
2: 4444 DIAMONDS 2 HEARTS 4 HIGH_CARD 
/showdown 

---Allocate pot---
pot-win/ 
5555: 300 
/pot-win 
it is player 5555's turn to be button

-----55 Hand-----
seat/ 
button: 5555 45090 4000 
small blind: 7777 1110 0 
big blind: 4444 18774 8000 
3333 1350 0 
2222 1600 0 
/seat 
blind/ 
7777: 50 
4444: 100 
/blind 
player 7777:hold/ 
CLUBS 2 
SPADES 9 
/hold 
player 4444:hold/ 
CLUBS 3 
SPADES 10 
/hold 
player 3333:hold/ 
CLUBS J 
HEARTS 7 
/hold 
player 2222:hold/ 
DIAMONDS 3 
CLUBS 4 
/hold 
player 5555:hold/ 
HEARTS 10 
CLUBS 9 
/hold 

---pre flop round bet---
valid player: 5, all in player: 0, fold player: 0
send inquire msg to player 3333 
inquire/ 
4444 18674 8000 100 blind 
7777 1060 0 50 blind 
total pot: 150 
/inquire 
recv from player 3333: raise 0
send inquire msg to player 2222 
inquire/ 
3333 1150 0 200 raise 
4444 18674 8000 100 blind 
7777 1060 0 50 blind 
total pot: 350 
/inquire 
recv from player 2222: fold
send inquire msg to player 5555 
inquire/ 
2222 1600 0 0 fold 
3333 1150 0 200 raise 
4444 18674 8000 100 blind 
7777 1060 0 50 blind 
total pot: 350 
/inquire 
recv from player 5555: raise 0
send inquire msg to player 7777 
inquire/ 
5555 44790 4000 300 raise 
2222 1600 0 0 fold 
3333 1150 0 200 raise 
4444 18674 8000 100 blind 
7777 1060 0 50 blind 
total pot: 650 
/inquire 
recv from player 7777: check
send inquire msg to player 4444 
inquire/ 
7777 810 0 300 call 
5555 44790 4000 300 raise 
2222 1600 0 0 fold 
3333 1150 0 200 raise 
4444 18674 8000 100 blind 
total pot: 900 
/inquire 
recv from player 4444: check
send inquire msg to player 3333 
inquire/ 
4444 18474 8000 300 call 
7777 810 0 300 call 
5555 44790 4000 300 raise 
2222 1600 0 0 fold 
3333 1150 0 200 raise 
total pot: 1100 
/inquire 
recv from player 3333: fold
flop/ 
SPADES 3 
DIAMONDS K 
HEARTS 3 
/flop 

---flop round bet---
valid player: 5, all in player: 0, fold player: 2
send inquire msg to player 7777 
inquire/ 
5555 44790 4000 300 raise 
2222 1600 0 0 fold 
3333 1150 0 200 fold 
4444 18474 8000 300 call 
7777 810 0 300 call 
total pot: 1100 
/inquire 
recv from player 7777: fold
send inquire msg to player 4444 
inquire/ 
7777 810 0 300 fold 
5555 44790 4000 300 raise 
2222 1600 0 0 fold 
3333 1150 0 200 fold 
4444 18474 8000 300 call 
total pot: 1100 
/inquire 
recv from player 4444: check
send inquire msg to player 5555 
inquire/ 
2222 1600 0 0 fold 
3333 1150 0 200 fold 
4444 18474 8000 300 check 
7777 810 0 300 fold 
5555 44790 4000 300 raise 
total pot: 1100 
/inquire 
recv from player 5555: raise 0
send inquire msg to player 4444 
inquire/ 
7777 810 0 300 fold 
5555 44690 4000 400 raise 
2222 1600 0 0 fold 
3333 1150 0 200 fold 
4444 18474 8000 300 check 
total pot: 1200 
/inquire 
recv from player 4444: check
turn/ 
CLUBS 6 
/turn 

---turn round bet---
valid player: 5, all in player: 0, fold player: 3
send inquire msg to player 4444 
inquire/ 
7777 810 0 300 fold 
5555 44690 4000 400 raise 
2222 1600 0 0 fold 
3333 1150 0 200 fold 
4444 18374 8000 400 call 
total pot: 1300 
/inquire 
recv from player 4444: check
send inquire msg to player 5555 
inquire/ 
2222 1600 0 0 fold 
3333 1150 0 200 fold 
4444 18374 8000 400 check 
7777 810 0 300 fold 
5555 44690 4000 400 raise 
total pot: 1300 
/inquire 
recv from player 5555: raise 0
send inquire msg to player 4444 
inquire/ 
7777 810 0 300 fold 
5555 44590 4000 500 raise 
2222 1600 0 0 fold 
3333 1150 0 200 fold 
4444 18374 8000 400 check 
total pot: 1400 
/inquire 
recv from player 4444: check
river/ 
HEARTS Q 
/river 

---river round bet---
valid player: 5, all in player: 0, fold player: 3
send inquire msg to player 4444 
inquire/ 
7777 810 0 300 fold 
5555 44590 4000 500 raise 
2222 1600 0 0 fold 
3333 1150 0 200 fold 
4444 18274 8000 500 call 
total pot: 1500 
/inquire 
recv from player 4444: check
send inquire msg to player 5555 
inquire/ 
2222 1600 0 0 fold 
3333 1150 0 200 fold 
4444 18274 8000 500 check 
7777 810 0 300 fold 
5555 44590 4000 500 raise 
total pot: 1500 
/inquire 
recv from player 5555: check

---show down---
showdown/ 
common/ 
SPADES 3 
DIAMONDS K 
HEARTS 3 
CLUBS 6 
HEARTS Q 
/common 
1: 4444 CLUBS 3 SPADES 10 THREE_OF_A_KIND 
2: 5555 HEARTS 10 CLUBS 9 ONE_PAIR 
/showdown 

---Allocate pot---
pot-win/ 
4444: 1500 
/pot-win 
it is player 7777's turn to be button

-----56 Hand-----
seat/ 
button: 7777 810 0 
small blind: 4444 19774 8000 
big blind: 3333 1150 0 
2222 1600 0 
5555 44590 4000 
/seat 
blind/ 
4444: 50 
3333: 100 
/blind 
player 4444:hold/ 
DIAMONDS 3 
CLUBS 8 
/hold 
player 3333:hold/ 
SPADES 6 
CLUBS J 
/hold 
player 2222:hold/ 
SPADES 3 
SPADES K 
/hold 
player 5555:hold/ 
DIAMONDS Q 
CLUBS K 
/hold 
player 7777:hold/ 
DIAMONDS 9 
DIAMONDS 8 
/hold 

---pre flop round bet---
valid player: 5, all in player: 0, fold player: 0
send inquire msg to player 2222 
inquire/ 
3333 1050 0 100 blind 
4444 19724 8000 50 blind 
total pot: 150 
/inquire 
recv from player 2222: raise 0
send inquire msg to player 5555 
inquire/ 
2222 1400 0 200 raise 
3333 1050 0 100 blind 
4444 19724 8000 50 blind 
total pot: 350 
/inquire 
recv from player 5555: raise 0
send inquire msg to player 7777 
inquire/ 
5555 44290 4000 300 raise 
2222 1400 0 200 raise 
3333 1050 0 100 blind 
4444 19724 8000 50 blind 
total pot: 650 
/inquire 
recv from player 7777: check
send inquire msg to player 4444 
inquire/ 
7777 510 0 300 call 
5555 44290 4000 300 raise 
2222 1400 0 200 raise 
3333 1050 0 100 blind 
4444 19724 8000 50 blind 
total pot: 950 
/inquire 
recv from player 4444: check
send inquire msg to player 3333 
inquire/ 
4444 19474 8000 300 call 
7777 510 0 300 call 
5555 44290 4000 300 raise 
2222 1400 0 200 raise 
3333 1050 0 100 blind 
total pot: 1200 
/inquire 
recv from player 3333: fold
send inquire msg to player 2222 
inquire/ 
3333 1050 0 100 fold 
4444 19474 8000 300 call 
7777 510 0 300 call 
5555 44290 4000 300 raise 
2222 1400 0 200 raise 
total pot: 1200 
/inquire 
recv from player 2222: check
flop/ 
SPADES Q 
CLUBS 3 
HEARTS A 
/flop 

---flop round bet---
valid player: 5, all in player: 0, fold player: 1
send inquire msg to player 4444 
inquire/ 
7777 510 0 300 call 
5555 44290 4000 300 raise 
2222 1300 0 300 call 
3333 1050 0 100 fold 
4444 19474 8000 300 call 
total pot: 1300 
/inquire 
recv from player 4444: check
send inquire msg to player 2222 
inquire/ 
3333 1050 0 100 fold 
4444 19474 8000 300 check 
7777 510 0 300 call 
5555 44290 4000 300 raise 
2222 1300 0 300 call 
total pot: 1300 
/inquire 
recv from player 2222: fold
send inquire msg to player 5555 
inquire/ 
2222 1300 0 300 fold 
3333 1050 0 100 fold 
4444 19474 8000 300 check 
7777 510 0 300 call 
5555 44290 4000 300 raise 
total pot: 1300 
/inquire 
recv from player 5555: check
send inquire msg to player 7777 
inquire/ 
5555 44290 4000 300 check 
2222 1300 0 300 fold 
3333 1050 0 100 fold 
4444 19474 8000 300 check 
7777 510 0 300 call 
total pot: 1300 
/inquire 
recv from player 7777: fold
turn/ 
HEARTS 3 
/turn 

---turn round bet---
valid player: 5, all in player: 0, fold player: 3
send inquire msg to player 4444 
inquire/ 
7777 510 0 300 fold 
5555 44290 4000 300 check 
2222 1300 0 300 fold 
3333 1050 0 100 fold 
4444 19474 8000 300 check 
total pot: 1300 
/inquire 
recv from player 4444: check
send inquire msg to player 5555 
inquire/ 
2222 1300 0 300 fold 
3333 1050 0 100 fold 
4444 19474 8000 300 check 
7777 510 0 300 fold 
5555 44290 4000 300 check 
total pot: 1300 
/inquire 
recv from player 5555: check
river/ 
SPADES 7 
/river 

---river round bet---
valid player: 5, all in player: 0, fold player: 3
send inquire msg to player 4444 
inquire/ 
7777 510 0 300 fold 
5555 44290 4000 300 check 
2222 1300 0 300 fold 
3333 1050 0 100 fold 
4444 19474 8000 300 check 
total pot: 1300 
/inquire 
recv from player 4444: check
send inquire msg to player 5555 
inquire/ 
2222 1300 0 300 fold 
3333 1050 0 100 fold 
4444 19474 8000 300 check 
7777 510 0 300 fold 
5555 44290 4000 300 check 
total pot: 1300 
/inquire 
recv from player 5555: raise 0
send inquire msg to player 4444 
inquire/ 
7777 510 0 300 fold 
5555 44190 4000 400 raise 
2222 1300 0 300 fold 
3333 1050 0 100 fold 
4444 19474 8000 300 check 
total pot: 1400 
/inquire 
recv from player 4444: check

---show down---
showdown/ 
common/ 
SPADES Q 
CLUBS 3 
HEARTS A 
HEARTS 3 
SPADES 7 
/common 
1: 4444 DIAMONDS 3 CLUBS 8 THREE_OF_A_KIND 
2: 5555 DIAMONDS Q CLUBS K TWO_PAIR 
/showdown 

---Allocate pot---
pot-win/ 
4444: 1500 
/pot-win 
it is player 4444's turn to be button

-----57 Hand-----
seat/ 
button: 4444 20874 8000 
small blind: 3333 1050 0 
big blind: 2222 1300 0 
5555 44190 4000 
7777 510 0 
/seat 
blind/ 
3333: 50 
2222: 100 
/blind 
player 3333:hold/ 
SPADES 4 
HEARTS 5 
/hold 
player 2222:hold/ 
DIAMONDS 5 
DIAMONDS J 
/hold 
player 5555:hold/ 
SPADES Q 
SPADES 7 
/hold 
player 7777:hold/ 
CLUBS 3 
SPADES 10 
/hold 
player 4444:hold/ 
CLUBS 10 
DIAMONDS Q 
/hold 

---pre flop round bet---
valid player: 5, all in player: 0, fold player: 0
send inquire msg to player 5555 
inquire/ 
2222 1200 0 100 blind 
3333 1000 0 50 blind 
total pot: 150 
/inquire 
recv from player 5555: check
send inquire msg to player 7777 
inquire/ 
5555 44090 4000 100 call 
2222 1200 0 100 blind 
3333 1000 0 50 blind 
total pot: 250 
/inquire 
recv from player 7777: fold
send inquire msg to player 4444 
inquire/ 
7777 510 0 0 fold 
5555 44090 4000 100 call 
2222 1200 0 100 blind 
3333 1000 0 50 blind 
total pot: 250 
/inquire 
recv from player 4444: raise 1698
send inquire msg to player 3333 
inquire/ 
4444 19076 8000 1798 raise 
7777 510 0 0 fold 
5555 44090 4000 100 call 
2222 1200 0 100 blind 
3333 1000 0 50 blind 
total pot: 2048 
/inquire 
recv from player 3333: check
send inquire msg to player 2222 
inquire/ 
3333 0 0 1050 all_in 
4444 19076 8000 1798 raise 
7777 510 0 0 fold 
5555 44090 4000 100 call 
2222 1200 0 100 blind 
total pot: 3048 
/inquire 
recv from player 2222: fold
send inquire msg to player 5555 
inquire/ 
2222 1200 0 100 fold 
3333 0 0 1050 all_in 
4444 19076 8000 1798 raise 
7777 510 0 0 fold 
5555 44090 4000 100 call 
total pot: 3048 
/inquire 
recv from player 5555: check
flop/ 
HEARTS J 
CLUBS 2 
CLUBS Q 
/flop 

---flop round bet---
valid player: 5, all in player: 1, fold player: 2
send inquire msg to player 5555 
inquire/ 
2222 1200 0 100 fold 
3333 0 0 1050 all_in 
4444 19076 8000 1798 raise 
7777 510 0 0 fold 
5555 42392 4000 1798 call 
total pot: 4746 
/inquire 
recv from player 5555: check
send inquire msg to player 4444 
inquire/ 
7777 510 0 0 fold 
5555 42392 4000 1798 check 
2222 1200 0 100 fold 
3333 0 0 1050 all_in 
4444 19076 8000 1798 raise 
total pot: 4746 
/inquire 
recv from player 4444: raise 6066
send inquire msg to player 5555 
inquire/ 
2222 1200 0 100 fold 
3333 0 0 1050 all_in 
4444 13010 8000 7864 raise 
7777 510 0 0 fold 
5555 42392 4000 1798 check 
total pot: 10812 
/inquire 
recv from player 5555: raise 0
send inquire msg to player 4444 
inquire/ 
7777 510 0 0 fold 
5555 30260 4000 13930 raise 
2222 1200 0 100 fold 
3333 0 0 1050 all_in 
4444 13010 8000 7864 raise 
total pot: 22944 
/inquire 
recv from player 4444: fold
turn/ 
SPADES 2 
/turn 

---turn round bet---
valid player: 5, all in player: 1, fold player: 3
river/ 
SPADES 3 
/river 

---river round bet---
valid player: 5, all in player: 1, fold player: 3

---show down---
showdown/ 
common/ 
HEARTS J 
CLUBS 2 
CLUBS Q 
SPADES 2 
SPADES 3 
/common 
2: 3333 SPADES 4 HEARTS 5 ONE_PAIR 
1: 5555 SPADES Q SPADES 7 TWO_PAIR 
/showdown 

---Allocate pot---
pot-win/ 
5555: 22944 
/pot-win 
it is player 2222's turn to be button

-----58 Hand-----
seat/ 
button: 2222 1200 0 
small blind: 5555 53204 4000 
big blind: 7777 510 0 
4444 13010 8000 
/seat 
blind/ 
5555: 50 
7777: 100 
/blind 
player 5555:hold/ 
CLUBS J 
DIAMONDS 2 
/hold 
player 7777:hold/ 
DIAMONDS 7 
CLUBS 2 
/hold 
player 4444:hold/ 
SPADES 5 
HEARTS 8 
/hold 
player 2222:hold/ 
HEARTS 3 
HEARTS 4 
/hold 

---pre flop round bet---
valid player: 4, all in player: 0, fold player: 0
send inquire msg to player 4444 
inquire/ 
7777 410 0 100 blind 
5555 53154 4000 50 blind 
total pot: 150 
/inquire 
recv from player 4444: check
send inquire msg to player 2222 
inquire/ 
4444 12910 8000 100 call 
7777 410 0 100 blind 
5555 53154 4000 50 blind 
total pot: 250 
/inquire 
recv from player 2222: fold
send inquire msg to player 5555 
inquire/ 
2222 1200 0 0 fold 
4444 12910 8000 100 call 
7777 410 0 100 blind 
5555 53154 4000 50 blind 
total pot: 250 
/inquire 
recv from player 5555: raise 0
send inquire msg to player 7777 
inquire/ 
5555 53004 4000 200 raise 
2222 1200 0 0 fold 
4444 12910 8000 100 call 
7777 410 0 100 blind 
total pot: 400 
/inquire 
recv from player 7777: check
send inquire msg to player 4444 
inquire/ 
7777 310 0 200 call 
5555 53004 4000 200 raise 
2222 1200 0 0 fold 
4444 12910 8000 100 call 
total pot: 500 
/inquire 
recv from player 4444: check
flop/ 
SPADES Q 
SPADES 9 
HEARTS K 
/flop 

---flop round bet---
valid player: 4, all in player: 0, fold player: 1
send inquire msg to player 5555 
inquire/ 
2222 1200 0 0 fold 
4444 12810 8000 200 call 
7777 310 0 200 call 
5555 53004 4000 200 raise 
total pot: 600 
/inquire 
recv from player 5555: check
send inquire msg to player 7777 
inquire/ 
5555 53004 4000 200 check 
2222 1200 0 0 fold 
4444 12810 8000 200 call 
7777 310 0 200 call 
total pot: 600 
/inquire 
recv from player 7777: fold
send inquire msg to player 4444 
inquire/ 
7777 310 0 200 fold 
5555 53004 4000 200 check 
2222 1200 0 0 fold 
4444 12810 8000 200 call 
total pot: 600 
/inquire 
recv from player 4444: check
turn/ 
DIAMONDS 9 
/turn 

---turn round bet---
valid player: 4, all in player: 0, fold player: 2
send inquire msg to player 5555 
inquire/ 
2222 1200 0 0 fold 
4444 12810 8000 200 check 
7777 310 0 200 fold 
5555 53004 4000 200 check 
total pot: 600 
/inquire 
recv from player 5555: raise 0
send inquire msg to player 4444 
inquire/ 
7777 310 0 200 fold 
5555 52904 4000 300 raise 
2222 1200 0 0 fold 
4444 12810 8000 200 check 
total pot: 700 
/inquire 
recv from player 4444: fold

---river round bet---
valid player: 4, all in player: 0, fold player: 3

--- 1 players not fold, don't need show down---

---Allocate pot---
Only player at seat 0 not fold, win all the pot 700
pot-win/ 
5555: 700 
/pot-win 
it is player 5555's turn to be button

-----59 Hand-----
seat/ 
button: 5555 53604 4000 
small blind: 7777 310 0 
big blind: 4444 12810 8000 
2222 1200 0 
/seat 
blind/ 
7777: 50 
4444: 100 
/blind 
player 7777:hold/ 
SPADES 3 
CLUBS J 
/hold 
player 4444:hold/ 
SPADES K 
CLUBS 10 
/hold 
player 2222:hold/ 
DIAMONDS 2 
SPADES Q 
/hold 
player 5555:hold/ 
SPADES 6 
DIAMONDS 3 
/hold 

---pre flop round bet---
valid player: 4, all in player: 0, fold player: 0
send inquire msg to player 2222 
inquire/ 
4444 12710 8000 100 blind 
7777 260 0 50 blind 
total pot: 150 
/inquire 
recv from player 2222: fold
send inquire msg to player 5555 
inquire/ 
2222 1200 0 0 fold 
4444 12710 8000 100 blind 
7777 260 0 50 blind 
total pot: 150 
/inquire 
recv from player 5555: check
send inquire msg to player 7777 
inquire/ 
5555 53504 4000 100 call 
2222 1200 0 0 fold 
4444 12710 8000 100 blind 
7777 260 0 50 blind 
total pot: 250 
/inquire 
recv from player 7777: check
send inquire msg to player 4444 
inquire/ 
7777 210 0 100 call 
5555 53504 4000 100 call 
2222 1200 0 0 fold 
4444 12710 8000 100 blind 
total pot: 300 
/inquire 
recv from player 4444: raise 728
send inquire msg to player 5555 
inquire/ 
2222 1200 0 0 fold 
4444 11982 8000 828 raise 
7777 210 0 100 call 
5555 53504 4000 100 call 
total pot: 1028 
/inquire 
recv from player 5555: check
send inquire msg to player 7777 
inquire/ 
5555 52776 4000 828 call 
2222 1200 0 0 fold 
4444 11982 8000 828 raise 
7777 210 0 100 call 
total pot: 1756 
/inquire 
recv from player 7777: check
flop/ 
SPADES A 
HEARTS J 
CLUBS 7 
/flop 

---flop round bet---
valid player: 4, all in player: 1, fold player: 1
send inquire msg to player 4444 
inquire/ 
7777 0 0 310 all_in 
5555 52776 4000 828 call 
2222 1200 0 0 fold 
4444 11982 8000 828 raise 
total pot: 1966 
/inquire 
recv from player 4444: check
send inquire msg to player 5555 
inquire/ 
2222 1200 0 0 fold 
4444 11982 8000 828 check 
7777 0 0 310 all_in 
5555 52776 4000 828 call 
total pot: 1966 
/inquire 
recv from player 5555: raise 0
send inquire msg to player 4444 
inquire/ 
7777 0 0 310 all_in 
5555 52676 4000 928 raise 
2222 1200 0 0 fold 
4444 11982 8000 828 check 
total pot: 2066 
/inquire 
recv from player 4444: check
turn/ 
SPADES J 
/turn 

---turn round bet---
valid player: 4, all in player: 1, fold player: 1
send inquire msg to player 4444 
inquire/ 
7777 0 0 310 all_in 
5555 52676 4000 928 raise 
2222 1200 0 0 fold 
4444 11882 8000 928 call 
total pot: 2166 
/inquire 
recv from player 4444: check
send inquire msg to player 5555 
inquire/ 
2222 1200 0 0 fold 
4444 11882 8000 928 check 
7777 0 0 310 all_in 
5555 52676 4000 928 raise 
total pot: 2166 
/inquire 
recv from player 5555: raise 0
send inquire msg to player 4444 
inquire/ 
7777 0 0 310 all_in 
5555 52576 4000 1028 raise 
2222 1200 0 0 fold 
4444 11882 8000 928 check 
total pot: 2266 
/inquire 
recv from player 4444: check
river/ 
DIAMONDS A 
/river 

---river round bet---
valid player: 4, all in player: 1, fold player: 1
send inquire msg to player 4444 
inquire/ 
7777 0 0 310 all_in 
5555 52576 4000 1028 raise 
2222 1200 0 0 fold 
4444 11782 8000 1028 call 
total pot: 2366 
/inquire 
recv from player 4444: check
send inquire msg to player 5555 
inquire/ 
2222 1200 0 0 fold 
4444 11782 8000 1028 check 
7777 0 0 310 all_in 
5555 52576 4000 1028 raise 
total pot: 2366 
/inquire 
recv from player 5555: check

---show down---
showdown/ 
common/ 
SPADES A 
HEARTS J 
CLUBS 7 
SPADES J 
DIAMONDS A 
/common 
1: 7777 SPADES 3 CLUBS J FULL_HOUSE 
2: 4444 SPADES K CLUBS 10 TWO_PAIR 
3: 5555 SPADES 6 DIAMONDS 3 TWO_PAIR 
/showdown 

---Allocate pot---
pot-win/ 
7777: 930 
4444: 1436 
/pot-win 
it is player 7777's turn to be button

-----60 Hand-----
seat/ 
button: 7777 930 0 
small blind: 4444 13218 8000 
big blind: 2222 1200 0 
5555 52576 4000 
/seat 
blind/ 
4444: 50 
2222: 100 
/blind 
player 4444:hold/ 
CLUBS 9 
CLUBS 3 
/hold 
player 2222:hold/ 
HEARTS 6 
SPADES J 
/hold 
player 5555:hold/ 
DIAMONDS K 
DIAMONDS 9 
/hold 
player 7777:hold/ 
HEARTS 7 
HEARTS J 
/hold 

---pre flop round bet---
valid player: 4, all in player: 0, fold player: 0
send inquire msg to player 5555 
inquire/ 
2222 1100 0 100 blind 
4444 13168 8000 50 blind 
total pot: 150 
/inquire 
recv from player 5555: check
send inquire msg to player 7777 
inquire/ 
5555 52476 4000 100 call 
2222 1100 0 100 blind 
4444 13168 8000 50 blind 
total pot: 250 
/inquire 
recv from player 7777: fold
send inquire msg to player 4444 
inquire/ 
7777 930 0 0 fold 
5555 52476 4000 100 call 
2222 1100 0 100 blind 
4444 13168 8000 50 blind 
total pot: 250 
/inquire 
recv from player 4444: fold
send inquire msg to player 2222 
inquire/ 
4444 13168 8000 50 fold 
7777 930 0 0 fold 
5555 52476 4000 100 call 
2222 1100 0 100 blind 
total pot: 250 
/inquire 
recv from player 2222: fold

---flop round bet---
valid player: 4, all in player: 0, fold player: 3

---turn round bet---
valid player: 4, all in player: 0, fold player: 3

---river round bet---
valid player: 4, all in player: 0, fold player: 3

--- 1 players not fold, don't need show down---

---Allocate pot---
Only player at seat 2 not fold, win all the pot 250
pot-win/ 
5555: 250 
/pot-win 
it is player 4444's turn to be button

-----61 Hand-----
seat/ 
button: 4444 13168 8000 
small blind: 2222 1100 0 
big blind: 5555 52726 4000 
7777 930 0 
/seat 
blind/ 
2222: 50 
5555: 100 
/blind 
player 2222:hold/ 
CLUBS 9 
CLUBS 3 
/hold 
player 5555:hold/ 
HEARTS 6 
SPADES J 
/hold 
player 7777:hold/ 
DIAMONDS K 
DIAMONDS 9 
/hold 
player 4444:hold/ 
HEARTS 7 
HEARTS J 
/hold 

---pre flop round bet---
valid player: 4, all in player: 0, fold player: 0
send inquire msg to player 7777 
inquire/ 
5555 52626 4000 100 blind 
2222 1050 0 50 blind 
total pot: 150 
/inquire 
recv from player 7777: check
send inquire msg to player 4444 
inquire/ 
7777 830 0 100 call 
5555 52626 4000 100 blind 
2222 1050 0 50 blind 
total pot: 250 
/inquire 
recv from player 4444: raise 510
send inquire msg to player 2222 
inquire/ 
4444 12558 8000 610 raise 
7777 830 0 100 call 
5555 52626 4000 100 blind 
2222 1050 0 50 blind 
total pot: 860 
/inquire 
recv from player 2222: fold
send inquire msg to player 5555 
inquire/ 
2222 1050 0 50 fold 
4444 12558 8000 610 raise 
7777 830 0 100 call 
5555 52626 4000 100 blind 
total pot: 860 
/inquire 
recv from player 5555: raise 0
send inquire msg to player 7777 
inquire/ 
5555 51606 4000 1120 raise 
2222 1050 0 50 fold 
4444 12558 8000 610 raise 
7777 830 0 100 call 
total pot: 1880 
/inquire 
recv from player 7777: check
send inquire msg to player 4444 
inquire/ 
7777 0 0 930 all_in 
5555 51606 4000 1120 raise 
2222 1050 0 50 fold 
4444 12558 8000 610 raise 
total pot: 2710 
/inquire 
recv from player 4444: check
flop/ 
HEARTS 2 
CLUBS K 
CLUBS 2 
/flop 

---flop round bet---
valid player: 4, all in player: 1, fold player: 1
send inquire msg to player 5555 
inquire/ 
2222 1050 0 50 fold 
4444 12048 8000 1120 call 
7777 0 0 930 all_in 
5555 51606 4000 1120 raise 
total pot: 3220 
/inquire 
recv from player 5555: check
send inquire msg to player 4444 
inquire/ 
7777 0 0 930 all_in 
5555 51606 4000 1120 check 
2222 1050 0 50 fold 
4444 12048 8000 1120 call 
total pot: 3220 
/inquire 
recv from player 4444: check
turn/ 
DIAMONDS 4 
/turn 

---turn round bet---
valid player: 4, all in player: 1, fold player: 1
send inquire msg to player 5555 
inquire/ 
2222 1050 0 50 fold 
4444 12048 8000 1120 check 
7777 0 0 930 all_in 
5555 51606 4000 1120 check 
total pot: 3220 
/inquire 
recv from player 5555: check
send inquire msg to player 4444 
inquire/ 
7777 0 0 930 all_in 
5555 51606 4000 1120 check 
2222 1050 0 50 fold 
4444 12048 8000 1120 check 
total pot: 3220 
/inquire 
recv from player 4444: check
river/ 
HEARTS 8 
/river 

---river round bet---
valid player: 4, all in player: 1, fold player: 1
send inquire msg to player 5555 
inquire/ 
2222 1050 0 50 fold 
4444 12048 8000 1120 check 
7777 0 0 930 all_in 
5555 51606 4000 1120 check 
total pot: 3220 
/inquire 
recv from player 5555: check
send inquire msg to player 4444 
inquire/ 
7777 0 0 930 all_in 
5555 51606 4000 1120 check 
2222 1050 0 50 fold 
4444 12048 8000 1120 check 
total pot: 3220 
/inquire 
recv from player 4444: fold

---show down---
showdown/ 
common/ 
HEARTS 2 
CLUBS K 
CLUBS 2 
DIAMONDS 4 
HEARTS 8 
/common 
2: 5555 HEARTS 6 SPADES J ONE_PAIR 
1: 7777 DIAMONDS K DIAMONDS 9 TWO_PAIR 
/showdown 

---Allocate pot---
pot-win/ 
7777: 3030 
5555: 190 
/pot-win 
it is player 2222's turn to be button

-----62 Hand-----
seat/ 
button: 2222 1050 0 
small blind: 5555 51796 4000 
big blind: 7777 3030 0 
4444 12048 8000 
/seat 
blind/ 
5555: 50 
7777: 100 
/blind 
player 5555:hold/ 
SPADES Q 
DIAMONDS Q 
/hold 
player 7777:hold/ 
HEARTS 3 
SPADES A 
/hold 
player 4444:hold/ 
CLUBS 9 
SPADES J 
/hold 
player 2222:hold/ 
SPADES 5 
DIAMONDS 2 
/hold 

---pre flop round bet---
valid player: 4, all in player: 0, fold player: 0
send inquire msg to player 4444 
inquire/ 
7777 2930 0 100 blind 
5555 51746 4000 50 blind 
total pot: 150 
/inquire 
recv from player 4444: raise 485
send inquire msg to player 2222 
inquire/ 
4444 11463 8000 585 raise 
7777 2930 0 100 blind 
5555 51746 4000 50 blind 
total pot: 735 
/inquire 
recv from player 2222: fold
send inquire msg to player 5555 
inquire/ 
2222 1050 0 0 fold 
4444 11463 8000 585 raise 
7777 2930 0 100 blind 
5555 51746 4000 50 blind 
total pot: 735 
/inquire 
recv from player 5555: check
send inquire msg to player 7777 
inquire/ 
5555 51211 4000 585 call 
2222 1050 0 0 fold 
4444 11463 8000 585 raise 
7777 2930 0 100 blind 
total pot: 1270 
/inquire 
recv from player 7777: check
flop/ 
HEARTS 8 
CLUBS K 
DIAMONDS A 
/flop 

---flop round bet---
valid player: 4, all in player: 0, fold player: 1
send inquire msg to player 5555 
inquire/ 
2222 1050 0 0 fold 
4444 11463 8000 585 raise 
7777 2445 0 585 call 
5555 51211 4000 585 call 
total pot: 1755 
/inquire 
recv from player 5555: raise 0
send inquire msg to player 7777 
inquire/ 
5555 51111 4000 685 raise 
2222 1050 0 0 fold 
4444 11463 8000 585 raise 
7777 2445 0 585 call 
total pot: 1855 
/inquire 
recv from player 7777: fold
send inquire msg to player 4444 
inquire/ 
7777 2445 0 585 fold 
5555 51111 4000 685 raise 
2222 1050 0 0 fold 
4444 11463 8000 585 raise 
total pot: 1855 
/inquire 
recv from player 4444: check
turn/ 
HEARTS 9 
/turn 

---turn round bet---
valid player: 4, all in player: 0, fold player: 2
send inquire msg to player 5555 
inquire/ 
2222 1050 0 0 fold 
4444 11363 8000 685 call 
7777 2445 0 585 fold 
5555 51111 4000 685 raise 
total pot: 1955 
/inquire 
recv from player 5555: check
send inquire msg to player 4444 
inquire/ 
7777 2445 0 585 fold 
5555 51111 4000 685 check 
2222 1050 0 0 fold 
4444 11363 8000 685 call 
total pot: 1955 
/inquire 
recv from player 4444: check
river/ 
CLUBS Q 
/river 

---river round bet---
valid player: 4, all in player: 0, fold player: 2
send inquire msg to player 5555 
inquire/ 
2222 1050 0 0 fold 
4444 11363 8000 685 check 
7777 2445 0 585 fold 
5555 51111 4000 685 check 
total pot: 1955 
/inquire 
recv from player 5555: check
send inquire msg to player 4444 
inquire/ 
7777 2445 0 585 fold 
5555 51111 4000 685 check 
2222 1050 0 0 fold 
4444 11363 8000 685 check 
total pot: 1955 
/inquire 
recv from player 4444: check

---show down---
showdown/ 
common/ 
HEARTS 8 
CLUBS K 
DIAMONDS A 
HEARTS 9 
CLUBS Q 
/common 
1: 5555 SPADES Q DIAMONDS Q THREE_OF_A_KIND 
2: 4444 CLUBS 9 SPADES J ONE_PAIR 
/showdown 

---Allocate pot---
pot-win/ 
5555: 1955 
/pot-win 
it is player 5555's turn to be button

-----63 Hand-----
seat/ 
button: 5555 53066 4000 
small blind: 7777 2445 0 
big blind: 4444 11363 8000 
2222 1050 0 
/seat 
blind/ 
7777: 50 
4444: 100 
/blind 
player 7777:hold/ 
CLUBS K 
SPADES 10 
/hold 
player 4444:hold/ 
SPADES A 
SPADES 5 
/hold 
player 2222:hold/ 
SPADES 6 
DIAMONDS K 
/hold 
player 5555:hold/ 
CLUBS 5 
CLUBS Q 
/hold 

---pre flop round bet---
valid player: 4, all in player: 0, fold player: 0
send inquire msg to player 2222 
inquire/ 
4444 11263 8000 100 blind 
7777 2395 0 50 blind 
total pot: 150 
/inquire 
recv from player 2222: raise 0
send inquire msg to player 5555 
inquire/ 
2222 850 0 200 raise 
4444 11263 8000 100 blind 
7777 2395 0 50 blind 
total pot: 350 
/inquire 
recv from player 5555: raise 0
send inquire msg to player 7777 
inquire/ 
5555 52766 4000 300 raise 
2222 850 0 200 raise 
4444 11263 8000 100 blind 
7777 2395 0 50 blind 
total pot: 650 
/inquire 
recv from player 7777: check
send inquire msg to player 4444 
inquire/ 
7777 2145 0 300 call 
5555 52766 4000 300 raise 
2222 850 0 200 raise 
4444 11263 8000 100 blind 
total pot: 900 
/inquire 
recv from player 4444: raise 610
send inquire msg to player 2222 
inquire/ 
4444 10453 8000 910 raise 
7777 2145 0 300 call 
5555 52766 4000 300 raise 
2222 850 0 200 raise 
total pot: 1710 
/inquire 
recv from player 2222: fold
send inquire msg to player 5555 
inquire/ 
2222 850 0 200 fold 
4444 10453 8000 910 raise 
7777 2145 0 300 call 
5555 52766 4000 300 raise 
total pot: 1710 
/inquire 
recv from player 5555: raise 0
send inquire msg to player 7777 
inquire/ 
5555 51546 4000 1520 raise 
2222 850 0 200 fold 
4444 10453 8000 910 raise 
7777 2145 0 300 call 
total pot: 2930 
/inquire 
recv from player 7777: check
send inquire msg to player 4444 
inquire/ 
7777 925 0 1520 call 
5555 51546 4000 1520 raise 
2222 850 0 200 fold 
4444 10453 8000 910 raise 
total pot: 4150 
/inquire 
recv from player 4444: check
flop/ 
DIAMONDS 7 
CLUBS 8 
HEARTS 6 
/flop 

---flop round bet---
valid player: 4, all in player: 0, fold player: 1
send inquire msg to player 7777 
inquire/ 
5555 51546 4000 1520 raise 
2222 850 0 200 fold 
4444 9843 8000 1520 call 
7777 925 0 1520 call 
total pot: 4760 
/inquire 
recv from player 7777: fold
send inquire msg to player 4444 
inquire/ 
7777 925 0 1520 fold 
5555 51546 4000 1520 raise 
2222 850 0 200 fold 
4444 9843 8000 1520 call 
total pot: 4760 
/inquire 
recv from player 4444: check
send inquire msg to player 5555 
inquire/ 
2222 850 0 200 fold 
4444 9843 8000 1520 check 
7777 925 0 1520 fold 
5555 51546 4000 1520 raise 
total pot: 4760 
/inquire 
recv from player 5555: raise 0
send inquire msg to player 4444 
inquire/ 
7777 925 0 1520 fold 
5555 51446 4000 1620 raise 
2222 850 0 200 fold 
4444 9843 8000 1520 check 
total pot: 4860 
/inquire 
recv from player 4444: check
turn/ 
CLUBS 4 
/turn 

---turn round bet---
valid player: 4, all in player: 0, fold player: 2
send inquire msg to player 4444 
inquire/ 
7777 925 0 1520 fold 
5555 51446 4000 1620 raise 
2222 850 0 200 fold 
4444 9743 8000 1620 call 
total pot: 4960 
/inquire 
recv from player 4444: check
send inquire msg to player 5555 
inquire/ 
2222 850 0 200 fold 
4444 9743 8000 1620 check 
7777 925 0 1520 fold 
5555 51446 4000 1620 raise 
total pot: 4960 
/inquire 
recv from player 5555: check
river/ 
HEARTS Q 
/river 

---river round bet---
valid player: 4, all in player: 0, fold player: 2
send inquire msg to player 4444 
inquire/ 
7777 925 0 1520 fold 
5555 51446 4000 1620 check 
2222 850 0 200 fold 
4444 9743 8000 1620 check 
total pot: 4960 
/inquire 
recv from player 4444: check
send inquire msg to player 5555 
inquire/ 
2222 850 0 200 fold 
4444 9743 8000 1620 check 
7777 925 0 1520 fold 
5555 51446 4000 1620 check 
total pot: 4960 
/inquire 
recv from player 5555: check

---show down---
showdown/ 
common/ 
DIAMONDS 7 
CLUBS 8 
HEARTS 6 
CLUBS 4 
HEARTS Q 
/common 
1: 4444 SPADES A SPADES 5 STRAIGHT 
1: 5555 CLUBS 5 CLUBS Q STRAIGHT 
/showdown 

---Allocate pot---
pot-win/ 
4444: 2480 
5555: 2480 
/pot-win 
it is player 7777's turn to be button

-----64 Hand-----
seat/ 
button: 7777 925 0 
small blind: 4444 12223 8000 
big blind: 2222 850 0 
5555 53926 4000 
/seat 
blind/ 
4444: 50 
2222: 100 
/blind 
player 4444:hold/ 
SPADES Q 
DIAMONDS 3 
/hold 
player 2222:hold/ 
SPADES 7 
HEARTS 7 
/hold 
player 5555:hold/ 
DIAMONDS 6 
HEARTS A 
/hold 
player 7777:hold/ 
DIAMONDS A 
HEARTS 3 
/hold 

---pre flop round bet---
valid player: 4, all in player: 0, fold player: 0
send inquire msg to player 5555 
inquire/ 
2222 750 0 100 blind 
4444 12173 8000 50 blind 
total pot: 150 
/inquire 
recv from player 5555: raise 0
send inquire msg to player 7777 
inquire/ 
5555 53726 4000 200 raise 
2222 750 0 100 blind 
4444 12173 8000 50 blind 
total pot: 350 
/inquire 
recv from player 7777: fold
send inquire msg to player 4444 
inquire/ 
7777 925 0 0 fold 
5555 53726 4000 200 raise 
2222 750 0 100 blind 
4444 12173 8000 50 blind 
total pot: 350 
/inquire 
recv from player 4444: fold
send inquire msg to player 2222 
inquire/ 
4444 12173 8000 50 fold 
7777 925 0 0 fold 
5555 53726 4000 200 raise 
2222 750 0 100 blind 
total pot: 350 
/inquire 
recv from player 2222: fold

---flop round bet---
valid player: 4, all in player: 0, fold player: 3

---turn round bet---
valid player: 4, all in player: 0, fold player: 3

---river round bet---
valid player: 4, all in player: 0, fold player: 3

--- 1 players not fold, don't need show down---

---Allocate pot---
Only player at seat 2 not fold, win all the pot 350
pot-win/ 
5555: 350 
/pot-win 
it is player 4444's turn to be button

-----65 Hand-----
seat/ 
button: 4444 12173 8000 
small blind: 2222 750 0 
big blind: 5555 54076 4000 
7777 925 0 
/seat 
blind/ 
2222: 50 
5555: 100 
/blind 
player 2222:hold/ 
DIAMONDS Q 
HEARTS 8 
/hold 
player 5555:hold/ 
DIAMONDS A 
SPADES Q 
/hold 
player 7777:hold/ 
DIAMONDS 3 
CLUBS Q 
/hold 
player 4444:hold/ 
SPADES J 
SPADES 6 
/hold 

---pre flop round bet---
valid player: 4, all in player: 0, fold player: 0
send inquire msg to player 7777 
inquire/ 
5555 53976 4000 100 blind 
2222 700 0 50 blind 
total pot: 150 
/inquire 
recv from player 7777: fold
send inquire msg to player 4444 
inquire/ 
7777 925 0 0 fold 
5555 53976 4000 100 blind 
2222 700 0 50 blind 
total pot: 150 
/inquire 
recv from player 4444: fold
send inquire msg to player 2222 
inquire/ 
4444 12173 8000 0 fold 
7777 925 0 0 fold 
5555 53976 4000 100 blind 
2222 700 0 50 blind 
total pot: 150 
/inquire 
recv from player 2222: fold
send inquire msg to player 5555 
inquire/ 
2222 700 0 50 fold 
4444 12173 8000 0 fold 
7777 925 0 0 fold 
5555 53976 4000 100 blind 
total pot: 150 
/inquire 
recv from player 5555: raise 0

---flop round bet---
valid player: 4, all in player: 0, fold player: 3

---turn round bet---
valid player: 4, all in player: 0, fold player: 3

---river round bet---
valid player: 4, all in player: 0, fold player: 3

--- 1 players not fold, don't need show down---

---Allocate pot---
Only player at seat 1 not fold, win all the pot 250
pot-win/ 
5555: 250 
/pot-win 
it is player 2222's turn to be button

-----66 Hand-----
seat/ 
button: 2222 700 0 
small blind: 5555 54126 4000 
big blind: 7777 925 0 
4444 12173 8000 
/seat 
blind/ 
5555: 50 
7777: 100 
/blind 
player 5555:hold/ 
DIAMONDS Q 
HEARTS 8 
/hold 
player 7777:hold/ 
DIAMONDS A 
SPADES Q 
/hold 
player 4444:hold/ 
DIAMONDS 3 
CLUBS Q 
/hold 
player 2222:hold/ 
SPADES J 
SPADES 6 
/hold 

---pre flop round bet---
valid player: 4, all in player: 0, fold player: 0
send inquire msg to player 4444 
inquire/ 
7777 825 0 100 blind 
5555 54076 4000 50 blind 
total pot: 150 
/inquire 
recv from player 4444: check
send inquire msg to player 2222 
inquire/ 
4444 12073 8000 100 call 
7777 825 0 100 blind 
5555 54076 4000 50 blind 
total pot: 250 
/inquire 
recv from player 2222: check
send inquire msg to player 5555 
inquire/ 
2222 600 0 100 call 
4444 12073 8000 100 call 
7777 825 0 100 blind 
5555 54076 4000 50 blind 
total pot: 350 
/inquire 
recv from player 5555: check
send inquire msg to player 7777 
inquire/ 
5555 54026 4000 100 call 
2222 600 0 100 call 
4444 12073 8000 100 call 
7777 825 0 100 blind 
total pot: 400 
/inquire 
recv from player 7777: check
flop/ 
SPADES K 
DIAMONDS 7 
CLUBS J 
/flop 

---flop round bet---
valid player: 4, all in player: 0, fold player: 0
send inquire msg to player 5555 
inquire/ 
2222 600 0 100 call 
4444 12073 8000 100 call 
7777 825 0 100 check 
5555 54026 4000 100 call 
total pot: 400 
/inquire 
recv from player 5555: check
send inquire msg to player 7777 
inquire/ 
5555 54026 4000 100 check 
2222 600 0 100 call 
4444 12073 8000 100 call 
7777 825 0 100 check 
total pot: 400 
/inquire 
recv from player 7777: fold
send inquire msg to player 4444 
inquire/ 
7777 825 0 100 fold 
5555 54026 4000 100 check 
2222 600 0 100 call 
4444 12073 8000 100 call 
total pot: 400 
/inquire 
recv from player 4444: check
send inquire msg to player 2222 
inquire/ 
4444 12073 8000 100 check 
7777 825 0 100 fold 
5555 54026 4000 100 check 
2222 600 0 100 call 
total pot: 400 
/inquire 
recv from player 2222: fold
turn/ 
CLUBS 10 
/turn 

---turn round bet---
valid player: 4, all in player: 0, fold player: 2
send inquire msg to player 5555 
inquire/ 
2222 600 0 100 fold 
4444 12073 8000 100 check 
7777 825 0 100 fold 
5555 54026 4000 100 check 
total pot: 400 
/inquire 
recv from player 5555: check
send inquire msg to player 4444 
inquire/ 
7777 825 0 100 fold 
5555 54026 4000 100 check 
2222 600 0 100 fold 
4444 12073 8000 100 check 
total pot: 400 
/inquire 
recv from player 4444: check
river/ 
CLUBS 3 
/river 

---river round bet---
valid player: 4, all in player: 0, fold player: 2
send inquire msg to player 5555 
inquire/ 
2222 600 0 100 fold 
4444 12073 8000 100 check 
7777 825 0 100 fold 
5555 54026 4000 100 check 
total pot: 400 
/inquire 
recv from player 5555: raise 0
send inquire msg to player 4444 
inquire/ 
7777 825 0 100 fold 
5555 53926 4000 200 raise 
2222 600 0 100 fold 
4444 12073 8000 100 check 
total pot: 500 
/inquire 
recv from player 4444: fold

--- 1 players not fold, don't need show down---

---Allocate pot---
Only player at seat 0 not fold, win all the pot 500
pot-win/ 
5555: 500 
/pot-win 
it is player 5555's turn to be button

-----67 Hand-----
seat/ 
button: 5555 54426 4000 
small blind: 7777 825 0 
big blind: 4444 12073 8000 
2222 600 0 
/seat 
blind/ 
7777: 50 
4444: 100 
/blind 
player 7777:hold/ 
CLUBS 3 
SPADES 4 
/hold 
player 4444:hold/ 
CLUBS 4 
DIAMONDS K 
/hold 
player 2222:hold/ 
HEARTS 5 
SPADES 5 
/hold 
player 5555:hold/ 
HEARTS Q 
HEARTS 6 
/hold 

---pre flop round bet---
valid player: 4, all in player: 0, fold player: 0
send inquire msg to player 2222 
inquire/ 
4444 11973 8000 100 blind 
7777 775 0 50 blind 
total pot: 150 
/inquire 
recv from player 2222: check
send inquire msg to player 5555 
inquire/ 
2222 500 0 100 call 
4444 11973 8000 100 blind 
7777 775 0 50 blind 
total pot: 250 
/inquire 
recv from player 5555: check
send inquire msg to player 7777 
inquire/ 
5555 54326 4000 100 call 
2222 500 0 100 call 
4444 11973 8000 100 blind 
7777 775 0 50 blind 
total pot: 350 
/inquire 
recv from player 7777: check
send inquire msg to player 4444 
inquire/ 
7777 725 0 100 call 
5555 54326 4000 100 call 
2222 500 0 100 call 
4444 11973 8000 100 blind 
total pot: 400 
/inquire 
recv from player 4444: check
flop/ 
DIAMONDS 10 
HEARTS 2 
DIAMONDS J 
/flop 

---flop round bet---
valid player: 4, all in player: 0, fold player: 0
send inquire msg to player 7777 
inquire/ 
5555 54326 4000 100 call 
2222 500 0 100 call 
4444 11973 8000 100 check 
7777 725 0 100 call 
total pot: 400 
/inquire 
recv from player 7777: fold
send inquire msg to player 4444 
inquire/ 
7777 725 0 100 fold 
5555 54326 4000 100 call 
2222 500 0 100 call 
4444 11973 8000 100 check 
total pot: 400 
/inquire 
recv from player 4444: check
send inquire msg to player 2222 
inquire/ 
4444 11973 8000 100 check 
7777 725 0 100 fold 
5555 54326 4000 100 call 
2222 500 0 100 call 
total pot: 400 
/inquire 
recv from player 2222: fold
send inquire msg to player 5555 
inquire/ 
2222 500 0 100 fold 
4444 11973 8000 100 check 
7777 725 0 100 fold 
5555 54326 4000 100 call 
total pot: 400 
/inquire 
recv from player 5555: raise 0
send inquire msg to player 4444 
inquire/ 
7777 725 0 100 fold 
5555 54226 4000 200 raise 
2222 500 0 100 fold 
4444 11973 8000 100 check 
total pot: 500 
/inquire 
recv from player 4444: check
turn/ 
CLUBS 5 
/turn 

---turn round bet---
valid player: 4, all in player: 0, fold player: 2
send inquire msg to player 4444 
inquire/ 
7777 725 0 100 fold 
5555 54226 4000 200 raise 
2222 500 0 100 fold 
4444 11873 8000 200 call 
total pot: 600 
/inquire 
recv from player 4444: fold
send inquire msg to player 5555 
inquire/ 
2222 500 0 100 fold 
4444 11873 8000 200 fold 
7777 725 0 100 fold 
5555 54226 4000 200 raise 
total pot: 600 
/inquire 
recv from player 5555: raise 0

---river round bet---
valid player: 4, all in player: 0, fold player: 3

--- 1 players not fold, don't need show down---

---Allocate pot---
Only player at seat 7 not fold, win all the pot 700
pot-win/ 
5555: 700 
/pot-win 
it is player 7777's turn to be button

-----68 Hand-----
seat/ 
button: 7777 725 0 
small blind: 4444 11873 8000 
big blind: 2222 500 0 
5555 54826 4000 
/seat 
blind/ 
4444: 50 
2222: 100 
/blind 
player 4444:hold/ 
CLUBS 6 
HEARTS 5 
/hold 
player 2222:hold/ 
HEARTS 8 
SPADES 8 
/hold 
player 5555:hold/ 
HEARTS 7 
CLUBS 7 
/hold 
player 7777:hold/ 
HEARTS 10 
SPADES J 
/hold 

---pre flop round bet---
valid player: 4, all in player: 0, fold player: 0
send inquire msg to player 5555 
inquire/ 
2222 400 0 100 blind 
4444 11823 8000 50 blind 
total pot: 150 
/inquire 
recv from player 5555: check
send inquire msg to player 7777 
inquire/ 
5555 54726 4000 100 call 
2222 400 0 100 blind 
4444 11823 8000 50 blind 
total pot: 250 
/inquire 
recv from player 7777: check
send inquire msg to player 4444 
inquire/ 
7777 625 0 100 call 
5555 54726 4000 100 call 
2222 400 0 100 blind 
4444 11823 8000 50 blind 
total pot: 350 
/inquire 
recv from player 4444: check
send inquire msg to player 2222 
inquire/ 
4444 11773 8000 100 call 
7777 625 0 100 call 
5555 54726 4000 100 call 
2222 400 0 100 blind 
total pot: 400 
/inquire 
recv from player 2222: fold
flop/ 
HEARTS 3 
CLUBS J 
DIAMONDS 4 
/flop 

---flop round bet---
valid player: 4, all in player: 0, fold player: 1
send inquire msg to player 4444 
inquire/ 
7777 625 0 100 call 
5555 54726 4000 100 call 
2222 400 0 100 fold 
4444 11773 8000 100 call 
total pot: 400 
/inquire 
recv from player 4444: raise 460
send inquire msg to player 5555 
inquire/ 
2222 400 0 100 fold 
4444 11313 8000 560 raise 
7777 625 0 100 call 
5555 54726 4000 100 call 
total pot: 860 
/inquire 
recv from player 5555: check
send inquire msg to player 7777 
inquire/ 
5555 54266 4000 560 call 
2222 400 0 100 fold 
4444 11313 8000 560 raise 
7777 625 0 100 call 
total pot: 1320 
/inquire 
recv from player 7777: fold
turn/ 
CLUBS K 
/turn 

---turn round bet---
valid player: 4, all in player: 0, fold player: 2
send inquire msg to player 4444 
inquire/ 
7777 625 0 100 fold 
5555 54266 4000 560 call 
2222 400 0 100 fold 
4444 11313 8000 560 raise 
total pot: 1320 
/inquire 
recv from player 4444: fold
send inquire msg to player 5555 
inquire/ 
2222 400 0 100 fold 
4444 11313 8000 560 fold 
7777 625 0 100 fold 
5555 54266 4000 560 call 
total pot: 1320 
/inquire 
recv from player 5555: raise 0

---river round bet---
valid player: 4, all in player: 0, fold player: 3

--- 1 players not fold, don't need show down---

---Allocate pot---
Only player at seat 2 not fold, win all the pot 1420
pot-win/ 
5555: 1420 
/pot-win 
it is player 4444's turn to be button

-----69 Hand-----
seat/ 
button: 4444 11313 8000 
small blind: 2222 400 0 
big blind: 5555 55586 4000 
7777 625 0 
/seat 
blind/ 
2222: 50 
5555: 100 
/blind 
player 2222:hold/ 
SPADES 9 
DIAMONDS J 
/hold 
player 5555:hold/ 
SPADES 4 
HEARTS Q 
/hold 
player 7777:hold/ 
HEARTS K 
SPADES 6 
/hold 
player 4444:hold/ 
DIAMONDS 6 
SPADES 5 
/hold 

---pre flop round bet---
valid player: 4, all in player: 0, fold player: 0
send inquire msg to player 7777 
inquire/ 
5555 55486 4000 100 blind 
2222 350 0 50 blind 
total pot: 150 
/inquire 
recv from player 7777: check
send inquire msg to player 4444 
inquire/ 
7777 525 0 100 call 
5555 55486 4000 100 blind 
2222 350 0 50 blind 
total pot: 250 
/inquire 
recv from player 4444: check
send inquire msg to player 2222 
inquire/ 
4444 11213 8000 100 call 
7777 525 0 100 call 
5555 55486 4000 100 blind 
2222 350 0 50 blind 
total pot: 350 
/inquire 
recv from player 2222: fold
send inquire msg to player 5555 
inquire/ 
2222 350 0 50 fold 
4444 11213 8000 100 call 
7777 525 0 100 call 
5555 55486 4000 100 blind 
total pot: 350 
/inquire 
recv from player 5555: raise 0
send inquire msg to player 7777 
inquire/ 
5555 55386 4000 200 raise 
2222 350 0 50 fold 
4444 11213 8000 100 call 
7777 525 0 100 call 
total pot: 450 
/inquire 
recv from player 7777: check
send inquire msg to player 4444 
inquire/ 
7777 425 0 200 call 
5555 55386 4000 200 raise 
2222 350 0 50 fold 
4444 11213 8000 100 call 
total pot: 550 
/inquire 
recv from player 4444: check
flop/ 
SPADES 2 
DIAMONDS 7 
SPADES J 
/flop 

---flop round bet---
valid player: 4, all in player: 0, fold player: 1
send inquire msg to player 5555 
inquire/ 
2222 350 0 50 fold 
4444 11113 8000 200 call 
7777 425 0 200 call 
5555 55386 4000 200 raise 
total pot: 650 
/inquire 
recv from player 5555: raise 0
send inquire msg to player 7777 
inquire/ 
5555 55286 4000 300 raise 
2222 350 0 50 fold 
4444 11113 8000 200 call 
7777 425 0 200 call 
total pot: 750 
/inquire 
recv from player 7777: fold
send inquire msg to player 4444 
inquire/ 
7777 425 0 200 fold 
5555 55286 4000 300 raise 
2222 350 0 50 fold 
4444 11113 8000 200 call 
total pot: 750 
/inquire 
recv from player 4444: check
turn/ 
CLUBS 3 
/turn 

---turn round bet---
valid player: 4, all in player: 0, fold player: 2
send inquire msg to player 5555 
inquire/ 
2222 350 0 50 fold 
4444 11013 8000 300 call 
7777 425 0 200 fold 
5555 55286 4000 300 raise 
total pot: 850 
/inquire 
recv from player 5555: raise 0
send inquire msg to player 4444 
inquire/ 
7777 425 0 200 fold 
5555 55186 4000 400 raise 
2222 350 0 50 fold 
4444 11013 8000 300 call 
total pot: 950 
/inquire 
recv from player 4444: fold

---river round bet---
valid player: 4, all in player: 0, fold player: 3

--- 1 players not fold, don't need show down---

---Allocate pot---
Only player at seat 1 not fold, win all the pot 950
pot-win/ 
5555: 950 
/pot-win 
it is player 2222's turn to be button

-----70 Hand-----
seat/ 
button: 2222 350 0 
small blind: 5555 56136 4000 
big blind: 7777 425 0 
4444 11013 8000 
/seat 
blind/ 
5555: 50 
7777: 100 
/blind 
player 5555:hold/ 
SPADES 6 
SPADES 3 
/hold 
player 7777:hold/ 
SPADES 5 
HEARTS 5 
/hold 
player 4444:hold/ 
CLUBS A 
HEARTS 6 
/hold 
player 2222:hold/ 
DIAMONDS 3 
HEARTS 3 
/hold 

---pre flop round bet---
valid player: 4, all in player: 0, fold player: 0
send inquire msg to player 4444 
inquire/ 
7777 325 0 100 blind 
5555 56086 4000 50 blind 
total pot: 150 
/inquire 
recv from player 4444: raise 315
send inquire msg to player 2222 
inquire/ 
4444 10598 8000 415 raise 
7777 325 0 100 blind 
5555 56086 4000 50 blind 
total pot: 565 
/inquire 
recv from player 2222: fold
send inquire msg to player 5555 
inquire/ 
2222 350 0 0 fold 
4444 10598 8000 415 raise 
7777 325 0 100 blind 
5555 56086 4000 50 blind 
total pot: 565 
/inquire 
recv from player 5555: raise 0
send inquire msg to player 7777 
inquire/ 
5555 55406 4000 730 raise 
2222 350 0 0 fold 
4444 10598 8000 415 raise 
7777 325 0 100 blind 
total pot: 1245 
/inquire 
recv from player 7777: check
send inquire msg to player 4444 
inquire/ 
7777 0 0 425 all_in 
5555 55406 4000 730 raise 
2222 350 0 0 fold 
4444 10598 8000 415 raise 
total pot: 1570 
/inquire 
recv from player 4444: check
flop/ 
CLUBS Q 
SPADES 9 
CLUBS 10 
/flop 

---flop round bet---
valid player: 4, all in player: 1, fold player: 1
send inquire msg to player 5555 
inquire/ 
2222 350 0 0 fold 
4444 10283 8000 730 call 
7777 0 0 425 all_in 
5555 55406 4000 730 raise 
total pot: 1885 
/inquire 
recv from player 5555: raise 0
send inquire msg to player 4444 
inquire/ 
7777 0 0 425 all_in 
5555 55306 4000 830 raise 
2222 350 0 0 fold 
4444 10283 8000 730 call 
total pot: 1985 
/inquire 
recv from player 4444: check
turn/ 
HEARTS 9 
/turn 

---turn round bet---
valid player: 4, all in player: 1, fold player: 1
send inquire msg to player 5555 
inquire/ 
2222 350 0 0 fold 
4444 10183 8000 830 call 
7777 0 0 425 all_in 
5555 55306 4000 830 raise 
total pot: 2085 
/inquire 
recv from player 5555: check
send inquire msg to player 4444 
inquire/ 
7777 0 0 425 all_in 
5555 55306 4000 830 check 
2222 350 0 0 fold 
4444 10183 8000 830 call 
total pot: 2085 
/inquire 
recv from player 4444: fold
river/ 
SPADES 8 
/river 

---river round bet---
valid player: 4, all in player: 1, fold player: 2

---show down---
showdown/ 
common/ 
CLUBS Q 
SPADES 9 
CLUBS 10 
HEARTS 9 
SPADES 8 
/common 
2: 5555 SPADES 6 SPADES 3 ONE_PAIR 
1: 7777 SPADES 5 HEARTS 5 TWO_PAIR 
/showdown 

---Allocate pot---
pot-win/ 
7777: 1680 
5555: 405 
/pot-win 
it is player 5555's turn to be button

-----71 Hand-----
seat/ 
button: 5555 55711 4000 
small blind: 7777 1680 0 
big blind: 4444 10183 8000 
2222 350 0 
/seat 
blind/ 
7777: 50 
4444: 100 
/blind 
player 7777:hold/ 
CLUBS 2 
DIAMONDS K 
/hold 
player 4444:hold/ 
CLUBS Q 
CLUBS 4 
/hold 
player 2222:hold/ 
SPADES 2 
SPADES 5 
/hold 
player 5555:hold/ 
SPADES 4 
SPADES 6 
/hold 

---pre flop round bet---
valid player: 4, all in player: 0, fold player: 0
send inquire msg to player 2222 
inquire/ 
4444 10083 8000 100 blind 
7777 1630 0 50 blind 
total pot: 150 
/inquire 
recv from player 2222: fold
send inquire msg to player 5555 
inquire/ 
2222 350 0 0 fold 
4444 10083 8000 100 blind 
7777 1630 0 50 blind 
total pot: 150 
/inquire 
recv from player 5555: check
send inquire msg to player 7777 
inquire/ 
5555 55611 4000 100 call 
2222 350 0 0 fold 
4444 10083 8000 100 blind 
7777 1630 0 50 blind 
total pot: 250 
/inquire 
recv from player 7777: check
send inquire msg to player 4444 
inquire/ 
7777 1580 0 100 call 
5555 55611 4000 100 call 
2222 350 0 0 fold 
4444 10083 8000 100 blind 
total pot: 300 
/inquire 
recv from player 4444: check
flop/ 
HEARTS 5 
DIAMONDS Q 
SPADES 7 
/flop 

---flop round bet---
valid player: 4, all in player: 0, fold player: 1
send inquire msg to player 7777 
inquire/ 
5555 55611 4000 100 call 
2222 350 0 0 fold 
4444 10083 8000 100 check 
7777 1580 0 100 call 
total pot: 300 
/inquire 
recv from player 7777: fold
send inquire msg to player 4444 
inquire/ 
7777 1580 0 100 fold 
5555 55611 4000 100 call 
2222 350 0 0 fold 
4444 10083 8000 100 check 
total pot: 300 
/inquire 
recv from player 4444: check
send inquire msg to player 5555 
inquire/ 
2222 350 0 0 fold 
4444 10083 8000 100 check 
7777 1580 0 100 fold 
5555 55611 4000 100 call 
total pot: 300 
/inquire 
recv from player 5555: raise 0
send inquire msg to player 4444 
inquire/ 
7777 1580 0 100 fold 
5555 55511 4000 200 raise 
2222 350 0 0 fold 
4444 10083 8000 100 check 
total pot: 400 
/inquire 
recv from player 4444: check
turn/ 
HEARTS 7 
/turn 

---turn round bet---
valid player: 4, all in player: 0, fold player: 2
send inquire msg to player 4444 
inquire/ 
7777 1580 0 100 fold 
5555 55511 4000 200 raise 
2222 350 0 0 fold 
4444 9983 8000 200 call 
total pot: 500 
/inquire 
recv from player 4444: check
send inquire msg to player 5555 
inquire/ 
2222 350 0 0 fold 
4444 9983 8000 200 check 
7777 1580 0 100 fold 
5555 55511 4000 200 raise 
total pot: 500 
/inquire 
recv from player 5555: raise 0
send inquire msg to player 4444 
inquire/ 
7777 1580 0 100 fold 
5555 55411 4000 300 raise 
2222 350 0 0 fold 
4444 9983 8000 200 check 
total pot: 600 
/inquire 
recv from player 4444: check
river/ 
HEARTS 2 
/river 

---river round bet---
valid player: 4, all in player: 0, fold player: 2
send inquire msg to player 4444 
inquire/ 
7777 1580 0 100 fold 
5555 55411 4000 300 raise 
2222 350 0 0 fold 
4444 9883 8000 300 call 
total pot: 700 
/inquire 
recv from player 4444: check
send inquire msg to player 5555 
inquire/ 
2222 350 0 0 fold 
4444 9883 8000 300 check 
7777 1580 0 100 fold 
5555 55411 4000 300 raise 
total pot: 700 
/inquire 
recv from player 5555: check

---show down---
showdown/ 
common/ 
HEARTS 5 
DIAMONDS Q 
SPADES 7 
HEARTS 7 
HEARTS 2 
/common 
1: 4444 CLUBS Q CLUBS 4 TWO_PAIR 
2: 5555 SPADES 4 SPADES 6 ONE_PAIR 
/showdown 

---Allocate pot---
pot-win/ 
4444: 700 
/pot-win 
it is player 7777's turn to be button

-----72 Hand-----
seat/ 
button: 7777 1580 0 
small blind: 4444 10583 8000 
big blind: 2222 350 0 
5555 55411 4000 
/seat 
blind/ 
4444: 50 
2222: 100 
/blind 
player 4444:hold/ 
HEARTS 9 
HEARTS A 
/hold 
player 2222:hold/ 
DIAMONDS 8 
SPADES 5 
/hold 
player 5555:hold/ 
CLUBS 8 
CLUBS Q 
/hold 
player 7777:hold/ 
HEARTS K 
CLUBS J 
/hold 

---pre flop round bet---
valid player: 4, all in player: 0, fold player: 0
send inquire msg to player 5555 
inquire/ 
2222 250 0 100 blind 
4444 10533 8000 50 blind 
total pot: 150 
/inquire 
recv from player 5555: check
send inquire msg to player 7777 
inquire/ 
5555 55311 4000 100 call 
2222 250 0 100 blind 
4444 10533 8000 50 blind 
total pot: 250 
/inquire 
recv from player 7777: check
send inquire msg to player 4444 
inquire/ 
7777 1480 0 100 call 
5555 55311 4000 100 call 
2222 250 0 100 blind 
4444 10533 8000 50 blind 
total pot: 350 
/inquire 
recv from player 4444: raise 1030
send inquire msg to player 2222 
inquire/ 
4444 9453 8000 1130 raise 
7777 1480 0 100 call 
5555 55311 4000 100 call 
2222 250 0 100 blind 
total pot: 1430 
/inquire 
recv from player 2222: check
send inquire msg to player 5555 
inquire/ 
2222 0 0 350 all_in 
4444 9453 8000 1130 raise 
7777 1480 0 100 call 
5555 55311 4000 100 call 
total pot: 1680 
/inquire 
recv from player 5555: raise 0
send inquire msg to player 7777 
inquire/ 
5555 53251 4000 2160 raise 
2222 0 0 350 all_in 
4444 9453 8000 1130 raise 
7777 1480 0 100 call 
total pot: 3740 
/inquire 
recv from player 7777: check
send inquire msg to player 4444 
inquire/ 
7777 0 0 1580 all_in 
5555 53251 4000 2160 raise 
2222 0 0 350 all_in 
4444 9453 8000 1130 raise 
total pot: 5220 
/inquire 
recv from player 4444: check
flop/ 
DIAMONDS Q 
SPADES 2 
SPADES 6 
/flop 

---flop round bet---
valid player: 4, all in player: 2, fold player: 0
send inquire msg to player 4444 
inquire/ 
7777 0 0 1580 all_in 
5555 53251 4000 2160 raise 
2222 0 0 350 all_in 
4444 8423 8000 2160 call 
total pot: 6250 
/inquire 
recv from player 4444: check
send inquire msg to player 5555 
inquire/ 
2222 0 0 350 all_in 
4444 8423 8000 2160 check 
7777 0 0 1580 all_in 
5555 53251 4000 2160 raise 
total pot: 6250 
/inquire 
recv from player 5555: check
turn/ 
HEARTS 2 
/turn 

---turn round bet---
valid player: 4, all in player: 2, fold player: 0
send inquire msg to player 4444 
inquire/ 
7777 0 0 1580 all_in 
5555 53251 4000 2160 check 
2222 0 0 350 all_in 
4444 8423 8000 2160 check 
total pot: 6250 
/inquire 
recv from player 4444: check
send inquire msg to player 5555 
inquire/ 
2222 0 0 350 all_in 
4444 8423 8000 2160 check 
7777 0 0 1580 all_in 
5555 53251 4000 2160 check 
total pot: 6250 
/inquire 
recv from player 5555: raise 0
send inquire msg to player 4444 
inquire/ 
7777 0 0 1580 all_in 
5555 53151 4000 2260 raise 
2222 0 0 350 all_in 
4444 8423 8000 2160 check 
total pot: 6350 
/inquire 
recv from player 4444: check
river/ 
CLUBS 9 
/river 

---river round bet---
valid player: 4, all in player: 2, fold player: 0
send inquire msg to player 4444 
inquire/ 
7777 0 0 1580 all_in 
5555 53151 4000 2260 raise 
2222 0 0 350 all_in 
4444 8323 8000 2260 call 
total pot: 6450 
/inquire 
recv from player 4444: check
send inquire msg to player 5555 
inquire/ 
2222 0 0 350 all_in 
4444 8323 8000 2260 check 
7777 0 0 1580 all_in 
5555 53151 4000 2260 raise 
total pot: 6450 
/inquire 
recv from player 5555: check

---show down---
showdown/ 
common/ 
DIAMONDS Q 
SPADES 2 
SPADES 6 
HEARTS 2 
CLUBS 9 
/common 
2: 4444 HEARTS 9 HEARTS A TWO_PAIR 
4: 2222 DIAMONDS 8 SPADES 5 ONE_PAIR 
1: 5555 CLUBS 8 CLUBS Q TWO_PAIR 
3: 7777 HEARTS K CLUBS J ONE_PAIR 
/showdown 

---Allocate pot---
pot-win/ 
5555: 6450 
/pot-win 
it is player 4444's turn to be button

-----73 Hand-----
seat/ 
button: 4444 8323 8000 
small blind: 5555 59601 4000 
/seat 
blind/ 
5555: 50 
/blind 
player 5555:hold/ 
HEARTS 9 
DIAMONDS 5 
/hold 
player 4444:hold/ 
CLUBS 10 
SPADES K 
/hold 

---pre flop round bet---
valid player: 2, all in player: 0, fold player: 0
send inquire msg to player 4444 
inquire/ 
5555 59551 4000 50 blind 
total pot: 50 
/inquire 
recv from player 4444: check
send inquire msg to player 5555 
inquire/ 
4444 8273 8000 50 call 
5555 59551 4000 50 blind 
total pot: 100 
/inquire 
recv from player 5555: check
flop/ 
DIAMONDS 3 
HEARTS J 
HEARTS Q 
/flop 

---flop round bet---
valid player: 2, all in player: 0, fold player: 0
send inquire msg to player 5555 
inquire/ 
4444 8273 8000 50 call 
5555 59551 4000 50 check 
total pot: 100 
/inquire 
recv from player 5555: check
send inquire msg to player 4444 
inquire/ 
5555 59551 4000 50 check 
4444 8273 8000 50 call 
total pot: 100 
/inquire 
recv from player 4444: check
turn/ 
HEARTS 8 
/turn 

---turn round bet---
valid player: 2, all in player: 0, fold player: 0
send inquire msg to player 5555 
inquire/ 
4444 8273 8000 50 check 
5555 59551 4000 50 check 
total pot: 100 
/inquire 
recv from player 5555: raise 0
send inquire msg to player 4444 
inquire/ 
5555 59451 4000 150 raise 
4444 8273 8000 50 check 
total pot: 200 
/inquire 
recv from player 4444: check
river/ 
HEARTS 4 
/river 

---river round bet---
valid player: 2, all in player: 0, fold player: 0
send inquire msg to player 5555 
inquire/ 
4444 8173 8000 150 call 
5555 59451 4000 150 raise 
total pot: 300 
/inquire 
recv from player 5555: raise 0
send inquire msg to player 4444 
inquire/ 
5555 59351 4000 250 raise 
4444 8173 8000 150 call 
total pot: 400 
/inquire 
recv from player 4444: check

---show down---
showdown/ 
common/ 
DIAMONDS 3 
HEARTS J 
HEARTS Q 
HEARTS 8 
HEARTS 4 
/common 
1: 5555 HEARTS 9 DIAMONDS 5 FLUSH 
2: 4444 CLUBS 10 SPADES K HIGH_CARD 
/showdown 

---Allocate pot---
pot-win/ 
5555: 500 
/pot-win 
it is player 5555's turn to be button

-----74 Hand-----
seat/ 
button: 5555 59851 4000 
small blind: 4444 8073 8000 
/seat 
blind/ 
4444: 50 
/blind 
player 4444:hold/ 
SPADES 6 
SPADES 3 
/hold 
player 5555:hold/ 
SPADES J 
DIAMONDS 10 
/hold 

---pre flop round bet---
valid player: 2, all in player: 0, fold player: 0
send inquire msg to player 5555 
inquire/ 
4444 8023 8000 50 blind 
total pot: 50 
/inquire 
recv from player 5555: raise 0
send inquire msg to player 4444 
inquire/ 
5555 59701 4000 150 raise 
4444 8023 8000 50 blind 
total pot: 200 
/inquire 
recv from player 4444: check
flop/ 
HEARTS Q 
CLUBS 2 
DIAMONDS 8 
/flop 

---flop round bet---
valid player: 2, all in player: 0, fold player: 0
send inquire msg to player 4444 
inquire/ 
5555 59701 4000 150 raise 
4444 7923 8000 150 call 
total pot: 300 
/inquire 
recv from player 4444: check
send inquire msg to player 5555 
inquire/ 
4444 7923 8000 150 check 
5555 59701 4000 150 raise 
total pot: 300 
/inquire 
recv from player 5555: check
turn/ 
HEARTS A 
/turn 

---turn round bet---
valid player: 2, all in player: 0, fold player: 0
send inquire msg to player 4444 
inquire/ 
5555 59701 4000 150 check 
4444 7923 8000 150 check 
total pot: 300 
/inquire 
recv from player 4444: check
send inquire msg to player 5555 
inquire/ 
4444 7923 8000 150 check 
5555 59701 4000 150 check 
total pot: 300 
/inquire 
recv from player 5555: raise 0
send inquire msg to player 4444 
inquire/ 
5555 59601 4000 250 raise 
4444 7923 8000 150 check 
total pot: 400 
/inquire 
recv from player 4444: check
river/ 
CLUBS K 
/river 

---river round bet---
valid player: 2, all in player: 0, fold player: 0
send inquire msg to player 4444 
inquire/ 
5555 59601 4000 250 raise 
4444 7823 8000 250 call 
total pot: 500 
/inquire 
recv from player 4444: check
send inquire msg to player 5555 
inquire/ 
4444 7823 8000 250 check 
5555 59601 4000 250 raise 
total pot: 500 
/inquire 
recv from player 5555: raise 0
send inquire msg to player 4444 
inquire/ 
5555 59501 4000 350 raise 
4444 7823 8000 250 check 
total pot: 600 
/inquire 
recv from player 4444: check

---show down---
showdown/ 
common/ 
HEARTS Q 
CLUBS 2 
DIAMONDS 8 
HEARTS A 
CLUBS K 
/common 
2: 4444 SPADES 6 SPADES 3 HIGH_CARD 
1: 5555 SPADES J DIAMONDS 10 STRAIGHT 
/showdown 

---Allocate pot---
pot-win/ 
5555: 700 
/pot-win 
it is player 4444's turn to be button

-----75 Hand-----
seat/ 
button: 4444 7723 8000 
small blind: 5555 60201 4000 
/seat 
blind/ 
5555: 50 
/blind 
player 5555:hold/ 
DIAMONDS K 
CLUBS 4 
/hold 
player 4444:hold/ 
SPADES A 
CLUBS 6 
/hold 

---pre flop round bet---
valid player: 2, all in player: 0, fold player: 0
send inquire msg to player 4444 
inquire/ 
5555 60151 4000 50 blind 
total pot: 50 
/inquire 
recv from player 4444: check
send inquire msg to player 5555 
inquire/ 
4444 7673 8000 50 call 
5555 60151 4000 50 blind 
total pot: 100 
/inquire 
recv from player 5555: raise 0
send inquire msg to player 4444 
inquire/ 
5555 60051 4000 150 raise 
4444 7673 8000 50 call 
total pot: 200 
/inquire 
recv from player 4444: check
flop/ 
HEARTS 4 
HEARTS 6 
CLUBS 2 
/flop 

---flop round bet---
valid player: 2, all in player: 0, fold player: 0
send inquire msg to player 5555 
inquire/ 
4444 7573 8000 150 call 
5555 60051 4000 150 raise 
total pot: 300 
/inquire 
recv from player 5555: raise 0
send inquire msg to player 4444 
inquire/ 
5555 59951 4000 250 raise 
4444 7573 8000 150 call 
total pot: 400 
/inquire 
recv from player 4444: check
turn/ 
HEARTS 10 
/turn 

---turn round bet---
valid player: 2, all in player: 0, fold player: 0
send inquire msg to player 5555 
inquire/ 
4444 7473 8000 250 call 
5555 59951 4000 250 raise 
total pot: 500 
/inquire 
recv from player 5555: raise 0
send inquire msg to player 4444 
inquire/ 
5555 59851 4000 350 raise 
4444 7473 8000 250 call 
total pot: 600 
/inquire 
recv from player 4444: check
river/ 
HEARTS 3 
/river 

---river round bet---
valid player: 2, all in player: 0, fold player: 0
send inquire msg to player 5555 
inquire/ 
4444 7373 8000 350 call 
5555 59851 4000 350 raise 
total pot: 700 
/inquire 
recv from player 5555: check
send inquire msg to player 4444 
inquire/ 
5555 59851 4000 350 check 
4444 7373 8000 350 call 
total pot: 700 
/inquire 
recv from player 4444: check

---show down---
showdown/ 
common/ 
HEARTS 4 
HEARTS 6 
CLUBS 2 
HEARTS 10 
HEARTS 3 
/common 
2: 5555 DIAMONDS K CLUBS 4 ONE_PAIR 
1: 4444 SPADES A CLUBS 6 ONE_PAIR 
/showdown 

---Allocate pot---
pot-win/ 
4444: 700 
/pot-win 
it is player 5555's turn to be button

-----76 Hand-----
seat/ 
button: 5555 59851 4000 
small blind: 4444 8073 8000 
/seat 
blind/ 
4444: 50 
/blind 
player 4444:hold/ 
DIAMONDS 5 
SPADES 10 
/hold 
player 5555:hold/ 
SPADES 2 
SPADES 9 
/hold 

---pre flop round bet---
valid player: 2, all in player: 0, fold player: 0
send inquire msg to player 5555 
inquire/ 
4444 8023 8000 50 blind 
total pot: 50 
/inquire 
recv from player 5555: raise 0
send inquire msg to player 4444 
inquire/ 
5555 59701 4000 150 raise 
4444 8023 8000 50 blind 
total pot: 200 
/inquire 
recv from player 4444: check
flop/ 
HEARTS 4 
DIAMONDS Q 
CLUBS 10 
/flop 

---flop round bet---
valid player: 2, all in player: 0, fold player: 0
send inquire msg to player 4444 
inquire/ 
5555 59701 4000 150 raise 
4444 7923 8000 150 call 
total pot: 300 
/inquire 
recv from player 4444: check
send inquire msg to player 5555 
inquire/ 
4444 7923 8000 150 check 
5555 59701 4000 150 raise 
total pot: 300 
/inquire 
recv from player 5555: raise 0
send inquire msg to player 4444 
inquire/ 
5555 59601 4000 250 raise 
4444 7923 8000 150 check 
total pot: 400 
/inquire 
recv from player 4444: check
turn/ 
SPADES J 
/turn 

---turn round bet---
valid player: 2, all in player: 0, fold player: 0
send inquire msg to player 4444 
inquire/ 
5555 59601 4000 250 raise 
4444 7823 8000 250 call 
total pot: 500 
/inquire 
recv from player 4444: check
send inquire msg to player 5555 
inquire/ 
4444 7823 8000 250 check 
5555 59601 4000 250 raise 
total pot: 500 
/inquire 
recv from player 5555: raise 0
send inquire msg to player 4444 
inquire/ 
5555 59501 4000 350 raise 
4444 7823 8000 250 check 
total pot: 600 
/inquire 
recv from player 4444: check
river/ 
CLUBS Q 
/river 

---river round bet---
valid player: 2, all in player: 0, fold player: 0
send inquire msg to player 4444 
inquire/ 
5555 59501 4000 350 raise 
4444 7723 8000 350 call 
total pot: 700 
/inquire 
recv from player 4444: check
send inquire msg to player 5555 
inquire/ 
4444 7723 8000 350 check 
5555 59501 4000 350 raise 
total pot: 700 
/inquire 
recv from player 5555: raise 0
send inquire msg to player 4444 
inquire/ 
5555 59401 4000 450 raise 
4444 7723 8000 350 check 
total pot: 800 
/inquire 
recv from player 4444: check

---show down---
showdown/ 
common/ 
HEARTS 4 
DIAMONDS Q 
CLUBS 10 
SPADES J 
CLUBS Q 
/common 
1: 4444 DIAMONDS 5 SPADES 10 TWO_PAIR 
2: 5555 SPADES 2 SPADES 9 ONE_PAIR 
/showdown 

---Allocate pot---
pot-win/ 
4444: 900 
/pot-win 
it is player 4444's turn to be button

-----77 Hand-----
seat/ 
button: 4444 8523 8000 
small blind: 5555 59401 4000 
/seat 
blind/ 
5555: 50 
/blind 
player 5555:hold/ 
CLUBS 9 
SPADES 5 
/hold 
player 4444:hold/ 
SPADES 3 
HEARTS 4 
/hold 

---pre flop round bet---
valid player: 2, all in player: 0, fold player: 0
send inquire msg to player 4444 
inquire/ 
5555 59351 4000 50 blind 
total pot: 50 
/inquire 
recv from player 4444: check
send inquire msg to player 5555 
inquire/ 
4444 8473 8000 50 call 
5555 59351 4000 50 blind 
total pot: 100 
/inquire 
recv from player 5555: check
flop/ 
DIAMONDS 5 
CLUBS 10 
HEARTS Q 
/flop 

---flop round bet---
valid player: 2, all in player: 0, fold player: 0
send inquire msg to player 5555 
inquire/ 
4444 8473 8000 50 call 
5555 59351 4000 50 check 
total pot: 100 
/inquire 
recv from player 5555: raise 0
send inquire msg to player 4444 
inquire/ 
5555 59251 4000 150 raise 
4444 8473 8000 50 call 
total pot: 200 
/inquire 
recv from player 4444: check
turn/ 
SPADES 10 
/turn 

---turn round bet---
valid player: 2, all in player: 0, fold player: 0
send inquire msg to player 5555 
inquire/ 
4444 8373 8000 150 call 
5555 59251 4000 150 raise 
total pot: 300 
/inquire 
recv from player 5555: check
send inquire msg to player 4444 
inquire/ 
5555 59251 4000 150 check 
4444 8373 8000 150 call 
total pot: 300 
/inquire 
recv from player 4444: check
river/ 
CLUBS J 
/river 

---river round bet---
valid player: 2, all in player: 0, fold player: 0
send inquire msg to player 5555 
inquire/ 
4444 8373 8000 150 check 
5555 59251 4000 150 check 
total pot: 300 
/inquire 
recv from player 5555: check
send inquire msg to player 4444 
inquire/ 
5555 59251 4000 150 check 
4444 8373 8000 150 check 
total pot: 300 
/inquire 
recv from player 4444: check

---show down---
showdown/ 
common/ 
DIAMONDS 5 
CLUBS 10 
HEARTS Q 
SPADES 10 
CLUBS J 
/common 
1: 5555 CLUBS 9 SPADES 5 TWO_PAIR 
2: 4444 SPADES 3 HEARTS 4 ONE_PAIR 
/showdown 

---Allocate pot---
pot-win/ 
5555: 300 
/pot-win 
it is player 5555's turn to be button

-----78 Hand-----
seat/ 
button: 5555 59551 4000 
small blind: 4444 8373 8000 
/seat 
blind/ 
4444: 50 
/blind 
player 4444:hold/ 
DIAMONDS K 
SPADES 8 
/hold 
player 5555:hold/ 
SPADES 6 
SPADES Q 
/hold 

---pre flop round bet---
valid player: 2, all in player: 0, fold player: 0
send inquire msg to player 5555 
inquire/ 
4444 8323 8000 50 blind 
total pot: 50 
/inquire 
recv from player 5555: raise 0
send inquire msg to player 4444 
inquire/ 
5555 59401 4000 150 raise 
4444 8323 8000 50 blind 
total pot: 200 
/inquire 
recv from player 4444: check
flop/ 
HEARTS K 
CLUBS 5 
HEARTS 6 
/flop 

---flop round bet---
valid player: 2, all in player: 0, fold player: 0
send inquire msg to player 4444 
inquire/ 
5555 59401 4000 150 raise 
4444 8223 8000 150 call 
total pot: 300 
/inquire 
recv from player 4444: check
send inquire msg to player 5555 
inquire/ 
4444 8223 8000 150 check 
5555 59401 4000 150 raise 
total pot: 300 
/inquire 
recv from player 5555: check
turn/ 
CLUBS 4 
/turn 

---turn round bet---
valid player: 2, all in player: 0, fold player: 0
send inquire msg to player 4444 
inquire/ 
5555 59401 4000 150 check 
4444 8223 8000 150 check 
total pot: 300 
/inquire 
recv from player 4444: check
send inquire msg to player 5555 
inquire/ 
4444 8223 8000 150 check 
5555 59401 4000 150 check 
total pot: 300 
/inquire 
recv from player 5555: check
river/ 
DIAMONDS 4 
/river 

---river round bet---
valid player: 2, all in player: 0, fold player: 0
send inquire msg to player 4444 
inquire/ 
5555 59401 4000 150 check 
4444 8223 8000 150 check 
total pot: 300 
/inquire 
recv from player 4444: check
send inquire msg to player 5555 
inquire/ 
4444 8223 8000 150 check 
5555 59401 4000 150 check 
total pot: 300 
/inquire 
recv from player 5555: raise 0
send inquire msg to player 4444 
inquire/ 
5555 59301 4000 250 raise 
4444 8223 8000 150 check 
total pot: 400 
/inquire 
recv from player 4444: check

---show down---
showdown/ 
common/ 
HEARTS K 
CLUBS 5 
HEARTS 6 
CLUBS 4 
DIAMONDS 4 
/common 
1: 4444 DIAMONDS K SPADES 8 TWO_PAIR 
2: 5555 SPADES 6 SPADES Q TWO_PAIR 
/showdown 

---Allocate pot---
pot-win/ 
4444: 500 
/pot-win 
it is player 4444's turn to be button

-----79 Hand-----
seat/ 
button: 4444 8623 8000 
small blind: 5555 59301 4000 
/seat 
blind/ 
5555: 50 
/blind 
player 5555:hold/ 
SPADES 2 
CLUBS A 
/hold 
player 4444:hold/ 
CLUBS 10 
CLUBS 3 
/hold 

---pre flop round bet---
valid player: 2, all in player: 0, fold player: 0
send inquire msg to player 4444 
inquire/ 
5555 59251 4000 50 blind 
total pot: 50 
/inquire 
recv from player 4444: check
send inquire msg to player 5555 
inquire/ 
4444 8573 8000 50 call 
5555 59251 4000 50 blind 
total pot: 100 
/inquire 
recv from player 5555: check
flop/ 
SPADES 6 
DIAMONDS Q 
CLUBS 9 
/flop 

---flop round bet---
valid player: 2, all in player: 0, fold player: 0
send inquire msg to player 5555 
inquire/ 
4444 8573 8000 50 call 
5555 59251 4000 50 check 
total pot: 100 
/inquire 
recv from player 5555: check
send inquire msg to player 4444 
inquire/ 
5555 59251 4000 50 check 
4444 8573 8000 50 call 
total pot: 100 
/inquire 
recv from player 4444: check
turn/ 
CLUBS 8 
/turn 

---turn round bet---
valid player: 2, all in player: 0, fold player: 0
send inquire msg to player 5555 
inquire/ 
4444 8573 8000 50 check 
5555 59251 4000 50 check 
total pot: 100 
/inquire 
recv from player 5555: raise 0
send inquire msg to player 4444 
inquire/ 
5555 59151 4000 150 raise 
4444 8573 8000 50 check 
total pot: 200 
/inquire 
recv from player 4444: check
river/ 
SPADES Q 
/river 

---river round bet---
valid player: 2, all in player: 0, fold player: 0
send inquire msg to player 5555 
inquire/ 
4444 8473 8000 150 call 
5555 59151 4000 150 raise 
total pot: 300 
/inquire 
recv from player 5555: check
send inquire msg to player 4444 
inquire/ 
5555 59151 4000 150 check 
4444 8473 8000 150 call 
total pot: 300 
/inquire 
recv from player 4444: check

---show down---
showdown/ 
common/ 
SPADES 6 
DIAMONDS Q 
CLUBS 9 
CLUBS 8 
SPADES Q 
/common 
1: 5555 SPADES 2 CLUBS A ONE_PAIR 
2: 4444 CLUBS 10 CLUBS 3 ONE_PAIR 
/showdown 

---Allocate pot---
pot-win/ 
5555: 300 
/pot-win 
it is player 5555's turn to be button

-----80 Hand-----
seat/ 
button: 5555 59451 4000 
small blind: 4444 8473 8000 
/seat 
blind/ 
4444: 50 
/blind 
player 4444:hold/ 
DIAMONDS 2 
SPADES J 
/hold 
player 5555:hold/ 
DIAMONDS 5 
HEARTS A 
/hold 

---pre flop round bet---
valid player: 2, all in player: 0, fold player: 0
send inquire msg to player 5555 
inquire/ 
4444 8423 8000 50 blind 
total pot: 50 
/inquire 
recv from player 5555: check
send inquire msg to player 4444 
inquire/ 
5555 59401 4000 50 call 
4444 8423 8000 50 blind 
total pot: 100 
/inquire 
recv from player 4444: check
flop/ 
DIAMONDS 6 
CLUBS 2 
DIAMONDS 8 
/flop 

---flop round bet---
valid player: 2, all in player: 0, fold player: 0
send inquire msg to player 4444 
inquire/ 
5555 59401 4000 50 call 
4444 8423 8000 50 check 
total pot: 100 
/inquire 
recv from player 4444: check
send inquire msg to player 5555 
inquire/ 
4444 8423 8000 50 check 
5555 59401 4000 50 call 
total pot: 100 
/inquire 
recv from player 5555: raise 0
send inquire msg to player 4444 
inquire/ 
5555 59301 4000 150 raise 
4444 8423 8000 50 check 
total pot: 200 
/inquire 
recv from player 4444: check
turn/ 
SPADES 10 
/turn 

---turn round bet---
valid player: 2, all in player: 0, fold player: 0
send inquire msg to player 4444 
inquire/ 
5555 59301 4000 150 raise 
4444 8323 8000 150 call 
total pot: 300 
/inquire 
recv from player 4444: check
send inquire msg to player 5555 
inquire/ 
4444 8323 8000 150 check 
5555 59301 4000 150 raise 
total pot: 300 
/inquire 
recv from player 5555: raise 0
send inquire msg to player 4444 
inquire/ 
5555 59201 4000 250 raise 
4444 8323 8000 150 check 
total pot: 400 
/inquire 
recv from player 4444: check
river/ 
CLUBS J 
/river 

---river round bet---
valid player: 2, all in player: 0, fold player: 0
send inquire msg to player 4444 
inquire/ 
5555 59201 4000 250 raise 
4444 8223 8000 250 call 
total pot: 500 
/inquire 
recv from player 4444: check
send inquire msg to player 5555 
inquire/ 
4444 8223 8000 250 check 
5555 59201 4000 250 raise 
total pot: 500 
/inquire 
recv from player 5555: raise 0
send inquire msg to player 4444 
inquire/ 
5555 59101 4000 350 raise 
4444 8223 8000 250 check 
total pot: 600 
/inquire 
recv from player 4444: check

---show down---
showdown/ 
common/ 
DIAMONDS 6 
CLUBS 2 
DIAMONDS 8 
SPADES 10 
CLUBS J 
/common 
1: 4444 DIAMONDS 2 SPADES J TWO_PAIR 
2: 5555 DIAMONDS 5 HEARTS A HIGH_CARD 
/showdown 

---Allocate pot---
pot-win/ 
4444: 700 
/pot-win 
it is player 4444's turn to be button

-----81 Hand-----
seat/ 
button: 4444 8823 8000 
small blind: 5555 59101 4000 
/seat 
blind/ 
5555: 50 
/blind 
player 5555:hold/ 
SPADES K 
SPADES 5 
/hold 
player 4444:hold/ 
DIAMONDS Q 
SPADES J 
/hold 

---pre flop round bet---
valid player: 2, all in player: 0, fold player: 0
send inquire msg to player 4444 
inquire/ 
5555 59051 4000 50 blind 
total pot: 50 
/inquire 
recv from player 4444: check
send inquire msg to player 5555 
inquire/ 
4444 8773 8000 50 call 
5555 59051 4000 50 blind 
total pot: 100 
/inquire 
recv from player 5555: raise 0
send inquire msg to player 4444 
inquire/ 
5555 58951 4000 150 raise 
4444 8773 8000 50 call 
total pot: 200 
/inquire 
recv from player 4444: check
flop/ 
HEARTS 7 
HEARTS 2 
CLUBS 4 
/flop 

---flop round bet---
valid player: 2, all in player: 0, fold player: 0
send inquire msg to player 5555 
inquire/ 
4444 8673 8000 150 call 
5555 58951 4000 150 raise 
total pot: 300 
/inquire 
recv from player 5555: check
send inquire msg to player 4444 
inquire/ 
5555 58951 4000 150 check 
4444 8673 8000 150 call 
total pot: 300 
/inquire 
recv from player 4444: check
turn/ 
SPADES 2 
/turn 

---turn round bet---
valid player: 2, all in player: 0, fold player: 0
send inquire msg to player 5555 
inquire/ 
4444 8673 8000 150 check 
5555 58951 4000 150 check 
total pot: 300 
/inquire 
recv from player 5555: check
send inquire msg to player 4444 
inquire/ 
5555 58951 4000 150 check 
4444 8673 8000 150 check 
total pot: 300 
/inquire 
recv from player 4444: check
river/ 
DIAMONDS 9 
/river 

---river round bet---
valid player: 2, all in player: 0, fold player: 0
send inquire msg to player 5555 
inquire/ 
4444 8673 8000 150 check 
5555 58951 4000 150 check 
total pot: 300 
/inquire 
recv from player 5555: raise 0
send inquire msg to player 4444 
inquire/ 
5555 58851 4000 250 raise 
4444 8673 8000 150 check 
total pot: 400 
/inquire 
recv from player 4444: check

---show down---
showdown/ 
common/ 
HEARTS 7 
HEARTS 2 
CLUBS 4 
SPADES 2 
DIAMONDS 9 
/common 
1: 5555 SPADES K SPADES 5 ONE_PAIR 
2: 4444 DIAMONDS Q SPADES J ONE_PAIR 
/showdown 

---Allocate pot---
pot-win/ 
5555: 500 
/pot-win 
it is player 5555's turn to be button

-----82 Hand-----
seat/ 
button: 5555 59351 4000 
small blind: 4444 8573 8000 
/seat 
blind/ 
4444: 50 
/blind 
player 4444:hold/ 
HEARTS K 
HEARTS J 
/hold 
player 5555:hold/ 
DIAMONDS A 
CLUBS 2 
/hold 

---pre flop round bet---
valid player: 2, all in player: 0, fold player: 0
send inquire msg to player 5555 
inquire/ 
4444 8523 8000 50 blind 
total pot: 50 
/inquire 
recv from player 5555: raise 0
send inquire msg to player 4444 
inquire/ 
5555 59201 4000 150 raise 
4444 8523 8000 50 blind 
total pot: 200 
/inquire 
recv from player 4444: check
flop/ 
SPADES 5 
DIAMONDS 6 
HEARTS A 
/flop 

---flop round bet---
valid player: 2, all in player: 0, fold player: 0
send inquire msg to player 4444 
inquire/ 
5555 59201 4000 150 raise 
4444 8423 8000 150 call 
total pot: 300 
/inquire 
recv from player 4444: check
send inquire msg to player 5555 
inquire/ 
4444 8423 8000 150 check 
5555 59201 4000 150 raise 
total pot: 300 
/inquire 
recv from player 5555: check
turn/ 
SPADES A 
/turn 

---turn round bet---
valid player: 2, all in player: 0, fold player: 0
send inquire msg to player 4444 
inquire/ 
5555 59201 4000 150 check 
4444 8423 8000 150 check 
total pot: 300 
/inquire 
recv from player 4444: check
send inquire msg to player 5555 
inquire/ 
4444 8423 8000 150 check 
5555 59201 4000 150 check 
total pot: 300 
/inquire 
recv from player 5555: check
river/ 
SPADES Q 
/river 

---river round bet---
valid player: 2, all in player: 0, fold player: 0
send inquire msg to player 4444 
inquire/ 
5555 59201 4000 150 check 
4444 8423 8000 150 check 
total pot: 300 
/inquire 
recv from player 4444: check
send inquire msg to player 5555 
inquire/ 
4444 8423 8000 150 check 
5555 59201 4000 150 check 
total pot: 300 
/inquire 
recv from player 5555: check

---show down---
showdown/ 
common/ 
SPADES 5 
DIAMONDS 6 
HEARTS A 
SPADES A 
SPADES Q 
/common 
2: 4444 HEARTS K HEARTS J ONE_PAIR 
1: 5555 DIAMONDS A CLUBS 2 THREE_OF_A_KIND 
/showdown 

---Allocate pot---
pot-win/ 
5555: 300 
/pot-win 
it is player 4444's turn to be button

-----83 Hand-----
seat/ 
button: 4444 8423 8000 
small blind: 5555 59501 4000 
/seat 
blind/ 
5555: 50 
/blind 
player 5555:hold/ 
SPADES 6 
DIAMONDS 2 
/hold 
player 4444:hold/ 
SPADES 7 
SPADES 3 
/hold 

---pre flop round bet---
valid player: 2, all in player: 0, fold player: 0
send inquire msg to player 4444 
inquire/ 
5555 59451 4000 50 blind 
total pot: 50 
/inquire 
recv from player 4444: check
send inquire msg to player 5555 
inquire/ 
4444 8373 8000 50 call 
5555 59451 4000 50 blind 
total pot: 100 
/inquire 
recv from player 5555: check
flop/ 
DIAMONDS 9 
SPADES 8 
CLUBS 3 
/flop 

---flop round bet---
valid player: 2, all in player: 0, fold player: 0
send inquire msg to player 5555 
inquire/ 
4444 8373 8000 50 call 
5555 59451 4000 50 check 
total pot: 100 
/inquire 
recv from player 5555: raise 0
send inquire msg to player 4444 
inquire/ 
5555 59351 4000 150 raise 
4444 8373 8000 50 call 
total pot: 200 
/inquire 
recv from player 4444: check
turn/ 
CLUBS A 
/turn 

---turn round bet---
valid player: 2, all in player: 0, fold player: 0
send inquire msg to player 5555 
inquire/ 
4444 8273 8000 150 call 
5555 59351 4000 150 raise 
total pot: 300 
/inquire 
recv from player 5555: check
send inquire msg to player 4444 
inquire/ 
5555 59351 4000 150 check 
4444 8273 8000 150 call 
total pot: 300 
/inquire 
recv from player 4444: check
river/ 
HEARTS 7 
/river 

---river round bet---
valid player: 2, all in player: 0, fold player: 0
send inquire msg to player 5555 
inquire/ 
4444 8273 8000 150 check 
5555 59351 4000 150 check 
total pot: 300 
/inquire 
recv from player 5555: raise 0
send inquire msg to player 4444 
inquire/ 
5555 59251 4000 250 raise 
4444 8273 8000 150 check 
total pot: 400 
/inquire 
recv from player 4444: check

---show down---
showdown/ 
common/ 
DIAMONDS 9 
SPADES 8 
CLUBS 3 
CLUBS A 
HEARTS 7 
/common 
2: 5555 SPADES 6 DIAMONDS 2 HIGH_CARD 
1: 4444 SPADES 7 SPADES 3 TWO_PAIR 
/showdown 

---Allocate pot---
pot-win/ 
4444: 500 
/pot-win 
it is player 5555's turn to be button

-----84 Hand-----
seat/ 
button: 5555 59251 4000 
small blind: 4444 8673 8000 
/seat 
blind/ 
4444: 50 
/blind 
player 4444:hold/ 
DIAMONDS Q 
HEARTS 7 
/hold 
player 5555:hold/ 
HEARTS 6 
HEARTS J 
/hold 

---pre flop round bet---
valid player: 2, all in player: 0, fold player: 0
send inquire msg to player 5555 
inquire/ 
4444 8623 8000 50 blind 
total pot: 50 
/inquire 
recv from player 5555: check
send inquire msg to player 4444 
inquire/ 
5555 59201 4000 50 call 
4444 8623 8000 50 blind 
total pot: 100 
/inquire 
recv from player 4444: check
flop/ 
CLUBS K 
CLUBS 4 
HEARTS A 
/flop 

---flop round bet---
valid player: 2, all in player: 0, fold player: 0
send inquire msg to player 4444 
inquire/ 
5555 59201 4000 50 call 
4444 8623 8000 50 check 
total pot: 100 
/inquire 
recv from player 4444: check
send inquire msg to player 5555 
inquire/ 
4444 8623 8000 50 check 
5555 59201 4000 50 call 
total pot: 100 
/inquire 
recv from player 5555: raise 0
send inquire msg to player 4444 
inquire/ 
5555 59101 4000 150 raise 
4444 8623 8000 50 check 
total pot: 200 
/inquire 
recv from player 4444: check
turn/ 
CLUBS A 
/turn 

---turn round bet---
valid player: 2, all in player: 0, fold player: 0
send inquire msg to player 4444 
inquire/ 
5555 59101 4000 150 raise 
4444 8523 8000 150 call 
total pot: 300 
/inquire 
recv from player 4444: check
send inquire msg to player 5555 
inquire/ 
4444 8523 8000 150 check 
5555 59101 4000 150 raise 
total pot: 300 
/inquire 
recv from player 5555: raise 0
send inquire msg to player 4444 
inquire/ 
5555 59001 4000 250 raise 
4444 8523 8000 150 check 
total pot: 400 
/inquire 
recv from player 4444: check
river/ 
SPADES 2 
/river 

---river round bet---
valid player: 2, all in player: 0, fold player: 0
send inquire msg to player 4444 
inquire/ 
5555 59001 4000 250 raise 
4444 8423 8000 250 call 
total pot: 500 
/inquire 
recv from player 4444: check
send inquire msg to player 5555 
inquire/ 
4444 8423 8000 250 check 
5555 59001 4000 250 raise 
total pot: 500 
/inquire 
recv from player 5555: check

---show down---
showdown/ 
common/ 
CLUBS K 
CLUBS 4 
HEARTS A 
CLUBS A 
SPADES 2 
/common 
1: 4444 DIAMONDS Q HEARTS 7 ONE_PAIR 
2: 5555 HEARTS 6 HEARTS J ONE_PAIR 
/showdown 

---Allocate pot---
pot-win/ 
4444: 500 
/pot-win 
it is player 4444's turn to be button

-----85 Hand-----
seat/ 
button: 4444 8923 8000 
small blind: 5555 59001 4000 
/seat 
blind/ 
5555: 50 
/blind 
player 5555:hold/ 
CLUBS 2 
SPADES 5 
/hold 
player 4444:hold/ 
HEARTS 3 
HEARTS K 
/hold 

---pre flop round bet---
valid player: 2, all in player: 0, fold player: 0
send inquire msg to player 4444 
inquire/ 
5555 58951 4000 50 blind 
total pot: 50 
/inquire 
recv from player 4444: check
send inquire msg to player 5555 
inquire/ 
4444 8873 8000 50 call 
5555 58951 4000 50 blind 
total pot: 100 
/inquire 
recv from player 5555: raise 0
send inquire msg to player 4444 
inquire/ 
5555 58851 4000 150 raise 
4444 8873 8000 50 call 
total pot: 200 
/inquire 
recv from player 4444: check
flop/ 
HEARTS A 
SPADES K 
HEARTS 8 
/flop 

---flop round bet---
valid player: 2, all in player: 0, fold player: 0
send inquire msg to player 5555 
inquire/ 
4444 8773 8000 150 call 
5555 58851 4000 150 raise 
total pot: 300 
/inquire 
recv from player 5555: check
send inquire msg to player 4444 
inquire/ 
5555 58851 4000 150 check 
4444 8773 8000 150 call 
total pot: 300 
/inquire 
recv from player 4444: check
turn/ 
SPADES 4 
/turn 

---turn round bet---
valid player: 2, all in player: 0, fold player: 0
send inquire msg to player 5555 
inquire/ 
4444 8773 8000 150 check 
5555 58851 4000 150 check 
total pot: 300 
/inquire 
recv from player 5555: check
send inquire msg to player 4444 
inquire/ 
5555 58851 4000 150 check 
4444 8773 8000 150 check 
total pot: 300 
/inquire 
recv from player 4444: check
river/ 
DIAMONDS 2 
/river 

---river round bet---
valid player: 2, all in player: 0, fold player: 0
send inquire msg to player 5555 
inquire/ 
4444 8773 8000 150 check 
5555 58851 4000 150 check 
total pot: 300 
/inquire 
recv from player 5555: check
send inquire msg to player 4444 
inquire/ 
5555 58851 4000 150 check 
4444 8773 8000 150 check 
total pot: 300 
/inquire 
recv from player 4444: check

---show down---
showdown/ 
common/ 
HEARTS A 
SPADES K 
HEARTS 8 
SPADES 4 
DIAMONDS 2 
/common 
2: 5555 CLUBS 2 SPADES 5 ONE_PAIR 
1: 4444 HEARTS 3 HEARTS K ONE_PAIR 
/showdown 

---Allocate pot---
pot-win/ 
4444: 300 
/pot-win 
it is player 5555's turn to be button

-----86 Hand-----
seat/ 
button: 5555 58851 4000 
small blind: 4444 9073 8000 
/seat 
blind/ 
4444: 50 
/blind 
player 4444:hold/ 
DIAMONDS A 
CLUBS K 
/hold 
player 5555:hold/ 
DIAMONDS 6 
DIAMONDS 4 
/hold 

---pre flop round bet---
valid player: 2, all in player: 0, fold player: 0
send inquire msg to player 5555 
inquire/ 
4444 9023 8000 50 blind 
total pot: 50 
/inquire 
recv from player 5555: raise 0
send inquire msg to player 4444 
inquire/ 
5555 58701 4000 150 raise 
4444 9023 8000 50 blind 
total pot: 200 
/inquire 
recv from player 4444: check
flop/ 
SPADES 9 
SPADES 4 
SPADES J 
/flop 

---flop round bet---
valid player: 2, all in player: 0, fold player: 0
send inquire msg to player 4444 
inquire/ 
5555 58701 4000 150 raise 
4444 8923 8000 150 call 
total pot: 300 
/inquire 
recv from player 4444: check
send inquire msg to player 5555 
inquire/ 
4444 8923 8000 150 check 
5555 58701 4000 150 raise 
total pot: 300 
/inquire 
recv from player 5555: check
turn/ 
HEARTS 6 
/turn 

---turn round bet---
valid player: 2, all in player: 0, fold player: 0
send inquire msg to player 4444 
inquire/ 
5555 58701 4000 150 check 
4444 8923 8000 150 check 
total pot: 300 
/inquire 
recv from player 4444: check
send inquire msg to player 5555 
inquire/ 
4444 8923 8000 150 check 
5555 58701 4000 150 check 
total pot: 300 
/inquire 
recv from player 5555: raise 0
send inquire msg to player 4444 
inquire/ 
5555 58601 4000 250 raise 
4444 8923 8000 150 check 
total pot: 400 
/inquire 
recv from player 4444: check
river/ 
CLUBS 9 
/river 

---river round bet---
valid player: 2, all in player: 0, fold player: 0
send inquire msg to player 4444 
inquire/ 
5555 58601 4000 250 raise 
4444 8823 8000 250 call 
total pot: 500 
/inquire 
recv from player 4444: check
send inquire msg to player 5555 
inquire/ 
4444 8823 8000 250 check 
5555 58601 4000 250 raise 
total pot: 500 
/inquire 
recv from player 5555: raise 0
send inquire msg to player 4444 
inquire/ 
5555 58501 4000 350 raise 
4444 8823 8000 250 check 
total pot: 600 
/inquire 
recv from player 4444: check

---show down---
showdown/ 
common/ 
SPADES 9 
SPADES 4 
SPADES J 
HEARTS 6 
CLUBS 9 
/common 
2: 4444 DIAMONDS A CLUBS K ONE_PAIR 
1: 5555 DIAMONDS 6 DIAMONDS 4 TWO_PAIR 
/showdown 

---Allocate pot---
pot-win/ 
5555: 700 
/pot-win 
it is player 4444's turn to be button

-----87 Hand-----
seat/ 
button: 4444 8723 8000 
small blind: 5555 59201 4000 
/seat 
blind/ 
5555: 50 
/blind 
player 5555:hold/ 
HEARTS 7 
CLUBS 5 
/hold 
player 4444:hold/ 
DIAMONDS 9 
CLUBS 10 
/hold 

---pre flop round bet---
valid player: 2, all in player: 0, fold player: 0
send inquire msg to player 4444 
inquire/ 
5555 59151 4000 50 blind 
total pot: 50 
/inquire 
recv from player 4444: check
send inquire msg to player 5555 
inquire/ 
4444 8673 8000 50 call 
5555 59151 4000 50 blind 
total pot: 100 
/inquire 
recv from player 5555: raise 0
send inquire msg to player 4444 
inquire/ 
5555 59051 4000 150 raise 
4444 8673 8000 50 call 
total pot: 200 
/inquire 
recv from player 4444: check
flop/ 
SPADES 10 
CLUBS 9 
CLUBS 6 
/flop 

---flop round bet---
valid player: 2, all in player: 0, fold player: 0
send inquire msg to player 5555 
inquire/ 
4444 8573 8000 150 call 
5555 59051 4000 150 raise 
total pot: 300 
/inquire 
recv from player 5555: raise 0
send inquire msg to player 4444 
inquire/ 
5555 58951 4000 250 raise 
4444 8573 8000 150 call 
total pot: 400 
/inquire 
recv from player 4444: check
turn/ 
CLUBS 4 
/turn 

---turn round bet---
valid player: 2, all in player: 0, fold player: 0
send inquire msg to player 5555 
inquire/ 
4444 8473 8000 250 call 
5555 58951 4000 250 raise 
total pot: 500 
/inquire 
recv from player 5555: raise 0
send inquire msg to player 4444 
inquire/ 
5555 58851 4000 350 raise 
4444 8473 8000 250 call 
total pot: 600 
/inquire 
recv from player 4444: check
river/ 
DIAMONDS 6 
/river 

---river round bet---
valid player: 2, all in player: 0, fold player: 0
send inquire msg to player 5555 
inquire/ 
4444 8373 8000 350 call 
5555 58851 4000 350 raise 
total pot: 700 
/inquire 
recv from player 5555: raise 0
send inquire msg to player 4444 
inquire/ 
5555 58751 4000 450 raise 
4444 8373 8000 350 call 
total pot: 800 
/inquire 
recv from player 4444: check

---show down---
showdown/ 
common/ 
SPADES 10 
CLUBS 9 
CLUBS 6 
CLUBS 4 
DIAMONDS 6 
/common 
2: 5555 HEARTS 7 CLUBS 5 ONE_PAIR 
1: 4444 DIAMONDS 9 CLUBS 10 TWO_PAIR 
/showdown 

---Allocate pot---
pot-win/ 
4444: 900 
/pot-win 
it is player 5555's turn to be button

-----88 Hand-----
seat/ 
button: 5555 58751 4000 
small blind: 4444 9173 8000 
/seat 
blind/ 
4444: 50 
/blind 
player 4444:hold/ 
SPADES K 
SPADES Q 
/hold 
player 5555:hold/ 
HEARTS 2 
DIAMONDS 3 
/hold 

---pre flop round bet---
valid player: 2, all in player: 0, fold player: 0
send inquire msg to player 5555 
inquire/ 
4444 9123 8000 50 blind 
total pot: 50 
/inquire 
recv from player 5555: check
send inquire msg to player 4444 
inquire/ 
5555 58701 4000 50 call 
4444 9123 8000 50 blind 
total pot: 100 
/inquire 
recv from player 4444: check
flop/ 
DIAMONDS 7 
DIAMONDS 6 
CLUBS 4 
/flop 

---flop round bet---
valid player: 2, all in player: 0, fold player: 0
send inquire msg to player 4444 
inquire/ 
5555 58701 4000 50 call 
4444 9123 8000 50 check 
total pot: 100 
/inquire 
recv from player 4444: check
send inquire msg to player 5555 
inquire/ 
4444 9123 8000 50 check 
5555 58701 4000 50 call 
total pot: 100 
/inquire 
recv from player 5555: raise 0
send inquire msg to player 4444 
inquire/ 
5555 58601 4000 150 raise 
4444 9123 8000 50 check 
total pot: 200 
/inquire 
recv from player 4444: check
turn/ 
CLUBS 6 
/turn 

---turn round bet---
valid player: 2, all in player: 0, fold player: 0
send inquire msg to player 4444 
inquire/ 
5555 58601 4000 150 raise 
4444 9023 8000 150 call 
total pot: 300 
/inquire 
recv from player 4444: check
send inquire msg to player 5555 
inquire/ 
4444 9023 8000 150 check 
5555 58601 4000 150 raise 
total pot: 300 
/inquire 
recv from player 5555: raise 0
send inquire msg to player 4444 
inquire/ 
5555 58501 4000 250 raise 
4444 9023 8000 150 check 
total pot: 400 
/inquire 
recv from player 4444: check
river/ 
CLUBS J 
/river 

---river round bet---
valid player: 2, all in player: 0, fold player: 0
send inquire msg to player 4444 
inquire/ 
5555 58501 4000 250 raise 
4444 8923 8000 250 call 
total pot: 500 
/inquire 
recv from player 4444: check
send inquire msg to player 5555 
inquire/ 
4444 8923 8000 250 check 
5555 58501 4000 250 raise 
total pot: 500 
/inquire 
recv from player 5555: check

---show down---
showdown/ 
common/ 
DIAMONDS 7 
DIAMONDS 6 
CLUBS 4 
CLUBS 6 
CLUBS J 
/common 
1: 4444 SPADES K SPADES Q ONE_PAIR 
2: 5555 HEARTS 2 DIAMONDS 3 ONE_PAIR 
/showdown 

---Allocate pot---
pot-win/ 
4444: 500 
/pot-win 
it is player 4444's turn to be button

-----89 Hand-----
seat/ 
button: 4444 9423 8000 
small blind: 5555 58501 4000 
/seat 
blind/ 
5555: 50 
/blind 
player 5555:hold/ 
DIAMONDS 10 
CLUBS 7 
/hold 
player 4444:hold/ 
CLUBS 9 
SPADES 7 
/hold 

---pre flop round bet---
valid player: 2, all in player: 0, fold player: 0
send inquire msg to player 4444 
inquire/ 
5555 58451 4000 50 blind 
total pot: 50 
/inquire 
recv from player 4444: check
send inquire msg to player 5555 
inquire/ 
4444 9373 8000 50 call 
5555 58451 4000 50 blind 
total pot: 100 
/inquire 
recv from player 5555: check
flop/ 
HEARTS 6 
HEARTS 5 
SPADES 3 
/flop 

---flop round bet---
valid player: 2, all in player: 0, fold player: 0
send inquire msg to player 5555 
inquire/ 
4444 9373 8000 50 call 
5555 58451 4000 50 check 
total pot: 100 
/inquire 
recv from player 5555: raise 0
send inquire msg to player 4444 
inquire/ 
5555 58351 4000 150 raise 
4444 9373 8000 50 call 
total pot: 200 
/inquire 
recv from player 4444: check
turn/ 
DIAMONDS 2 
/turn 

---turn round bet---
valid player: 2, all in player: 0, fold player: 0
send inquire msg to player 5555 
inquire/ 
4444 9273 8000 150 call 
5555 58351 4000 150 raise 
total pot: 300 
/inquire 
recv from player 5555: raise 0
send inquire msg to player 4444 
inquire/ 
5555 58251 4000 250 raise 
4444 9273 8000 150 call 
total pot: 400 
/inquire 
recv from player 4444: check
river/ 
CLUBS 10 
/river 

---river round bet---
valid player: 2, all in player: 0, fold player: 0
send inquire msg to player 5555 
inquire/ 
4444 9173 8000 250 call 
5555 58251 4000 250 raise 
total pot: 500 
/inquire 
recv from player 5555: raise 0
send inquire msg to player 4444 
inquire/ 
5555 58151 4000 350 raise 
4444 9173 8000 250 call 
total pot: 600 
/inquire 
recv from player 4444: check

---show down---
showdown/ 
common/ 
HEARTS 6 
HEARTS 5 
SPADES 3 
DIAMONDS 2 
CLUBS 10 
/common 
1: 5555 DIAMONDS 10 CLUBS 7 ONE_PAIR 
2: 4444 CLUBS 9 SPADES 7 HIGH_CARD 
/showdown 

---Allocate pot---
pot-win/ 
5555: 700 
/pot-win 
it is player 5555's turn to be button

-----90 Hand-----
seat/ 
button: 5555 58851 4000 
small blind: 4444 9073 8000 
/seat 
blind/ 
4444: 50 
/blind 
player 4444:hold/ 
HEARTS 10 
SPADES K 
/hold 
player 5555:hold/ 
CLUBS 8 
SPADES J 
/hold 

---pre flop round bet---
valid player: 2, all in player: 0, fold player: 0
send inquire msg to player 5555 
inquire/ 
4444 9023 8000 50 blind 
total pot: 50 
/inquire 
recv from player 5555: check
send inquire msg to player 4444 
inquire/ 
5555 58801 4000 50 call 
4444 9023 8000 50 blind 
total pot: 100 
/inquire 
recv from player 4444: check
flop/ 
HEARTS 2 
DIAMONDS 7 
DIAMONDS A 
/flop 

---flop round bet---
valid player: 2, all in player: 0, fold player: 0
send inquire msg to player 4444 
inquire/ 
5555 58801 4000 50 call 
4444 9023 8000 50 check 
total pot: 100 
/inquire 
recv from player 4444: check
send inquire msg to player 5555 
inquire/ 
4444 9023 8000 50 check 
5555 58801 4000 50 call 
total pot: 100 
/inquire 
recv from player 5555: raise 0
send inquire msg to player 4444 
inquire/ 
5555 58701 4000 150 raise 
4444 9023 8000 50 check 
total pot: 200 
/inquire 
recv from player 4444: check
turn/ 
SPADES A 
/turn 

---turn round bet---
valid player: 2, all in player: 0, fold player: 0
send inquire msg to player 4444 
inquire/ 
5555 58701 4000 150 raise 
4444 8923 8000 150 call 
total pot: 300 
/inquire 
recv from player 4444: check
send inquire msg to player 5555 
inquire/ 
4444 8923 8000 150 check 
5555 58701 4000 150 raise 
total pot: 300 
/inquire 
recv from player 5555: check
river/ 
HEARTS 9 
/river 

---river round bet---
valid player: 2, all in player: 0, fold player: 0
send inquire msg to player 4444 
inquire/ 
5555 58701 4000 150 check 
4444 8923 8000 150 check 
total pot: 300 
/inquire 
recv from player 4444: check
send inquire msg to player 5555 
inquire/ 
4444 8923 8000 150 check 
5555 58701 4000 150 check 
total pot: 300 
/inquire 
recv from player 5555: check

---show down---
showdown/ 
common/ 
HEARTS 2 
DIAMONDS 7 
DIAMONDS A 
SPADES A 
HEARTS 9 
/common 
1: 4444 HEARTS 10 SPADES K ONE_PAIR 
2: 5555 CLUBS 8 SPADES J ONE_PAIR 
/showdown 

---Allocate pot---
pot-win/ 
4444: 300 
/pot-win 
it is player 4444's turn to be button

-----91 Hand-----
seat/ 
button: 4444 9223 8000 
small blind: 5555 58701 4000 
/seat 
blind/ 
5555: 50 
/blind 
player 5555:hold/ 
DIAMONDS A 
HEARTS 6 
/hold 
player 4444:hold/ 
HEARTS 2 
HEARTS K 
/hold 

---pre flop round bet---
valid player: 2, all in player: 0, fold player: 0
send inquire msg to player 4444 
inquire/ 
5555 58651 4000 50 blind 
total pot: 50 
/inquire 
recv from player 4444: check
send inquire msg to player 5555 
inquire/ 
4444 9173 8000 50 call 
5555 58651 4000 50 blind 
total pot: 100 
/inquire 
recv from player 5555: check
flop/ 
CLUBS 6 
CLUBS J 
SPADES A 
/flop 

---flop round bet---
valid player: 2, all in player: 0, fold player: 0
send inquire msg to player 5555 
inquire/ 
4444 9173 8000 50 call 
5555 58651 4000 50 check 
total pot: 100 
/inquire 
recv from player 5555: check
send inquire msg to player 4444 
inquire/ 
5555 58651 4000 50 check 
4444 9173 8000 50 call 
total pot: 100 
/inquire 
recv from player 4444: check
turn/ 
SPADES 8 
/turn 

---turn round bet---
valid player: 2, all in player: 0, fold player: 0
send inquire msg to player 5555 
inquire/ 
4444 9173 8000 50 check 
5555 58651 4000 50 check 
total pot: 100 
/inquire 
recv from player 5555: check
send inquire msg to player 4444 
inquire/ 
5555 58651 4000 50 check 
4444 9173 8000 50 check 
total pot: 100 
/inquire 
recv from player 4444: check
river/ 
SPADES K 
/river 

---river round bet---
valid player: 2, all in player: 0, fold player: 0
send inquire msg to player 5555 
inquire/ 
4444 9173 8000 50 check 
5555 58651 4000 50 check 
total pot: 100 
/inquire 
recv from player 5555: raise 0
send inquire msg to player 4444 
inquire/ 
5555 58551 4000 150 raise 
4444 9173 8000 50 check 
total pot: 200 
/inquire 
recv from player 4444: check

---show down---
showdown/ 
common/ 
CLUBS 6 
CLUBS J 
SPADES A 
SPADES 8 
SPADES K 
/common 
1: 5555 DIAMONDS A HEARTS 6 TWO_PAIR 
2: 4444 HEARTS 2 HEARTS K ONE_PAIR 
/showdown 

---Allocate pot---
pot-win/ 
5555: 300 
/pot-win 
it is player 5555's turn to be button

-----92 Hand-----
seat/ 
button: 5555 58851 4000 
small blind: 4444 9073 8000 
/seat 
blind/ 
4444: 50 
/blind 
player 4444:hold/ 
DIAMONDS J 
DIAMONDS K 
/hold 
player 5555:hold/ 
SPADES 5 
SPADES 8 
/hold 

---pre flop round bet---
valid player: 2, all in player: 0, fold player: 0
send inquire msg to player 5555 
inquire/ 
4444 9023 8000 50 blind 
total pot: 50 
/inquire 
recv from player 5555: check
send inquire msg to player 4444 
inquire/ 
5555 58801 4000 50 call 
4444 9023 8000 50 blind 
total pot: 100 
/inquire 
recv from player 4444: check
flop/ 
DIAMONDS 9 
DIAMONDS 8 
CLUBS K 
/flop 

---flop round bet---
valid player: 2, all in player: 0, fold player: 0
send inquire msg to player 4444 
inquire/ 
5555 58801 4000 50 call 
4444 9023 8000 50 check 
total pot: 100 
/inquire 
recv from player 4444: check
send inquire msg to player 5555 
inquire/ 
4444 9023 8000 50 check 
5555 58801 4000 50 call 
total pot: 100 
/inquire 
recv from player 5555: check
turn/ 
DIAMONDS Q 
/turn 

---turn round bet---
valid player: 2, all in player: 0, fold player: 0
send inquire msg to player 4444 
inquire/ 
5555 58801 4000 50 check 
4444 9023 8000 50 check 
total pot: 100 
/inquire 
recv from player 4444: check
send inquire msg to player 5555 
inquire/ 
4444 9023 8000 50 check 
5555 58801 4000 50 check 
total pot: 100 
/inquire 
recv from player 5555: raise 0
send inquire msg to player 4444 
inquire/ 
5555 58701 4000 150 raise 
4444 9023 8000 50 check 
total pot: 200 
/inquire 
recv from player 4444: check
river/ 
HEARTS 5 
/river 

---river round bet---
valid player: 2, all in player: 0, fold player: 0
send inquire msg to player 4444 
inquire/ 
5555 58701 4000 150 raise 
4444 8923 8000 150 call 
total pot: 300 
/inquire 
recv from player 4444: check
send inquire msg to player 5555 
inquire/ 
4444 8923 8000 150 check 
5555 58701 4000 150 raise 
total pot: 300 
/inquire 
recv from player 5555: raise 0
send inquire msg to player 4444 
inquire/ 
5555 58601 4000 250 raise 
4444 8923 8000 150 check 
total pot: 400 
/inquire 
recv from player 4444: check

---show down---
showdown/ 
common/ 
DIAMONDS 9 
DIAMONDS 8 
CLUBS K 
DIAMONDS Q 
HEARTS 5 
/common 
1: 4444 DIAMONDS J DIAMONDS K FLUSH 
2: 5555 SPADES 5 SPADES 8 TWO_PAIR 
/showdown 

---Allocate pot---
pot-win/ 
4444: 500 
/pot-win 
it is player 4444's turn to be button

-----93 Hand-----
seat/ 
button: 4444 9323 8000 
small blind: 5555 58601 4000 
/seat 
blind/ 
5555: 50 
/blind 
player 5555:hold/ 
HEARTS 3 
CLUBS A 
/hold 
player 4444:hold/ 
DIAMONDS Q 
CLUBS 7 
/hold 

---pre flop round bet---
valid player: 2, all in player: 0, fold player: 0
send inquire msg to player 4444 
inquire/ 
5555 58551 4000 50 blind 
total pot: 50 
/inquire 
recv from player 4444: check
send inquire msg to player 5555 
inquire/ 
4444 9273 8000 50 call 
5555 58551 4000 50 blind 
total pot: 100 
/inquire 
recv from player 5555: raise 0
send inquire msg to player 4444 
inquire/ 
5555 58451 4000 150 raise 
4444 9273 8000 50 call 
total pot: 200 
/inquire 
recv from player 4444: check
flop/ 
DIAMONDS J 
CLUBS 4 
CLUBS Q 
/flop 

---flop round bet---
valid player: 2, all in player: 0, fold player: 0
send inquire msg to player 5555 
inquire/ 
4444 9173 8000 150 call 
5555 58451 4000 150 raise 
total pot: 300 
/inquire 
recv from player 5555: raise 0
send inquire msg to player 4444 
inquire/ 
5555 58351 4000 250 raise 
4444 9173 8000 150 call 
total pot: 400 
/inquire 
recv from player 4444: check
turn/ 
DIAMONDS 5 
/turn 

---turn round bet---
valid player: 2, all in player: 0, fold player: 0
send inquire msg to player 5555 
inquire/ 
4444 9073 8000 250 call 
5555 58351 4000 250 raise 
total pot: 500 
/inquire 
recv from player 5555: raise 0
send inquire msg to player 4444 
inquire/ 
5555 58251 4000 350 raise 
4444 9073 8000 250 call 
total pot: 600 
/inquire 
recv from player 4444: check
river/ 
CLUBS 10 
/river 

---river round bet---
valid player: 2, all in player: 0, fold player: 0
send inquire msg to player 5555 
inquire/ 
4444 8973 8000 350 call 
5555 58251 4000 350 raise 
total pot: 700 
/inquire 
recv from player 5555: check
send inquire msg to player 4444 
inquire/ 
5555 58251 4000 350 check 
4444 8973 8000 350 call 
total pot: 700 
/inquire 
recv from player 4444: check

---show down---
showdown/ 
common/ 
DIAMONDS J 
CLUBS 4 
CLUBS Q 
DIAMONDS 5 
CLUBS 10 
/common 
2: 5555 HEARTS 3 CLUBS A HIGH_CARD 
1: 4444 DIAMONDS Q CLUBS 7 ONE_PAIR 
/showdown 

---Allocate pot---
pot-win/ 
4444: 700 
/pot-win 
it is player 5555's turn to be button

-----94 Hand-----
seat/ 
button: 5555 58251 4000 
small blind: 4444 9673 8000 
/seat 
blind/ 
4444: 50 
/blind 
player 4444:hold/ 
DIAMONDS 8 
CLUBS 3 
/hold 
player 5555:hold/ 
DIAMONDS 5 
SPADES 2 
/hold 

---pre flop round bet---
valid player: 2, all in player: 0, fold player: 0
send inquire msg to player 5555 
inquire/ 
4444 9623 8000 50 blind 
total pot: 50 
/inquire 
recv from player 5555: raise 0
send inquire msg to player 4444 
inquire/ 
5555 58101 4000 150 raise 
4444 9623 8000 50 blind 
total pot: 200 
/inquire 
recv from player 4444: check
flop/ 
CLUBS 9 
DIAMONDS Q 
CLUBS 6 
/flop 

---flop round bet---
valid player: 2, all in player: 0, fold player: 0
send inquire msg to player 4444 
inquire/ 
5555 58101 4000 150 raise 
4444 9523 8000 150 call 
total pot: 300 
/inquire 
recv from player 4444: check
send inquire msg to player 5555 
inquire/ 
4444 9523 8000 150 check 
5555 58101 4000 150 raise 
total pot: 300 
/inquire 
recv from player 5555: check
turn/ 
HEARTS Q 
/turn 

---turn round bet---
valid player: 2, all in player: 0, fold player: 0
send inquire msg to player 4444 
inquire/ 
5555 58101 4000 150 check 
4444 9523 8000 150 check 
total pot: 300 
/inquire 
recv from player 4444: check
send inquire msg to player 5555 
inquire/ 
4444 9523 8000 150 check 
5555 58101 4000 150 check 
total pot: 300 
/inquire 
recv from player 5555: raise 0
send inquire msg to player 4444 
inquire/ 
5555 58001 4000 250 raise 
4444 9523 8000 150 check 
total pot: 400 
/inquire 
recv from player 4444: check
river/ 
CLUBS 4 
/river 

---river round bet---
valid player: 2, all in player: 0, fold player: 0
send inquire msg to player 4444 
inquire/ 
5555 58001 4000 250 raise 
4444 9423 8000 250 call 
total pot: 500 
/inquire 
recv from player 4444: check
send inquire msg to player 5555 
inquire/ 
4444 9423 8000 250 check 
5555 58001 4000 250 raise 
total pot: 500 
/inquire 
recv from player 5555: raise 0
send inquire msg to player 4444 
inquire/ 
5555 57901 4000 350 raise 
4444 9423 8000 250 check 
total pot: 600 
/inquire 
recv from player 4444: check

---show down---
showdown/ 
common/ 
CLUBS 9 
DIAMONDS Q 
CLUBS 6 
HEARTS Q 
CLUBS 4 
/common 
1: 4444 DIAMONDS 8 CLUBS 3 ONE_PAIR 
2: 5555 DIAMONDS 5 SPADES 2 ONE_PAIR 
/showdown 

---Allocate pot---
pot-win/ 
4444: 700 
/pot-win 
it is player 4444's turn to be button

-----95 Hand-----
seat/ 
button: 4444 10023 8000 
small blind: 5555 57901 4000 
/seat 
blind/ 
5555: 50 
/blind 
player 5555:hold/ 
CLUBS 4 
HEARTS 2 
/hold 
player 4444:hold/ 
SPADES 3 
DIAMONDS J 
/hold 

---pre flop round bet---
valid player: 2, all in player: 0, fold player: 0
send inquire msg to player 4444 
inquire/ 
5555 57851 4000 50 blind 
total pot: 50 
/inquire 
recv from player 4444: check
send inquire msg to player 5555 
inquire/ 
4444 9973 8000 50 call 
5555 57851 4000 50 blind 
total pot: 100 
/inquire 
recv from player 5555: raise 0
send inquire msg to player 4444 
inquire/ 
5555 57751 4000 150 raise 
4444 9973 8000 50 call 
total pot: 200 
/inquire 
recv from player 4444: check
flop/ 
DIAMONDS 10 
HEARTS 8 
CLUBS Q 
/flop 

---flop round bet---
valid player: 2, all in player: 0, fold player: 0
send inquire msg to player 5555 
inquire/ 
4444 9873 8000 150 call 
5555 57751 4000 150 raise 
total pot: 300 
/inquire 
recv from player 5555: raise 0
send inquire msg to player 4444 
inquire/ 
5555 57651 4000 250 raise 
4444 9873 8000 150 call 
total pot: 400 
/inquire 
recv from player 4444: check
turn/ 
CLUBS 5 
/turn 

---turn round bet---
valid player: 2, all in player: 0, fold player: 0
send inquire msg to player 5555 
inquire/ 
4444 9773 8000 250 call 
5555 57651 4000 250 raise 
total pot: 500 
/inquire 
recv from player 5555: check
send inquire msg to player 4444 
inquire/ 
5555 57651 4000 250 check 
4444 9773 8000 250 call 
total pot: 500 
/inquire 
recv from player 4444: check
river/ 
HEARTS J 
/river 

---river round bet---
valid player: 2, all in player: 0, fold player: 0
send inquire msg to player 5555 
inquire/ 
4444 9773 8000 250 check 
5555 57651 4000 250 check 
total pot: 500 
/inquire 
recv from player 5555: raise 0
send inquire msg to player 4444 
inquire/ 
5555 57551 4000 350 raise 
4444 9773 8000 250 check 
total pot: 600 
/inquire 
recv from player 4444: check

---show down---
showdown/ 
common/ 
DIAMONDS 10 
HEARTS 8 
CLUBS Q 
CLUBS 5 
HEARTS J 
/common 
2: 5555 CLUBS 4 HEARTS 2 HIGH_CARD 
1: 4444 SPADES 3 DIAMONDS J ONE_PAIR 
/showdown 

---Allocate pot---
pot-win/ 
4444: 700 
/pot-win 
it is player 5555's turn to be button

-----96 Hand-----
seat/ 
button: 5555 57551 4000 
small blind: 4444 10373 8000 
/seat 
blind/ 
4444: 50 
/blind 
player 4444:hold/ 
SPADES 4 
HEARTS 9 
/hold 
player 5555:hold/ 
SPADES 5 
DIAMONDS 5 
/hold 

---pre flop round bet---
valid player: 2, all in player: 0, fold player: 0
send inquire msg to player 5555 
inquire/ 
4444 10323 8000 50 blind 
total pot: 50 
/inquire 
recv from player 5555: raise 0
send inquire msg to player 4444 
inquire/ 
5555 57401 4000 150 raise 
4444 10323 8000 50 blind 
total pot: 200 
/inquire 
recv from player 4444: check
flop/ 
DIAMONDS 4 
SPADES 2 
CLUBS J 
/flop 

---flop round bet---
valid player: 2, all in player: 0, fold player: 0
send inquire msg to player 4444 
inquire/ 
5555 57401 4000 150 raise 
4444 10223 8000 150 call 
total pot: 300 
/inquire 
recv from player 4444: check
send inquire msg to player 5555 
inquire/ 
4444 10223 8000 150 check 
5555 57401 4000 150 raise 
total pot: 300 
/inquire 
recv from player 5555: raise 0
send inquire msg to player 4444 
inquire/ 
5555 57301 4000 250 raise 
4444 10223 8000 150 check 
total pot: 400 
/inquire 
recv from player 4444: check
turn/ 
HEARTS K 
/turn 

---turn round bet---
valid player: 2, all in player: 0, fold player: 0
send inquire msg to player 4444 
inquire/ 
5555 57301 4000 250 raise 
4444 10123 8000 250 call 
total pot: 500 
/inquire 
recv from player 4444: check
send inquire msg to player 5555 
inquire/ 
4444 10123 8000 250 check 
5555 57301 4000 250 raise 
total pot: 500 
/inquire 
recv from player 5555: raise 0
send inquire msg to player 4444 
inquire/ 
5555 57201 4000 350 raise 
4444 10123 8000 250 check 
total pot: 600 
/inquire 
recv from player 4444: check
river/ 
DIAMONDS Q 
/river 

---river round bet---
valid player: 2, all in player: 0, fold player: 0
send inquire msg to player 4444 
inquire/ 
5555 57201 4000 350 raise 
4444 10023 8000 350 call 
total pot: 700 
/inquire 
recv from player 4444: check
send inquire msg to player 5555 
inquire/ 
4444 10023 8000 350 check 
5555 57201 4000 350 raise 
total pot: 700 
/inquire 
recv from player 5555: check

---show down---
showdown/ 
common/ 
DIAMONDS 4 
SPADES 2 
CLUBS J 
HEARTS K 
DIAMONDS Q 
/common 
2: 4444 SPADES 4 HEARTS 9 ONE_PAIR 
1: 5555 SPADES 5 DIAMONDS 5 ONE_PAIR 
/showdown 

---Allocate pot---
pot-win/ 
5555: 700 
/pot-win 
it is player 4444's turn to be button

-----97 Hand-----
seat/ 
button: 4444 10023 8000 
small blind: 5555 57901 4000 
/seat 
blind/ 
5555: 50 
/blind 
player 5555:hold/ 
SPADES 6 
DIAMONDS Q 
/hold 
player 4444:hold/ 
SPADES 10 
HEARTS 9 
/hold 

---pre flop round bet---
valid player: 2, all in player: 0, fold player: 0
send inquire msg to player 4444 
inquire/ 
5555 57851 4000 50 blind 
total pot: 50 
/inquire 
recv from player 4444: check
send inquire msg to player 5555 
inquire/ 
4444 9973 8000 50 call 
5555 57851 4000 50 blind 
total pot: 100 
/inquire 
recv from player 5555: raise 0
send inquire msg to player 4444 
inquire/ 
5555 57751 4000 150 raise 
4444 9973 8000 50 call 
total pot: 200 
/inquire 
recv from player 4444: check
flop/ 
DIAMONDS 8 
SPADES J 
SPADES 7 
/flop 

---flop round bet---
valid player: 2, all in player: 0, fold player: 0
send inquire msg to player 5555 
inquire/ 
4444 9873 8000 150 call 
5555 57751 4000 150 raise 
total pot: 300 
/inquire 
recv from player 5555: check
send inquire msg to player 4444 
inquire/ 
5555 57751 4000 150 check 
4444 9873 8000 150 call 
total pot: 300 
/inquire 
recv from player 4444: check
turn/ 
DIAMONDS 10 
/turn 

---turn round bet---
valid player: 2, all in player: 0, fold player: 0
send inquire msg to player 5555 
inquire/ 
4444 9873 8000 150 check 
5555 57751 4000 150 check 
total pot: 300 
/inquire 
recv from player 5555: check
send inquire msg to player 4444 
inquire/ 
5555 57751 4000 150 check 
4444 9873 8000 150 check 
total pot: 300 
/inquire 
recv from player 4444: check
river/ 
SPADES 8 
/river 

---river round bet---
valid player: 2, all in player: 0, fold player: 0
send inquire msg to player 5555 
inquire/ 
4444 9873 8000 150 check 
5555 57751 4000 150 check 
total pot: 300 
/inquire 
recv from player 5555: raise 0
send inquire msg to player 4444 
inquire/ 
5555 57651 4000 250 raise 
4444 9873 8000 150 check 
total pot: 400 
/inquire 
recv from player 4444: check

---show down---
showdown/ 
common/ 
DIAMONDS 8 
SPADES J 
SPADES 7 
DIAMONDS 10 
SPADES 8 
/common 
2: 5555 SPADES 6 DIAMONDS Q ONE_PAIR 
1: 4444 SPADES 10 HEARTS 9 STRAIGHT 
/showdown 

---Allocate pot---
pot-win/ 
4444: 500 
/pot-win 
it is player 5555's turn to be button

-----98 Hand-----
seat/ 
button: 5555 57651 4000 
small blind: 4444 10273 8000 
/seat 
blind/ 
4444: 50 
/blind 
player 4444:hold/ 
DIAMONDS 9 
CLUBS 10 
/hold 
player 5555:hold/ 
HEARTS 2 
HEARTS A 
/hold 

---pre flop round bet---
valid player: 2, all in player: 0, fold player: 0
send inquire msg to player 5555 
inquire/ 
4444 10223 8000 50 blind 
total pot: 50 
/inquire 
recv from player 5555: raise 0
send inquire msg to player 4444 
inquire/ 
5555 57501 4000 150 raise 
4444 10223 8000 50 blind 
total pot: 200 
/inquire 
recv from player 4444: check
flop/ 
SPADES 9 
HEARTS 7 
CLUBS 7 
/flop 

---flop round bet---
valid player: 2, all in player: 0, fold player: 0
send inquire msg to player 4444 
inquire/ 
5555 57501 4000 150 raise 
4444 10123 8000 150 call 
total pot: 300 
/inquire 
recv from player 4444: check
send inquire msg to player 5555 
inquire/ 
4444 10123 8000 150 check 
5555 57501 4000 150 raise 
total pot: 300 
/inquire 
recv from player 5555: check
turn/ 
HEARTS Q 
/turn 

---turn round bet---
valid player: 2, all in player: 0, fold player: 0
send inquire msg to player 4444 
inquire/ 
5555 57501 4000 150 check 
4444 10123 8000 150 check 
total pot: 300 
/inquire 
recv from player 4444: check
send inquire msg to player 5555 
inquire/ 
4444 10123 8000 150 check 
5555 57501 4000 150 check 
total pot: 300 
/inquire 
recv from player 5555: raise 0
send inquire msg to player 4444 
inquire/ 
5555 57401 4000 250 raise 
4444 10123 8000 150 check 
total pot: 400 
/inquire 
recv from player 4444: check
river/ 
CLUBS 4 
/river 

---river round bet---
valid player: 2, all in player: 0, fold player: 0
send inquire msg to player 4444 
inquire/ 
5555 57401 4000 250 raise 
4444 10023 8000 250 call 
total pot: 500 
/inquire 
recv from player 4444: check
send inquire msg to player 5555 
inquire/ 
4444 10023 8000 250 check 
5555 57401 4000 250 raise 
total pot: 500 
/inquire 
recv from player 5555: check

---show down---
showdown/ 
common/ 
SPADES 9 
HEARTS 7 
CLUBS 7 
HEARTS Q 
CLUBS 4 
/common 
1: 4444 DIAMONDS 9 CLUBS 10 TWO_PAIR 
2: 5555 HEARTS 2 HEARTS A ONE_PAIR 
/showdown 

---Allocate pot---
pot-win/ 
4444: 500 
/pot-win 
it is player 4444's turn to be button

-----99 Hand-----
seat/ 
button: 4444 10523 8000 
small blind: 5555 57401 4000 
/seat 
blind/ 
5555: 50 
/blind 
player 5555:hold/ 
HEARTS K 
HEARTS J 
/hold 
player 4444:hold/ 
SPADES K 
SPADES 5 
/hold 

---pre flop round bet---
valid player: 2, all in player: 0, fold player: 0
send inquire msg to player 4444 
inquire/ 
5555 57351 4000 50 blind 
total pot: 50 
/inquire 
recv from player 4444: check
send inquire msg to player 5555 
inquire/ 
4444 10473 8000 50 call 
5555 57351 4000 50 blind 
total pot: 100 
/inquire 
recv from player 5555: check
flop/ 
SPADES 6 
DIAMONDS Q 
DIAMONDS 7 
/flop 

---flop round bet---
valid player: 2, all in player: 0, fold player: 0
send inquire msg to player 5555 
inquire/ 
4444 10473 8000 50 call 
5555 57351 4000 50 check 
total pot: 100 
/inquire 
recv from player 5555: raise 0
send inquire msg to player 4444 
inquire/ 
5555 57251 4000 150 raise 
4444 10473 8000 50 call 
total pot: 200 
/inquire 
recv from player 4444: check
turn/ 
CLUBS 7 
/turn 

---turn round bet---
valid player: 2, all in player: 0, fold player: 0
send inquire msg to player 5555 
inquire/ 
4444 10373 8000 150 call 
5555 57251 4000 150 raise 
total pot: 300 
/inquire 
recv from player 5555: raise 0
send inquire msg to player 4444 
inquire/ 
5555 57151 4000 250 raise 
4444 10373 8000 150 call 
total pot: 400 
/inquire 
recv from player 4444: check
river/ 
HEARTS 9 
/river 

---river round bet---
valid player: 2, all in player: 0, fold player: 0
send inquire msg to player 5555 
inquire/ 
4444 10273 8000 250 call 
5555 57151 4000 250 raise 
total pot: 500 
/inquire 
recv from player 5555: check
send inquire msg to player 4444 
inquire/ 
5555 57151 4000 250 check 
4444 10273 8000 250 call 
total pot: 500 
/inquire 
recv from player 4444: check

---show down---
showdown/ 
common/ 
SPADES 6 
DIAMONDS Q 
DIAMONDS 7 
CLUBS 7 
HEARTS 9 
/common 
1: 5555 HEARTS K HEARTS J ONE_PAIR 
2: 4444 SPADES K SPADES 5 ONE_PAIR 
/showdown 

---Allocate pot---
pot-win/ 
5555: 500 
/pot-win 
it is player 5555's turn to be button

-----100 Hand-----
seat/ 
button: 5555 57651 4000 
small blind: 4444 10273 8000 
/seat 
blind/ 
4444: 50 
/blind 
player 4444:hold/ 
HEARTS J 
HEARTS 2 
/hold 
player 5555:hold/ 
SPADES 10 
CLUBS K 
/hold 

---pre flop round bet---
valid player: 2, all in player: 0, fold player: 0
send inquire msg to player 5555 
inquire/ 
4444 10223 8000 50 blind 
total pot: 50 
/inquire 
recv from player 5555: raise 0
send inquire msg to player 4444 
inquire/ 
5555 57501 4000 150 raise 
4444 10223 8000 50 blind 
total pot: 200 
/inquire 
recv from player 4444: check
flop/ 
DIAMONDS A 
CLUBS 9 
DIAMONDS 5 
/flop 

---flop round bet---
valid player: 2, all in player: 0, fold player: 0
send inquire msg to player 4444 
inquire/ 
5555 57501 4000 150 raise 
4444 10123 8000 150 call 
total pot: 300 
/inquire 
recv from player 4444: check
send inquire msg to player 5555 
inquire/ 
4444 10123 8000 150 check 
5555 57501 4000 150 raise 
total pot: 300 
/inquire 
recv from player 5555: raise 0
send inquire msg to player 4444 
inquire/ 
5555 57401 4000 250 raise 
4444 10123 8000 150 check 
total pot: 400 
/inquire 
recv from player 4444: check
turn/ 
SPADES 7 
/turn 

---turn round bet---
valid player: 2, all in player: 0, fold player: 0
send inquire msg to player 4444 
inquire/ 
5555 57401 4000 250 raise 
4444 10023 8000 250 call 
total pot: 500 
/inquire 
recv from player 4444: check
send inquire msg to player 5555 
inquire/ 
4444 10023 8000 250 check 
5555 57401 4000 250 raise 
total pot: 500 
/inquire 
recv from player 5555: check
river/ 
SPADES 3 
/river 

---river round bet---
valid player: 2, all in player: 0, fold player: 0
send inquire msg to player 4444 
inquire/ 
5555 57401 4000 250 check 
4444 10023 8000 250 check 
total pot: 500 
/inquire 
recv from player 4444: check
send inquire msg to player 5555 
inquire/ 
4444 10023 8000 250 check 
5555 57401 4000 250 check 
total pot: 500 
/inquire 
recv from player 5555: raise 0
send inquire msg to player 4444 
inquire/ 
5555 57301 4000 350 raise 
4444 10023 8000 250 check 
total pot: 600 
/inquire 
recv from player 4444: check

---show down---
showdown/ 
common/ 
DIAMONDS A 
CLUBS 9 
DIAMONDS 5 
SPADES 7 
SPADES 3 
/common 
2: 4444 HEARTS J HEARTS 2 HIGH_CARD 
1: 5555 SPADES 10 CLUBS K HIGH_CARD 
/showdown 

---Allocate pot---
pot-win/ 
5555: 700 
/pot-win 
it is player 4444's turn to be button

-----101 Hand-----
seat/ 
button: 4444 9923 8000 
small blind: 5555 58001 4000 
/seat 
blind/ 
5555: 50 
/blind 
player 5555:hold/ 
SPADES J 
HEARTS 9 
/hold 
player 4444:hold/ 
SPADES Q 
CLUBS 2 
/hold 

---pre flop round bet---
valid player: 2, all in player: 0, fold player: 0
send inquire msg to player 4444 
inquire/ 
5555 57951 4000 50 blind 
total pot: 50 
/inquire 
recv from player 4444: check
send inquire msg to player 5555 
inquire/ 
4444 9873 8000 50 call 
5555 57951 4000 50 blind 
total pot: 100 
/inquire 
recv from player 5555: check
flop/ 
SPADES 5 
DIAMONDS 10 
SPADES A 
/flop 

---flop round bet---
valid player: 2, all in player: 0, fold player: 0
send inquire msg to player 5555 
inquire/ 
4444 9873 8000 50 call 
5555 57951 4000 50 check 
total pot: 100 
/inquire 
recv from player 5555: check
send inquire msg to player 4444 
inquire/ 
5555 57951 4000 50 check 
4444 9873 8000 50 call 
total pot: 100 
/inquire 
recv from player 4444: check
turn/ 
DIAMONDS 4 
/turn 

---turn round bet---
valid player: 2, all in player: 0, fold player: 0
send inquire msg to player 5555 
inquire/ 
4444 9873 8000 50 check 
5555 57951 4000 50 check 
total pot: 100 
/inquire 
recv from player 5555: raise 0
send inquire msg to player 4444 
inquire/ 
5555 57851 4000 150 raise 
4444 9873 8000 50 check 
total pot: 200 
/inquire 
recv from player 4444: check
river/ 
HEARTS 10 
/river 

---river round bet---
valid player: 2, all in player: 0, fold player: 0
send inquire msg to player 5555 
inquire/ 
4444 9773 8000 150 call 
5555 57851 4000 150 raise 
total pot: 300 
/inquire 
recv from player 5555: check
send inquire msg to player 4444 
inquire/ 
5555 57851 4000 150 check 
4444 9773 8000 150 call 
total pot: 300 
/inquire 
recv from player 4444: check

---show down---
showdown/ 
common/ 
SPADES 5 
DIAMONDS 10 
SPADES A 
DIAMONDS 4 
HEARTS 10 
/common 
2: 5555 SPADES J HEARTS 9 ONE_PAIR 
1: 4444 SPADES Q CLUBS 2 ONE_PAIR 
/showdown 

---Allocate pot---
pot-win/ 
4444: 300 
/pot-win 
it is player 5555's turn to be button

-----102 Hand-----
seat/ 
button: 5555 57851 4000 
small blind: 4444 10073 8000 
/seat 
blind/ 
4444: 50 
/blind 
player 4444:hold/ 
HEARTS 10 
CLUBS 3 
/hold 
player 5555:hold/ 
DIAMONDS J 
HEARTS 8 
/hold 

---pre flop round bet---
valid player: 2, all in player: 0, fold player: 0
send inquire msg to player 5555 
inquire/ 
4444 10023 8000 50 blind 
total pot: 50 
/inquire 
recv from player 5555: check
send inquire msg to player 4444 
inquire/ 
5555 57801 4000 50 call 
4444 10023 8000 50 blind 
total pot: 100 
/inquire 
recv from player 4444: check
flop/ 
CLUBS Q 
SPADES 6 
CLUBS 6 
/flop 

---flop round bet---
valid player: 2, all in player: 0, fold player: 0
send inquire msg to player 4444 
inquire/ 
5555 57801 4000 50 call 
4444 10023 8000 50 check 
total pot: 100 
/inquire 
recv from player 4444: check
send inquire msg to player 5555 
inquire/ 
4444 10023 8000 50 check 
5555 57801 4000 50 call 
total pot: 100 
/inquire 
recv from player 5555: check
turn/ 
SPADES Q 
/turn 

---turn round bet---
valid player: 2, all in player: 0, fold player: 0
send inquire msg to player 4444 
inquire/ 
5555 57801 4000 50 check 
4444 10023 8000 50 check 
total pot: 100 
/inquire 
recv from player 4444: check
send inquire msg to player 5555 
inquire/ 
4444 10023 8000 50 check 
5555 57801 4000 50 check 
total pot: 100 
/inquire 
recv from player 5555: raise 0
send inquire msg to player 4444 
inquire/ 
5555 57701 4000 150 raise 
4444 10023 8000 50 check 
total pot: 200 
/inquire 
recv from player 4444: check
river/ 
DIAMONDS Q 
/river 

---river round bet---
valid player: 2, all in player: 0, fold player: 0
send inquire msg to player 4444 
inquire/ 
5555 57701 4000 150 raise 
4444 9923 8000 150 call 
total pot: 300 
/inquire 
recv from player 4444: check
send inquire msg to player 5555 
inquire/ 
4444 9923 8000 150 check 
5555 57701 4000 150 raise 
total pot: 300 
/inquire 
recv from player 5555: check

---show down---
showdown/ 
common/ 
CLUBS Q 
SPADES 6 
CLUBS 6 
SPADES Q 
DIAMONDS Q 
/common 
1: 4444 HEARTS 10 CLUBS 3 FULL_HOUSE 
1: 5555 DIAMONDS J HEARTS 8 FULL_HOUSE 
/showdown 

---Allocate pot---
pot-win/ 
4444: 150 
5555: 150 
/pot-win 
it is player 4444's turn to be button

-----103 Hand-----
seat/ 
button: 4444 10073 8000 
small blind: 5555 57851 4000 
/seat 
blind/ 
5555: 50 
/blind 
player 5555:hold/ 
HEARTS 7 
DIAMONDS 4 
/hold 
player 4444:hold/ 
HEARTS 3 
HEARTS 9 
/hold 

---pre flop round bet---
valid player: 2, all in player: 0, fold player: 0
send inquire msg to player 4444 
inquire/ 
5555 57801 4000 50 blind 
total pot: 50 
/inquire 
recv from player 4444: check
send inquire msg to player 5555 
inquire/ 
4444 10023 8000 50 call 
5555 57801 4000 50 blind 
total pot: 100 
/inquire 
recv from player 5555: raise 0
send inquire msg to player 4444 
inquire/ 
5555 57701 4000 150 raise 
4444 10023 8000 50 call 
total pot: 200 
/inquire 
recv from player 4444: check
flop/ 
HEARTS 10 
SPADES 9 
HEARTS 8 
/flop 

---flop round bet---
valid player: 2, all in player: 0, fold player: 0
send inquire msg to player 5555 
inquire/ 
4444 9923 8000 150 call 
5555 57701 4000 150 raise 
total pot: 300 
/inquire 
recv from player 5555: check
send inquire msg to player 4444 
inquire/ 
5555 57701 4000 150 check 
4444 9923 8000 150 call 
total pot: 300 
/inquire 
recv from player 4444: check
turn/ 
DIAMONDS 5 
/turn 

---turn round bet---
valid player: 2, all in player: 0, fold player: 0
send inquire msg to player 5555 
inquire/ 
4444 9923 8000 150 check 
5555 57701 4000 150 check 
total pot: 300 
/inquire 
recv from player 5555: raise 0
send inquire msg to player 4444 
inquire/ 
5555 57601 4000 250 raise 
4444 9923 8000 150 check 
total pot: 400 
/inquire 
recv from player 4444: check
river/ 
CLUBS 6 
/river 

---river round bet---
valid player: 2, all in player: 0, fold player: 0
send inquire msg to player 5555 
inquire/ 
4444 9823 8000 250 call 
5555 57601 4000 250 raise 
total pot: 500 
/inquire 
recv from player 5555: check
send inquire msg to player 4444 
inquire/ 
5555 57601 4000 250 check 
4444 9823 8000 250 call 
total pot: 500 
/inquire 
recv from player 4444: check

---show down---
showdown/ 
common/ 
HEARTS 10 
SPADES 9 
HEARTS 8 
DIAMONDS 5 
CLUBS 6 
/common 
1: 5555 HEARTS 7 DIAMONDS 4 STRAIGHT 
2: 4444 HEARTS 3 HEARTS 9 ONE_PAIR 
/showdown 

---Allocate pot---
pot-win/ 
5555: 500 
/pot-win 
it is player 5555's turn to be button

-----104 Hand-----
seat/ 
button: 5555 58101 4000 
small blind: 4444 9823 8000 
/seat 
blind/ 
4444: 50 
/blind 
player 4444:hold/ 
CLUBS J 
DIAMONDS J 
/hold 
player 5555:hold/ 
CLUBS 6 
SPADES 8 
/hold 

---pre flop round bet---
valid player: 2, all in player: 0, fold player: 0
send inquire msg to player 5555 
inquire/ 
4444 9773 8000 50 blind 
total pot: 50 
/inquire 
recv from player 5555: raise 0
send inquire msg to player 4444 
inquire/ 
5555 57951 4000 150 raise 
4444 9773 8000 50 blind 
total pot: 200 
/inquire 
recv from player 4444: check
flop/ 
SPADES 7 
SPADES J 
SPADES 6 
/flop 

---flop round bet---
valid player: 2, all in player: 0, fold player: 0
send inquire msg to player 4444 
inquire/ 
5555 57951 4000 150 raise 
4444 9673 8000 150 call 
total pot: 300 
/inquire 
recv from player 4444: check
send inquire msg to player 5555 
inquire/ 
4444 9673 8000 150 check 
5555 57951 4000 150 raise 
total pot: 300 
/inquire 
recv from player 5555: check
turn/ 
CLUBS 10 
/turn 

---turn round bet---
valid player: 2, all in player: 0, fold player: 0
send inquire msg to player 4444 
inquire/ 
5555 57951 4000 150 check 
4444 9673 8000 150 check 
total pot: 300 
/inquire 
recv from player 4444: check
send inquire msg to player 5555 
inquire/ 
4444 9673 8000 150 check 
5555 57951 4000 150 check 
total pot: 300 
/inquire 
recv from player 5555: raise 0
send inquire msg to player 4444 
inquire/ 
5555 57851 4000 250 raise 
4444 9673 8000 150 check 
total pot: 400 
/inquire 
recv from player 4444: check
river/ 
DIAMONDS A 
/river 

---river round bet---
valid player: 2, all in player: 0, fold player: 0
send inquire msg to player 4444 
inquire/ 
5555 57851 4000 250 raise 
4444 9573 8000 250 call 
total pot: 500 
/inquire 
recv from player 4444: check
send inquire msg to player 5555 
inquire/ 
4444 9573 8000 250 check 
5555 57851 4000 250 raise 
total pot: 500 
/inquire 
recv from player 5555: raise 0
send inquire msg to player 4444 
inquire/ 
5555 57751 4000 350 raise 
4444 9573 8000 250 check 
total pot: 600 
/inquire 
recv from player 4444: check

---show down---
showdown/ 
common/ 
SPADES 7 
SPADES J 
SPADES 6 
CLUBS 10 
DIAMONDS A 
/common 
1: 4444 CLUBS J DIAMONDS J THREE_OF_A_KIND 
2: 5555 CLUBS 6 SPADES 8 ONE_PAIR 
/showdown 

---Allocate pot---
pot-win/ 
4444: 700 
/pot-win 
it is player 4444's turn to be button

-----105 Hand-----
seat/ 
button: 4444 10173 8000 
small blind: 5555 57751 4000 
/seat 
blind/ 
5555: 50 
/blind 
player 5555:hold/ 
CLUBS J 
DIAMONDS A 
/hold 
player 4444:hold/ 
DIAMONDS 8 
SPADES 7 
/hold 

---pre flop round bet---
valid player: 2, all in player: 0, fold player: 0
send inquire msg to player 4444 
inquire/ 
5555 57701 4000 50 blind 
total pot: 50 
/inquire 
recv from player 4444: check
send inquire msg to player 5555 
inquire/ 
4444 10123 8000 50 call 
5555 57701 4000 50 blind 
total pot: 100 
/inquire 
recv from player 5555: check
flop/ 
HEARTS 7 
CLUBS A 
HEARTS K 
/flop 

---flop round bet---
valid player: 2, all in player: 0, fold player: 0
send inquire msg to player 5555 
inquire/ 
4444 10123 8000 50 call 
5555 57701 4000 50 check 
total pot: 100 
/inquire 
recv from player 5555: raise 0
send inquire msg to player 4444 
inquire/ 
5555 57601 4000 150 raise 
4444 10123 8000 50 call 
total pot: 200 
/inquire 
recv from player 4444: check
turn/ 
DIAMONDS 3 
/turn 

---turn round bet---
valid player: 2, all in player: 0, fold player: 0
send inquire msg to player 5555 
inquire/ 
4444 10023 8000 150 call 
5555 57601 4000 150 raise 
total pot: 300 
/inquire 
recv from player 5555: check
send inquire msg to player 4444 
inquire/ 
5555 57601 4000 150 check 
4444 10023 8000 150 call 
total pot: 300 
/inquire 
recv from player 4444: check
river/ 
CLUBS K 
/river 

---river round bet---
valid player: 2, all in player: 0, fold player: 0
send inquire msg to player 5555 
inquire/ 
4444 10023 8000 150 check 
5555 57601 4000 150 check 
total pot: 300 
/inquire 
recv from player 5555: raise 0
send inquire msg to player 4444 
inquire/ 
5555 57501 4000 250 raise 
4444 10023 8000 150 check 
total pot: 400 
/inquire 
recv from player 4444: check

---show down---
showdown/ 
common/ 
HEARTS 7 
CLUBS A 
HEARTS K 
DIAMONDS 3 
CLUBS K 
/common 
1: 5555 CLUBS J DIAMONDS A TWO_PAIR 
2: 4444 DIAMONDS 8 SPADES 7 TWO_PAIR 
/showdown 

---Allocate pot---
pot-win/ 
5555: 500 
/pot-win 
it is player 5555's turn to be button

-----106 Hand-----
seat/ 
button: 5555 58001 4000 
small blind: 4444 9923 8000 
/seat 
blind/ 
4444: 50 
/blind 
player 4444:hold/ 
SPADES 9 
DIAMONDS Q 
/hold 
player 5555:hold/ 
HEARTS 4 
HEARTS J 
/hold 

---pre flop round bet---
valid player: 2, all in player: 0, fold player: 0
send inquire msg to player 5555 
inquire/ 
4444 9873 8000 50 blind 
total pot: 50 
/inquire 
recv from player 5555: raise 0
send inquire msg to player 4444 
inquire/ 
5555 57851 4000 150 raise 
4444 9873 8000 50 blind 
total pot: 200 
/inquire 
recv from player 4444: check
flop/ 
DIAMONDS 8 
DIAMONDS A 
HEARTS K 
/flop 

---flop round bet---
valid player: 2, all in player: 0, fold player: 0
send inquire msg to player 4444 
inquire/ 
5555 57851 4000 150 raise 
4444 9773 8000 150 call 
total pot: 300 
/inquire 
recv from player 4444: check
send inquire msg to player 5555 
inquire/ 
4444 9773 8000 150 check 
5555 57851 4000 150 raise 
total pot: 300 
/inquire 
recv from player 5555: raise 0
send inquire msg to player 4444 
inquire/ 
5555 57751 4000 250 raise 
4444 9773 8000 150 check 
total pot: 400 
/inquire 
recv from player 4444: check
turn/ 
CLUBS 3 
/turn 

---turn round bet---
valid player: 2, all in player: 0, fold player: 0
send inquire msg to player 4444 
inquire/ 
5555 57751 4000 250 raise 
4444 9673 8000 250 call 
total pot: 500 
/inquire 
recv from player 4444: check
send inquire msg to player 5555 
inquire/ 
4444 9673 8000 250 check 
5555 57751 4000 250 raise 
total pot: 500 
/inquire 
recv from player 5555: raise 0
send inquire msg to player 4444 
inquire/ 
5555 57651 4000 350 raise 
4444 9673 8000 250 check 
total pot: 600 
/inquire 
recv from player 4444: check
river/ 
HEARTS 7 
/river 

---river round bet---
valid player: 2, all in player: 0, fold player: 0
send inquire msg to player 4444 
inquire/ 
5555 57651 4000 350 raise 
4444 9573 8000 350 call 
total pot: 700 
/inquire 
recv from player 4444: check
send inquire msg to player 5555 
inquire/ 
4444 9573 8000 350 check 
5555 57651 4000 350 raise 
total pot: 700 
/inquire 
recv from player 5555: raise 0
send inquire msg to player 4444 
inquire/ 
5555 57551 4000 450 raise 
4444 9573 8000 350 check 
total pot: 800 
/inquire 
recv from player 4444: check

---show down---
showdown/ 
common/ 
DIAMONDS 8 
DIAMONDS A 
HEARTS K 
CLUBS 3 
HEARTS 7 
/common 
1: 4444 SPADES 9 DIAMONDS Q HIGH_CARD 
2: 5555 HEARTS 4 HEARTS J HIGH_CARD 
/showdown 

---Allocate pot---
pot-win/ 
4444: 900 
/pot-win 
it is player 4444's turn to be button

-----107 Hand-----
seat/ 
button: 4444 10373 8000 
small blind: 5555 57551 4000 
/seat 
blind/ 
5555: 50 
/blind 
player 5555:hold/ 
SPADES 3 
CLUBS 8 
/hold 
player 4444:hold/ 
SPADES 4 
DIAMONDS 6 
/hold 

---pre flop round bet---
valid player: 2, all in player: 0, fold player: 0
send inquire msg to player 4444 
inquire/ 
5555 57501 4000 50 blind 
total pot: 50 
/inquire 
recv from player 4444: check
send inquire msg to player 5555 
inquire/ 
4444 10323 8000 50 call 
5555 57501 4000 50 blind 
total pot: 100 
/inquire 
recv from player 5555: check
flop/ 
SPADES 7 
DIAMONDS 9 
DIAMONDS 3 
/flop 

---flop round bet---
valid player: 2, all in player: 0, fold player: 0
send inquire msg to player 5555 
inquire/ 
4444 10323 8000 50 call 
5555 57501 4000 50 check 
total pot: 100 
/inquire 
recv from player 5555: check
send inquire msg to player 4444 
inquire/ 
5555 57501 4000 50 check 
4444 10323 8000 50 call 
total pot: 100 
/inquire 
recv from player 4444: check
turn/ 
SPADES K 
/turn 

---turn round bet---
valid player: 2, all in player: 0, fold player: 0
send inquire msg to player 5555 
inquire/ 
4444 10323 8000 50 check 
5555 57501 4000 50 check 
total pot: 100 
/inquire 
recv from player 5555: check
send inquire msg to player 4444 
inquire/ 
5555 57501 4000 50 check 
4444 10323 8000 50 check 
total pot: 100 
/inquire 
recv from player 4444: check
river/ 
CLUBS 9 
/river 

---river round bet---
valid player: 2, all in player: 0, fold player: 0
send inquire msg to player 5555 
inquire/ 
4444 10323 8000 50 check 
5555 57501 4000 50 check 
total pot: 100 
/inquire 
recv from player 5555: raise 0
send inquire msg to player 4444 
inquire/ 
5555 57401 4000 150 raise 
4444 10323 8000 50 check 
total pot: 200 
/inquire 
recv from player 4444: check

---show down---
showdown/ 
common/ 
SPADES 7 
DIAMONDS 9 
DIAMONDS 3 
SPADES K 
CLUBS 9 
/common 
1: 5555 SPADES 3 CLUBS 8 TWO_PAIR 
2: 4444 SPADES 4 DIAMONDS 6 ONE_PAIR 
/showdown 

---Allocate pot---
pot-win/ 
5555: 300 
/pot-win 
it is player 5555's turn to be button

-----108 Hand-----
seat/ 
button: 5555 57701 4000 
small blind: 4444 10223 8000 
/seat 
blind/ 
4444: 50 
/blind 
player 4444:hold/ 
SPADES Q 
CLUBS 8 
/hold 
player 5555:hold/ 
CLUBS 6 
DIAMONDS A 
/hold 

---pre flop round bet---
valid player: 2, all in player: 0, fold player: 0
send inquire msg to player 5555 
inquire/ 
4444 10173 8000 50 blind 
total pot: 50 
/inquire 
recv from player 5555: check
send inquire msg to player 4444 
inquire/ 
5555 57651 4000 50 call 
4444 10173 8000 50 blind 
total pot: 100 
/inquire 
recv from player 4444: check
flop/ 
SPADES 10 
CLUBS 2 
DIAMONDS 3 
/flop 

---flop round bet---
valid player: 2, all in player: 0, fold player: 0
send inquire msg to player 4444 
inquire/ 
5555 57651 4000 50 call 
4444 10173 8000 50 check 
total pot: 100 
/inquire 
recv from player 4444: check
send inquire msg to player 5555 
inquire/ 
4444 10173 8000 50 check 
5555 57651 4000 50 call 
total pot: 100 
/inquire 
recv from player 5555: check
turn/ 
DIAMONDS J 
/turn 

---turn round bet---
valid player: 2, all in player: 0, fold player: 0
send inquire msg to player 4444 
inquire/ 
5555 57651 4000 50 check 
4444 10173 8000 50 check 
total pot: 100 
/inquire 
recv from player 4444: check
send inquire msg to player 5555 
inquire/ 
4444 10173 8000 50 check 
5555 57651 4000 50 check 
total pot: 100 
/inquire 
recv from player 5555: check
river/ 
HEARTS 7 
/river 

---river round bet---
valid player: 2, all in player: 0, fold player: 0
send inquire msg to player 4444 
inquire/ 
5555 57651 4000 50 check 
4444 10173 8000 50 check 
total pot: 100 
/inquire 
recv from player 4444: check
send inquire msg to player 5555 
inquire/ 
4444 10173 8000 50 check 
5555 57651 4000 50 check 
total pot: 100 
/inquire 
recv from player 5555: check

---show down---
showdown/ 
common/ 
SPADES 10 
CLUBS 2 
DIAMONDS 3 
DIAMONDS J 
HEARTS 7 
/common 
2: 4444 SPADES Q CLUBS 8 HIGH_CARD 
1: 5555 CLUBS 6 DIAMONDS A HIGH_CARD 
/showdown 

---Allocate pot---
pot-win/ 
5555: 100 
/pot-win 
it is player 4444's turn to be button

-----109 Hand-----
seat/ 
button: 4444 10173 8000 
small blind: 5555 57751 4000 
/seat 
blind/ 
5555: 50 
/blind 
player 5555:hold/ 
DIAMONDS 2 
DIAMONDS 4 
/hold 
player 4444:hold/ 
DIAMONDS 3 
CLUBS 10 
/hold 

---pre flop round bet---
valid player: 2, all in player: 0, fold player: 0
send inquire msg to player 4444 
inquire/ 
5555 57701 4000 50 blind 
total pot: 50 
/inquire 
recv from player 4444: check
send inquire msg to player 5555 
inquire/ 
4444 10123 8000 50 call 
5555 57701 4000 50 blind 
total pot: 100 
/inquire 
recv from player 5555: raise 0
send inquire msg to player 4444 
inquire/ 
5555 57601 4000 150 raise 
4444 10123 8000 50 call 
total pot: 200 
/inquire 
recv from player 4444: check
flop/ 
SPADES 4 
SPADES 7 
CLUBS 9 
/flop 

---flop round bet---
valid player: 2, all in player: 0, fold player: 0
send inquire msg to player 5555 
inquire/ 
4444 10023 8000 150 call 
5555 57601 4000 150 raise 
total pot: 300 
/inquire 
recv from player 5555: check
send inquire msg to player 4444 
inquire/ 
5555 57601 4000 150 check 
4444 10023 8000 150 call 
total pot: 300 
/inquire 
recv from player 4444: check
turn/ 
SPADES A 
/turn 

---turn round bet---
valid player: 2, all in player: 0, fold player: 0
send inquire msg to player 5555 
inquire/ 
4444 10023 8000 150 check 
5555 57601 4000 150 check 
total pot: 300 
/inquire 
recv from player 5555: raise 0
send inquire msg to player 4444 
inquire/ 
5555 57501 4000 250 raise 
4444 10023 8000 150 check 
total pot: 400 
/inquire 
recv from player 4444: check
river/ 
SPADES 2 
/river 

---river round bet---
valid player: 2, all in player: 0, fold player: 0
send inquire msg to player 5555 
inquire/ 
4444 9923 8000 250 call 
5555 57501 4000 250 raise 
total pot: 500 
/inquire 
recv from player 5555: raise 0
send inquire msg to player 4444 
inquire/ 
5555 57401 4000 350 raise 
4444 9923 8000 250 call 
total pot: 600 
/inquire 
recv from player 4444: check

---show down---
showdown/ 
common/ 
SPADES 4 
SPADES 7 
CLUBS 9 
SPADES A 
SPADES 2 
/common 
1: 5555 DIAMONDS 2 DIAMONDS 4 TWO_PAIR 
2: 4444 DIAMONDS 3 CLUBS 10 HIGH_CARD 
/showdown 

---Allocate pot---
pot-win/ 
5555: 700 
/pot-win 
it is player 5555's turn to be button

-----110 Hand-----
seat/ 
button: 5555 58101 4000 
small blind: 4444 9823 8000 
/seat 
blind/ 
4444: 50 
/blind 
player 4444:hold/ 
SPADES 7 
DIAMONDS 4 
/hold 
player 5555:hold/ 
CLUBS 8 
DIAMONDS Q 
/hold 

---pre flop round bet---
valid player: 2, all in player: 0, fold player: 0
send inquire msg to player 5555 
inquire/ 
4444 9773 8000 50 blind 
total pot: 50 
/inquire 
recv from player 5555: check
send inquire msg to player 4444 
inquire/ 
5555 58051 4000 50 call 
4444 9773 8000 50 blind 
total pot: 100 
/inquire 
recv from player 4444: check
flop/ 
DIAMONDS 5 
DIAMONDS A 
HEARTS A 
/flop 

---flop round bet---
valid player: 2, all in player: 0, fold player: 0
send inquire msg to player 4444 
inquire/ 
5555 58051 4000 50 call 
4444 9773 8000 50 check 
total pot: 100 
/inquire 
recv from player 4444: check
send inquire msg to player 5555 
inquire/ 
4444 9773 8000 50 check 
5555 58051 4000 50 call 
total pot: 100 
/inquire 
recv from player 5555: raise 0
send inquire msg to player 4444 
inquire/ 
5555 57951 4000 150 raise 
4444 9773 8000 50 check 
total pot: 200 
/inquire 
recv from player 4444: check
turn/ 
SPADES 8 
/turn 

---turn round bet---
valid player: 2, all in player: 0, fold player: 0
send inquire msg to player 4444 
inquire/ 
5555 57951 4000 150 raise 
4444 9673 8000 150 call 
total pot: 300 
/inquire 
recv from player 4444: check
send inquire msg to player 5555 
inquire/ 
4444 9673 8000 150 check 
5555 57951 4000 150 raise 
total pot: 300 
/inquire 
recv from player 5555: check
river/ 
HEARTS 7 
/river 

---river round bet---
valid player: 2, all in player: 0, fold player: 0
send inquire msg to player 4444 
inquire/ 
5555 57951 4000 150 check 
4444 9673 8000 150 check 
total pot: 300 
/inquire 
recv from player 4444: check
send inquire msg to player 5555 
inquire/ 
4444 9673 8000 150 check 
5555 57951 4000 150 check 
total pot: 300 
/inquire 
recv from player 5555: raise 0
send inquire msg to player 4444 
inquire/ 
5555 57851 4000 250 raise 
4444 9673 8000 150 check 
total pot: 400 
/inquire 
recv from player 4444: check

---show down---
showdown/ 
common/ 
DIAMONDS 5 
DIAMONDS A 
HEARTS A 
SPADES 8 
HEARTS 7 
/common 
2: 4444 SPADES 7 DIAMONDS 4 TWO_PAIR 
1: 5555 CLUBS 8 DIAMONDS Q TWO_PAIR 
/showdown 

---Allocate pot---
pot-win/ 
5555: 500 
/pot-win 
it is player 4444's turn to be button

-----111 Hand-----
seat/ 
button: 4444 9573 8000 
small blind: 5555 58351 4000 
/seat 
blind/ 
5555: 50 
/blind 
player 5555:hold/ 
HEARTS J 
SPADES 6 
/hold 
player 4444:hold/ 
DIAMONDS J 
SPADES J 
/hold 

---pre flop round bet---
valid player: 2, all in player: 0, fold player: 0
send inquire msg to player 4444 
inquire/ 
5555 58301 4000 50 blind 
total pot: 50 
/inquire 
recv from player 4444: check
send inquire msg to player 5555 
inquire/ 
4444 9523 8000 50 call 
5555 58301 4000 50 blind 
total pot: 100 
/inquire 
recv from player 5555: check
flop/ 
DIAMONDS 7 
HEARTS K 
SPADES 10 
/flop 

---flop round bet---
valid player: 2, all in player: 0, fold player: 0
send inquire msg to player 5555 
inquire/ 
4444 9523 8000 50 call 
5555 58301 4000 50 check 
total pot: 100 
/inquire 
recv from player 5555: raise 0
send inquire msg to player 4444 
inquire/ 
5555 58201 4000 150 raise 
4444 9523 8000 50 call 
total pot: 200 
/inquire 
recv from player 4444: check
turn/ 
DIAMONDS 10 
/turn 

---turn round bet---
valid player: 2, all in player: 0, fold player: 0
send inquire msg to player 5555 
inquire/ 
4444 9423 8000 150 call 
5555 58201 4000 150 raise 
total pot: 300 
/inquire 
recv from player 5555: raise 0
send inquire msg to player 4444 
inquire/ 
5555 58101 4000 250 raise 
4444 9423 8000 150 call 
total pot: 400 
/inquire 
recv from player 4444: check
river/ 
SPADES Q 
/river 

---river round bet---
valid player: 2, all in player: 0, fold player: 0
send inquire msg to player 5555 
inquire/ 
4444 9323 8000 250 call 
5555 58101 4000 250 raise 
total pot: 500 
/inquire 
recv from player 5555: check
send inquire msg to player 4444 
inquire/ 
5555 58101 4000 250 check 
4444 9323 8000 250 call 
total pot: 500 
/inquire 
recv from player 4444: check

---show down---
showdown/ 
common/ 
DIAMONDS 7 
HEARTS K 
SPADES 10 
DIAMONDS 10 
SPADES Q 
/common 
2: 5555 HEARTS J SPADES 6 ONE_PAIR 
1: 4444 DIAMONDS J SPADES J TWO_PAIR 
/showdown 

---Allocate pot---
pot-win/ 
4444: 500 
/pot-win 
it is player 5555's turn to be button

-----112 Hand-----
seat/ 
button: 5555 58101 4000 
small blind: 4444 9823 8000 
/seat 
blind/ 
4444: 50 
/blind 
player 4444:hold/ 
HEARTS Q 
SPADES 5 
/hold 
player 5555:hold/ 
SPADES 9 
HEARTS 5 
/hold 

---pre flop round bet---
valid player: 2, all in player: 0, fold player: 0
send inquire msg to player 5555 
inquire/ 
4444 9773 8000 50 blind 
total pot: 50 
/inquire 
recv from player 5555: check
send inquire msg to player 4444 
inquire/ 
5555 58051 4000 50 call 
4444 9773 8000 50 blind 
total pot: 100 
/inquire 
recv from player 4444: check
flop/ 
CLUBS 7 
DIAMONDS 6 
SPADES 2 
/flop 

---flop round bet---
valid player: 2, all in player: 0, fold player: 0
send inquire msg to player 4444 
inquire/ 
5555 58051 4000 50 call 
4444 9773 8000 50 check 
total pot: 100 
/inquire 
recv from player 4444: check
send inquire msg to player 5555 
inquire/ 
4444 9773 8000 50 check 
5555 58051 4000 50 call 
total pot: 100 
/inquire 
recv from player 5555: raise 0
send inquire msg to player 4444 
inquire/ 
5555 57951 4000 150 raise 
4444 9773 8000 50 check 
total pot: 200 
/inquire 
recv from player 4444: check
turn/ 
CLUBS 6 
/turn 

---turn round bet---
valid player: 2, all in player: 0, fold player: 0
send inquire msg to player 4444 
inquire/ 
5555 57951 4000 150 raise 
4444 9673 8000 150 call 
total pot: 300 
/inquire 
recv from player 4444: check
send inquire msg to player 5555 
inquire/ 
4444 9673 8000 150 check 
5555 57951 4000 150 raise 
total pot: 300 
/inquire 
recv from player 5555: raise 0
send inquire msg to player 4444 
inquire/ 
5555 57851 4000 250 raise 
4444 9673 8000 150 check 
total pot: 400 
/inquire 
recv from player 4444: check
river/ 
HEARTS 9 
/river 

---river round bet---
valid player: 2, all in player: 0, fold player: 0
send inquire msg to player 4444 
inquire/ 
5555 57851 4000 250 raise 
4444 9573 8000 250 call 
total pot: 500 
/inquire 
recv from player 4444: check
send inquire msg to player 5555 
inquire/ 
4444 9573 8000 250 check 
5555 57851 4000 250 raise 
total pot: 500 
/inquire 
recv from player 5555: raise 0
send inquire msg to player 4444 
inquire/ 
5555 57751 4000 350 raise 
4444 9573 8000 250 check 
total pot: 600 
/inquire 
recv from player 4444: check

---show down---
showdown/ 
common/ 
CLUBS 7 
DIAMONDS 6 
SPADES 2 
CLUBS 6 
HEARTS 9 
/common 
2: 4444 HEARTS Q SPADES 5 ONE_PAIR 
1: 5555 SPADES 9 HEARTS 5 TWO_PAIR 
/showdown 

---Allocate pot---
pot-win/ 
5555: 700 
/pot-win 
it is player 4444's turn to be button

-----113 Hand-----
seat/ 
button: 4444 9473 8000 
small blind: 5555 58451 4000 
/seat 
blind/ 
5555: 50 
/blind 
player 5555:hold/ 
DIAMONDS Q 
CLUBS J 
/hold 
player 4444:hold/ 
HEARTS K 
DIAMONDS 7 
/hold 

---pre flop round bet---
valid player: 2, all in player: 0, fold player: 0
send inquire msg to player 4444 
inquire/ 
5555 58401 4000 50 blind 
total pot: 50 
/inquire 
recv from player 4444: check
send inquire msg to player 5555 
inquire/ 
4444 9423 8000 50 call 
5555 58401 4000 50 blind 
total pot: 100 
/inquire 
recv from player 5555: raise 0
send inquire msg to player 4444 
inquire/ 
5555 58301 4000 150 raise 
4444 9423 8000 50 call 
total pot: 200 
/inquire 
recv from player 4444: check
flop/ 
SPADES A 
DIAMONDS 9 
CLUBS 7 
/flop 

---flop round bet---
valid player: 2, all in player: 0, fold player: 0
send inquire msg to player 5555 
inquire/ 
4444 9323 8000 150 call 
5555 58301 4000 150 raise 
total pot: 300 
/inquire 
recv from player 5555: check
send inquire msg to player 4444 
inquire/ 
5555 58301 4000 150 check 
4444 9323 8000 150 call 
total pot: 300 
/inquire 
recv from player 4444: check
turn/ 
CLUBS K 
/turn 

---turn round bet---
valid player: 2, all in player: 0, fold player: 0
send inquire msg to player 5555 
inquire/ 
4444 9323 8000 150 check 
5555 58301 4000 150 check 
total pot: 300 
/inquire 
recv from player 5555: raise 0
send inquire msg to player 4444 
inquire/ 
5555 58201 4000 250 raise 
4444 9323 8000 150 check 
total pot: 400 
/inquire 
recv from player 4444: check
river/ 
DIAMONDS 10 
/river 

---river round bet---
valid player: 2, all in player: 0, fold player: 0
send inquire msg to player 5555 
inquire/ 
4444 9223 8000 250 call 
5555 58201 4000 250 raise 
total pot: 500 
/inquire 
recv from player 5555: raise 0
send inquire msg to player 4444 
inquire/ 
5555 58101 4000 350 raise 
4444 9223 8000 250 call 
total pot: 600 
/inquire 
recv from player 4444: check

---show down---
showdown/ 
common/ 
SPADES A 
DIAMONDS 9 
CLUBS 7 
CLUBS K 
DIAMONDS 10 
/common 
1: 5555 DIAMONDS Q CLUBS J STRAIGHT 
2: 4444 HEARTS K DIAMONDS 7 TWO_PAIR 
/showdown 

---Allocate pot---
pot-win/ 
5555: 700 
/pot-win 
it is player 5555's turn to be button

-----114 Hand-----
seat/ 
button: 5555 58801 4000 
small blind: 4444 9123 8000 
/seat 
blind/ 
4444: 50 
/blind 
player 4444:hold/ 
SPADES K 
SPADES 8 
/hold 
player 5555:hold/ 
HEARTS 5 
DIAMONDS A 
/hold 

---pre flop round bet---
valid player: 2, all in player: 0, fold player: 0
send inquire msg to player 5555 
inquire/ 
4444 9073 8000 50 blind 
total pot: 50 
/inquire 
recv from player 5555: check
send inquire msg to player 4444 
inquire/ 
5555 58751 4000 50 call 
4444 9073 8000 50 blind 
total pot: 100 
/inquire 
recv from player 4444: check
flop/ 
DIAMONDS 6 
HEARTS 8 
DIAMONDS Q 
/flop 

---flop round bet---
valid player: 2, all in player: 0, fold player: 0
send inquire msg to player 4444 
inquire/ 
5555 58751 4000 50 call 
4444 9073 8000 50 check 
total pot: 100 
/inquire 
recv from player 4444: check
send inquire msg to player 5555 
inquire/ 
4444 9073 8000 50 check 
5555 58751 4000 50 call 
total pot: 100 
/inquire 
recv from player 5555: raise 0
send inquire msg to player 4444 
inquire/ 
5555 58651 4000 150 raise 
4444 9073 8000 50 check 
total pot: 200 
/inquire 
recv from player 4444: check
turn/ 
DIAMONDS 4 
/turn 

---turn round bet---
valid player: 2, all in player: 0, fold player: 0
send inquire msg to player 4444 
inquire/ 
5555 58651 4000 150 raise 
4444 8973 8000 150 call 
total pot: 300 
/inquire 
recv from player 4444: check
send inquire msg to player 5555 
inquire/ 
4444 8973 8000 150 check 
5555 58651 4000 150 raise 
total pot: 300 
/inquire 
recv from player 5555: check
river/ 
HEARTS 2 
/river 

---river round bet---
valid player: 2, all in player: 0, fold player: 0
send inquire msg to player 4444 
inquire/ 
5555 58651 4000 150 check 
4444 8973 8000 150 check 
total pot: 300 
/inquire 
recv from player 4444: check
send inquire msg to player 5555 
inquire/ 
4444 8973 8000 150 check 
5555 58651 4000 150 check 
total pot: 300 
/inquire 
recv from player 5555: check

---show down---
showdown/ 
common/ 
DIAMONDS 6 
HEARTS 8 
DIAMONDS Q 
DIAMONDS 4 
HEARTS 2 
/common 
1: 4444 SPADES K SPADES 8 ONE_PAIR 
2: 5555 HEARTS 5 DIAMONDS A HIGH_CARD 
/showdown 

---Allocate pot---
pot-win/ 
4444: 300 
/pot-win 
it is player 4444's turn to be button

-----115 Hand-----
seat/ 
button: 4444 9273 8000 
small blind: 5555 58651 4000 
/seat 
blind/ 
5555: 50 
/blind 
player 5555:hold/ 
DIAMONDS 4 
HEARTS K 
/hold 
player 4444:hold/ 
DIAMONDS 6 
DIAMONDS 8 
/hold 

---pre flop round bet---
valid player: 2, all in player: 0, fold player: 0
send inquire msg to player 4444 
inquire/ 
5555 58601 4000 50 blind 
total pot: 50 
/inquire 
recv from player 4444: check
send inquire msg to player 5555 
inquire/ 
4444 9223 8000 50 call 
5555 58601 4000 50 blind 
total pot: 100 
/inquire 
recv from player 5555: check
flop/ 
SPADES J 
HEARTS 2 
HEARTS 3 
/flop 

---flop round bet---
valid player: 2, all in player: 0, fold player: 0
send inquire msg to player 5555 
inquire/ 
4444 9223 8000 50 call 
5555 58601 4000 50 check 
total pot: 100 
/inquire 
recv from player 5555: raise 0
send inquire msg to player 4444 
inquire/ 
5555 58501 4000 150 raise 
4444 9223 8000 50 call 
total pot: 200 
/inquire 
recv from player 4444: check
turn/ 
CLUBS Q 
/turn 

---turn round bet---
valid player: 2, all in player: 0, fold player: 0
send inquire msg to player 5555 
inquire/ 
4444 9123 8000 150 call 
5555 58501 4000 150 raise 
total pot: 300 
/inquire 
recv from player 5555: check
send inquire msg to player 4444 
inquire/ 
5555 58501 4000 150 check 
4444 9123 8000 150 call 
total pot: 300 
/inquire 
recv from player 4444: check
river/ 
SPADES 8 
/river 

---river round bet---
valid player: 2, all in player: 0, fold player: 0
send inquire msg to player 5555 
inquire/ 
4444 9123 8000 150 check 
5555 58501 4000 150 check 
total pot: 300 
/inquire 
recv from player 5555: check
send inquire msg to player 4444 
inquire/ 
5555 58501 4000 150 check 
4444 9123 8000 150 check 
total pot: 300 
/inquire 
recv from player 4444: check

---show down---
showdown/ 
common/ 
SPADES J 
HEARTS 2 
HEARTS 3 
CLUBS Q 
SPADES 8 
/common 
2: 5555 DIAMONDS 4 HEARTS K HIGH_CARD 
1: 4444 DIAMONDS 6 DIAMONDS 8 ONE_PAIR 
/showdown 

---Allocate pot---
pot-win/ 
4444: 300 
/pot-win 
it is player 5555's turn to be button

-----116 Hand-----
seat/ 
button: 5555 58501 4000 
small blind: 4444 9423 8000 
/seat 
blind/ 
4444: 50 
/blind 
player 4444:hold/ 
SPADES K 
CLUBS 4 
/hold 
player 5555:hold/ 
DIAMONDS 2 
DIAMONDS 8 
/hold 

---pre flop round bet---
valid player: 2, all in player: 0, fold player: 0
send inquire msg to player 5555 
inquire/ 
4444 9373 8000 50 blind 
total pot: 50 
/inquire 
recv from player 5555: raise 0
send inquire msg to player 4444 
inquire/ 
5555 58351 4000 150 raise 
4444 9373 8000 50 blind 
total pot: 200 
/inquire 
recv from player 4444: check
flop/ 
CLUBS A 
SPADES 7 
CLUBS Q 
/flop 

---flop round bet---
valid player: 2, all in player: 0, fold player: 0
send inquire msg to player 4444 
inquire/ 
5555 58351 4000 150 raise 
4444 9273 8000 150 call 
total pot: 300 
/inquire 
recv from player 4444: check
send inquire msg to player 5555 
inquire/ 
4444 9273 8000 150 check 
5555 58351 4000 150 raise 
total pot: 300 
/inquire 
recv from player 5555: check
turn/ 
SPADES 10 
/turn 

---turn round bet---
valid player: 2, all in player: 0, fold player: 0
send inquire msg to player 4444 
inquire/ 
5555 58351 4000 150 check 
4444 9273 8000 150 check 
total pot: 300 
/inquire 
recv from player 4444: check
send inquire msg to player 5555 
inquire/ 
4444 9273 8000 150 check 
5555 58351 4000 150 check 
total pot: 300 
/inquire 
recv from player 5555: raise 0
send inquire msg to player 4444 
inquire/ 
5555 58251 4000 250 raise 
4444 9273 8000 150 check 
total pot: 400 
/inquire 
recv from player 4444: check
river/ 
DIAMONDS 6 
/river 

---river round bet---
valid player: 2, all in player: 0, fold player: 0
send inquire msg to player 4444 
inquire/ 
5555 58251 4000 250 raise 
4444 9173 8000 250 call 
total pot: 500 
/inquire 
recv from player 4444: check
send inquire msg to player 5555 
inquire/ 
4444 9173 8000 250 check 
5555 58251 4000 250 raise 
total pot: 500 
/inquire 
recv from player 5555: check

---show down---
showdown/ 
common/ 
CLUBS A 
SPADES 7 
CLUBS Q 
SPADES 10 
DIAMONDS 6 
/common 
1: 4444 SPADES K CLUBS 4 HIGH_CARD 
2: 5555 DIAMONDS 2 DIAMONDS 8 HIGH_CARD 
/showdown 

---Allocate pot---
pot-win/ 
4444: 500 
/pot-win 
it is player 4444's turn to be button

-----117 Hand-----
seat/ 
button: 4444 9673 8000 
small blind: 5555 58251 4000 
/seat 
blind/ 
5555: 50 
/blind 
player 5555:hold/ 
SPADES 10 
HEARTS J 
/hold 
player 4444:hold/ 
HEARTS 9 
CLUBS K 
/hold 

---pre flop round bet---
valid player: 2, all in player: 0, fold player: 0
send inquire msg to player 4444 
inquire/ 
5555 58201 4000 50 blind 
total pot: 50 
/inquire 
recv from player 4444: check
send inquire msg to player 5555 
inquire/ 
4444 9623 8000 50 call 
5555 58201 4000 50 blind 
total pot: 100 
/inquire 
recv from player 5555: check
flop/ 
DIAMONDS 8 
CLUBS J 
CLUBS 7 
/flop 

---flop round bet---
valid player: 2, all in player: 0, fold player: 0
send inquire msg to player 5555 
inquire/ 
4444 9623 8000 50 call 
5555 58201 4000 50 check 
total pot: 100 
/inquire 
recv from player 5555: raise 0
send inquire msg to player 4444 
inquire/ 
5555 58101 4000 150 raise 
4444 9623 8000 50 call 
total pot: 200 
/inquire 
recv from player 4444: check
turn/ 
CLUBS 10 
/turn 

---turn round bet---
valid player: 2, all in player: 0, fold player: 0
send inquire msg to player 5555 
inquire/ 
4444 9523 8000 150 call 
5555 58101 4000 150 raise 
total pot: 300 
/inquire 
recv from player 5555: raise 0
send inquire msg to player 4444 
inquire/ 
5555 58001 4000 250 raise 
4444 9523 8000 150 call 
total pot: 400 
/inquire 
recv from player 4444: check
river/ 
DIAMONDS 5 
/river 

---river round bet---
valid player: 2, all in player: 0, fold player: 0
send inquire msg to player 5555 
inquire/ 
4444 9423 8000 250 call 
5555 58001 4000 250 raise 
total pot: 500 
/inquire 
recv from player 5555: raise 0
send inquire msg to player 4444 
inquire/ 
5555 57901 4000 350 raise 
4444 9423 8000 250 call 
total pot: 600 
/inquire 
recv from player 4444: check

---show down---
showdown/ 
common/ 
DIAMONDS 8 
CLUBS J 
CLUBS 7 
CLUBS 10 
DIAMONDS 5 
/common 
2: 5555 SPADES 10 HEARTS J TWO_PAIR 
1: 4444 HEARTS 9 CLUBS K STRAIGHT 
/showdown 

---Allocate pot---
pot-win/ 
4444: 700 
/pot-win 
it is player 5555's turn to be button

-----118 Hand-----
seat/ 
button: 5555 57901 4000 
small blind: 4444 10023 8000 
/seat 
blind/ 
4444: 50 
/blind 
player 4444:hold/ 
CLUBS 9 
SPADES J 
/hold 
player 5555:hold/ 
CLUBS 6 
DIAMONDS 3 
/hold 

---pre flop round bet---
valid player: 2, all in player: 0, fold player: 0
send inquire msg to player 5555 
inquire/ 
4444 9973 8000 50 blind 
total pot: 50 
/inquire 
recv from player 5555: raise 0
send inquire msg to player 4444 
inquire/ 
5555 57751 4000 150 raise 
4444 9973 8000 50 blind 
total pot: 200 
/inquire 
recv from player 4444: check
flop/ 
HEARTS 7 
HEARTS 5 
DIAMONDS 10 
/flop 

---flop round bet---
valid player: 2, all in player: 0, fold player: 0
send inquire msg to player 4444 
inquire/ 
5555 57751 4000 150 raise 
4444 9873 8000 150 call 
total pot: 300 
/inquire 
recv from player 4444: check
send inquire msg to player 5555 
inquire/ 
4444 9873 8000 150 check 
5555 57751 4000 150 raise 
total pot: 300 
/inquire 
recv from player 5555: check
turn/ 
CLUBS 8 
/turn 

---turn round bet---
valid player: 2, all in player: 0, fold player: 0
send inquire msg to player 4444 
inquire/ 
5555 57751 4000 150 check 
4444 9873 8000 150 check 
total pot: 300 
/inquire 
recv from player 4444: check
send inquire msg to player 5555 
inquire/ 
4444 9873 8000 150 check 
5555 57751 4000 150 check 
total pot: 300 
/inquire 
recv from player 5555: check
river/ 
CLUBS 10 
/river 

---river round bet---
valid player: 2, all in player: 0, fold player: 0
send inquire msg to player 4444 
inquire/ 
5555 57751 4000 150 check 
4444 9873 8000 150 check 
total pot: 300 
/inquire 
recv from player 4444: check
send inquire msg to player 5555 
inquire/ 
4444 9873 8000 150 check 
5555 57751 4000 150 check 
total pot: 300 
/inquire 
recv from player 5555: check

---show down---
showdown/ 
common/ 
HEARTS 7 
HEARTS 5 
DIAMONDS 10 
CLUBS 8 
CLUBS 10 
/common 
1: 4444 CLUBS 9 SPADES J STRAIGHT 
2: 5555 CLUBS 6 DIAMONDS 3 ONE_PAIR 
/showdown 

---Allocate pot---
pot-win/ 
4444: 300 
/pot-win 
it is player 4444's turn to be button

-----119 Hand-----
seat/ 
button: 4444 10173 8000 
small blind: 5555 57751 4000 
/seat 
blind/ 
5555: 50 
/blind 
player 5555:hold/ 
CLUBS 8 
DIAMONDS 10 
/hold 
player 4444:hold/ 
SPADES Q 
SPADES 7 
/hold 

---pre flop round bet---
valid player: 2, all in player: 0, fold player: 0
send inquire msg to player 4444 
inquire/ 
5555 57701 4000 50 blind 
total pot: 50 
/inquire 
recv from player 4444: check
send inquire msg to player 5555 
inquire/ 
4444 10123 8000 50 call 
5555 57701 4000 50 blind 
total pot: 100 
/inquire 
recv from player 5555: raise 0
send inquire msg to player 4444 
inquire/ 
5555 57601 4000 150 raise 
4444 10123 8000 50 call 
total pot: 200 
/inquire 
recv from player 4444: check
flop/ 
HEARTS 10 
SPADES 8 
HEARTS J 
/flop 

---flop round bet---
valid player: 2, all in player: 0, fold player: 0
send inquire msg to player 5555 
inquire/ 
4444 10023 8000 150 call 
5555 57601 4000 150 raise 
total pot: 300 
/inquire 
recv from player 5555: check
send inquire msg to player 4444 
inquire/ 
5555 57601 4000 150 check 
4444 10023 8000 150 call 
total pot: 300 
/inquire 
recv from player 4444: check
turn/ 
DIAMONDS Q 
/turn 

---turn round bet---
valid player: 2, all in player: 0, fold player: 0
send inquire msg to player 5555 
inquire/ 
4444 10023 8000 150 check 
5555 57601 4000 150 check 
total pot: 300 
/inquire 
recv from player 5555: check
send inquire msg to player 4444 
inquire/ 
5555 57601 4000 150 check 
4444 10023 8000 150 check 
total pot: 300 
/inquire 
recv from player 4444: check
river/ 
HEARTS 8 
/river 

---river round bet---
valid player: 2, all in player: 0, fold player: 0
send inquire msg to player 5555 
inquire/ 
4444 10023 8000 150 check 
5555 57601 4000 150 check 
total pot: 300 
/inquire 
recv from player 5555: check
send inquire msg to player 4444 
inquire/ 
5555 57601 4000 150 check 
4444 10023 8000 150 check 
total pot: 300 
/inquire 
recv from player 4444: check

---show down---
showdown/ 
common/ 
HEARTS 10 
SPADES 8 
HEARTS J 
DIAMONDS Q 
HEARTS 8 
/common 
1: 5555 CLUBS 8 DIAMONDS 10 FULL_HOUSE 
2: 4444 SPADES Q SPADES 7 TWO_PAIR 
/showdown 

---Allocate pot---
pot-win/ 
5555: 300 
/pot-win 
it is player 5555's turn to be button

-----120 Hand-----
seat/ 
button: 5555 57901 4000 
small blind: 4444 10023 8000 
/seat 
blind/ 
4444: 50 
/blind 
player 4444:hold/ 
SPADES 5 
DIAMONDS 8 
/hold 
player 5555:hold/ 
DIAMONDS 5 
CLUBS 3 
/hold 

---pre flop round bet---
valid player: 2, all in player: 0, fold player: 0
send inquire msg to player 5555 
inquire/ 
4444 9973 8000 50 blind 
total pot: 50 
/inquire 
recv from player 5555: check
send inquire msg to player 4444 
inquire/ 
5555 57851 4000 50 call 
4444 9973 8000 50 blind 
total pot: 100 
/inquire 
recv from player 4444: check
flop/ 
DIAMONDS K 
CLUBS 5 
HEARTS Q 
/flop 

---flop round bet---
valid player: 2, all in player: 0, fold player: 0
send inquire msg to player 4444 
inquire/ 
5555 57851 4000 50 call 
4444 9973 8000 50 check 
total pot: 100 
/inquire 
recv from player 4444: check
send inquire msg to player 5555 
inquire/ 
4444 9973 8000 50 check 
5555 57851 4000 50 call 
total pot: 100 
/inquire 
recv from player 5555: check
turn/ 
HEARTS 7 
/turn 

---turn round bet---
valid player: 2, all in player: 0, fold player: 0
send inquire msg to player 4444 
inquire/ 
5555 57851 4000 50 check 
4444 9973 8000 50 check 
total pot: 100 
/inquire 
recv from player 4444: check
send inquire msg to player 5555 
inquire/ 
4444 9973 8000 50 check 
5555 57851 4000 50 check 
total pot: 100 
/inquire 
recv from player 5555: raise 0
send inquire msg to player 4444 
inquire/ 
5555 57751 4000 150 raise 
4444 9973 8000 50 check 
total pot: 200 
/inquire 
recv from player 4444: check
river/ 
DIAMONDS 2 
/river 

---river round bet---
valid player: 2, all in player: 0, fold player: 0
send inquire msg to player 4444 
inquire/ 
5555 57751 4000 150 raise 
4444 9873 8000 150 call 
total pot: 300 
/inquire 
recv from player 4444: check
send inquire msg to player 5555 
inquire/ 
4444 9873 8000 150 check 
5555 57751 4000 150 raise 
total pot: 300 
/inquire 
recv from player 5555: raise 0
send inquire msg to player 4444 
inquire/ 
5555 57651 4000 250 raise 
4444 9873 8000 150 check 
total pot: 400 
/inquire 
recv from player 4444: check

---show down---
showdown/ 
common/ 
DIAMONDS K 
CLUBS 5 
HEARTS Q 
HEARTS 7 
DIAMONDS 2 
/common 
1: 4444 SPADES 5 DIAMONDS 8 ONE_PAIR 
2: 5555 DIAMONDS 5 CLUBS 3 ONE_PAIR 
/showdown 

---Allocate pot---
pot-win/ 
4444: 500 
/pot-win 
it is player 4444's turn to be button

-----121 Hand-----
seat/ 
button: 4444 10273 8000 
small blind: 5555 57651 4000 
/seat 
blind/ 
5555: 50 
/blind 
player 5555:hold/ 
DIAMONDS K 
SPADES 6 
/hold 
player 4444:hold/ 
HEARTS 8 
CLUBS 6 
/hold 

---pre flop round bet---
valid player: 2, all in player: 0, fold player: 0
send inquire msg to player 4444 
inquire/ 
5555 57601 4000 50 blind 
total pot: 50 
/inquire 
recv from player 4444: check
send inquire msg to player 5555 
inquire/ 
4444 10223 8000 50 call 
5555 57601 4000 50 blind 
total pot: 100 
/inquire 
recv from player 5555: check
flop/ 
SPADES 9 
CLUBS 5 
HEARTS A 
/flop 

---flop round bet---
valid player: 2, all in player: 0, fold player: 0
send inquire msg to player 5555 
inquire/ 
4444 10223 8000 50 call 
5555 57601 4000 50 check 
total pot: 100 
/inquire 
recv from player 5555: check
send inquire msg to player 4444 
inquire/ 
5555 57601 4000 50 check 
4444 10223 8000 50 call 
total pot: 100 
/inquire 
recv from player 4444: check
turn/ 
HEARTS Q 
/turn 

---turn round bet---
valid player: 2, all in player: 0, fold player: 0
send inquire msg to player 5555 
inquire/ 
4444 10223 8000 50 check 
5555 57601 4000 50 check 
total pot: 100 
/inquire 
recv from player 5555: check
send inquire msg to player 4444 
inquire/ 
5555 57601 4000 50 check 
4444 10223 8000 50 check 
total pot: 100 
/inquire 
recv from player 4444: check
river/ 
SPADES Q 
/river 

---river round bet---
valid player: 2, all in player: 0, fold player: 0
send inquire msg to player 5555 
inquire/ 
4444 10223 8000 50 check 
5555 57601 4000 50 check 
total pot: 100 
/inquire 
recv from player 5555: check
send inquire msg to player 4444 
inquire/ 
5555 57601 4000 50 check 
4444 10223 8000 50 check 
total pot: 100 
/inquire 
recv from player 4444: check

---show down---
showdown/ 
common/ 
SPADES 9 
CLUBS 5 
HEARTS A 
HEARTS Q 
SPADES Q 
/common 
1: 5555 DIAMONDS K SPADES 6 ONE_PAIR 
2: 4444 HEARTS 8 CLUBS 6 ONE_PAIR 
/showdown 

---Allocate pot---
pot-win/ 
5555: 100 
/pot-win 
it is player 5555's turn to be button

-----122 Hand-----
seat/ 
button: 5555 57701 4000 
small blind: 4444 10223 8000 
/seat 
blind/ 
4444: 50 
/blind 
player 4444:hold/ 
SPADES A 
HEARTS 9 
/hold 
player 5555:hold/ 
DIAMONDS 3 
CLUBS Q 
/hold 

---pre flop round bet---
valid player: 2, all in player: 0, fold player: 0
send inquire msg to player 5555 
inquire/ 
4444 10173 8000 50 blind 
total pot: 50 
/inquire 
recv from player 5555: check
send inquire msg to player 4444 
inquire/ 
5555 57651 4000 50 call 
4444 10173 8000 50 blind 
total pot: 100 
/inquire 
recv from player 4444: check
flop/ 
CLUBS 10 
HEARTS 2 
DIAMONDS 2 
/flop 

---flop round bet---
valid player: 2, all in player: 0, fold player: 0
send inquire msg to player 4444 
inquire/ 
5555 57651 4000 50 call 
4444 10173 8000 50 check 
total pot: 100 
/inquire 
recv from player 4444: check
send inquire msg to player 5555 
inquire/ 
4444 10173 8000 50 check 
5555 57651 4000 50 call 
total pot: 100 
/inquire 
recv from player 5555: check
turn/ 
SPADES 5 
/turn 

---turn round bet---
valid player: 2, all in player: 0, fold player: 0
send inquire msg to player 4444 
inquire/ 
5555 57651 4000 50 check 
4444 10173 8000 50 check 
total pot: 100 
/inquire 
recv from player 4444: check
send inquire msg to player 5555 
inquire/ 
4444 10173 8000 50 check 
5555 57651 4000 50 check 
total pot: 100 
/inquire 
recv from player 5555: raise 0
send inquire msg to player 4444 
inquire/ 
5555 57551 4000 150 raise 
4444 10173 8000 50 check 
total pot: 200 
/inquire 
recv from player 4444: check
river/ 
HEARTS 10 
/river 

---river round bet---
valid player: 2, all in player: 0, fold player: 0
send inquire msg to player 4444 
inquire/ 
5555 57551 4000 150 raise 
4444 10073 8000 150 call 
total pot: 300 
/inquire 
recv from player 4444: check
send inquire msg to player 5555 
inquire/ 
4444 10073 8000 150 check 
5555 57551 4000 150 raise 
total pot: 300 
/inquire 
recv from player 5555: raise 0
send inquire msg to player 4444 
inquire/ 
5555 57451 4000 250 raise 
4444 10073 8000 150 check 
total pot: 400 
/inquire 
recv from player 4444: check

---show down---
showdown/ 
common/ 
CLUBS 10 
HEARTS 2 
DIAMONDS 2 
SPADES 5 
HEARTS 10 
/common 
1: 4444 SPADES A HEARTS 9 TWO_PAIR 
2: 5555 DIAMONDS 3 CLUBS Q TWO_PAIR 
/showdown 

---Allocate pot---
pot-win/ 
4444: 500 
/pot-win 
it is player 4444's turn to be button

-----123 Hand-----
seat/ 
button: 4444 10473 8000 
small blind: 5555 57451 4000 
/seat 
blind/ 
5555: 50 
/blind 
player 5555:hold/ 
HEARTS 5 
DIAMONDS Q 
/hold 
player 4444:hold/ 
CLUBS 4 
DIAMONDS 7 
/hold 

---pre flop round bet---
valid player: 2, all in player: 0, fold player: 0
send inquire msg to player 4444 
inquire/ 
5555 57401 4000 50 blind 
total pot: 50 
/inquire 
recv from player 4444: check
send inquire msg to player 5555 
inquire/ 
4444 10423 8000 50 call 
5555 57401 4000 50 blind 
total pot: 100 
/inquire 
recv from player 5555: check
flop/ 
SPADES 7 
SPADES 5 
CLUBS J 
/flop 

---flop round bet---
valid player: 2, all in player: 0, fold player: 0
send inquire msg to player 5555 
inquire/ 
4444 10423 8000 50 call 
5555 57401 4000 50 check 
total pot: 100 
/inquire 
recv from player 5555: raise 0
send inquire msg to player 4444 
inquire/ 
5555 57301 4000 150 raise 
4444 10423 8000 50 call 
total pot: 200 
/inquire 
recv from player 4444: check
turn/ 
SPADES K 
/turn 

---turn round bet---
valid player: 2, all in player: 0, fold player: 0
send inquire msg to player 5555 
inquire/ 
4444 10323 8000 150 call 
5555 57301 4000 150 raise 
total pot: 300 
/inquire 
recv from player 5555: raise 0
send inquire msg to player 4444 
inquire/ 
5555 57201 4000 250 raise 
4444 10323 8000 150 call 
total pot: 400 
/inquire 
recv from player 4444: check
river/ 
HEARTS 4 
/river 

---river round bet---
valid player: 2, all in player: 0, fold player: 0
send inquire msg to player 5555 
inquire/ 
4444 10223 8000 250 call 
5555 57201 4000 250 raise 
total pot: 500 
/inquire 
recv from player 5555: check
send inquire msg to player 4444 
inquire/ 
5555 57201 4000 250 check 
4444 10223 8000 250 call 
total pot: 500 
/inquire 
recv from player 4444: check

---show down---
showdown/ 
common/ 
SPADES 7 
SPADES 5 
CLUBS J 
SPADES K 
HEARTS 4 
/common 
2: 5555 HEARTS 5 DIAMONDS Q ONE_PAIR 
1: 4444 CLUBS 4 DIAMONDS 7 TWO_PAIR 
/showdown 

---Allocate pot---
pot-win/ 
4444: 500 
/pot-win 
it is player 5555's turn to be button

-----124 Hand-----
seat/ 
button: 5555 57201 4000 
small blind: 4444 10723 8000 
/seat 
blind/ 
4444: 50 
/blind 
player 4444:hold/ 
HEARTS 5 
SPADES K 
/hold 
player 5555:hold/ 
CLUBS 9 
HEARTS J 
/hold 

---pre flop round bet---
valid player: 2, all in player: 0, fold player: 0
send inquire msg to player 5555 
inquire/ 
4444 10673 8000 50 blind 
total pot: 50 
/inquire 
recv from player 5555: raise 0
send inquire msg to player 4444 
inquire/ 
5555 57051 4000 150 raise 
4444 10673 8000 50 blind 
total pot: 200 
/inquire 
recv from player 4444: check
flop/ 
DIAMONDS 7 
DIAMONDS 9 
HEARTS 2 
/flop 

---flop round bet---
valid player: 2, all in player: 0, fold player: 0
send inquire msg to player 4444 
inquire/ 
5555 57051 4000 150 raise 
4444 10573 8000 150 call 
total pot: 300 
/inquire 
recv from player 4444: check
send inquire msg to player 5555 
inquire/ 
4444 10573 8000 150 check 
5555 57051 4000 150 raise 
total pot: 300 
/inquire 
recv from player 5555: check
turn/ 
SPADES 2 
/turn 

---turn round bet---
valid player: 2, all in player: 0, fold player: 0
send inquire msg to player 4444 
inquire/ 
5555 57051 4000 150 check 
4444 10573 8000 150 check 
total pot: 300 
/inquire 
recv from player 4444: check
send inquire msg to player 5555 
inquire/ 
4444 10573 8000 150 check 
5555 57051 4000 150 check 
total pot: 300 
/inquire 
recv from player 5555: raise 0
send inquire msg to player 4444 
inquire/ 
5555 56951 4000 250 raise 
4444 10573 8000 150 check 
total pot: 400 
/inquire 
recv from player 4444: check
river/ 
DIAMONDS 8 
/river 

---river round bet---
valid player: 2, all in player: 0, fold player: 0
send inquire msg to player 4444 
inquire/ 
5555 56951 4000 250 raise 
4444 10473 8000 250 call 
total pot: 500 
/inquire 
recv from player 4444: check
send inquire msg to player 5555 
inquire/ 
4444 10473 8000 250 check 
5555 56951 4000 250 raise 
total pot: 500 
/inquire 
recv from player 5555: raise 0
send inquire msg to player 4444 
inquire/ 
5555 56851 4000 350 raise 
4444 10473 8000 250 check 
total pot: 600 
/inquire 
recv from player 4444: check

---show down---
showdown/ 
common/ 
DIAMONDS 7 
DIAMONDS 9 
HEARTS 2 
SPADES 2 
DIAMONDS 8 
/common 
2: 4444 HEARTS 5 SPADES K ONE_PAIR 
1: 5555 CLUBS 9 HEARTS J TWO_PAIR 
/showdown 

---Allocate pot---
pot-win/ 
5555: 700 
/pot-win 
it is player 4444's turn to be button

-----125 Hand-----
seat/ 
button: 4444 10373 8000 
small blind: 5555 57551 4000 
/seat 
blind/ 
5555: 50 
/blind 
player 5555:hold/ 
DIAMONDS 6 
CLUBS 3 
/hold 
player 4444:hold/ 
DIAMONDS 5 
CLUBS K 
/hold 

---pre flop round bet---
valid player: 2, all in player: 0, fold player: 0
send inquire msg to player 4444 
inquire/ 
5555 57501 4000 50 blind 
total pot: 50 
/inquire 
recv from player 4444: check
send inquire msg to player 5555 
inquire/ 
4444 10323 8000 50 call 
5555 57501 4000 50 blind 
total pot: 100 
/inquire 
recv from player 5555: raise 0
send inquire msg to player 4444 
inquire/ 
5555 57401 4000 150 raise 
4444 10323 8000 50 call 
total pot: 200 
/inquire 
recv from player 4444: check
flop/ 
SPADES 6 
CLUBS 2 
HEARTS J 
/flop 

---flop round bet---
valid player: 2, all in player: 0, fold player: 0
send inquire msg to player 5555 
inquire/ 
4444 10223 8000 150 call 
5555 57401 4000 150 raise 
total pot: 300 
/inquire 
recv from player 5555: raise 0
send inquire msg to player 4444 
inquire/ 
5555 57301 4000 250 raise 
4444 10223 8000 150 call 
total pot: 400 
/inquire 
recv from player 4444: check
turn/ 
HEARTS K 
/turn 

---turn round bet---
valid player: 2, all in player: 0, fold player: 0
send inquire msg to player 5555 
inquire/ 
4444 10123 8000 250 call 
5555 57301 4000 250 raise 
total pot: 500 
/inquire 
recv from player 5555: raise 0
send inquire msg to player 4444 
inquire/ 
5555 57201 4000 350 raise 
4444 10123 8000 250 call 
total pot: 600 
/inquire 
recv from player 4444: check
river/ 
HEARTS 7 
/river 

---river round bet---
valid player: 2, all in player: 0, fold player: 0
send inquire msg to player 5555 
inquire/ 
4444 10023 8000 350 call 
5555 57201 4000 350 raise 
total pot: 700 
/inquire 
recv from player 5555: raise 0
send inquire msg to player 4444 
inquire/ 
5555 57101 4000 450 raise 
4444 10023 8000 350 call 
total pot: 800 
/inquire 
recv from player 4444: check

---show down---
showdown/ 
common/ 
SPADES 6 
CLUBS 2 
HEARTS J 
HEARTS K 
HEARTS 7 
/common 
2: 5555 DIAMONDS 6 CLUBS 3 ONE_PAIR 
1: 4444 DIAMONDS 5 CLUBS K ONE_PAIR 
/showdown 

---Allocate pot---
pot-win/ 
4444: 900 
/pot-win 
it is player 5555's turn to be button

-----126 Hand-----
seat/ 
button: 5555 57101 4000 
small blind: 4444 10823 8000 
/seat 
blind/ 
4444: 50 
/blind 
player 4444:hold/ 
HEARTS J 
CLUBS 8 
/hold 
player 5555:hold/ 
CLUBS 5 
SPADES 3 
/hold 

---pre flop round bet---
valid player: 2, all in player: 0, fold player: 0
send inquire msg to player 5555 
inquire/ 
4444 10773 8000 50 blind 
total pot: 50 
/inquire 
recv from player 5555: raise 0
send inquire msg to player 4444 
inquire/ 
5555 56951 4000 150 raise 
4444 10773 8000 50 blind 
total pot: 200 
/inquire 
recv from player 4444: check
flop/ 
CLUBS 6 
HEARTS 7 
CLUBS 10 
/flop 

---flop round bet---
valid player: 2, all in player: 0, fold player: 0
send inquire msg to player 4444 
inquire/ 
5555 56951 4000 150 raise 
4444 10673 8000 150 call 
total pot: 300 
/inquire 
recv from player 4444: check
send inquire msg to player 5555 
inquire/ 
4444 10673 8000 150 check 
5555 56951 4000 150 raise 
total pot: 300 
/inquire 
recv from player 5555: check
turn/ 
HEARTS Q 
/turn 

---turn round bet---
valid player: 2, all in player: 0, fold player: 0
send inquire msg to player 4444 
inquire/ 
5555 56951 4000 150 check 
4444 10673 8000 150 check 
total pot: 300 
/inquire 
recv from player 4444: check
send inquire msg to player 5555 
inquire/ 
4444 10673 8000 150 check 
5555 56951 4000 150 check 
total pot: 300 
/inquire 
recv from player 5555: check
river/ 
SPADES A 
/river 

---river round bet---
valid player: 2, all in player: 0, fold player: 0
send inquire msg to player 4444 
inquire/ 
5555 56951 4000 150 check 
4444 10673 8000 150 check 
total pot: 300 
/inquire 
recv from player 4444: check
send inquire msg to player 5555 
inquire/ 
4444 10673 8000 150 check 
5555 56951 4000 150 check 
total pot: 300 
/inquire 
recv from player 5555: raise 0
send inquire msg to player 4444 
inquire/ 
5555 56851 4000 250 raise 
4444 10673 8000 150 check 
total pot: 400 
/inquire 
recv from player 4444: check

---show down---
showdown/ 
common/ 
CLUBS 6 
HEARTS 7 
CLUBS 10 
HEARTS Q 
SPADES A 
/common 
1: 4444 HEARTS J CLUBS 8 HIGH_CARD 
2: 5555 CLUBS 5 SPADES 3 HIGH_CARD 
/showdown 

---Allocate pot---
pot-win/ 
4444: 500 
/pot-win 
it is player 4444's turn to be button

-----127 Hand-----
seat/ 
button: 4444 11073 8000 
small blind: 5555 56851 4000 
/seat 
blind/ 
5555: 50 
/blind 
player 5555:hold/ 
DIAMONDS K 
CLUBS 2 
/hold 
player 4444:hold/ 
HEARTS 10 
HEARTS J 
/hold 

---pre flop round bet---
valid player: 2, all in player: 0, fold player: 0
send inquire msg to player 4444 
inquire/ 
5555 56801 4000 50 blind 
total pot: 50 
/inquire 
recv from player 4444: check
send inquire msg to player 5555 
inquire/ 
4444 11023 8000 50 call 
5555 56801 4000 50 blind 
total pot: 100 
/inquire 
recv from player 5555: raise 0
send inquire msg to player 4444 
inquire/ 
5555 56701 4000 150 raise 
4444 11023 8000 50 call 
total pot: 200 
/inquire 
recv from player 4444: check
flop/ 
DIAMONDS 2 
DIAMONDS 3 
HEARTS Q 
/flop 

---flop round bet---
valid player: 2, all in player: 0, fold player: 0
send inquire msg to player 5555 
inquire/ 
4444 10923 8000 150 call 
5555 56701 4000 150 raise 
total pot: 300 
/inquire 
recv from player 5555: check
send inquire msg to player 4444 
inquire/ 
5555 56701 4000 150 check 
4444 10923 8000 150 call 
total pot: 300 
/inquire 
recv from player 4444: check
turn/ 
DIAMONDS 4 
/turn 

---turn round bet---
valid player: 2, all in player: 0, fold player: 0
send inquire msg to player 5555 
inquire/ 
4444 10923 8000 150 check 
5555 56701 4000 150 check 
total pot: 300 
/inquire 
recv from player 5555: raise 0
send inquire msg to player 4444 
inquire/ 
5555 56601 4000 250 raise 
4444 10923 8000 150 check 
total pot: 400 
/inquire 
recv from player 4444: check
river/ 
DIAMONDS 5 
/river 

---river round bet---
valid player: 2, all in player: 0, fold player: 0
send inquire msg to player 5555 
inquire/ 
4444 10823 8000 250 call 
5555 56601 4000 250 raise 
total pot: 500 
/inquire 
recv from player 5555: check
send inquire msg to player 4444 
inquire/ 
5555 56601 4000 250 check 
4444 10823 8000 250 call 
total pot: 500 
/inquire 
recv from player 4444: check

---show down---
showdown/ 
common/ 
DIAMONDS 2 
DIAMONDS 3 
HEARTS Q 
DIAMONDS 4 
DIAMONDS 5 
/common 
1: 5555 DIAMONDS K CLUBS 2 FLUSH 
2: 4444 HEARTS 10 HEARTS J HIGH_CARD 
/showdown 

---Allocate pot---
pot-win/ 
5555: 500 
/pot-win 
it is player 5555's turn to be button

-----128 Hand-----
seat/ 
button: 5555 57101 4000 
small blind: 4444 10823 8000 
/seat 
blind/ 
4444: 50 
/blind 
player 4444:hold/ 
HEARTS Q 
SPADES 10 
/hold 
player 5555:hold/ 
CLUBS 10 
HEARTS J 
/hold 

---pre flop round bet---
valid player: 2, all in player: 0, fold player: 0
send inquire msg to player 5555 
inquire/ 
4444 10773 8000 50 blind 
total pot: 50 
/inquire 
recv from player 5555: check
send inquire msg to player 4444 
inquire/ 
5555 57051 4000 50 call 
4444 10773 8000 50 blind 
total pot: 100 
/inquire 
recv from player 4444: check
flop/ 
DIAMONDS 9 
HEARTS 9 
CLUBS 7 
/flop 

---flop round bet---
valid player: 2, all in player: 0, fold player: 0
send inquire msg to player 4444 
inquire/ 
5555 57051 4000 50 call 
4444 10773 8000 50 check 
total pot: 100 
/inquire 
recv from player 4444: check
send inquire msg to player 5555 
inquire/ 
4444 10773 8000 50 check 
5555 57051 4000 50 call 
total pot: 100 
/inquire 
recv from player 5555: check
turn/ 
DIAMONDS J 
/turn 

---turn round bet---
valid player: 2, all in player: 0, fold player: 0
send inquire msg to player 4444 
inquire/ 
5555 57051 4000 50 check 
4444 10773 8000 50 check 
total pot: 100 
/inquire 
recv from player 4444: check
send inquire msg to player 5555 
inquire/ 
4444 10773 8000 50 check 
5555 57051 4000 50 check 
total pot: 100 
/inquire 
recv from player 5555: raise 0
send inquire msg to player 4444 
inquire/ 
5555 56951 4000 150 raise 
4444 10773 8000 50 check 
total pot: 200 
/inquire 
recv from player 4444: check
river/ 
DIAMONDS 5 
/river 

---river round bet---
valid player: 2, all in player: 0, fold player: 0
send inquire msg to player 4444 
inquire/ 
5555 56951 4000 150 raise 
4444 10673 8000 150 call 
total pot: 300 
/inquire 
recv from player 4444: check
send inquire msg to player 5555 
inquire/ 
4444 10673 8000 150 check 
5555 56951 4000 150 raise 
total pot: 300 
/inquire 
recv from player 5555: check

---show down---
showdown/ 
common/ 
DIAMONDS 9 
HEARTS 9 
CLUBS 7 
DIAMONDS J 
DIAMONDS 5 
/common 
2: 4444 HEARTS Q SPADES 10 ONE_PAIR 
1: 5555 CLUBS 10 HEARTS J TWO_PAIR 
/showdown 

---Allocate pot---
pot-win/ 
5555: 300 
/pot-win 
it is player 4444's turn to be button

-----129 Hand-----
seat/ 
button: 4444 10673 8000 
small blind: 5555 57251 4000 
/seat 
blind/ 
5555: 50 
/blind 
player 5555:hold/ 
DIAMONDS A 
SPADES A 
/hold 
player 4444:hold/ 
HEARTS 9 
HEARTS 3 
/hold 

---pre flop round bet---
valid player: 2, all in player: 0, fold player: 0
send inquire msg to player 4444 
inquire/ 
5555 57201 4000 50 blind 
total pot: 50 
/inquire 
recv from player 4444: check
send inquire msg to player 5555 
inquire/ 
4444 10623 8000 50 call 
5555 57201 4000 50 blind 
total pot: 100 
/inquire 
recv from player 5555: check
flop/ 
DIAMONDS 2 
CLUBS J 
SPADES 5 
/flop 

---flop round bet---
valid player: 2, all in player: 0, fold player: 0
send inquire msg to player 5555 
inquire/ 
4444 10623 8000 50 call 
5555 57201 4000 50 check 
total pot: 100 
/inquire 
recv from player 5555: raise 0
send inquire msg to player 4444 
inquire/ 
5555 57101 4000 150 raise 
4444 10623 8000 50 call 
total pot: 200 
/inquire 
recv from player 4444: check
turn/ 
CLUBS 4 
/turn 

---turn round bet---
valid player: 2, all in player: 0, fold player: 0
send inquire msg to player 5555 
inquire/ 
4444 10523 8000 150 call 
5555 57101 4000 150 raise 
total pot: 300 
/inquire 
recv from player 5555: check
send inquire msg to player 4444 
inquire/ 
5555 57101 4000 150 check 
4444 10523 8000 150 call 
total pot: 300 
/inquire 
recv from player 4444: check
river/ 
DIAMONDS 7 
/river 

---river round bet---
valid player: 2, all in player: 0, fold player: 0
send inquire msg to player 5555 
inquire/ 
4444 10523 8000 150 check 
5555 57101 4000 150 check 
total pot: 300 
/inquire 
recv from player 5555: raise 0
send inquire msg to player 4444 
inquire/ 
5555 57001 4000 250 raise 
4444 10523 8000 150 check 
total pot: 400 
/inquire 
recv from player 4444: check

---show down---
showdown/ 
common/ 
DIAMONDS 2 
CLUBS J 
SPADES 5 
CLUBS 4 
DIAMONDS 7 
/common 
1: 5555 DIAMONDS A SPADES A ONE_PAIR 
2: 4444 HEARTS 9 HEARTS 3 HIGH_CARD 
/showdown 

---Allocate pot---
pot-win/ 
5555: 500 
/pot-win 
it is player 5555's turn to be button

-----130 Hand-----
seat/ 
button: 5555 57501 4000 
small blind: 4444 10423 8000 
/seat 
blind/ 
4444: 50 
/blind 
player 4444:hold/ 
CLUBS 9 
SPADES A 
/hold 
player 5555:hold/ 
SPADES 10 
HEARTS J 
/hold 

---pre flop round bet---
valid player: 2, all in player: 0, fold player: 0
send inquire msg to player 5555 
inquire/ 
4444 10373 8000 50 blind 
total pot: 50 
/inquire 
recv from player 5555: raise 0
send inquire msg to player 4444 
inquire/ 
5555 57351 4000 150 raise 
4444 10373 8000 50 blind 
total pot: 200 
/inquire 
recv from player 4444: check
flop/ 
DIAMONDS 5 
CLUBS 8 
SPADES 9 
/flop 

---flop round bet---
valid player: 2, all in player: 0, fold player: 0
send inquire msg to player 4444 
inquire/ 
5555 57351 4000 150 raise 
4444 10273 8000 150 call 
total pot: 300 
/inquire 
recv from player 4444: check
send inquire msg to player 5555 
inquire/ 
4444 10273 8000 150 check 
5555 57351 4000 150 raise 
total pot: 300 
/inquire 
recv from player 5555: raise 0
send inquire msg to player 4444 
inquire/ 
5555 57251 4000 250 raise 
4444 10273 8000 150 check 
total pot: 400 
/inquire 
recv from player 4444: check
turn/ 
HEARTS K 
/turn 

---turn round bet---
valid player: 2, all in player: 0, fold player: 0
send inquire msg to player 4444 
inquire/ 
5555 57251 4000 250 raise 
4444 10173 8000 250 call 
total pot: 500 
/inquire 
recv from player 4444: check
send inquire msg to player 5555 
inquire/ 
4444 10173 8000 250 check 
5555 57251 4000 250 raise 
total pot: 500 
/inquire 
recv from player 5555: check
river/ 
CLUBS K 
/river 

---river round bet---
valid player: 2, all in player: 0, fold player: 0
send inquire msg to player 4444 
inquire/ 
5555 57251 4000 250 check 
4444 10173 8000 250 check 
total pot: 500 
/inquire 
recv from player 4444: check
send inquire msg to player 5555 
inquire/ 
4444 10173 8000 250 check 
5555 57251 4000 250 check 
total pot: 500 
/inquire 
recv from player 5555: check

---show down---
showdown/ 
common/ 
DIAMONDS 5 
CLUBS 8 
SPADES 9 
HEARTS K 
CLUBS K 
/common 
1: 4444 CLUBS 9 SPADES A TWO_PAIR 
2: 5555 SPADES 10 HEARTS J ONE_PAIR 
/showdown 

---Allocate pot---
pot-win/ 
4444: 500 
/pot-win 
it is player 4444's turn to be button

-----131 Hand-----
seat/ 
button: 4444 10673 8000 
small blind: 5555 57251 4000 
/seat 
blind/ 
5555: 50 
/blind 
player 5555:hold/ 
HEARTS J 
DIAMONDS 3 
/hold 
player 4444:hold/ 
SPADES 4 
HEARTS 6 
/hold 

---pre flop round bet---
valid player: 2, all in player: 0, fold player: 0
send inquire msg to player 4444 
inquire/ 
5555 57201 4000 50 blind 
total pot: 50 
/inquire 
recv from player 4444: check
send inquire msg to player 5555 
inquire/ 
4444 10623 8000 50 call 
5555 57201 4000 50 blind 
total pot: 100 
/inquire 
recv from player 5555: raise 0
send inquire msg to player 4444 
inquire/ 
5555 57101 4000 150 raise 
4444 10623 8000 50 call 
total pot: 200 
/inquire 
recv from player 4444: check
flop/ 
DIAMONDS 4 
HEARTS 4 
HEARTS 5 
/flop 

---flop round bet---
valid player: 2, all in player: 0, fold player: 0
send inquire msg to player 5555 
inquire/ 
4444 10523 8000 150 call 
5555 57101 4000 150 raise 
total pot: 300 
/inquire 
recv from player 5555: check
send inquire msg to player 4444 
inquire/ 
5555 57101 4000 150 check 
4444 10523 8000 150 call 
total pot: 300 
/inquire 
recv from player 4444: check
turn/ 
DIAMONDS 6 
/turn 

---turn round bet---
valid player: 2, all in player: 0, fold player: 0
send inquire msg to player 5555 
inquire/ 
4444 10523 8000 150 check 
5555 57101 4000 150 check 
total pot: 300 
/inquire 
recv from player 5555: check
send inquire msg to player 4444 
inquire/ 
5555 57101 4000 150 check 
4444 10523 8000 150 check 
total pot: 300 
/inquire 
recv from player 4444: check
river/ 
DIAMONDS 9 
/river 

---river round bet---
valid player: 2, all in player: 0, fold player: 0
send inquire msg to player 5555 
inquire/ 
4444 10523 8000 150 check 
5555 57101 4000 150 check 
total pot: 300 
/inquire 
recv from player 5555: check
send inquire msg to player 4444 
inquire/ 
5555 57101 4000 150 check 
4444 10523 8000 150 check 
total pot: 300 
/inquire 
recv from player 4444: check

---show down---
showdown/ 
common/ 
DIAMONDS 4 
HEARTS 4 
HEARTS 5 
DIAMONDS 6 
DIAMONDS 9 
/common 
2: 5555 HEARTS J DIAMONDS 3 ONE_PAIR 
1: 4444 SPADES 4 HEARTS 6 FULL_HOUSE 
/showdown 

---Allocate pot---
pot-win/ 
4444: 300 
/pot-win 
it is player 5555's turn to be button

-----132 Hand-----
seat/ 
button: 5555 57101 4000 
small blind: 4444 10823 8000 
/seat 
blind/ 
4444: 50 
/blind 
player 4444:hold/ 
HEARTS 5 
CLUBS 3 
/hold 
player 5555:hold/ 
DIAMONDS 8 
HEARTS 9 
/hold 

---pre flop round bet---
valid player: 2, all in player: 0, fold player: 0
send inquire msg to player 5555 
inquire/ 
4444 10773 8000 50 blind 
total pot: 50 
/inquire 
recv from player 5555: raise 0
send inquire msg to player 4444 
inquire/ 
5555 56951 4000 150 raise 
4444 10773 8000 50 blind 
total pot: 200 
/inquire 
recv from player 4444: check
flop/ 
CLUBS 6 
DIAMONDS 7 
HEARTS 10 
/flop 

---flop round bet---
valid player: 2, all in player: 0, fold player: 0
send inquire msg to player 4444 
inquire/ 
5555 56951 4000 150 raise 
4444 10673 8000 150 call 
total pot: 300 
/inquire 
recv from player 4444: check
send inquire msg to player 5555 
inquire/ 
4444 10673 8000 150 check 
5555 56951 4000 150 raise 
total pot: 300 
/inquire 
recv from player 5555: raise 0
send inquire msg to player 4444 
inquire/ 
5555 56851 4000 250 raise 
4444 10673 8000 150 check 
total pot: 400 
/inquire 
recv from player 4444: check
turn/ 
SPADES 4 
/turn 

---turn round bet---
valid player: 2, all in player: 0, fold player: 0
send inquire msg to player 4444 
inquire/ 
5555 56851 4000 250 raise 
4444 10573 8000 250 call 
total pot: 500 
/inquire 
recv from player 4444: check
send inquire msg to player 5555 
inquire/ 
4444 10573 8000 250 check 
5555 56851 4000 250 raise 
total pot: 500 
/inquire 
recv from player 5555: raise 0
send inquire msg to player 4444 
inquire/ 
5555 56751 4000 350 raise 
4444 10573 8000 250 check 
total pot: 600 
/inquire 
recv from player 4444: check
river/ 
CLUBS 4 
/river 

---river round bet---
valid player: 2, all in player: 0, fold player: 0
send inquire msg to player 4444 
inquire/ 
5555 56751 4000 350 raise 
4444 10473 8000 350 call 
total pot: 700 
/inquire 
recv from player 4444: check
send inquire msg to player 5555 
inquire/ 
4444 10473 8000 350 check 
5555 56751 4000 350 raise 
total pot: 700 
/inquire 
recv from player 5555: check

---show down---
showdown/ 
common/ 
CLUBS 6 
DIAMONDS 7 
HEARTS 10 
SPADES 4 
CLUBS 4 
/common 
2: 4444 HEARTS 5 CLUBS 3 STRAIGHT 
1: 5555 DIAMONDS 8 HEARTS 9 STRAIGHT 
/showdown 

---Allocate pot---
pot-win/ 
5555: 700 
/pot-win 
it is player 4444's turn to be button

-----133 Hand-----
seat/ 
button: 4444 10473 8000 
small blind: 5555 57451 4000 
/seat 
blind/ 
5555: 50 
/blind 
player 5555:hold/ 
SPADES 10 
DIAMONDS Q 
/hold 
player 4444:hold/ 
HEARTS 9 
CLUBS 4 
/hold 

---pre flop round bet---
valid player: 2, all in player: 0, fold player: 0
send inquire msg to player 4444 
inquire/ 
5555 57401 4000 50 blind 
total pot: 50 
/inquire 
recv from player 4444: check
send inquire msg to player 5555 
inquire/ 
4444 10423 8000 50 call 
5555 57401 4000 50 blind 
total pot: 100 
/inquire 
recv from player 5555: check
flop/ 
SPADES 8 
SPADES A 
HEARTS 6 
/flop 

---flop round bet---
valid player: 2, all in player: 0, fold player: 0
send inquire msg to player 5555 
inquire/ 
4444 10423 8000 50 call 
5555 57401 4000 50 check 
total pot: 100 
/inquire 
recv from player 5555: check
send inquire msg to player 4444 
inquire/ 
5555 57401 4000 50 check 
4444 10423 8000 50 call 
total pot: 100 
/inquire 
recv from player 4444: check
turn/ 
CLUBS Q 
/turn 

---turn round bet---
valid player: 2, all in player: 0, fold player: 0
send inquire msg to player 5555 
inquire/ 
4444 10423 8000 50 check 
5555 57401 4000 50 check 
total pot: 100 
/inquire 
recv from player 5555: check
send inquire msg to player 4444 
inquire/ 
5555 57401 4000 50 check 
4444 10423 8000 50 check 
total pot: 100 
/inquire 
recv from player 4444: check
river/ 
HEARTS 4 
/river 

---river round bet---
valid player: 2, all in player: 0, fold player: 0
send inquire msg to player 5555 
inquire/ 
4444 10423 8000 50 check 
5555 57401 4000 50 check 
total pot: 100 
/inquire 
recv from player 5555: check
send inquire msg to player 4444 
inquire/ 
5555 57401 4000 50 check 
4444 10423 8000 50 check 
total pot: 100 
/inquire 
recv from player 4444: check

---show down---
showdown/ 
common/ 
SPADES 8 
SPADES A 
HEARTS 6 
CLUBS Q 
HEARTS 4 
/common 
1: 5555 SPADES 10 DIAMONDS Q ONE_PAIR 
2: 4444 HEARTS 9 CLUBS 4 ONE_PAIR 
/showdown 

---Allocate pot---
pot-win/ 
5555: 100 
/pot-win 
it is player 5555's turn to be button

-----134 Hand-----
seat/ 
button: 5555 57501 4000 
small blind: 4444 10423 8000 
/seat 
blind/ 
4444: 50 
/blind 
player 4444:hold/ 
DIAMONDS Q 
SPADES 6 
/hold 
player 5555:hold/ 
SPADES 10 
DIAMONDS 4 
/hold 

---pre flop round bet---
valid player: 2, all in player: 0, fold player: 0
send inquire msg to player 5555 
inquire/ 
4444 10373 8000 50 blind 
total pot: 50 
/inquire 
recv from player 5555: check
send inquire msg to player 4444 
inquire/ 
5555 57451 4000 50 call 
4444 10373 8000 50 blind 
total pot: 100 
/inquire 
recv from player 4444: check
flop/ 
DIAMONDS J 
HEARTS 6 
HEARTS J 
/flop 

---flop round bet---
valid player: 2, all in player: 0, fold player: 0
send inquire msg to player 4444 
inquire/ 
5555 57451 4000 50 call 
4444 10373 8000 50 check 
total pot: 100 
/inquire 
recv from player 4444: check
send inquire msg to player 5555 
inquire/ 
4444 10373 8000 50 check 
5555 57451 4000 50 call 
total pot: 100 
/inquire 
recv from player 5555: raise 0
send inquire msg to player 4444 
inquire/ 
5555 57351 4000 150 raise 
4444 10373 8000 50 check 
total pot: 200 
/inquire 
recv from player 4444: check
turn/ 
CLUBS K 
/turn 

---turn round bet---
valid player: 2, all in player: 0, fold player: 0
send inquire msg to player 4444 
inquire/ 
5555 57351 4000 150 raise 
4444 10273 8000 150 call 
total pot: 300 
/inquire 
recv from player 4444: check
send inquire msg to player 5555 
inquire/ 
4444 10273 8000 150 check 
5555 57351 4000 150 raise 
total pot: 300 
/inquire 
recv from player 5555: raise 0
send inquire msg to player 4444 
inquire/ 
5555 57251 4000 250 raise 
4444 10273 8000 150 check 
total pot: 400 
/inquire 
recv from player 4444: check
river/ 
DIAMONDS 3 
/river 

---river round bet---
valid player: 2, all in player: 0, fold player: 0
send inquire msg to player 4444 
inquire/ 
5555 57251 4000 250 raise 
4444 10173 8000 250 call 
total pot: 500 
/inquire 
recv from player 4444: check
send inquire msg to player 5555 
inquire/ 
4444 10173 8000 250 check 
5555 57251 4000 250 raise 
total pot: 500 
/inquire 
recv from player 5555: check

---show down---
showdown/ 
common/ 
DIAMONDS J 
HEARTS 6 
HEARTS J 
CLUBS K 
DIAMONDS 3 
/common 
1: 4444 DIAMONDS Q SPADES 6 TWO_PAIR 
2: 5555 SPADES 10 DIAMONDS 4 ONE_PAIR 
/showdown 

---Allocate pot---
pot-win/ 
4444: 500 
/pot-win 
it is player 4444's turn to be button

-----135 Hand-----
seat/ 
button: 4444 10673 8000 
small blind: 5555 57251 4000 
/seat 
blind/ 
5555: 50 
/blind 
player 5555:hold/ 
CLUBS A 
HEARTS 6 
/hold 
player 4444:hold/ 
CLUBS K 
DIAMONDS Q 
/hold 

---pre flop round bet---
valid player: 2, all in player: 0, fold player: 0
send inquire msg to player 4444 
inquire/ 
5555 57201 4000 50 blind 
total pot: 50 
/inquire 
recv from player 4444: check
send inquire msg to player 5555 
inquire/ 
4444 10623 8000 50 call 
5555 57201 4000 50 blind 
total pot: 100 
/inquire 
recv from player 5555: raise 0
send inquire msg to player 4444 
inquire/ 
5555 57101 4000 150 raise 
4444 10623 8000 50 call 
total pot: 200 
/inquire 
recv from player 4444: check
flop/ 
SPADES J 
HEARTS Q 
DIAMONDS 9 
/flop 

---flop round bet---
valid player: 2, all in player: 0, fold player: 0
send inquire msg to player 5555 
inquire/ 
4444 10523 8000 150 call 
5555 57101 4000 150 raise 
total pot: 300 
/inquire 
recv from player 5555: raise 0
send inquire msg to player 4444 
inquire/ 
5555 57001 4000 250 raise 
4444 10523 8000 150 call 
total pot: 400 
/inquire 
recv from player 4444: check
turn/ 
SPADES 6 
/turn 

---turn round bet---
valid player: 2, all in player: 0, fold player: 0
send inquire msg to player 5555 
inquire/ 
4444 10423 8000 250 call 
5555 57001 4000 250 raise 
total pot: 500 
/inquire 
recv from player 5555: raise 0
send inquire msg to player 4444 
inquire/ 
5555 56901 4000 350 raise 
4444 10423 8000 250 call 
total pot: 600 
/inquire 
recv from player 4444: check
river/ 
DIAMONDS 7 
/river 

---river round bet---
valid player: 2, all in player: 0, fold player: 0
send inquire msg to player 5555 
inquire/ 
4444 10323 8000 350 call 
5555 56901 4000 350 raise 
total pot: 700 
/inquire 
recv from player 5555: raise 0
send inquire msg to player 4444 
inquire/ 
5555 56801 4000 450 raise 
4444 10323 8000 350 call 
total pot: 800 
/inquire 
recv from player 4444: check

---show down---
showdown/ 
common/ 
SPADES J 
HEARTS Q 
DIAMONDS 9 
SPADES 6 
DIAMONDS 7 
/common 
2: 5555 CLUBS A HEARTS 6 ONE_PAIR 
1: 4444 CLUBS K DIAMONDS Q ONE_PAIR 
/showdown 

---Allocate pot---
pot-win/ 
4444: 900 
/pot-win 
it is player 5555's turn to be button

-----136 Hand-----
seat/ 
button: 5555 56801 4000 
small blind: 4444 11123 8000 
/seat 
blind/ 
4444: 50 
/blind 
player 4444:hold/ 
HEARTS 8 
SPADES 9 
/hold 
player 5555:hold/ 
HEARTS K 
DIAMONDS 3 
/hold 

---pre flop round bet---
valid player: 2, all in player: 0, fold player: 0
send inquire msg to player 5555 
inquire/ 
4444 11073 8000 50 blind 
total pot: 50 
/inquire 
recv from player 5555: raise 0
send inquire msg to player 4444 
inquire/ 
5555 56651 4000 150 raise 
4444 11073 8000 50 blind 
total pot: 200 
/inquire 
recv from player 4444: check
flop/ 
SPADES 6 
CLUBS J 
SPADES 7 
/flop 

---flop round bet---
valid player: 2, all in player: 0, fold player: 0
send inquire msg to player 4444 
inquire/ 
5555 56651 4000 150 raise 
4444 10973 8000 150 call 
total pot: 300 
/inquire 
recv from player 4444: check
send inquire msg to player 5555 
inquire/ 
4444 10973 8000 150 check 
5555 56651 4000 150 raise 
total pot: 300 
/inquire 
recv from player 5555: raise 0
send inquire msg to player 4444 
inquire/ 
5555 56551 4000 250 raise 
4444 10973 8000 150 check 
total pot: 400 
/inquire 
recv from player 4444: check
turn/ 
SPADES K 
/turn 

---turn round bet---
valid player: 2, all in player: 0, fold player: 0
send inquire msg to player 4444 
inquire/ 
5555 56551 4000 250 raise 
4444 10873 8000 250 call 
total pot: 500 
/inquire 
recv from player 4444: check
send inquire msg to player 5555 
inquire/ 
4444 10873 8000 250 check 
5555 56551 4000 250 raise 
total pot: 500 
/inquire 
recv from player 5555: check
river/ 
DIAMONDS 2 
/river 

---river round bet---
valid player: 2, all in player: 0, fold player: 0
send inquire msg to player 4444 
inquire/ 
5555 56551 4000 250 check 
4444 10873 8000 250 check 
total pot: 500 
/inquire 
recv from player 4444: check
send inquire msg to player 5555 
inquire/ 
4444 10873 8000 250 check 
5555 56551 4000 250 check 
total pot: 500 
/inquire 
recv from player 5555: raise 0
send inquire msg to player 4444 
inquire/ 
5555 56451 4000 350 raise 
4444 10873 8000 250 check 
total pot: 600 
/inquire 
recv from player 4444: check

---show down---
showdown/ 
common/ 
SPADES 6 
CLUBS J 
SPADES 7 
SPADES K 
DIAMONDS 2 
/common 
2: 4444 HEARTS 8 SPADES 9 HIGH_CARD 
1: 5555 HEARTS K DIAMONDS 3 ONE_PAIR 
/showdown 

---Allocate pot---
pot-win/ 
5555: 700 
/pot-win 
it is player 4444's turn to be button

-----137 Hand-----
seat/ 
button: 4444 10773 8000 
small blind: 5555 57151 4000 
/seat 
blind/ 
5555: 50 
/blind 
player 5555:hold/ 
SPADES 5 
DIAMONDS 8 
/hold 
player 4444:hold/ 
HEARTS J 
SPADES 10 
/hold 

---pre flop round bet---
valid player: 2, all in player: 0, fold player: 0
send inquire msg to player 4444 
inquire/ 
5555 57101 4000 50 blind 
total pot: 50 
/inquire 
recv from player 4444: check
send inquire msg to player 5555 
inquire/ 
4444 10723 8000 50 call 
5555 57101 4000 50 blind 
total pot: 100 
/inquire 
recv from player 5555: raise 0
send inquire msg to player 4444 
inquire/ 
5555 57001 4000 150 raise 
4444 10723 8000 50 call 
total pot: 200 
/inquire 
recv from player 4444: check
flop/ 
SPADES J 
DIAMONDS A 
CLUBS 7 
/flop 

---flop round bet---
valid player: 2, all in player: 0, fold player: 0
send inquire msg to player 5555 
inquire/ 
4444 10623 8000 150 call 
5555 57001 4000 150 raise 
total pot: 300 
/inquire 
recv from player 5555: check
send inquire msg to player 4444 
inquire/ 
5555 57001 4000 150 check 
4444 10623 8000 150 call 
total pot: 300 
/inquire 
recv from player 4444: check
turn/ 
CLUBS Q 
/turn 

---turn round bet---
valid player: 2, all in player: 0, fold player: 0
send inquire msg to player 5555 
inquire/ 
4444 10623 8000 150 check 
5555 57001 4000 150 check 
total pot: 300 
/inquire 
recv from player 5555: check
send inquire msg to player 4444 
inquire/ 
5555 57001 4000 150 check 
4444 10623 8000 150 check 
total pot: 300 
/inquire 
recv from player 4444: check
river/ 
CLUBS 5 
/river 

---river round bet---
valid player: 2, all in player: 0, fold player: 0
send inquire msg to player 5555 
inquire/ 
4444 10623 8000 150 check 
5555 57001 4000 150 check 
total pot: 300 
/inquire 
recv from player 5555: raise 0
send inquire msg to player 4444 
inquire/ 
5555 56901 4000 250 raise 
4444 10623 8000 150 check 
total pot: 400 
/inquire 
recv from player 4444: check

---show down---
showdown/ 
common/ 
SPADES J 
DIAMONDS A 
CLUBS 7 
CLUBS Q 
CLUBS 5 
/common 
2: 5555 SPADES 5 DIAMONDS 8 ONE_PAIR 
1: 4444 HEARTS J SPADES 10 ONE_PAIR 
/showdown 

---Allocate pot---
pot-win/ 
4444: 500 
/pot-win 
it is player 5555's turn to be button

-----138 Hand-----
seat/ 
button: 5555 56901 4000 
small blind: 4444 11023 8000 
/seat 
blind/ 
4444: 50 
/blind 
player 4444:hold/ 
HEARTS Q 
SPADES A 
/hold 
player 5555:hold/ 
DIAMONDS J 
SPADES J 
/hold 

---pre flop round bet---
valid player: 2, all in player: 0, fold player: 0
send inquire msg to player 5555 
inquire/ 
4444 10973 8000 50 blind 
total pot: 50 
/inquire 
recv from player 5555: check
send inquire msg to player 4444 
inquire/ 
5555 56851 4000 50 call 
4444 10973 8000 50 blind 
total pot: 100 
/inquire 
recv from player 4444: check
flop/ 
CLUBS Q 
HEARTS 9 
HEARTS 2 
/flop 

---flop round bet---
valid player: 2, all in player: 0, fold player: 0
send inquire msg to player 4444 
inquire/ 
5555 56851 4000 50 call 
4444 10973 8000 50 check 
total pot: 100 
/inquire 
recv from player 4444: check
send inquire msg to player 5555 
inquire/ 
4444 10973 8000 50 check 
5555 56851 4000 50 call 
total pot: 100 
/inquire 
recv from player 5555: raise 0
send inquire msg to player 4444 
inquire/ 
5555 56751 4000 150 raise 
4444 10973 8000 50 check 
total pot: 200 
/inquire 
recv from player 4444: check
turn/ 
DIAMONDS 2 
/turn 

---turn round bet---
valid player: 2, all in player: 0, fold player: 0
send inquire msg to player 4444 
inquire/ 
5555 56751 4000 150 raise 
4444 10873 8000 150 call 
total pot: 300 
/inquire 
recv from player 4444: check
send inquire msg to player 5555 
inquire/ 
4444 10873 8000 150 check 
5555 56751 4000 150 raise 
total pot: 300 
/inquire 
recv from player 5555: raise 0
send inquire msg to player 4444 
inquire/ 
5555 56651 4000 250 raise 
4444 10873 8000 150 check 
total pot: 400 
/inquire 
recv from player 4444: check
river/ 
DIAMONDS 4 
/river 

---river round bet---
valid player: 2, all in player: 0, fold player: 0
send inquire msg to player 4444 
inquire/ 
5555 56651 4000 250 raise 
4444 10773 8000 250 call 
total pot: 500 
/inquire 
recv from player 4444: check
send inquire msg to player 5555 
inquire/ 
4444 10773 8000 250 check 
5555 56651 4000 250 raise 
total pot: 500 
/inquire 
recv from player 5555: check

---show down---
showdown/ 
common/ 
CLUBS Q 
HEARTS 9 
HEARTS 2 
DIAMONDS 2 
DIAMONDS 4 
/common 
1: 4444 HEARTS Q SPADES A TWO_PAIR 
2: 5555 DIAMONDS J SPADES J TWO_PAIR 
/showdown 

---Allocate pot---
pot-win/ 
4444: 500 
/pot-win 
it is player 4444's turn to be button

-----139 Hand-----
seat/ 
button: 4444 11273 8000 
small blind: 5555 56651 4000 
/seat 
blind/ 
5555: 50 
/blind 
player 5555:hold/ 
SPADES 4 
DIAMONDS A 
/hold 
player 4444:hold/ 
DIAMONDS Q 
CLUBS 2 
/hold 

---pre flop round bet---
valid player: 2, all in player: 0, fold player: 0
send inquire msg to player 4444 
inquire/ 
5555 56601 4000 50 blind 
total pot: 50 
/inquire 
recv from player 4444: check
send inquire msg to player 5555 
inquire/ 
4444 11223 8000 50 call 
5555 56601 4000 50 blind 
total pot: 100 
/inquire 
recv from player 5555: check
flop/ 
SPADES 10 
DIAMONDS 10 
DIAMONDS 4 
/flop 

---flop round bet---
valid player: 2, all in player: 0, fold player: 0
send inquire msg to player 5555 
inquire/ 
4444 11223 8000 50 call 
5555 56601 4000 50 check 
total pot: 100 
/inquire 
recv from player 5555: raise 0
send inquire msg to player 4444 
inquire/ 
5555 56501 4000 150 raise 
4444 11223 8000 50 call 
total pot: 200 
/inquire 
recv from player 4444: check
turn/ 
DIAMONDS J 
/turn 

---turn round bet---
valid player: 2, all in player: 0, fold player: 0
send inquire msg to player 5555 
inquire/ 
4444 11123 8000 150 call 
5555 56501 4000 150 raise 
total pot: 300 
/inquire 
recv from player 5555: raise 0
send inquire msg to player 4444 
inquire/ 
5555 56401 4000 250 raise 
4444 11123 8000 150 call 
total pot: 400 
/inquire 
recv from player 4444: check
river/ 
DIAMONDS 6 
/river 

---river round bet---
valid player: 2, all in player: 0, fold player: 0
send inquire msg to player 5555 
inquire/ 
4444 11023 8000 250 call 
5555 56401 4000 250 raise 
total pot: 500 
/inquire 
recv from player 5555: check
send inquire msg to player 4444 
inquire/ 
5555 56401 4000 250 check 
4444 11023 8000 250 call 
total pot: 500 
/inquire 
recv from player 4444: check

---show down---
showdown/ 
common/ 
SPADES 10 
DIAMONDS 10 
DIAMONDS 4 
DIAMONDS J 
DIAMONDS 6 
/common 
1: 5555 SPADES 4 DIAMONDS A FLUSH 
2: 4444 DIAMONDS Q CLUBS 2 FLUSH 
/showdown 

---Allocate pot---
pot-win/ 
5555: 500 
/pot-win 
it is player 5555's turn to be button

-----140 Hand-----
seat/ 
button: 5555 56901 4000 
small blind: 4444 11023 8000 
/seat 
blind/ 
4444: 50 
/blind 
player 4444:hold/ 
SPADES 5 
DIAMONDS 3 
/hold 
player 5555:hold/ 
DIAMONDS 5 
SPADES 10 
/hold 

---pre flop round bet---
valid player: 2, all in player: 0, fold player: 0
send inquire msg to player 5555 
inquire/ 
4444 10973 8000 50 blind 
total pot: 50 
/inquire 
recv from player 5555: check
send inquire msg to player 4444 
inquire/ 
5555 56851 4000 50 call 
4444 10973 8000 50 blind 
total pot: 100 
/inquire 
recv from player 4444: check
flop/ 
DIAMONDS 6 
DIAMONDS 8 
SPADES 6 
/flop 

---flop round bet---
valid player: 2, all in player: 0, fold player: 0
send inquire msg to player 4444 
inquire/ 
5555 56851 4000 50 call 
4444 10973 8000 50 check 
total pot: 100 
/inquire 
recv from player 4444: check
send inquire msg to player 5555 
inquire/ 
4444 10973 8000 50 check 
5555 56851 4000 50 call 
total pot: 100 
/inquire 
recv from player 5555: check
turn/ 
SPADES 2 
/turn 

---turn round bet---
valid player: 2, all in player: 0, fold player: 0
send inquire msg to player 4444 
inquire/ 
5555 56851 4000 50 check 
4444 10973 8000 50 check 
total pot: 100 
/inquire 
recv from player 4444: check
send inquire msg to player 5555 
inquire/ 
4444 10973 8000 50 check 
5555 56851 4000 50 check 
total pot: 100 
/inquire 
recv from player 5555: check
river/ 
CLUBS 2 
/river 

---river round bet---
valid player: 2, all in player: 0, fold player: 0
send inquire msg to player 4444 
inquire/ 
5555 56851 4000 50 check 
4444 10973 8000 50 check 
total pot: 100 
/inquire 
recv from player 4444: check
send inquire msg to player 5555 
inquire/ 
4444 10973 8000 50 check 
5555 56851 4000 50 check 
total pot: 100 
/inquire 
recv from player 5555: check

---show down---
showdown/ 
common/ 
DIAMONDS 6 
DIAMONDS 8 
SPADES 6 
SPADES 2 
CLUBS 2 
/common 
2: 4444 SPADES 5 DIAMONDS 3 TWO_PAIR 
1: 5555 DIAMONDS 5 SPADES 10 TWO_PAIR 
/showdown 

---Allocate pot---
pot-win/ 
5555: 100 
/pot-win 
it is player 4444's turn to be button

-----141 Hand-----
seat/ 
button: 4444 10973 8000 
small blind: 5555 56951 4000 
/seat 
blind/ 
5555: 50 
/blind 
player 5555:hold/ 
CLUBS 10 
HEARTS A 
/hold 
player 4444:hold/ 
DIAMONDS 6 
HEARTS 2 
/hold 

---pre flop round bet---
valid player: 2, all in player: 0, fold player: 0
send inquire msg to player 4444 
inquire/ 
5555 56901 4000 50 blind 
total pot: 50 
/inquire 
recv from player 4444: check
send inquire msg to player 5555 
inquire/ 
4444 10923 8000 50 call 
5555 56901 4000 50 blind 
total pot: 100 
/inquire 
recv from player 5555: check
flop/ 
HEARTS 10 
CLUBS 9 
DIAMONDS 4 
/flop 

---flop round bet---
valid player: 2, all in player: 0, fold player: 0
send inquire msg to player 5555 
inquire/ 
4444 10923 8000 50 call 
5555 56901 4000 50 check 
total pot: 100 
/inquire 
recv from player 5555: check
send inquire msg to player 4444 
inquire/ 
5555 56901 4000 50 check 
4444 10923 8000 50 call 
total pot: 100 
/inquire 
recv from player 4444: check
turn/ 
CLUBS 6 
/turn 

---turn round bet---
valid player: 2, all in player: 0, fold player: 0
send inquire msg to player 5555 
inquire/ 
4444 10923 8000 50 check 
5555 56901 4000 50 check 
total pot: 100 
/inquire 
recv from player 5555: raise 0
send inquire msg to player 4444 
inquire/ 
5555 56801 4000 150 raise 
4444 10923 8000 50 check 
total pot: 200 
/inquire 
recv from player 4444: check
river/ 
DIAMONDS J 
/river 

---river round bet---
valid player: 2, all in player: 0, fold player: 0
send inquire msg to player 5555 
inquire/ 
4444 10823 8000 150 call 
5555 56801 4000 150 raise 
total pot: 300 
/inquire 
recv from player 5555: raise 0
send inquire msg to player 4444 
inquire/ 
5555 56701 4000 250 raise 
4444 10823 8000 150 call 
total pot: 400 
/inquire 
recv from player 4444: check

---show down---
showdown/ 
common/ 
HEARTS 10 
CLUBS 9 
DIAMONDS 4 
CLUBS 6 
DIAMONDS J 
/common 
1: 5555 CLUBS 10 HEARTS A ONE_PAIR 
2: 4444 DIAMONDS 6 HEARTS 2 ONE_PAIR 
/showdown 

---Allocate pot---
pot-win/ 
5555: 500 
/pot-win 
it is player 5555's turn to be button

-----142 Hand-----
seat/ 
button: 5555 57201 4000 
small blind: 4444 10723 8000 
/seat 
blind/ 
4444: 50 
/blind 
player 4444:hold/ 
CLUBS 4 
HEARTS 9 
/hold 
player 5555:hold/ 
HEARTS 8 
CLUBS 10 
/hold 

---pre flop round bet---
valid player: 2, all in player: 0, fold player: 0
send inquire msg to player 5555 
inquire/ 
4444 10673 8000 50 blind 
total pot: 50 
/inquire 
recv from player 5555: check
send inquire msg to player 4444 
inquire/ 
5555 57151 4000 50 call 
4444 10673 8000 50 blind 
total pot: 100 
/inquire 
recv from player 4444: check
flop/ 
HEARTS Q 
HEARTS 4 
SPADES Q 
/flop 

---flop round bet---
valid player: 2, all in player: 0, fold player: 0
send inquire msg to player 4444 
inquire/ 
5555 57151 4000 50 call 
4444 10673 8000 50 check 
total pot: 100 
/inquire 
recv from player 4444: check
send inquire msg to player 5555 
inquire/ 
4444 10673 8000 50 check 
5555 57151 4000 50 call 
total pot: 100 
/inquire 
recv from player 5555: check
turn/ 
CLUBS 6 
/turn 

---turn round bet---
valid player: 2, all in player: 0, fold player: 0
send inquire msg to player 4444 
inquire/ 
5555 57151 4000 50 check 
4444 10673 8000 50 check 
total pot: 100 
/inquire 
recv from player 4444: check
send inquire msg to player 5555 
inquire/ 
4444 10673 8000 50 check 
5555 57151 4000 50 check 
total pot: 100 
/inquire 
recv from player 5555: check
river/ 
HEARTS 5 
/river 

---river round bet---
valid player: 2, all in player: 0, fold player: 0
send inquire msg to player 4444 
inquire/ 
5555 57151 4000 50 check 
4444 10673 8000 50 check 
total pot: 100 
/inquire 
recv from player 4444: check
send inquire msg to player 5555 
inquire/ 
4444 10673 8000 50 check 
5555 57151 4000 50 check 
total pot: 100 
/inquire 
recv from player 5555: raise 0
send inquire msg to player 4444 
inquire/ 
5555 57051 4000 150 raise 
4444 10673 8000 50 check 
total pot: 200 
/inquire 
recv from player 4444: check

---show down---
showdown/ 
common/ 
HEARTS Q 
HEARTS 4 
SPADES Q 
CLUBS 6 
HEARTS 5 
/common 
1: 4444 CLUBS 4 HEARTS 9 TWO_PAIR 
2: 5555 HEARTS 8 CLUBS 10 ONE_PAIR 
/showdown 

---Allocate pot---
pot-win/ 
4444: 300 
/pot-win 
it is player 4444's turn to be button

-----143 Hand-----
seat/ 
button: 4444 10873 8000 
small blind: 5555 57051 4000 
/seat 
blind/ 
5555: 50 
/blind 
player 5555:hold/ 
SPADES 6 
DIAMONDS 6 
/hold 
player 4444:hold/ 
SPADES 7 
CLUBS 10 
/hold 

---pre flop round bet---
valid player: 2, all in player: 0, fold player: 0
send inquire msg to player 4444 
inquire/ 
5555 57001 4000 50 blind 
total pot: 50 
/inquire 
recv from player 4444: check
send inquire msg to player 5555 
inquire/ 
4444 10823 8000 50 call 
5555 57001 4000 50 blind 
total pot: 100 
/inquire 
recv from player 5555: check
flop/ 
CLUBS 3 
SPADES J 
DIAMONDS 7 
/flop 

---flop round bet---
valid player: 2, all in player: 0, fold player: 0
send inquire msg to player 5555 
inquire/ 
4444 10823 8000 50 call 
5555 57001 4000 50 check 
total pot: 100 
/inquire 
recv from player 5555: raise 0
send inquire msg to player 4444 
inquire/ 
5555 56901 4000 150 raise 
4444 10823 8000 50 call 
total pot: 200 
/inquire 
recv from player 4444: check
turn/ 
CLUBS 6 
/turn 

---turn round bet---
valid player: 2, all in player: 0, fold player: 0
send inquire msg to player 5555 
inquire/ 
4444 10723 8000 150 call 
5555 56901 4000 150 raise 
total pot: 300 
/inquire 
recv from player 5555: check
send inquire msg to player 4444 
inquire/ 
5555 56901 4000 150 check 
4444 10723 8000 150 call 
total pot: 300 
/inquire 
recv from player 4444: check
river/ 
SPADES A 
/river 

---river round bet---
valid player: 2, all in player: 0, fold player: 0
send inquire msg to player 5555 
inquire/ 
4444 10723 8000 150 check 
5555 56901 4000 150 check 
total pot: 300 
/inquire 
recv from player 5555: check
send inquire msg to player 4444 
inquire/ 
5555 56901 4000 150 check 
4444 10723 8000 150 check 
total pot: 300 
/inquire 
recv from player 4444: check

---show down---
showdown/ 
common/ 
CLUBS 3 
SPADES J 
DIAMONDS 7 
CLUBS 6 
SPADES A 
/common 
1: 5555 SPADES 6 DIAMONDS 6 THREE_OF_A_KIND 
2: 4444 SPADES 7 CLUBS 10 ONE_PAIR 
/showdown 

---Allocate pot---
pot-win/ 
5555: 300 
/pot-win 
it is player 5555's turn to be button

-----144 Hand-----
seat/ 
button: 5555 57201 4000 
small blind: 4444 10723 8000 
/seat 
blind/ 
4444: 50 
/blind 
player 4444:hold/ 
HEARTS 2 
DIAMONDS 6 
/hold 
player 5555:hold/ 
SPADES 4 
DIAMONDS 4 
/hold 

---pre flop round bet---
valid player: 2, all in player: 0, fold player: 0
send inquire msg to player 5555 
inquire/ 
4444 10673 8000 50 blind 
total pot: 50 
/inquire 
recv from player 5555: raise 0
send inquire msg to player 4444 
inquire/ 
5555 57051 4000 150 raise 
4444 10673 8000 50 blind 
total pot: 200 
/inquire 
recv from player 4444: check
flop/ 
HEARTS 4 
CLUBS 8 
CLUBS 7 
/flop 

---flop round bet---
valid player: 2, all in player: 0, fold player: 0
send inquire msg to player 4444 
inquire/ 
5555 57051 4000 150 raise 
4444 10573 8000 150 call 
total pot: 300 
/inquire 
recv from player 4444: check
send inquire msg to player 5555 
inquire/ 
4444 10573 8000 150 check 
5555 57051 4000 150 raise 
total pot: 300 
/inquire 
recv from player 5555: check
turn/ 
HEARTS J 
/turn 

---turn round bet---
valid player: 2, all in player: 0, fold player: 0
send inquire msg to player 4444 
inquire/ 
5555 57051 4000 150 check 
4444 10573 8000 150 check 
total pot: 300 
/inquire 
recv from player 4444: check
send inquire msg to player 5555 
inquire/ 
4444 10573 8000 150 check 
5555 57051 4000 150 check 
total pot: 300 
/inquire 
recv from player 5555: check
river/ 
CLUBS 9 
/river 

---river round bet---
valid player: 2, all in player: 0, fold player: 0
send inquire msg to player 4444 
inquire/ 
5555 57051 4000 150 check 
4444 10573 8000 150 check 
total pot: 300 
/inquire 
recv from player 4444: check
send inquire msg to player 5555 
inquire/ 
4444 10573 8000 150 check 
5555 57051 4000 150 check 
total pot: 300 
/inquire 
recv from player 5555: raise 0
send inquire msg to player 4444 
inquire/ 
5555 56951 4000 250 raise 
4444 10573 8000 150 check 
total pot: 400 
/inquire 
recv from player 4444: check

---show down---
showdown/ 
common/ 
HEARTS 4 
CLUBS 8 
CLUBS 7 
HEARTS J 
CLUBS 9 
/common 
2: 4444 HEARTS 2 DIAMONDS 6 HIGH_CARD 
1: 5555 SPADES 4 DIAMONDS 4 THREE_OF_A_KIND 
/showdown 

---Allocate pot---
pot-win/ 
5555: 500 
/pot-win 
it is player 4444's turn to be button

-----145 Hand-----
seat/ 
button: 4444 10473 8000 
small blind: 5555 57451 4000 
/seat 
blind/ 
5555: 50 
/blind 
player 5555:hold/ 
HEARTS A 
SPADES Q 
/hold 
player 4444:hold/ 
DIAMONDS 9 
DIAMONDS 2 
/hold 

---pre flop round bet---
valid player: 2, all in player: 0, fold player: 0
send inquire msg to player 4444 
inquire/ 
5555 57401 4000 50 blind 
total pot: 50 
/inquire 
recv from player 4444: check
send inquire msg to player 5555 
inquire/ 
4444 10423 8000 50 call 
5555 57401 4000 50 blind 
total pot: 100 
/inquire 
recv from player 5555: check
flop/ 
SPADES J 
CLUBS 4 
HEARTS K 
/flop 

---flop round bet---
valid player: 2, all in player: 0, fold player: 0
send inquire msg to player 5555 
inquire/ 
4444 10423 8000 50 call 
5555 57401 4000 50 check 
total pot: 100 
/inquire 
recv from player 5555: raise 0
send inquire msg to player 4444 
inquire/ 
5555 57301 4000 150 raise 
4444 10423 8000 50 call 
total pot: 200 
/inquire 
recv from player 4444: check
turn/ 
HEARTS 4 
/turn 

---turn round bet---
valid player: 2, all in player: 0, fold player: 0
send inquire msg to player 5555 
inquire/ 
4444 10323 8000 150 call 
5555 57301 4000 150 raise 
total pot: 300 
/inquire 
recv from player 5555: check
send inquire msg to player 4444 
inquire/ 
5555 57301 4000 150 check 
4444 10323 8000 150 call 
total pot: 300 
/inquire 
recv from player 4444: check
river/ 
SPADES 2 
/river 

---river round bet---
valid player: 2, all in player: 0, fold player: 0
send inquire msg to player 5555 
inquire/ 
4444 10323 8000 150 check 
5555 57301 4000 150 check 
total pot: 300 
/inquire 
recv from player 5555: check
send inquire msg to player 4444 
inquire/ 
5555 57301 4000 150 check 
4444 10323 8000 150 check 
total pot: 300 
/inquire 
recv from player 4444: check

---show down---
showdown/ 
common/ 
SPADES J 
CLUBS 4 
HEARTS K 
HEARTS 4 
SPADES 2 
/common 
2: 5555 HEARTS A SPADES Q ONE_PAIR 
1: 4444 DIAMONDS 9 DIAMONDS 2 TWO_PAIR 
/showdown 

---Allocate pot---
pot-win/ 
4444: 300 
/pot-win 
it is player 5555's turn to be button

-----146 Hand-----
seat/ 
button: 5555 57301 4000 
small blind: 4444 10623 8000 
/seat 
blind/ 
4444: 50 
/blind 
player 4444:hold/ 
DIAMONDS 4 
HEARTS 6 
/hold 
player 5555:hold/ 
CLUBS A 
HEARTS Q 
/hold 

---pre flop round bet---
valid player: 2, all in player: 0, fold player: 0
send inquire msg to player 5555 
inquire/ 
4444 10573 8000 50 blind 
total pot: 50 
/inquire 
recv from player 5555: raise 0
send inquire msg to player 4444 
inquire/ 
5555 57151 4000 150 raise 
4444 10573 8000 50 blind 
total pot: 200 
/inquire 
recv from player 4444: check
flop/ 
SPADES 4 
HEARTS 4 
CLUBS 7 
/flop 

---flop round bet---
valid player: 2, all in player: 0, fold player: 0
send inquire msg to player 4444 
inquire/ 
5555 57151 4000 150 raise 
4444 10473 8000 150 call 
total pot: 300 
/inquire 
recv from player 4444: check
send inquire msg to player 5555 
inquire/ 
4444 10473 8000 150 check 
5555 57151 4000 150 raise 
total pot: 300 
/inquire 
recv from player 5555: raise 0
send inquire msg to player 4444 
inquire/ 
5555 57051 4000 250 raise 
4444 10473 8000 150 check 
total pot: 400 
/inquire 
recv from player 4444: check
turn/ 
SPADES K 
/turn 

---turn round bet---
valid player: 2, all in player: 0, fold player: 0
send inquire msg to player 4444 
inquire/ 
5555 57051 4000 250 raise 
4444 10373 8000 250 call 
total pot: 500 
/inquire 
recv from player 4444: check
send inquire msg to player 5555 
inquire/ 
4444 10373 8000 250 check 
5555 57051 4000 250 raise 
total pot: 500 
/inquire 
recv from player 5555: raise 0
send inquire msg to player 4444 
inquire/ 
5555 56951 4000 350 raise 
4444 10373 8000 250 check 
total pot: 600 
/inquire 
recv from player 4444: check
river/ 
CLUBS 9 
/river 

---river round bet---
valid player: 2, all in player: 0, fold player: 0
send inquire msg to player 4444 
inquire/ 
5555 56951 4000 350 raise 
4444 10273 8000 350 call 
total pot: 700 
/inquire 
recv from player 4444: check
send inquire msg to player 5555 
inquire/ 
4444 10273 8000 350 check 
5555 56951 4000 350 raise 
total pot: 700 
/inquire 
recv from player 5555: check

---show down---
showdown/ 
common/ 
SPADES 4 
HEARTS 4 
CLUBS 7 
SPADES K 
CLUBS 9 
/common 
1: 4444 DIAMONDS 4 HEARTS 6 THREE_OF_A_KIND 
2: 5555 CLUBS A HEARTS Q ONE_PAIR 
/showdown 

---Allocate pot---
pot-win/ 
4444: 700 
/pot-win 
it is player 4444's turn to be button

-----147 Hand-----
seat/ 
button: 4444 10973 8000 
small blind: 5555 56951 4000 
/seat 
blind/ 
5555: 50 
/blind 
player 5555:hold/ 
SPADES 2 
SPADES Q 
/hold 
player 4444:hold/ 
DIAMONDS Q 
SPADES 9 
/hold 

---pre flop round bet---
valid player: 2, all in player: 0, fold player: 0
send inquire msg to player 4444 
inquire/ 
5555 56901 4000 50 blind 
total pot: 50 
/inquire 
recv from player 4444: check
send inquire msg to player 5555 
inquire/ 
4444 10923 8000 50 call 
5555 56901 4000 50 blind 
total pot: 100 
/inquire 
recv from player 5555: check
flop/ 
HEARTS A 
CLUBS 7 
DIAMONDS K 
/flop 

---flop round bet---
valid player: 2, all in player: 0, fold player: 0
send inquire msg to player 5555 
inquire/ 
4444 10923 8000 50 call 
5555 56901 4000 50 check 
total pot: 100 
/inquire 
recv from player 5555: check
send inquire msg to player 4444 
inquire/ 
5555 56901 4000 50 check 
4444 10923 8000 50 call 
total pot: 100 
/inquire 
recv from player 4444: check
turn/ 
CLUBS 2 
/turn 

---turn round bet---
valid player: 2, all in player: 0, fold player: 0
send inquire msg to player 5555 
inquire/ 
4444 10923 8000 50 check 
5555 56901 4000 50 check 
total pot: 100 
/inquire 
recv from player 5555: check
send inquire msg to player 4444 
inquire/ 
5555 56901 4000 50 check 
4444 10923 8000 50 check 
total pot: 100 
/inquire 
recv from player 4444: check
river/ 
SPADES 8 
/river 

---river round bet---
valid player: 2, all in player: 0, fold player: 0
send inquire msg to player 5555 
inquire/ 
4444 10923 8000 50 check 
5555 56901 4000 50 check 
total pot: 100 
/inquire 
recv from player 5555: check
send inquire msg to player 4444 
inquire/ 
5555 56901 4000 50 check 
4444 10923 8000 50 check 
total pot: 100 
/inquire 
recv from player 4444: check

---show down---
showdown/ 
common/ 
HEARTS A 
CLUBS 7 
DIAMONDS K 
CLUBS 2 
SPADES 8 
/common 
1: 5555 SPADES 2 SPADES Q ONE_PAIR 
2: 4444 DIAMONDS Q SPADES 9 HIGH_CARD 
/showdown 

---Allocate pot---
pot-win/ 
5555: 100 
/pot-win 
it is player 5555's turn to be button

-----148 Hand-----
seat/ 
button: 5555 57001 4000 
small blind: 4444 10923 8000 
/seat 
blind/ 
4444: 50 
/blind 
player 4444:hold/ 
DIAMONDS 3 
HEARTS K 
/hold 
player 5555:hold/ 
CLUBS K 
SPADES A 
/hold 

---pre flop round bet---
valid player: 2, all in player: 0, fold player: 0
send inquire msg to player 5555 
inquire/ 
4444 10873 8000 50 blind 
total pot: 50 
/inquire 
recv from player 5555: check
send inquire msg to player 4444 
inquire/ 
5555 56951 4000 50 call 
4444 10873 8000 50 blind 
total pot: 100 
/inquire 
recv from player 4444: check
flop/ 
DIAMONDS 7 
DIAMONDS A 
HEARTS 9 
/flop 

---flop round bet---
valid player: 2, all in player: 0, fold player: 0
send inquire msg to player 4444 
inquire/ 
5555 56951 4000 50 call 
4444 10873 8000 50 check 
total pot: 100 
/inquire 
recv from player 4444: check
send inquire msg to player 5555 
inquire/ 
4444 10873 8000 50 check 
5555 56951 4000 50 call 
total pot: 100 
/inquire 
recv from player 5555: check
turn/ 
DIAMONDS 10 
/turn 

---turn round bet---
valid player: 2, all in player: 0, fold player: 0
send inquire msg to player 4444 
inquire/ 
5555 56951 4000 50 check 
4444 10873 8000 50 check 
total pot: 100 
/inquire 
recv from player 4444: check
send inquire msg to player 5555 
inquire/ 
4444 10873 8000 50 check 
5555 56951 4000 50 check 
total pot: 100 
/inquire 
recv from player 5555: check
river/ 
SPADES 5 
/river 

---river round bet---
valid player: 2, all in player: 0, fold player: 0
send inquire msg to player 4444 
inquire/ 
5555 56951 4000 50 check 
4444 10873 8000 50 check 
total pot: 100 
/inquire 
recv from player 4444: check
send inquire msg to player 5555 
inquire/ 
4444 10873 8000 50 check 
5555 56951 4000 50 check 
total pot: 100 
/inquire 
recv from player 5555: check

---show down---
showdown/ 
common/ 
DIAMONDS 7 
DIAMONDS A 
HEARTS 9 
DIAMONDS 10 
SPADES 5 
/common 
2: 4444 DIAMONDS 3 HEARTS K HIGH_CARD 
1: 5555 CLUBS K SPADES A ONE_PAIR 
/showdown 

---Allocate pot---
pot-win/ 
5555: 100 
/pot-win 
it is player 4444's turn to be button

-----149 Hand-----
seat/ 
button: 4444 10873 8000 
small blind: 5555 57051 4000 
/seat 
blind/ 
5555: 50 
/blind 
player 5555:hold/ 
CLUBS 10 
DIAMONDS 5 
/hold 
player 4444:hold/ 
CLUBS 2 
DIAMONDS 2 
/hold 

---pre flop round bet---
valid player: 2, all in player: 0, fold player: 0
send inquire msg to player 4444 
inquire/ 
5555 57001 4000 50 blind 
total pot: 50 
/inquire 
recv from player 4444: check
send inquire msg to player 5555 
inquire/ 
4444 10823 8000 50 call 
5555 57001 4000 50 blind 
total pot: 100 
/inquire 
recv from player 5555: check
flop/ 
HEARTS 7 
HEARTS 2 
CLUBS K 
/flop 

---flop round bet---
valid player: 2, all in player: 0, fold player: 0
send inquire msg to player 5555 
inquire/ 
4444 10823 8000 50 call 
5555 57001 4000 50 check 
total pot: 100 
/inquire 
recv from player 5555: check
send inquire msg to player 4444 
inquire/ 
5555 57001 4000 50 check 
4444 10823 8000 50 call 
total pot: 100 
/inquire 
recv from player 4444: check
turn/ 
CLUBS 3 
/turn 

---turn round bet---
valid player: 2, all in player: 0, fold player: 0
send inquire msg to player 5555 
inquire/ 
4444 10823 8000 50 check 
5555 57001 4000 50 check 
total pot: 100 
/inquire 
recv from player 5555: raise 0
send inquire msg to player 4444 
inquire/ 
5555 56901 4000 150 raise 
4444 10823 8000 50 check 
total pot: 200 
/inquire 
recv from player 4444: check
river/ 
DIAMONDS 10 
/river 

---river round bet---
valid player: 2, all in player: 0, fold player: 0
send inquire msg to player 5555 
inquire/ 
4444 10723 8000 150 call 
5555 56901 4000 150 raise 
total pot: 300 
/inquire 
recv from player 5555: check
send inquire msg to player 4444 
inquire/ 
5555 56901 4000 150 check 
4444 10723 8000 150 call 
total pot: 300 
/inquire 
recv from player 4444: check

---show down---
showdown/ 
common/ 
HEARTS 7 
HEARTS 2 
CLUBS K 
CLUBS 3 
DIAMONDS 10 
/common 
2: 5555 CLUBS 10 DIAMONDS 5 ONE_PAIR 
1: 4444 CLUBS 2 DIAMONDS 2 THREE_OF_A_KIND 
/showdown 

---Allocate pot---
pot-win/ 
4444: 300 
/pot-win 
it is player 5555's turn to be button

-----150 Hand-----
seat/ 
button: 5555 56901 4000 
small blind: 4444 11023 8000 
/seat 
blind/ 
4444: 50 
/blind 
player 4444:hold/ 
SPADES Q 
SPADES 2 
/hold 
player 5555:hold/ 
SPADES K 
HEARTS A 
/hold 

---pre flop round bet---
valid player: 2, all in player: 0, fold player: 0
send inquire msg to player 5555 
inquire/ 
4444 10973 8000 50 blind 
total pot: 50 
/inquire 
recv from player 5555: raise 0
send inquire msg to player 4444 
inquire/ 
5555 56751 4000 150 raise 
4444 10973 8000 50 blind 
total pot: 200 
/inquire 
recv from player 4444: check
flop/ 
HEARTS 6 
CLUBS J 
SPADES 3 
/flop 

---flop round bet---
valid player: 2, all in player: 0, fold player: 0
send inquire msg to player 4444 
inquire/ 
5555 56751 4000 150 raise 
4444 10873 8000 150 call 
total pot: 300 
/inquire 
recv from player 4444: check
send inquire msg to player 5555 
inquire/ 
4444 10873 8000 150 check 
5555 56751 4000 150 raise 
total pot: 300 
/inquire 
recv from player 5555: raise 0
send inquire msg to player 4444 
inquire/ 
5555 56651 4000 250 raise 
4444 10873 8000 150 check 
total pot: 400 
/inquire 
recv from player 4444: check
turn/ 
CLUBS 6 
/turn 

---turn round bet---
valid player: 2, all in player: 0, fold player: 0
send inquire msg to player 4444 
inquire/ 
5555 56651 4000 250 raise 
4444 10773 8000 250 call 
total pot: 500 
/inquire 
recv from player 4444: check
send inquire msg to player 5555 
inquire/ 
4444 10773 8000 250 check 
5555 56651 4000 250 raise 
total pot: 500 
/inquire 
recv from player 5555: check
river/ 
HEARTS 2 
/river 

---river round bet---
valid player: 2, all in player: 0, fold player: 0
send inquire msg to player 4444 
inquire/ 
5555 56651 4000 250 check 
4444 10773 8000 250 check 
total pot: 500 
/inquire 
recv from player 4444: check
send inquire msg to player 5555 
inquire/ 
4444 10773 8000 250 check 
5555 56651 4000 250 check 
total pot: 500 
/inquire 
recv from player 5555: raise 0
send inquire msg to player 4444 
inquire/ 
5555 56551 4000 350 raise 
4444 10773 8000 250 check 
total pot: 600 
/inquire 
recv from player 4444: check

---show down---
showdown/ 
common/ 
HEARTS 6 
CLUBS J 
SPADES 3 
CLUBS 6 
HEARTS 2 
/common 
1: 4444 SPADES Q SPADES 2 TWO_PAIR 
2: 5555 SPADES K HEARTS A ONE_PAIR 
/showdown 

---Allocate pot---
pot-win/ 
4444: 700 
/pot-win 
it is player 4444's turn to be button

-----151 Hand-----
seat/ 
button: 4444 11373 8000 
small blind: 5555 56551 4000 
/seat 
blind/ 
5555: 50 
/blind 
player 5555:hold/ 
DIAMONDS 5 
CLUBS J 
/hold 
player 4444:hold/ 
HEARTS 5 
HEARTS 7 
/hold 

---pre flop round bet---
valid player: 2, all in player: 0, fold player: 0
send inquire msg to player 4444 
inquire/ 
5555 56501 4000 50 blind 
total pot: 50 
/inquire 
recv from player 4444: check
send inquire msg to player 5555 
inquire/ 
4444 11323 8000 50 call 
5555 56501 4000 50 blind 
total pot: 100 
/inquire 
recv from player 5555: check
flop/ 
CLUBS 5 
DIAMONDS 4 
HEARTS J 
/flop 

---flop round bet---
valid player: 2, all in player: 0, fold player: 0
send inquire msg to player 5555 
inquire/ 
4444 11323 8000 50 call 
5555 56501 4000 50 check 
total pot: 100 
/inquire 
recv from player 5555: check
send inquire msg to player 4444 
inquire/ 
5555 56501 4000 50 check 
4444 11323 8000 50 call 
total pot: 100 
/inquire 
recv from player 4444: check
turn/ 
HEARTS K 
/turn 

---turn round bet---
valid player: 2, all in player: 0, fold player: 0
send inquire msg to player 5555 
inquire/ 
4444 11323 8000 50 check 
5555 56501 4000 50 check 
total pot: 100 
/inquire 
recv from player 5555: raise 0
send inquire msg to player 4444 
inquire/ 
5555 56401 4000 150 raise 
4444 11323 8000 50 check 
total pot: 200 
/inquire 
recv from player 4444: check
river/ 
CLUBS A 
/river 

---river round bet---
valid player: 2, all in player: 0, fold player: 0
send inquire msg to player 5555 
inquire/ 
4444 11223 8000 150 call 
5555 56401 4000 150 raise 
total pot: 300 
/inquire 
recv from player 5555: raise 0
send inquire msg to player 4444 
inquire/ 
5555 56301 4000 250 raise 
4444 11223 8000 150 call 
total pot: 400 
/inquire 
recv from player 4444: check

---show down---
showdown/ 
common/ 
CLUBS 5 
DIAMONDS 4 
HEARTS J 
HEARTS K 
CLUBS A 
/common 
1: 5555 DIAMONDS 5 CLUBS J TWO_PAIR 
2: 4444 HEARTS 5 HEARTS 7 ONE_PAIR 
/showdown 

---Allocate pot---
pot-win/ 
5555: 500 
/pot-win 
it is player 5555's turn to be button

-----152 Hand-----
seat/ 
button: 5555 56801 4000 
small blind: 4444 11123 8000 
/seat 
blind/ 
4444: 50 
/blind 
player 4444:hold/ 
HEARTS 2 
HEARTS 3 
/hold 
player 5555:hold/ 
HEARTS K 
SPADES J 
/hold 

---pre flop round bet---
valid player: 2, all in player: 0, fold player: 0
send inquire msg to player 5555 
inquire/ 
4444 11073 8000 50 blind 
total pot: 50 
/inquire 
recv from player 5555: raise 0
send inquire msg to player 4444 
inquire/ 
5555 56651 4000 150 raise 
4444 11073 8000 50 blind 
total pot: 200 
/inquire 
recv from player 4444: check
flop/ 
CLUBS 5 
SPADES 9 
CLUBS J 
/flop 

---flop round bet---
valid player: 2, all in player: 0, fold player: 0
send inquire msg to player 4444 
inquire/ 
5555 56651 4000 150 raise 
4444 10973 8000 150 call 
total pot: 300 
/inquire 
recv from player 4444: check
send inquire msg to player 5555 
inquire/ 
4444 10973 8000 150 check 
5555 56651 4000 150 raise 
total pot: 300 
/inquire 
recv from player 5555: check
turn/ 
DIAMONDS 10 
/turn 

---turn round bet---
valid player: 2, all in player: 0, fold player: 0
send inquire msg to player 4444 
inquire/ 
5555 56651 4000 150 check 
4444 10973 8000 150 check 
total pot: 300 
/inquire 
recv from player 4444: check
send inquire msg to player 5555 
inquire/ 
4444 10973 8000 150 check 
5555 56651 4000 150 check 
total pot: 300 
/inquire 
recv from player 5555: check
river/ 
SPADES 3 
/river 

---river round bet---
valid player: 2, all in player: 0, fold player: 0
send inquire msg to player 4444 
inquire/ 
5555 56651 4000 150 check 
4444 10973 8000 150 check 
total pot: 300 
/inquire 
recv from player 4444: check
send inquire msg to player 5555 
inquire/ 
4444 10973 8000 150 check 
5555 56651 4000 150 check 
total pot: 300 
/inquire 
recv from player 5555: raise 0
send inquire msg to player 4444 
inquire/ 
5555 56551 4000 250 raise 
4444 10973 8000 150 check 
total pot: 400 
/inquire 
recv from player 4444: check

---show down---
showdown/ 
common/ 
CLUBS 5 
SPADES 9 
CLUBS J 
DIAMONDS 10 
SPADES 3 
/common 
2: 4444 HEARTS 2 HEARTS 3 ONE_PAIR 
1: 5555 HEARTS K SPADES J ONE_PAIR 
/showdown 

---Allocate pot---
pot-win/ 
5555: 500 
/pot-win 
it is player 4444's turn to be button

-----153 Hand-----
seat/ 
button: 4444 10873 8000 
small blind: 5555 57051 4000 
/seat 
blind/ 
5555: 50 
/blind 
player 5555:hold/ 
CLUBS Q 
DIAMONDS 7 
/hold 
player 4444:hold/ 
CLUBS J 
HEARTS 2 
/hold 

---pre flop round bet---
valid player: 2, all in player: 0, fold player: 0
send inquire msg to player 4444 
inquire/ 
5555 57001 4000 50 blind 
total pot: 50 
/inquire 
recv from player 4444: check
send inquire msg to player 5555 
inquire/ 
4444 10823 8000 50 call 
5555 57001 4000 50 blind 
total pot: 100 
/inquire 
recv from player 5555: check
flop/ 
HEARTS A 
HEARTS 7 
HEARTS 8 
/flop 

---flop round bet---
valid player: 2, all in player: 0, fold player: 0
send inquire msg to player 5555 
inquire/ 
4444 10823 8000 50 call 
5555 57001 4000 50 check 
total pot: 100 
/inquire 
recv from player 5555: raise 0
send inquire msg to player 4444 
inquire/ 
5555 56901 4000 150 raise 
4444 10823 8000 50 call 
total pot: 200 
/inquire 
recv from player 4444: check
turn/ 
HEARTS 9 
/turn 

---turn round bet---
valid player: 2, all in player: 0, fold player: 0
send inquire msg to player 5555 
inquire/ 
4444 10723 8000 150 call 
5555 56901 4000 150 raise 
total pot: 300 
/inquire 
recv from player 5555: check
send inquire msg to player 4444 
inquire/ 
5555 56901 4000 150 check 
4444 10723 8000 150 call 
total pot: 300 
/inquire 
recv from player 4444: check
river/ 
SPADES 3 
/river 

---river round bet---
valid player: 2, all in player: 0, fold player: 0
send inquire msg to player 5555 
inquire/ 
4444 10723 8000 150 check 
5555 56901 4000 150 check 
total pot: 300 
/inquire 
recv from player 5555: raise 0
send inquire msg to player 4444 
inquire/ 
5555 56801 4000 250 raise 
4444 10723 8000 150 check 
total pot: 400 
/inquire 
recv from player 4444: check

---show down---
showdown/ 
common/ 
HEARTS A 
HEARTS 7 
HEARTS 8 
HEARTS 9 
SPADES 3 
/common 
2: 5555 CLUBS Q DIAMONDS 7 ONE_PAIR 
1: 4444 CLUBS J HEARTS 2 FLUSH 
/showdown 

---Allocate pot---
pot-win/ 
4444: 500 
/pot-win 
it is player 5555's turn to be button

-----154 Hand-----
seat/ 
button: 5555 56801 4000 
small blind: 4444 11123 8000 
/seat 
blind/ 
4444: 50 
/blind 
player 4444:hold/ 
CLUBS J 
HEARTS Q 
/hold 
player 5555:hold/ 
DIAMONDS 6 
CLUBS 4 
/hold 

---pre flop round bet---
valid player: 2, all in player: 0, fold player: 0
send inquire msg to player 5555 
inquire/ 
4444 11073 8000 50 blind 
total pot: 50 
/inquire 
recv from player 5555: raise 0
send inquire msg to player 4444 
inquire/ 
5555 56651 4000 150 raise 
4444 11073 8000 50 blind 
total pot: 200 
/inquire 
recv from player 4444: check
flop/ 
DIAMONDS 4 
DIAMONDS J 
DIAMONDS 5 
/flop 

---flop round bet---
valid player: 2, all in player: 0, fold player: 0
send inquire msg to player 4444 
inquire/ 
5555 56651 4000 150 raise 
4444 10973 8000 150 call 
total pot: 300 
/inquire 
recv from player 4444: check
send inquire msg to player 5555 
inquire/ 
4444 10973 8000 150 check 
5555 56651 4000 150 raise 
total pot: 300 
/inquire 
recv from player 5555: raise 0
send inquire msg to player 4444 
inquire/ 
5555 56551 4000 250 raise 
4444 10973 8000 150 check 
total pot: 400 
/inquire 
recv from player 4444: check
turn/ 
CLUBS 10 
/turn 

---turn round bet---
valid player: 2, all in player: 0, fold player: 0
send inquire msg to player 4444 
inquire/ 
5555 56551 4000 250 raise 
4444 10873 8000 250 call 
total pot: 500 
/inquire 
recv from player 4444: check
send inquire msg to player 5555 
inquire/ 
4444 10873 8000 250 check 
5555 56551 4000 250 raise 
total pot: 500 
/inquire 
recv from player 5555: check
river/ 
CLUBS 7 
/river 

---river round bet---
valid player: 2, all in player: 0, fold player: 0
send inquire msg to player 4444 
inquire/ 
5555 56551 4000 250 check 
4444 10873 8000 250 check 
total pot: 500 
/inquire 
recv from player 4444: check
s