

---GAME START @ 2015-5-13-23-46-42---
reg: 3333 callbot 
reg: 1111 randombot 
reg: 7777 cleverbot 
reg: 5555 raisecallbot 
reg: 8888 callbot 
reg: 2222 randombot 
reg: 4444 simplebot 
reg: 6666 simplebot 

-----1 Hand-----

----- clean player data in socket -----
seat/ 
button: 6666 2000 8000 
small blind: 3333 2000 8000 
big blind: 8888 2000 8000 
7777 2000 8000 
4444 2000 8000 
2222 2000 8000 
1111 2000 8000 
5555 2000 8000 
/seat 
blind/ 
3333: 50 
8888: 100 
/blind 
player 3333:hold/ 
SPADES 9 
CLUBS 7 
/hold 
player 8888:hold/ 
HEARTS J 
DIAMONDS 10 
/hold 
player 7777:hold/ 
HEARTS 4 
DIAMONDS 3 
/hold 
player 4444:hold/ 
CLUBS 5 
SPADES 2 
/hold 
player 2222:hold/ 
HEARTS 7 
SPADES 8 
/hold 
player 1111:hold/ 
HEARTS 8 
CLUBS 6 
/hold 
player 5555:hold/ 
HEARTS 2 
CLUBS Q 
/hold 
player 6666:hold/ 
CLUBS 9 
HEARTS 9 
/hold 

---pre flop round bet---
valid player: 8, all in player: 0, fold player: 0
send inquire msg to player 7777 
inquire/ 
8888 1900 8000 100 blind 
3333 1950 8000 50 blind 
total pot: 150 
/inquire 
recv from player 7777: check
send inquire msg to player 4444 
inquire/ 
7777 1900 8000 100 call 
8888 1900 8000 100 blind 
3333 1950 8000 50 blind 
total pot: 250 
/inquire 
recv from player 4444: check
send inquire msg to player 2222 
inquire/ 
4444 1900 8000 100 call 
7777 1900 8000 100 call 
8888 1900 8000 100 blind 
3333 1950 8000 50 blind 
total pot: 350 
/inquire 
recv from player 2222: fold
send inquire msg to player 1111 
inquire/ 
2222 2000 8000 0 fold 
4444 1900 8000 100 call 
7777 1900 8000 100 call 
8888 1900 8000 100 blind 
3333 1950 8000 50 blind 
total pot: 350 
/inquire 
recv from player 1111: fold
send inquire msg to player 5555 
inquire/ 
1111 2000 8000 0 fold 
2222 2000 8000 0 fold 
4444 1900 8000 100 call 
7777 1900 8000 100 call 
8888 1900 8000 100 blind 
3333 1950 8000 50 blind 
total pot: 350 
/inquire 
recv from player 5555: check
send inquire msg to player 6666 
inquire/ 
5555 1900 8000 100 call 
1111 2000 8000 0 fold 
2222 2000 8000 0 fold 
4444 1900 8000 100 call 
7777 1900 8000 100 call 
8888 1900 8000 100 blind 
3333 1950 8000 50 blind 
total pot: 450 
/inquire 
recv from player 6666: raise 261
send inquire msg to player 3333 
inquire/ 
6666 1639 8000 361 raise 
5555 1900 8000 100 call 
1111 2000 8000 0 fold 
2222 2000 8000 0 fold 
4444 1900 8000 100 call 
7777 1900 8000 100 call 
8888 1900 8000 100 blind 
3333 1950 8000 50 blind 
total pot: 811 
/inquire 
recv from player 3333: check
send inquire msg to player 8888 
inquire/ 
3333 1639 8000 361 call 
6666 1639 8000 361 raise 
5555 1900 8000 100 call 
1111 2000 8000 0 fold 
2222 2000 8000 0 fold 
4444 1900 8000 100 call 
7777 1900 8000 100 call 
8888 1900 8000 100 blind 
total pot: 1122 
/inquire 
recv from player 8888: check
send inquire msg to player 7777 
inquire/ 
8888 1639 8000 361 call 
3333 1639 8000 361 call 
6666 1639 8000 361 raise 
5555 1900 8000 100 call 
1111 2000 8000 0 fold 
2222 2000 8000 0 fold 
4444 1900 8000 100 call 
7777 1900 8000 100 call 
total pot: 1383 
/inquire 
recv from player 7777: fold
send inquire msg to player 4444 
inquire/ 
7777 1900 8000 100 fold 
8888 1639 8000 361 call 
3333 1639 8000 361 call 
6666 1639 8000 361 raise 
5555 1900 8000 100 call 
1111 2000 8000 0 fold 
2222 2000 8000 0 fold 
4444 1900 8000 100 call 
total pot: 1383 
/inquire 
recv from player 4444: fold
send inquire msg to player 2222 
inquire/ 
4444 1900 8000 100 fold 
7777 1900 8000 100 fold 
8888 1639 8000 361 call 
3333 1639 8000 361 call 
6666 1639 8000 361 raise 
5555 1900 8000 100 call 
1111 2000 8000 0 fold 
2222 2000 8000 0 fold 
total pot: 1383 
/inquire 
send inquire msg to player 1111 
inquire/ 
2222 2000 8000 0 fold 
4444 1900 8000 100 fold 
7777 1900 8000 100 fold 
8888 1639 8000 361 call 
3333 1639 8000 361 call 
6666 1639 8000 361 raise 
5555 1900 8000 100 call 
1111 2000 8000 0 fold 
total pot: 1383 
/inquire 
send inquire msg to player 5555 
inquire/ 
1111 2000 8000 0 fold 
2222 2000 8000 0 fold 
4444 1900 8000 100 fold 
7777 1900 8000 100 fold 
8888 1639 8000 361 call 
3333 1639 8000 361 call 
6666 1639 8000 361 raise 
5555 1900 8000 100 call 
total pot: 1383 
/inquire 
recv from player 5555: raise 0
send inquire msg to player 6666 
inquire/ 
5555 1378 8000 622 raise 
1111 2000 8000 0 fold 
2222 2000 8000 0 fold 
4444 1900 8000 100 fold 
7777 1900 8000 100 fold 
8888 1639 8000 361 call 
3333 1639 8000 361 call 
6666 1639 8000 361 raise 
total pot: 1905 
/inquire 
recv from player 6666: check
send inquire msg to player 3333 
inquire/ 
6666 1378 8000 622 call 
5555 1378 8000 622 raise 
1111 2000 8000 0 fold 
2222 2000 8000 0 fold 
4444 1900 8000 100 fold 
7777 1900 8000 100 fold 
8888 1639 8000 361 call 
3333 1639 8000 361 call 
total pot: 2166 
/inquire 
recv from player 3333: check
send inquire msg to player 8888 
inquire/ 
3333 1378 8000 622 call 
6666 1378 8000 622 call 
5555 1378 8000 622 raise 
1111 2000 8000 0 fold 
2222 2000 8000 0 fold 
4444 1900 8000 100 fold 
7777 1900 8000 100 fold 
8888 1639 8000 361 call 
total pot: 2427 
/inquire 
recv from player 8888: check
flop/ 
DIAMONDS 7 
DIAMONDS 2 
DIAMONDS 6 
/flop 

---flop round bet---
valid player: 8, all in player: 0, fold player: 4
send inquire msg to player 3333 
inquire/ 
6666 1378 8000 622 call 
5555 1378 8000 622 raise 
1111 2000 8000 0 fold 
2222 2000 8000 0 fold 
4444 1900 8000 100 fold 
7777 1900 8000 100 fold 
8888 1378 8000 622 call 
3333 1378 8000 622 call 
total pot: 2688 
/inquire 
recv from player 3333: check
send inquire msg to player 8888 
inquire/ 
3333 1378 8000 622 check 
6666 1378 8000 622 call 
5555 1378 8000 622 raise 
1111 2000 8000 0 fold 
2222 2000 8000 0 fold 
4444 1900 8000 100 fold 
7777 1900 8000 100 fold 
8888 1378 8000 622 call 
total pot: 2688 
/inquire 
recv from player 8888: check
send inquire msg to player 7777 
inquire/ 
8888 1378 8000 622 check 
3333 1378 8000 622 check 
6666 1378 8000 622 call 
5555 1378 8000 622 raise 
1111 2000 8000 0 fold 
2222 2000 8000 0 fold 
4444 1900 8000 100 fold 
7777 1900 8000 100 fold 
total pot: 2688 
/inquire 
send inquire msg to player 4444 
inquire/ 
7777 1900 8000 100 fold 
8888 1378 8000 622 check 
3333 1378 8000 622 check 
6666 1378 8000 622 call 
5555 1378 8000 622 raise 
1111 2000 8000 0 fold 
2222 2000 8000 0 fold 
4444 1900 8000 100 fold 
total pot: 2688 
/inquire 
send inquire msg to player 2222 
inquire/ 
4444 1900 8000 100 fold 
7777 1900 8000 100 fold 
8888 1378 8000 622 check 
3333 1378 8000 622 check 
6666 1378 8000 622 call 
5555 1378 8000 622 raise 
1111 2000 8000 0 fold 
2222 2000 8000 0 fold 
total pot: 2688 
/inquire 
send inquire msg to player 1111 
inquire/ 
2222 2000 8000 0 fold 
4444 1900 8000 100 fold 
7777 1900 8000 100 fold 
8888 1378 8000 622 check 
3333 1378 8000 622 check 
6666 1378 8000 622 call 
5555 1378 8000 622 raise 
1111 2000 8000 0 fold 
total pot: 2688 
/inquire 
send inquire msg to player 5555 
inquire/ 
1111 2000 8000 0 fold 
2222 2000 8000 0 fold 
4444 1900 8000 100 fold 
7777 1900 8000 100 fold 
8888 1378 8000 622 check 
3333 1378 8000 622 check 
6666 1378 8000 622 call 
5555 1378 8000 622 raise 
total pot: 2688 
/inquire 
recv from player 5555: raise 0
send inquire msg to player 6666 
inquire/ 
5555 1278 8000 722 raise 
1111 2000 8000 0 fold 
2222 2000 8000 0 fold 
4444 1900 8000 100 fold 
7777 1900 8000 100 fold 
8888 1378 8000 622 check 
3333 1378 8000 622 check 
6666 1378 8000 622 call 
total pot: 2788 
/inquire 
recv from player 6666: check
send inquire msg to player 3333 
inquire/ 
6666 1278 8000 722 call 
5555 1278 8000 722 raise 
1111 2000 8000 0 fold 
2222 2000 8000 0 fold 
4444 1900 8000 100 fold 
7777 1900 8000 100 fold 
8888 1378 8000 622 check 
3333 1378 8000 622 check 
total pot: 2888 
/inquire 
recv from player 3333: check
send inquire msg to player 8888 
inquire/ 
3333 1278 8000 722 call 
6666 1278 8000 722 call 
5555 1278 8000 722 raise 
1111 2000 8000 0 fold 
2222 2000 8000 0 fold 
4444 1900 8000 100 fold 
7777 1900 8000 100 fold 
8888 1378 8000 622 check 
total pot: 2988 
/inquire 
recv from player 8888: check
turn/ 
SPADES 5 
/turn 

---turn round bet---
valid player: 8, all in player: 0, fold player: 4
send inquire msg to player 3333 
inquire/ 
6666 1278 8000 722 call 
5555 1278 8000 722 raise 
1111 2000 8000 0 fold 
2222 2000 8000 0 fold 
4444 1900 8000 100 fold 
7777 1900 8000 100 fold 
8888 1278 8000 722 call 
3333 1278 8000 722 call 
total pot: 3088 
/inquire 
recv from player 3333: check
send inquire msg to player 8888 
inquire/ 
3333 1278 8000 722 check 
6666 1278 8000 722 call 
5555 1278 8000 722 raise 
1111 2000 8000 0 fold 
2222 2000 8000 0 fold 
4444 1900 8000 100 fold 
7777 1900 8000 100 fold 
8888 1278 8000 722 call 
total pot: 3088 
/inquire 
recv from player 8888: check
send inquire msg to player 7777 
inquire/ 
8888 1278 8000 722 check 
3333 1278 8000 722 check 
6666 1278 8000 722 call 
5555 1278 8000 722 raise 
1111 2000 8000 0 fold 
2222 2000 8000 0 fold 
4444 1900 8000 100 fold 
7777 1900 8000 100 fold 
total pot: 3088 
/inquire 
send inquire msg to player 4444 
inquire/ 
7777 1900 8000 100 fold 
8888 1278 8000 722 check 
3333 1278 8000 722 check 
6666 1278 8000 722 call 
5555 1278 8000 722 raise 
1111 2000 8000 0 fold 
2222 2000 8000 0 fold 
4444 1900 8000 100 fold 
total pot: 3088 
/inquire 
send inquire msg to player 2222 
inquire/ 
4444 1900 8000 100 fold 
7777 1900 8000 100 fold 
8888 1278 8000 722 check 
3333 1278 8000 722 check 
6666 1278 8000 722 call 
5555 1278 8000 722 raise 
1111 2000 8000 0 fold 
2222 2000 8000 0 fold 
total pot: 3088 
/inquire 
send inquire msg to player 1111 
inquire/ 
2222 2000 8000 0 fold 
4444 1900 8000 100 fold 
7777 1900 8000 100 fold 
8888 1278 8000 722 check 
3333 1278 8000 722 check 
6666 1278 8000 722 call 
5555 1278 8000 722 raise 
1111 2000 8000 0 fold 
total pot: 3088 
/inquire 
send inquire msg to player 5555 
inquire/ 
1111 2000 8000 0 fold 
2222 2000 8000 0 fold 
4444 1900 8000 100 fold 
7777 1900 8000 100 fold 
8888 1278 8000 722 check 
3333 1278 8000 722 check 
6666 1278 8000 722 call 
5555 1278 8000 722 raise 
total pot: 3088 
/inquire 
recv from player 5555: check
send inquire msg to player 6666 
inquire/ 
5555 1278 8000 722 check 
1111 2000 8000 0 fold 
2222 2000 8000 0 fold 
4444 1900 8000 100 fold 
7777 1900 8000 100 fold 
8888 1278 8000 722 check 
3333 1278 8000 722 check 
6666 1278 8000 722 call 
total pot: 3088 
/inquire 
recv from player 6666: check
river/ 
SPADES J 
/river 

---river round bet---
valid player: 8, all in player: 0, fold player: 4
send inquire msg to player 3333 
inquire/ 
6666 1278 8000 722 check 
5555 1278 8000 722 check 
1111 2000 8000 0 fold 
2222 2000 8000 0 fold 
4444 1900 8000 100 fold 
7777 1900 8000 100 fold 
8888 1278 8000 722 check 
3333 1278 8000 722 check 
total pot: 3088 
/inquire 
recv from player 3333: check
send inquire msg to player 8888 
inquire/ 
3333 1278 8000 722 check 
6666 1278 8000 722 check 
5555 1278 8000 722 check 
1111 2000 8000 0 fold 
2222 2000 8000 0 fold 
4444 1900 8000 100 fold 
7777 1900 8000 100 fold 
8888 1278 8000 722 check 
total pot: 3088 
/inquire 
recv from player 8888: check
send inquire msg to player 7777 
inquire/ 
8888 1278 8000 722 check 
3333 1278 8000 722 check 
6666 1278 8000 722 check 
5555 1278 8000 722 check 
1111 2000 8000 0 fold 
2222 2000 8000 0 fold 
4444 1900 8000 100 fold 
7777 1900 8000 100 fold 
total pot: 3088 
/inquire 
send inquire msg to player 4444 
inquire/ 
7777 1900 8000 100 fold 
8888 1278 8000 722 check 
3333 1278 8000 722 check 
6666 1278 8000 722 check 
5555 1278 8000 722 check 
1111 2000 8000 0 fold 
2222 2000 8000 0 fold 
4444 1900 8000 100 fold 
total pot: 3088 
/inquire 
send inquire msg to player 2222 
inquire/ 
4444 1900 8000 100 fold 
7777 1900 8000 100 fold 
8888 1278 8000 722 check 
3333 1278 8000 722 check 
6666 1278 8000 722 check 
5555 1278 8000 722 check 
1111 2000 8000 0 fold 
2222 2000 8000 0 fold 
total pot: 3088 
/inquire 
send inquire msg to player 1111 
inquire/ 
2222 2000 8000 0 fold 
4444 1900 8000 100 fold 
7777 1900 8000 100 fold 
8888 1278 8000 722 check 
3333 1278 8000 722 check 
6666 1278 8000 722 check 
5555 1278 8000 722 check 
1111 2000 8000 0 fold 
total pot: 3088 
/inquire 
send inquire msg to player 5555 
inquire/ 
1111 2000 8000 0 fold 
2222 2000 8000 0 fold 
4444 1900 8000 100 fold 
7777 1900 8000 100 fold 
8888 1278 8000 722 check 
3333 1278 8000 722 check 
6666 1278 8000 722 check 
5555 1278 8000 722 check 
total pot: 3088 
/inquire 
recv from player 5555: raise 0
send inquire msg to player 6666 
inquire/ 
5555 1178 8000 822 raise 
1111 2000 8000 0 fold 
2222 2000 8000 0 fold 
4444 1900 8000 100 fold 
7777 1900 8000 100 fold 
8888 1278 8000 722 check 
3333 1278 8000 722 check 
6666 1278 8000 722 check 
total pot: 3188 
/inquire 
recv from player 6666: check
send inquire msg to player 3333 
inquire/ 
6666 1178 8000 822 call 
5555 1178 8000 822 raise 
1111 2000 8000 0 fold 
2222 2000 8000 0 fold 
4444 1900 8000 100 fold 
7777 1900 8000 100 fold 
8888 1278 8000 722 check 
3333 1278 8000 722 check 
total pot: 3288 
/inquire 
recv from player 3333: check
send inquire msg to player 8888 
inquire/ 
3333 1178 8000 822 call 
6666 1178 8000 822 call 
5555 1178 8000 822 raise 
1111 2000 8000 0 fold 
2222 2000 8000 0 fold 
4444 1900 8000 100 fold 
7777 1900 8000 100 fold 
8888 1278 8000 722 check 
total pot: 3388 
/inquire 
recv from player 8888: check

---show down---
showdown/ 
common/ 
DIAMONDS 7 
DIAMONDS 2 
DIAMONDS 6 
SPADES 5 
SPADES J 
/common 
3: 3333 SPADES 9 CLUBS 7 ONE_PAIR 
1: 8888 HEARTS J DIAMONDS 10 ONE_PAIR 
4: 5555 HEARTS 2 CLUBS Q ONE_PAIR 
2: 6666 CLUBS 9 HEARTS 9 ONE_PAIR 
/showdown 

---Allocate pot---
pot-win/ 
8888: 3488 
/pot-win 
it is player 3333's turn to be button

-----2 Hand-----

----- clean player data in socket -----
seat/ 
button: 3333 1178 8000 
small blind: 8888 4666 8000 
big blind: 7777 1900 8000 
4444 1900 8000 
2222 2000 8000 
1111 2000 8000 
5555 1178 8000 
6666 1178 8000 
/seat 
blind/ 
8888: 50 
7777: 100 
/blind 
player 8888:hold/ 
HEARTS J 
SPADES 5 
/hold 
player 7777:hold/ 
CLUBS A 
SPADES 6 
/hold 
player 4444:hold/ 
SPADES 8 
HEARTS 4 
/hold 
player 2222:hold/ 
HEARTS 8 
SPADES J 
/hold 
player 1111:hold/ 
DIAMONDS 7 
HEARTS 6 
/hold 
player 5555:hold/ 
HEARTS 9 
DIAMONDS 2 
/hold 
player 6666:hold/ 
SPADES 4 
HEARTS 2 
/hold 
player 3333:hold/ 
CLUBS K 
DIAMONDS 3 
/hold 

---pre flop round bet---
valid player: 8, all in player: 0, fold player: 0
send inquire msg to player 4444 
inquire/ 
7777 1800 8000 100 blind 
8888 4616 8000 50 blind 
total pot: 150 
/inquire 
recv from player 4444: check
send inquire msg to player 2222 
inquire/ 
4444 1800 8000 100 call 
7777 1800 8000 100 blind 
8888 4616 8000 50 blind 
total pot: 250 
/inquire 
recv from player 2222: fold
send inquire msg to player 1111 
inquire/ 
2222 2000 8000 0 fold 
4444 1800 8000 100 call 
7777 1800 8000 100 blind 
8888 4616 8000 50 blind 
total pot: 250 
/inquire 
recv from player 1111: check
send inquire msg to player 5555 
inquire/ 
1111 1900 8000 100 call 
2222 2000 8000 0 fold 
4444 1800 8000 100 call 
7777 1800 8000 100 blind 
8888 4616 8000 50 blind 
total pot: 350 
/inquire 
recv from player 5555: check
send inquire msg to player 6666 
inquire/ 
5555 1078 8000 100 call 
1111 1900 8000 100 call 
2222 2000 8000 0 fold 
4444 1800 8000 100 call 
7777 1800 8000 100 blind 
8888 4616 8000 50 blind 
total pot: 450 
/inquire 
recv from player 6666: fold
send inquire msg to player 3333 
inquire/ 
6666 1178 8000 0 fold 
5555 1078 8000 100 call 
1111 1900 8000 100 call 
2222 2000 8000 0 fold 
4444 1800 8000 100 call 
7777 1800 8000 100 blind 
8888 4616 8000 50 blind 
total pot: 450 
/inquire 
recv from player 3333: check
send inquire msg to player 8888 
inquire/ 
3333 1078 8000 100 call 
6666 1178 8000 0 fold 
5555 1078 8000 100 call 
1111 1900 8000 100 call 
2222 2000 8000 0 fold 
4444 1800 8000 100 call 
7777 1800 8000 100 blind 
8888 4616 8000 50 blind 
total pot: 550 
/inquire 
recv from player 8888: check
send inquire msg to player 7777 
inquire/ 
8888 4566 8000 100 call 
3333 1078 8000 100 call 
6666 1178 8000 0 fold 
5555 1078 8000 100 call 
1111 1900 8000 100 call 
2222 2000 8000 0 fold 
4444 1800 8000 100 call 
7777 1800 8000 100 blind 
total pot: 600 
/inquire 
recv from player 7777: check
flop/ 
DIAMONDS J 
CLUBS Q 
CLUBS 4 
/flop 

---flop round bet---
valid player: 8, all in player: 0, fold player: 2
send inquire msg to player 8888 
inquire/ 
3333 1078 8000 100 call 
6666 1178 8000 0 fold 
5555 1078 8000 100 call 
1111 1900 8000 100 call 
2222 2000 8000 0 fold 
4444 1800 8000 100 call 
7777 1800 8000 100 check 
8888 4566 8000 100 call 
total pot: 600 
/inquire 
recv from player 8888: check
send inquire msg to player 7777 
inquire/ 
8888 4566 8000 100 check 
3333 1078 8000 100 call 
6666 1178 8000 0 fold 
5555 1078 8000 100 call 
1111 1900 8000 100 call 
2222 2000 8000 0 fold 
4444 1800 8000 100 call 
7777 1800 8000 100 check 
total pot: 600 
/inquire 
recv from player 7777: check
send inquire msg to player 4444 
inquire/ 
7777 1800 8000 100 check 
8888 4566 8000 100 check 
3333 1078 8000 100 call 
6666 1178 8000 0 fold 
5555 1078 8000 100 call 
1111 1900 8000 100 call 
2222 2000 8000 0 fold 
4444 1800 8000 100 call 
total pot: 600 
/inquire 
recv from player 4444: check
send inquire msg to player 2222 
inquire/ 
4444 1800 8000 100 check 
7777 1800 8000 100 check 
8888 4566 8000 100 check 
3333 1078 8000 100 call 
6666 1178 8000 0 fold 
5555 1078 8000 100 call 
1111 1900 8000 100 call 
2222 2000 8000 0 fold 
total pot: 600 
/inquire 
send inquire msg to player 1111 
inquire/ 
2222 2000 8000 0 fold 
4444 1800 8000 100 check 
7777 1800 8000 100 check 
8888 4566 8000 100 check 
3333 1078 8000 100 call 
6666 1178 8000 0 fold 
5555 1078 8000 100 call 
1111 1900 8000 100 call 
total pot: 600 
/inquire 
recv from player 1111: check
send inquire msg to player 5555 
inquire/ 
1111 1900 8000 100 check 
2222 2000 8000 0 fold 
4444 1800 8000 100 check 
7777 1800 8000 100 check 
8888 4566 8000 100 check 
3333 1078 8000 100 call 
6666 1178 8000 0 fold 
5555 1078 8000 100 call 
total pot: 600 
/inquire 
recv from player 5555: check
send inquire msg to player 6666 
inquire/ 
5555 1078 8000 100 check 
1111 1900 8000 100 check 
2222 2000 8000 0 fold 
4444 1800 8000 100 check 
7777 1800 8000 100 check 
8888 4566 8000 100 check 
3333 1078 8000 100 call 
6666 1178 8000 0 fold 
total pot: 600 
/inquire 
send inquire msg to player 3333 
inquire/ 
6666 1178 8000 0 fold 
5555 1078 8000 100 check 
1111 1900 8000 100 check 
2222 2000 8000 0 fold 
4444 1800 8000 100 check 
7777 1800 8000 100 check 
8888 4566 8000 100 check 
3333 1078 8000 100 call 
total pot: 600 
/inquire 
recv from player 3333: check
turn/ 
DIAMONDS K 
/turn 

---turn round bet---
valid player: 8, all in player: 0, fold player: 2
send inquire msg to player 8888 
inquire/ 
3333 1078 8000 100 check 
6666 1178 8000 0 fold 
5555 1078 8000 100 check 
1111 1900 8000 100 check 
2222 2000 8000 0 fold 
4444 1800 8000 100 check 
7777 1800 8000 100 check 
8888 4566 8000 100 check 
total pot: 600 
/inquire 
recv from player 8888: check
send inquire msg to player 7777 
inquire/ 
8888 4566 8000 100 check 
3333 1078 8000 100 check 
6666 1178 8000 0 fold 
5555 1078 8000 100 check 
1111 1900 8000 100 check 
2222 2000 8000 0 fold 
4444 1800 8000 100 check 
7777 1800 8000 100 check 
total pot: 600 
/inquire 
recv from player 7777: check
send inquire msg to player 4444 
inquire/ 
7777 1800 8000 100 check 
8888 4566 8000 100 check 
3333 1078 8000 100 check 
6666 1178 8000 0 fold 
5555 1078 8000 100 check 
1111 1900 8000 100 check 
2222 2000 8000 0 fold 
4444 1800 8000 100 check 
total pot: 600 
/inquire 
recv from player 4444: check
send inquire msg to player 2222 
inquire/ 
4444 1800 8000 100 check 
7777 1800 8000 100 check 
8888 4566 8000 100 check 
3333 1078 8000 100 check 
6666 1178 8000 0 fold 
5555 1078 8000 100 check 
1111 1900 8000 100 check 
2222 2000 8000 0 fold 
total pot: 600 
/inquire 
send inquire msg to player 1111 
inquire/ 
2222 2000 8000 0 fold 
4444 1800 8000 100 check 
7777 1800 8000 100 check 
8888 4566 8000 100 check 
3333 1078 8000 100 check 
6666 1178 8000 0 fold 
5555 1078 8000 100 check 
1111 1900 8000 100 check 
total pot: 600 
/inquire 
recv from player 1111: fold
send inquire msg to player 5555 
inquire/ 
1111 1900 8000 100 fold 
2222 2000 8000 0 fold 
4444 1800 8000 100 check 
7777 1800 8000 100 check 
8888 4566 8000 100 check 
3333 1078 8000 100 check 
6666 1178 8000 0 fold 
5555 1078 8000 100 check 
total pot: 600 
/inquire 
recv from player 5555: raise 0
send inquire msg to player 6666 
inquire/ 
5555 978 8000 200 raise 
1111 1900 8000 100 fold 
2222 2000 8000 0 fold 
4444 1800 8000 100 check 
7777 1800 8000 100 check 
8888 4566 8000 100 check 
3333 1078 8000 100 check 
6666 1178 8000 0 fold 
total pot: 700 
/inquire 
send inquire msg to player 3333 
inquire/ 
6666 1178 8000 0 fold 
5555 978 8000 200 raise 
1111 1900 8000 100 fold 
2222 2000 8000 0 fold 
4444 1800 8000 100 check 
7777 1800 8000 100 check 
8888 4566 8000 100 check 
3333 1078 8000 100 check 
total pot: 700 
/inquire 
recv from player 3333: check
send inquire msg to player 8888 
inquire/ 
3333 978 8000 200 call 
6666 1178 8000 0 fold 
5555 978 8000 200 raise 
1111 1900 8000 100 fold 
2222 2000 8000 0 fold 
4444 1800 8000 100 check 
7777 1800 8000 100 check 
8888 4566 8000 100 check 
total pot: 800 
/inquire 
recv from player 8888: check
send inquire msg to player 7777 
inquire/ 
8888 4466 8000 200 call 
3333 978 8000 200 call 
6666 1178 8000 0 fold 
5555 978 8000 200 raise 
1111 1900 8000 100 fold 
2222 2000 8000 0 fold 
4444 1800 8000 100 check 
7777 1800 8000 100 check 
total pot: 900 
/inquire 
recv from player 7777: fold
send inquire msg to player 4444 
inquire/ 
7777 1800 8000 100 fold 
8888 4466 8000 200 call 
3333 978 8000 200 call 
6666 1178 8000 0 fold 
5555 978 8000 200 raise 
1111 1900 8000 100 fold 
2222 2000 8000 0 fold 
4444 1800 8000 100 check 
total pot: 900 
/inquire 
recv from player 4444: fold
river/ 
CLUBS J 
/river 

---river round bet---
valid player: 8, all in player: 0, fold player: 5
send inquire msg to player 8888 
inquire/ 
3333 978 8000 200 call 
6666 1178 8000 0 fold 
5555 978 8000 200 raise 
1111 1900 8000 100 fold 
2222 2000 8000 0 fold 
4444 1800 8000 100 fold 
7777 1800 8000 100 fold 
8888 4466 8000 200 call 
total pot: 900 
/inquire 
recv from player 8888: check
send inquire msg to player 7777 
inquire/ 
8888 4466 8000 200 check 
3333 978 8000 200 call 
6666 1178 8000 0 fold 
5555 978 8000 200 raise 
1111 1900 8000 100 fold 
2222 2000 8000 0 fold 
4444 1800 8000 100 fold 
7777 1800 8000 100 fold 
total pot: 900 
/inquire 
send inquire msg to player 4444 
inquire/ 
7777 1800 8000 100 fold 
8888 4466 8000 200 check 
3333 978 8000 200 call 
6666 1178 8000 0 fold 
5555 978 8000 200 raise 
1111 1900 8000 100 fold 
2222 2000 8000 0 fold 
4444 1800 8000 100 fold 
total pot: 900 
/inquire 
send inquire msg to player 2222 
inquire/ 
4444 1800 8000 100 fold 
7777 1800 8000 100 fold 
8888 4466 8000 200 check 
3333 978 8000 200 call 
6666 1178 8000 0 fold 
5555 978 8000 200 raise 
1111 1900 8000 100 fold 
2222 2000 8000 0 fold 
total pot: 900 
/inquire 
send inquire msg to player 1111 
inquire/ 
2222 2000 8000 0 fold 
4444 1800 8000 100 fold 
7777 1800 8000 100 fold 
8888 4466 8000 200 check 
3333 978 8000 200 call 
6666 1178 8000 0 fold 
5555 978 8000 200 raise 
1111 1900 8000 100 fold 
total pot: 900 
/inquire 
send inquire msg to player 5555 
inquire/ 
1111 1900 8000 100 fold 
2222 2000 8000 0 fold 
4444 1800 8000 100 fold 
7777 1800 8000 100 fold 
8888 4466 8000 200 check 
3333 978 8000 200 call 
6666 1178 8000 0 fold 
5555 978 8000 200 raise 
total pot: 900 
/inquire 
recv from player 5555: check
send inquire msg to player 6666 
inquire/ 
5555 978 8000 200 check 
1111 1900 8000 100 fold 
2222 2000 8000 0 fold 
4444 1800 8000 100 fold 
7777 1800 8000 100 fold 
8888 4466 8000 200 check 
3333 978 8000 200 call 
6666 1178 8000 0 fold 
total pot: 900 
/inquire 
send inquire msg to player 3333 
inquire/ 
6666 1178 8000 0 fold 
5555 978 8000 200 check 
1111 1900 8000 100 fold 
2222 2000 8000 0 fold 
4444 1800 8000 100 fold 
7777 1800 8000 100 fold 
8888 4466 8000 200 check 
3333 978 8000 200 call 
total pot: 900 
/inquire 
recv from player 3333: check

---show down---
showdown/ 
common/ 
DIAMONDS J 
CLUBS Q 
CLUBS 4 
DIAMONDS K 
CLUBS J 
/common 
1: 8888 HEARTS J SPADES 5 THREE_OF_A_KIND 
3: 5555 HEARTS 9 DIAMONDS 2 ONE_PAIR 
2: 3333 CLUBS K DIAMONDS 3 TWO_PAIR 
/showdown 

---Allocate pot---
pot-win/ 
8888: 900 
/pot-win 
it is player 8888's turn to be button

-----3 Hand-----

----- clean player data in socket -----
seat/ 
button: 8888 5366 8000 
small blind: 7777 1800 8000 
big blind: 4444 1800 8000 
2222 2000 8000 
1111 1900 8000 
5555 978 8000 
6666 1178 8000 
3333 978 8000 
/seat 
blind/ 
7777: 50 
4444: 100 
/blind 
player 7777:hold/ 
CLUBS 4 
DIAMONDS 3 
/hold 
player 4444:hold/ 
CLUBS 9 
HEARTS J 
/hold 
player 2222:hold/ 
DIAMONDS J 
CLUBS 10 
/hold 
player 1111:hold/ 
HEARTS A 
DIAMONDS 5 
/hold 
player 5555:hold/ 
HEARTS 2 
HEARTS 6 
/hold 
player 6666:hold/ 
SPADES 6 
SPADES A 
/hold 
player 3333:hold/ 
CLUBS J 
DIAMONDS 8 
/hold 
player 8888:hold/ 
SPADES Q 
DIAMONDS K 
/hold 

---pre flop round bet---
valid player: 8, all in player: 0, fold player: 0
send inquire msg to player 2222 
inquire/ 
4444 1700 8000 100 blind 
7777 1750 8000 50 blind 
total pot: 150 
/inquire 
recv from player 2222: fold
send inquire msg to player 1111 
inquire/ 
2222 2000 8000 0 fold 
4444 1700 8000 100 blind 
7777 1750 8000 50 blind 
total pot: 150 
/inquire 
recv from player 1111: fold
send inquire msg to player 5555 
inquire/ 
1111 1900 8000 0 fold 
2222 2000 8000 0 fold 
4444 1700 8000 100 blind 
7777 1750 8000 50 blind 
total pot: 150 
/inquire 
recv from player 5555: check
send inquire msg to player 6666 
inquire/ 
5555 878 8000 100 call 
1111 1900 8000 0 fold 
2222 2000 8000 0 fold 
4444 1700 8000 100 blind 
7777 1750 8000 50 blind 
total pot: 250 
/inquire 
recv from player 6666: check
send inquire msg to player 3333 
inquire/ 
6666 1078 8000 100 call 
5555 878 8000 100 call 
1111 1900 8000 0 fold 
2222 2000 8000 0 fold 
4444 1700 8000 100 blind 
7777 1750 8000 50 blind 
total pot: 350 
/inquire 
recv from player 3333: check
send inquire msg to player 8888 
inquire/ 
3333 878 8000 100 call 
6666 1078 8000 100 call 
5555 878 8000 100 call 
1111 1900 8000 0 fold 
2222 2000 8000 0 fold 
4444 1700 8000 100 blind 
7777 1750 8000 50 blind 
total pot: 450 
/inquire 
recv from player 8888: check
send inquire msg to player 7777 
inquire/ 
8888 5266 8000 100 call 
3333 878 8000 100 call 
6666 1078 8000 100 call 
5555 878 8000 100 call 
1111 1900 8000 0 fold 
2222 2000 8000 0 fold 
4444 1700 8000 100 blind 
7777 1750 8000 50 blind 
total pot: 550 
/inquire 
recv from player 7777: check
send inquire msg to player 4444 
inquire/ 
7777 1700 8000 100 call 
8888 5266 8000 100 call 
3333 878 8000 100 call 
6666 1078 8000 100 call 
5555 878 8000 100 call 
1111 1900 8000 0 fold 
2222 2000 8000 0 fold 
4444 1700 8000 100 blind 
total pot: 600 
/inquire 
recv from player 4444: raise 17
send inquire msg to player 2222 
inquire/ 
4444 1600 8000 200 raise 
7777 1700 8000 100 call 
8888 5266 8000 100 call 
3333 878 8000 100 call 
6666 1078 8000 100 call 
5555 878 8000 100 call 
1111 1900 8000 0 fold 
2222 2000 8000 0 fold 
total pot: 700 
/inquire 
send inquire msg to player 1111 
inquire/ 
2222 2000 8000 0 fold 
4444 1600 8000 200 raise 
7777 1700 8000 100 call 
8888 5266 8000 100 call 
3333 878 8000 100 call 
6666 1078 8000 100 call 
5555 878 8000 100 call 
1111 1900 8000 0 fold 
total pot: 700 
/inquire 
send inquire msg to player 5555 
inquire/ 
1111 1900 8000 0 fold 
2222 2000 8000 0 fold 
4444 1600 8000 200 raise 
7777 1700 8000 100 call 
8888 5266 8000 100 call 
3333 878 8000 100 call 
6666 1078 8000 100 call 
5555 878 8000 100 call 
total pot: 700 
/inquire 
recv from player 5555: raise 0
send inquire msg to player 6666 
inquire/ 
5555 678 8000 300 raise 
1111 1900 8000 0 fold 
2222 2000 8000 0 fold 
4444 1600 8000 200 raise 
7777 1700 8000 100 call 
8888 5266 8000 100 call 
3333 878 8000 100 call 
6666 1078 8000 100 call 
total pot: 900 
/inquire 
recv from player 6666: check
send inquire msg to player 3333 
inquire/ 
6666 878 8000 300 call 
5555 678 8000 300 raise 
1111 1900 8000 0 fold 
2222 2000 8000 0 fold 
4444 1600 8000 200 raise 
7777 1700 8000 100 call 
8888 5266 8000 100 call 
3333 878 8000 100 call 
total pot: 1100 
/inquire 
recv from player 3333: check
send inquire msg to player 8888 
inquire/ 
3333 678 8000 300 call 
6666 878 8000 300 call 
5555 678 8000 300 raise 
1111 1900 8000 0 fold 
2222 2000 8000 0 fold 
4444 1600 8000 200 raise 
7777 1700 8000 100 call 
8888 5266 8000 100 call 
total pot: 1300 
/inquire 
recv from player 8888: check
send inquire msg to player 7777 
inquire/ 
8888 5066 8000 300 call 
3333 678 8000 300 call 
6666 878 8000 300 call 
5555 678 8000 300 raise 
1111 1900 8000 0 fold 
2222 2000 8000 0 fold 
4444 1600 8000 200 raise 
7777 1700 8000 100 call 
total pot: 1500 
/inquire 
recv from player 7777: fold
send inquire msg to player 4444 
inquire/ 
7777 1700 8000 100 fold 
8888 5066 8000 300 call 
3333 678 8000 300 call 
6666 878 8000 300 call 
5555 678 8000 300 raise 
1111 1900 8000 0 fold 
2222 2000 8000 0 fold 
4444 1600 8000 200 raise 
total pot: 1500 
/inquire 
recv from player 4444: check
flop/ 
CLUBS 7 
SPADES 3 
DIAMONDS 2 
/flop 

---flop round bet---
valid player: 8, all in player: 0, fold player: 3
send inquire msg to player 7777 
inquire/ 
8888 5066 8000 300 call 
3333 678 8000 300 call 
6666 878 8000 300 call 
5555 678 8000 300 raise 
1111 1900 8000 0 fold 
2222 2000 8000 0 fold 
4444 1500 8000 300 call 
7777 1700 8000 100 fold 
total pot: 1600 
/inquire 
send inquire msg to player 4444 
inquire/ 
7777 1700 8000 100 fold 
8888 5066 8000 300 call 
3333 678 8000 300 call 
6666 878 8000 300 call 
5555 678 8000 300 raise 
1111 1900 8000 0 fold 
2222 2000 8000 0 fold 
4444 1500 8000 300 call 
total pot: 1600 
/inquire 
recv from player 4444: check
send inquire msg to player 2222 
inquire/ 
4444 1500 8000 300 check 
7777 1700 8000 100 fold 
8888 5066 8000 300 call 
3333 678 8000 300 call 
6666 878 8000 300 call 
5555 678 8000 300 raise 
1111 1900 8000 0 fold 
2222 2000 8000 0 fold 
total pot: 1600 
/inquire 
send inquire msg to player 1111 
inquire/ 
2222 2000 8000 0 fold 
4444 1500 8000 300 check 
7777 1700 8000 100 fold 
8888 5066 8000 300 call 
3333 678 8000 300 call 
6666 878 8000 300 call 
5555 678 8000 300 raise 
1111 1900 8000 0 fold 
total pot: 1600 
/inquire 
send inquire msg to player 5555 
inquire/ 
1111 1900 8000 0 fold 
2222 2000 8000 0 fold 
4444 1500 8000 300 check 
7777 1700 8000 100 fold 
8888 5066 8000 300 call 
3333 678 8000 300 call 
6666 878 8000 300 call 
5555 678 8000 300 raise 
total pot: 1600 
/inquire 
recv from player 5555: raise 0
send inquire msg to player 6666 
inquire/ 
5555 578 8000 400 raise 
1111 1900 8000 0 fold 
2222 2000 8000 0 fold 
4444 1500 8000 300 check 
7777 1700 8000 100 fold 
8888 5066 8000 300 call 
3333 678 8000 300 call 
6666 878 8000 300 call 
total pot: 1700 
/inquire 
recv from player 6666: check
send inquire msg to player 3333 
inquire/ 
6666 778 8000 400 call 
5555 578 8000 400 raise 
1111 1900 8000 0 fold 
2222 2000 8000 0 fold 
4444 1500 8000 300 check 
7777 1700 8000 100 fold 
8888 5066 8000 300 call 
3333 678 8000 300 call 
total pot: 1800 
/inquire 
recv from player 3333: check
send inquire msg to player 8888 
inquire/ 
3333 578 8000 400 call 
6666 778 8000 400 call 
5555 578 8000 400 raise 
1111 1900 8000 0 fold 
2222 2000 8000 0 fold 
4444 1500 8000 300 check 
7777 1700 8000 100 fold 
8888 5066 8000 300 call 
total pot: 1900 
/inquire 
recv from player 8888: check
send inquire msg to player 7777 
inquire/ 
8888 4966 8000 400 call 
3333 578 8000 400 call 
6666 778 8000 400 call 
5555 578 8000 400 raise 
1111 1900 8000 0 fold 
2222 2000 8000 0 fold 
4444 1500 8000 300 check 
7777 1700 8000 100 fold 
total pot: 2000 
/inquire 
send inquire msg to player 4444 
inquire/ 
7777 1700 8000 100 fold 
8888 4966 8000 400 call 
3333 578 8000 400 call 
6666 778 8000 400 call 
5555 578 8000 400 raise 
1111 1900 8000 0 fold 
2222 2000 8000 0 fold 
4444 1500 8000 300 check 
total pot: 2000 
/inquire 
recv from player 4444: check
turn/ 
CLUBS 8 
/turn 

---turn round bet---
valid player: 8, all in player: 0, fold player: 3
send inquire msg to player 7777 
inquire/ 
8888 4966 8000 400 call 
3333 578 8000 400 call 
6666 778 8000 400 call 
5555 578 8000 400 raise 
1111 1900 8000 0 fold 
2222 2000 8000 0 fold 
4444 1400 8000 400 call 
7777 1700 8000 100 fold 
total pot: 2100 
/inquire 
send inquire msg to player 4444 
inquire/ 
7777 1700 8000 100 fold 
8888 4966 8000 400 call 
3333 578 8000 400 call 
6666 778 8000 400 call 
5555 578 8000 400 raise 
1111 1900 8000 0 fold 
2222 2000 8000 0 fold 
4444 1400 8000 400 call 
total pot: 2100 
/inquire 
recv from player 4444: check
send inquire msg to player 2222 
inquire/ 
4444 1400 8000 400 check 
7777 1700 8000 100 fold 
8888 4966 8000 400 call 
3333 578 8000 400 call 
6666 778 8000 400 call 
5555 578 8000 400 raise 
1111 1900 8000 0 fold 
2222 2000 8000 0 fold 
total pot: 2100 
/inquire 
send inquire msg to player 1111 
inquire/ 
2222 2000 8000 0 fold 
4444 1400 8000 400 check 
7777 1700 8000 100 fold 
8888 4966 8000 400 call 
3333 578 8000 400 call 
6666 778 8000 400 call 
5555 578 8000 400 raise 
1111 1900 8000 0 fold 
total pot: 2100 
/inquire 
send inquire msg to player 5555 
inquire/ 
1111 1900 8000 0 fold 
2222 2000 8000 0 fold 
4444 1400 8000 400 check 
7777 1700 8000 100 fold 
8888 4966 8000 400 call 
3333 578 8000 400 call 
6666 778 8000 400 call 
5555 578 8000 400 raise 
total pot: 2100 
/inquire 
recv from player 5555: raise 0
send inquire msg to player 6666 
inquire/ 
5555 478 8000 500 raise 
1111 1900 8000 0 fold 
2222 2000 8000 0 fold 
4444 1400 8000 400 check 
7777 1700 8000 100 fold 
8888 4966 8000 400 call 
3333 578 8000 400 call 
6666 778 8000 400 call 
total pot: 2200 
/inquire 
recv from player 6666: fold
send inquire msg to player 3333 
inquire/ 
6666 778 8000 400 fold 
5555 478 8000 500 raise 
1111 1900 8000 0 fold 
2222 2000 8000 0 fold 
4444 1400 8000 400 check 
7777 1700 8000 100 fold 
8888 4966 8000 400 call 
3333 578 8000 400 call 
total pot: 2200 
/inquire 
recv from player 3333: check
send inquire msg to player 8888 
inquire/ 
3333 478 8000 500 call 
6666 778 8000 400 fold 
5555 478 8000 500 raise 
1111 1900 8000 0 fold 
2222 2000 8000 0 fold 
4444 1400 8000 400 check 
7777 1700 8000 100 fold 
8888 4966 8000 400 call 
total pot: 2300 
/inquire 
recv from player 8888: check
send inquire msg to player 7777 
inquire/ 
8888 4866 8000 500 call 
3333 478 8000 500 call 
6666 778 8000 400 fold 
5555 478 8000 500 raise 
1111 1900 8000 0 fold 
2222 2000 8000 0 fold 
4444 1400 8000 400 check 
7777 1700 8000 100 fold 
total pot: 2400 
/inquire 
send inquire msg to player 4444 
inquire/ 
7777 1700 8000 100 fold 
8888 4866 8000 500 call 
3333 478 8000 500 call 
6666 778 8000 400 fold 
5555 478 8000 500 raise 
1111 1900 8000 0 fold 
2222 2000 8000 0 fold 
4444 1400 8000 400 check 
total pot: 2400 
/inquire 
recv from player 4444: check
river/ 
SPADES K 
/river 

---river round bet---
valid player: 8, all in player: 0, fold player: 4
send inquire msg to player 7777 
inquire/ 
8888 4866 8000 500 call 
3333 478 8000 500 call 
6666 778 8000 400 fold 
5555 478 8000 500 raise 
1111 1900 8000 0 fold 
2222 2000 8000 0 fold 
4444 1300 8000 500 call 
7777 1700 8000 100 fold 
total pot: 2500 
/inquire 
send inquire msg to player 4444 
inquire/ 
7777 1700 8000 100 fold 
8888 4866 8000 500 call 
3333 478 8000 500 call 
6666 778 8000 400 fold 
5555 478 8000 500 raise 
1111 1900 8000 0 fold 
2222 2000 8000 0 fold 
4444 1300 8000 500 call 
total pot: 2500 
/inquire 
recv from player 4444: check
send inquire msg to player 2222 
inquire/ 
4444 1300 8000 500 check 
7777 1700 8000 100 fold 
8888 4866 8000 500 call 
3333 478 8000 500 call 
6666 778 8000 400 fold 
5555 478 8000 500 raise 
1111 1900 8000 0 fold 
2222 2000 8000 0 fold 
total pot: 2500 
/inquire 
send inquire msg to player 1111 
inquire/ 
2222 2000 8000 0 fold 
4444 1300 8000 500 check 
7777 1700 8000 100 fold 
8888 4866 8000 500 call 
3333 478 8000 500 call 
6666 778 8000 400 fold 
5555 478 8000 500 raise 
1111 1900 8000 0 fold 
total pot: 2500 
/inquire 
send inquire msg to player 5555 
inquire/ 
1111 1900 8000 0 fold 
2222 2000 8000 0 fold 
4444 1300 8000 500 check 
7777 1700 8000 100 fold 
8888 4866 8000 500 call 
3333 478 8000 500 call 
6666 778 8000 400 fold 
5555 478 8000 500 raise 
total pot: 2500 
/inquire 
recv from player 5555: check
send inquire msg to player 6666 
inquire/ 
5555 478 8000 500 check 
1111 1900 8000 0 fold 
2222 2000 8000 0 fold 
4444 1300 8000 500 check 
7777 1700 8000 100 fold 
8888 4866 8000 500 call 
3333 478 8000 500 call 
6666 778 8000 400 fold 
total pot: 2500 
/inquire 
send inquire msg to player 3333 
inquire/ 
6666 778 8000 400 fold 
5555 478 8000 500 check 
1111 1900 8000 0 fold 
2222 2000 8000 0 fold 
4444 1300 8000 500 check 
7777 1700 8000 100 fold 
8888 4866 8000 500 call 
3333 478 8000 500 call 
total pot: 2500 
/inquire 
recv from player 3333: check
send inquire msg to player 8888 
inquire/ 
3333 478 8000 500 check 
6666 778 8000 400 fold 
5555 478 8000 500 check 
1111 1900 8000 0 fold 
2222 2000 8000 0 fold 
4444 1300 8000 500 check 
7777 1700 8000 100 fold 
8888 4866 8000 500 call 
total pot: 2500 
/inquire 
recv from player 8888: check

---show down---
showdown/ 
common/ 
CLUBS 7 
SPADES 3 
DIAMONDS 2 
CLUBS 8 
SPADES K 
/common 
4: 4444 CLUBS 9 HEARTS J HIGH_CARD 
3: 5555 HEARTS 2 HEARTS 6 ONE_PAIR 
2: 3333 CLUBS J DIAMONDS 8 ONE_PAIR 
1: 8888 SPADES Q DIAMONDS K ONE_PAIR 
/showdown 

---Allocate pot---
pot-win/ 
8888: 2500 
/pot-win 
it is player 7777's turn to be button

-----4 Hand-----

----- clean player data in socket -----
seat/ 
button: 7777 1700 8000 
small blind: 4444 1300 8000 
big blind: 2222 2000 8000 
1111 1900 8000 
5555 478 8000 
6666 778 8000 
3333 478 8000 
8888 7366 8000 
/seat 
blind/ 
4444: 50 
2222: 100 
/blind 
player 4444:hold/ 
DIAMONDS Q 
HEARTS 4 
/hold 
player 2222:hold/ 
SPADES 4 
DIAMONDS 9 
/hold 
player 1111:hold/ 
CLUBS 4 
DIAMONDS 8 
/hold 
player 5555:hold/ 
CLUBS 7 
CLUBS 10 
/hold 
player 6666:hold/ 
HEARTS 9 
SPADES 7 
/hold 
player 3333:hold/ 
HEARTS 3 
CLUBS 5 
/hold 
player 8888:hold/ 
HEARTS 5 
DIAMONDS 2 
/hold 
player 7777:hold/ 
SPADES 8 
CLUBS 6 
/hold 

---pre flop round bet---
valid player: 8, all in player: 0, fold player: 0
send inquire msg to player 1111 
inquire/ 
2222 1900 8000 100 blind 
4444 1250 8000 50 blind 
total pot: 150 
/inquire 
recv from player 1111: check
send inquire msg to player 5555 
inquire/ 
1111 1800 8000 100 call 
2222 1900 8000 100 blind 
4444 1250 8000 50 blind 
total pot: 250 
/inquire 
recv from player 5555: raise 0
send inquire msg to player 6666 
inquire/ 
5555 278 8000 200 raise 
1111 1800 8000 100 call 
2222 1900 8000 100 blind 
4444 1250 8000 50 blind 
total pot: 450 
/inquire 
recv from player 6666: fold
send inquire msg to player 3333 
inquire/ 
6666 778 8000 0 fold 
5555 278 8000 200 raise 
1111 1800 8000 100 call 
2222 1900 8000 100 blind 
4444 1250 8000 50 blind 
total pot: 450 
/inquire 
recv from player 3333: check
send inquire msg to player 8888 
inquire/ 
3333 278 8000 200 call 
6666 778 8000 0 fold 
5555 278 8000 200 raise 
1111 1800 8000 100 call 
2222 1900 8000 100 blind 
4444 1250 8000 50 blind 
total pot: 650 
/inquire 
recv from player 8888: check
send inquire msg to player 7777 
inquire/ 
8888 7166 8000 200 call 
3333 278 8000 200 call 
6666 778 8000 0 fold 
5555 278 8000 200 raise 
1111 1800 8000 100 call 
2222 1900 8000 100 blind 
4444 1250 8000 50 blind 
total pot: 850 
/inquire 
recv from player 7777: fold
send inquire msg to player 4444 
inquire/ 
7777 1700 8000 0 fold 
8888 7166 8000 200 call 
3333 278 8000 200 call 
6666 778 8000 0 fold 
5555 278 8000 200 raise 
1111 1800 8000 100 call 
2222 1900 8000 100 blind 
4444 1250 8000 50 blind 
total pot: 850 
/inquire 
recv from player 4444: check
send inquire msg to player 2222 
inquire/ 
4444 1100 8000 200 call 
7777 1700 8000 0 fold 
8888 7166 8000 200 call 
3333 278 8000 200 call 
6666 778 8000 0 fold 
5555 278 8000 200 raise 
1111 1800 8000 100 call 
2222 1900 8000 100 blind 
total pot: 1000 
/inquire 
recv from player 2222: fold
send inquire msg to player 1111 
inquire/ 
2222 1900 8000 100 fold 
4444 1100 8000 200 call 
7777 1700 8000 0 fold 
8888 7166 8000 200 call 
3333 278 8000 200 call 
6666 778 8000 0 fold 
5555 278 8000 200 raise 
1111 1800 8000 100 call 
total pot: 1000 
/inquire 
recv from player 1111: check
flop/ 
DIAMONDS 3 
HEARTS 6 
CLUBS J 
/flop 

---flop round bet---
valid player: 8, all in player: 0, fold player: 3
send inquire msg to player 4444 
inquire/ 
7777 1700 8000 0 fold 
8888 7166 8000 200 call 
3333 278 8000 200 call 
6666 778 8000 0 fold 
5555 278 8000 200 raise 
1111 1700 8000 200 call 
2222 1900 8000 100 fold 
4444 1100 8000 200 call 
total pot: 1100 
/inquire 
recv from player 4444: check
send inquire msg to player 2222 
inquire/ 
4444 1100 8000 200 check 
7777 1700 8000 0 fold 
8888 7166 8000 200 call 
3333 278 8000 200 call 
6666 778 8000 0 fold 
5555 278 8000 200 raise 
1111 1700 8000 200 call 
2222 1900 8000 100 fold 
total pot: 1100 
/inquire 
send inquire msg to player 1111 
inquire/ 
2222 1900 8000 100 fold 
4444 1100 8000 200 check 
7777 1700 8000 0 fold 
8888 7166 8000 200 call 
3333 278 8000 200 call 
6666 778 8000 0 fold 
5555 278 8000 200 raise 
1111 1700 8000 200 call 
total pot: 1100 
/inquire 
recv from player 1111: check
send inquire msg to player 5555 
inquire/ 
1111 1700 8000 200 check 
2222 1900 8000 100 fold 
4444 1100 8000 200 check 
7777 1700 8000 0 fold 
8888 7166 8000 200 call 
3333 278 8000 200 call 
6666 778 8000 0 fold 
5555 278 8000 200 raise 
total pot: 1100 
/inquire 
recv from player 5555: raise 0
send inquire msg to player 6666 
inquire/ 
5555 178 8000 300 raise 
1111 1700 8000 200 check 
2222 1900 8000 100 fold 
4444 1100 8000 200 check 
7777 1700 8000 0 fold 
8888 7166 8000 200 call 
3333 278 8000 200 call 
6666 778 8000 0 fold 
total pot: 1200 
/inquire 
send inquire msg to player 3333 
inquire/ 
6666 778 8000 0 fold 
5555 178 8000 300 raise 
1111 1700 8000 200 check 
2222 1900 8000 100 fold 
4444 1100 8000 200 check 
7777 1700 8000 0 fold 
8888 7166 8000 200 call 
3333 278 8000 200 call 
total pot: 1200 
/inquire 
recv from player 3333: check
send inquire msg to player 8888 
inquire/ 
3333 178 8000 300 call 
6666 778 8000 0 fold 
5555 178 8000 300 raise 
1111 1700 8000 200 check 
2222 1900 8000 100 fold 
4444 1100 8000 200 check 
7777 1700 8000 0 fold 
8888 7166 8000 200 call 
total pot: 1300 
/inquire 
recv from player 8888: check
send inquire msg to player 7777 
inquire/ 
8888 7066 8000 300 call 
3333 178 8000 300 call 
6666 778 8000 0 fold 
5555 178 8000 300 raise 
1111 1700 8000 200 check 
2222 1900 8000 100 fold 
4444 1100 8000 200 check 
7777 1700 8000 0 fold 
total pot: 1400 
/inquire 
send inquire msg to player 4444 
inquire/ 
7777 1700 8000 0 fold 
8888 7066 8000 300 call 
3333 178 8000 300 call 
6666 778 8000 0 fold 
5555 178 8000 300 raise 
1111 1700 8000 200 check 
2222 1900 8000 100 fold 
4444 1100 8000 200 check 
total pot: 1400 
/inquire 
recv from player 4444: check
send inquire msg to player 2222 
inquire/ 
4444 1000 8000 300 call 
7777 1700 8000 0 fold 
8888 7066 8000 300 call 
3333 178 8000 300 call 
6666 778 8000 0 fold 
5555 178 8000 300 raise 
1111 1700 8000 200 check 
2222 1900 8000 100 fold 
total pot: 1500 
/inquire 
send inquire msg to player 1111 
inquire/ 
2222 1900 8000 100 fold 
4444 1000 8000 300 call 
7777 1700 8000 0 fold 
8888 7066 8000 300 call 
3333 178 8000 300 call 
6666 778 8000 0 fold 
5555 178 8000 300 raise 
1111 1700 8000 200 check 
total pot: 1500 
/inquire 
recv from player 1111: check
turn/ 
DIAMONDS 10 
/turn 

---turn round bet---
valid player: 8, all in player: 0, fold player: 3
send inquire msg to player 4444 
inquire/ 
7777 1700 8000 0 fold 
8888 7066 8000 300 call 
3333 178 8000 300 call 
6666 778 8000 0 fold 
5555 178 8000 300 raise 
1111 1600 8000 300 call 
2222 1900 8000 100 fold 
4444 1000 8000 300 call 
total pot: 1600 
/inquire 
recv from player 4444: check
send inquire msg to player 2222 
inquire/ 
4444 1000 8000 300 check 
7777 1700 8000 0 fold 
8888 7066 8000 300 call 
3333 178 8000 300 call 
6666 778 8000 0 fold 
5555 178 8000 300 raise 
1111 1600 8000 300 call 
2222 1900 8000 100 fold 
total pot: 1600 
/inquire 
send inquire msg to player 1111 
inquire/ 
2222 1900 8000 100 fold 
4444 1000 8000 300 check 
7777 1700 8000 0 fold 
8888 7066 8000 300 call 
3333 178 8000 300 call 
6666 778 8000 0 fold 
5555 178 8000 300 raise 
1111 1600 8000 300 call 
total pot: 1600 
/inquire 
recv from player 1111: fold
send inquire msg to player 5555 
inquire/ 
1111 1600 8000 300 fold 
2222 1900 8000 100 fold 
4444 1000 8000 300 check 
7777 1700 8000 0 fold 
8888 7066 8000 300 call 
3333 178 8000 300 call 
6666 778 8000 0 fold 
5555 178 8000 300 raise 
total pot: 1600 
/inquire 
recv from player 5555: raise 0
send inquire msg to player 6666 
inquire/ 
5555 78 8000 400 raise 
1111 1600 8000 300 fold 
2222 1900 8000 100 fold 
4444 1000 8000 300 check 
7777 1700 8000 0 fold 
8888 7066 8000 300 call 
3333 178 8000 300 call 
6666 778 8000 0 fold 
total pot: 1700 
/inquire 
send inquire msg to player 3333 
inquire/ 
6666 778 8000 0 fold 
5555 78 8000 400 raise 
1111 1600 8000 300 fold 
2222 1900 8000 100 fold 
4444 1000 8000 300 check 
7777 1700 8000 0 fold 
8888 7066 8000 300 call 
3333 178 8000 300 call 
total pot: 1700 
/inquire 
recv from player 3333: check
send inquire msg to player 8888 
inquire/ 
3333 78 8000 400 call 
6666 778 8000 0 fold 
5555 78 8000 400 raise 
1111 1600 8000 300 fold 
2222 1900 8000 100 fold 
4444 1000 8000 300 check 
7777 1700 8000 0 fold 
8888 7066 8000 300 call 
total pot: 1800 
/inquire 
recv from player 8888: check
send inquire msg to player 7777 
inquire/ 
8888 6966 8000 400 call 
3333 78 8000 400 call 
6666 778 8000 0 fold 
5555 78 8000 400 raise 
1111 1600 8000 300 fold 
2222 1900 8000 100 fold 
4444 1000 8000 300 check 
7777 1700 8000 0 fold 
total pot: 1900 
/inquire 
send inquire msg to player 4444 
inquire/ 
7777 1700 8000 0 fold 
8888 6966 8000 400 call 
3333 78 8000 400 call 
6666 778 8000 0 fold 
5555 78 8000 400 raise 
1111 1600 8000 300 fold 
2222 1900 8000 100 fold 
4444 1000 8000 300 check 
total pot: 1900 
/inquire 
recv from player 4444: fold
river/ 
DIAMONDS 7 
/river 

---river round bet---
valid player: 8, all in player: 0, fold player: 5
send inquire msg to player 4444 
inquire/ 
7777 1700 8000 0 fold 
8888 6966 8000 400 call 
3333 78 8000 400 call 
6666 778 8000 0 fold 
5555 78 8000 400 raise 
1111 1600 8000 300 fold 
2222 1900 8000 100 fold 
4444 1000 8000 300 fold 
total pot: 1900 
/inquire 
send inquire msg to player 2222 
inquire/ 
4444 1000 8000 300 fold 
7777 1700 8000 0 fold 
8888 6966 8000 400 call 
3333 78 8000 400 call 
6666 778 8000 0 fold 
5555 78 8000 400 raise 
1111 1600 8000 300 fold 
2222 1900 8000 100 fold 
total pot: 1900 
/inquire 
send inquire msg to player 1111 
inquire/ 
2222 1900 8000 100 fold 
4444 1000 8000 300 fold 
7777 1700 8000 0 fold 
8888 6966 8000 400 call 
3333 78 8000 400 call 
6666 778 8000 0 fold 
5555 78 8000 400 raise 
1111 1600 8000 300 fold 
total pot: 1900 
/inquire 
send inquire msg to player 5555 
inquire/ 
1111 1600 8000 300 fold 
2222 1900 8000 100 fold 
4444 1000 8000 300 fold 
7777 1700 8000 0 fold 
8888 6966 8000 400 call 
3333 78 8000 400 call 
6666 778 8000 0 fold 
5555 78 8000 400 raise 
total pot: 1900 
/inquire 
recv from player 5555: check
send inquire msg to player 6666 
inquire/ 
5555 78 8000 400 check 
1111 1600 8000 300 fold 
2222 1900 8000 100 fold 
4444 1000 8000 300 fold 
7777 1700 8000 0 fold 
8888 6966 8000 400 call 
3333 78 8000 400 call 
6666 778 8000 0 fold 
total pot: 1900 
/inquire 
send inquire msg to player 3333 
inquire/ 
6666 778 8000 0 fold 
5555 78 8000 400 check 
1111 1600 8000 300 fold 
2222 1900 8000 100 fold 
4444 1000 8000 300 fold 
7777 1700 8000 0 fold 
8888 6966 8000 400 call 
3333 78 8000 400 call 
total pot: 1900 
/inquire 
recv from player 3333: check
send inquire msg to player 8888 
inquire/ 
3333 78 8000 400 check 
6666 778 8000 0 fold 
5555 78 8000 400 check 
1111 1600 8000 300 fold 
2222 1900 8000 100 fold 
4444 1000 8000 300 fold 
7777 1700 8000 0 fold 
8888 6966 8000 400 call 
total pot: 1900 
/inquire 
recv from player 8888: check

---show down---
showdown/ 
common/ 
DIAMONDS 3 
HEARTS 6 
CLUBS J 
DIAMONDS 10 
DIAMONDS 7 
/common 
1: 5555 CLUBS 7 CLUBS 10 TWO_PAIR 
2: 3333 HEARTS 3 CLUBS 5 ONE_PAIR 
3: 8888 HEARTS 5 DIAMONDS 2 HIGH_CARD 
/showdown 

---Allocate pot---
pot-win/ 
5555: 1900 
/pot-win 
it is player 4444's turn to be button

-----5 Hand-----

----- clean player data in socket -----
seat/ 
button: 4444 1000 8000 
small blind: 2222 1900 8000 
big blind: 1111 1600 8000 
5555 1978 8000 
6666 778 8000 
3333 2000 6078 
8888 6966 8000 
7777 1700 8000 
/seat 
blind/ 
2222: 50 
1111: 100 
/blind 
player 2222:hold/ 
CLUBS K 
HEARTS Q 
/hold 
player 1111:hold/ 
SPADES 2 
CLUBS 6 
/hold 
player 5555:hold/ 
HEARTS 4 
DIAMONDS Q 
/hold 
player 6666:hold/ 
SPADES 10 
SPADES K 
/hold 
player 3333:hold/ 
HEARTS 8 
DIAMONDS 3 
/hold 
player 8888:hold/ 
SPADES 3 
CLUBS 7 
/hold 
player 7777:hold/ 
SPADES 4 
DIAMONDS 10 
/hold 
player 4444:hold/ 
DIAMONDS J 
HEARTS 3 
/hold 

---pre flop round bet---
valid player: 8, all in player: 0, fold player: 0
send inquire msg to player 5555 
inquire/ 
1111 1500 8000 100 blind 
2222 1850 8000 50 blind 
total pot: 150 
/inquire 
recv from player 5555: raise 0
send inquire msg to player 6666 
inquire/ 
5555 1778 8000 200 raise 
1111 1500 8000 100 blind 
2222 1850 8000 50 blind 
total pot: 350 
/inquire 
recv from player 6666: check
send inquire msg to player 3333 
inquire/ 
6666 578 8000 200 call 
5555 1778 8000 200 raise 
1111 1500 8000 100 blind 
2222 1850 8000 50 blind 
total pot: 550 
/inquire 
recv from player 3333: check
send inquire msg to player 8888 
inquire/ 
3333 1800 6078 200 call 
6666 578 8000 200 call 
5555 1778 8000 200 raise 
1111 1500 8000 100 blind 
2222 1850 8000 50 blind 
total pot: 750 
/inquire 
recv from player 8888: check
send inquire msg to player 7777 
inquire/ 
8888 6766 8000 200 call 
3333 1800 6078 200 call 
6666 578 8000 200 call 
5555 1778 8000 200 raise 
1111 1500 8000 100 blind 
2222 1850 8000 50 blind 
total pot: 950 
/inquire 
recv from player 7777: check
send inquire msg to player 4444 
inquire/ 
7777 1500 8000 200 call 
8888 6766 8000 200 call 
3333 1800 6078 200 call 
6666 578 8000 200 call 
5555 1778 8000 200 raise 
1111 1500 8000 100 blind 
2222 1850 8000 50 blind 
total pot: 1150 
/inquire 
recv from player 4444: fold
send inquire msg to player 2222 
inquire/ 
4444 1000 8000 0 fold 
7777 1500 8000 200 call 
8888 6766 8000 200 call 
3333 1800 6078 200 call 
6666 578 8000 200 call 
5555 1778 8000 200 raise 
1111 1500 8000 100 blind 
2222 1850 8000 50 blind 
total pot: 1150 
/inquire 
recv from player 2222: fold
send inquire msg to player 1111 
inquire/ 
2222 1850 8000 50 fold 
4444 1000 8000 0 fold 
7777 1500 8000 200 call 
8888 6766 8000 200 call 
3333 1800 6078 200 call 
6666 578 8000 200 call 
5555 1778 8000 200 raise 
1111 1500 8000 100 blind 
total pot: 1150 
/inquire 
recv from player 1111: fold
flop/ 
SPADES J 
DIAMONDS 6 
DIAMONDS K 
/flop 

---flop round bet---
valid player: 8, all in player: 0, fold player: 3
send inquire msg to player 2222 
inquire/ 
4444 1000 8000 0 fold 
7777 1500 8000 200 call 
8888 6766 8000 200 call 
3333 1800 6078 200 call 
6666 578 8000 200 call 
5555 1778 8000 200 raise 
1111 1500 8000 100 fold 
2222 1850 8000 50 fold 
total pot: 1150 
/inquire 
send inquire msg to player 1111 
inquire/ 
2222 1850 8000 50 fold 
4444 1000 8000 0 fold 
7777 1500 8000 200 call 
8888 6766 8000 200 call 
3333 1800 6078 200 call 
6666 578 8000 200 call 
5555 1778 8000 200 raise 
1111 1500 8000 100 fold 
total pot: 1150 
/inquire 
send inquire msg to player 5555 
inquire/ 
1111 1500 8000 100 fold 
2222 1850 8000 50 fold 
4444 1000 8000 0 fold 
7777 1500 8000 200 call 
8888 6766 8000 200 call 
3333 1800 6078 200 call 
6666 578 8000 200 call 
5555 1778 8000 200 raise 
total pot: 1150 
/inquire 
recv from player 5555: check
send inquire msg to player 6666 
inquire/ 
5555 1778 8000 200 check 
1111 1500 8000 100 fold 
2222 1850 8000 50 fold 
4444 1000 8000 0 fold 
7777 1500 8000 200 call 
8888 6766 8000 200 call 
3333 1800 6078 200 call 
6666 578 8000 200 call 
total pot: 1150 
/inquire 
recv from player 6666: check
send inquire msg to player 3333 
inquire/ 
6666 578 8000 200 check 
5555 1778 8000 200 check 
1111 1500 8000 100 fold 
2222 1850 8000 50 fold 
4444 1000 8000 0 fold 
7777 1500 8000 200 call 
8888 6766 8000 200 call 
3333 1800 6078 200 call 
total pot: 1150 
/inquire 
recv from player 3333: check
send inquire msg to player 8888 
inquire/ 
3333 1800 6078 200 check 
6666 578 8000 200 check 
5555 1778 8000 200 check 
1111 1500 8000 100 fold 
2222 1850 8000 50 fold 
4444 1000 8000 0 fold 
7777 1500 8000 200 call 
8888 6766 8000 200 call 
total pot: 1150 
/inquire 
recv from player 8888: check
send inquire msg to player 7777 
inquire/ 
8888 6766 8000 200 check 
3333 1800 6078 200 check 
6666 578 8000 200 check 
5555 1778 8000 200 check 
1111 1500 8000 100 fold 
2222 1850 8000 50 fold 
4444 1000 8000 0 fold 
7777 1500 8000 200 call 
total pot: 1150 
/inquire 
recv from player 7777: check
turn/ 
SPADES 9 
/turn 

---turn round bet---
valid player: 8, all in player: 0, fold player: 3
send inquire msg to player 2222 
inquire/ 
4444 1000 8000 0 fold 
7777 1500 8000 200 check 
8888 6766 8000 200 check 
3333 1800 6078 200 check 
6666 578 8000 200 check 
5555 1778 8000 200 check 
1111 1500 8000 100 fold 
2222 1850 8000 50 fold 
total pot: 1150 
/inquire 
send inquire msg to player 1111 
inquire/ 
2222 1850 8000 50 fold 
4444 1000 8000 0 fold 
7777 1500 8000 200 check 
8888 6766 8000 200 check 
3333 1800 6078 200 check 
6666 578 8000 200 check 
5555 1778 8000 200 check 
1111 1500 8000 100 fold 
total pot: 1150 
/inquire 
send inquire msg to player 5555 
inquire/ 
1111 1500 8000 100 fold 
2222 1850 8000 50 fold 
4444 1000 8000 0 fold 
7777 1500 8000 200 check 
8888 6766 8000 200 check 
3333 1800 6078 200 check 
6666 578 8000 200 check 
5555 1778 8000 200 check 
total pot: 1150 
/inquire 
recv from player 5555: check
send inquire msg to player 6666 
inquire/ 
5555 1778 8000 200 check 
1111 1500 8000 100 fold 
2222 1850 8000 50 fold 
4444 1000 8000 0 fold 
7777 1500 8000 200 check 
8888 6766 8000 200 check 
3333 1800 6078 200 check 
6666 578 8000 200 check 
total pot: 1150 
/inquire 
recv from player 6666: check
send inquire msg to player 3333 
inquire/ 
6666 578 8000 200 check 
5555 1778 8000 200 check 
1111 1500 8000 100 fold 
2222 1850 8000 50 fold 
4444 1000 8000 0 fold 
7777 1500 8000 200 check 
8888 6766 8000 200 check 
3333 1800 6078 200 check 
total pot: 1150 
/inquire 
recv from player 3333: check
send inquire msg to player 8888 
inquire/ 
3333 1800 6078 200 check 
6666 578 8000 200 check 
5555 1778 8000 200 check 
1111 1500 8000 100 fold 
2222 1850 8000 50 fold 
4444 1000 8000 0 fold 
7777 1500 8000 200 check 
8888 6766 8000 200 check 
total pot: 1150 
/inquire 
recv from player 8888: check
send inquire msg to player 7777 
inquire/ 
8888 6766 8000 200 check 
3333 1800 6078 200 check 
6666 578 8000 200 check 
5555 1778 8000 200 check 
1111 1500 8000 100 fold 
2222 1850 8000 50 fold 
4444 1000 8000 0 fold 
7777 1500 8000 200 check 
total pot: 1150 
/inquire 
recv from player 7777: check
river/ 
HEARTS 5 
/river 

---river round bet---
valid player: 8, all in player: 0, fold player: 3
send inquire msg to player 2222 
inquire/ 
4444 1000 8000 0 fold 
7777 1500 8000 200 check 
8888 6766 8000 200 check 
3333 1800 6078 200 check 
6666 578 8000 200 check 
5555 1778 8000 200 check 
1111 1500 8000 100 fold 
2222 1850 8000 50 fold 
total pot: 1150 
/inquire 
send inquire msg to player 1111 
inquire/ 
2222 1850 8000 50 fold 
4444 1000 8000 0 fold 
7777 1500 8000 200 check 
8888 6766 8000 200 check 
3333 1800 6078 200 check 
6666 578 8000 200 check 
5555 1778 8000 200 check 
1111 1500 8000 100 fold 
total pot: 1150 
/inquire 
send inquire msg to player 5555 
inquire/ 
1111 1500 8000 100 fold 
2222 1850 8000 50 fold 
4444 1000 8000 0 fold 
7777 1500 8000 200 check 
8888 6766 8000 200 check 
3333 1800 6078 200 check 
6666 578 8000 200 check 
5555 1778 8000 200 check 
total pot: 1150 
/inquire 
recv from player 5555: check
send inquire msg to player 6666 
inquire/ 
5555 1778 8000 200 check 
1111 1500 8000 100 fold 
2222 1850 8000 50 fold 
4444 1000 8000 0 fold 
7777 1500 8000 200 check 
8888 6766 8000 200 check 
3333 1800 6078 200 check 
6666 578 8000 200 check 
total pot: 1150 
/inquire 
recv from player 6666: check
send inquire msg to player 3333 
inquire/ 
6666 578 8000 200 check 
5555 1778 8000 200 check 
1111 1500 8000 100 fold 
2222 1850 8000 50 fold 
4444 1000 8000 0 fold 
7777 1500 8000 200 check 
8888 6766 8000 200 check 
3333 1800 6078 200 check 
total pot: 1150 
/inquire 
recv from player 3333: check
send inquire msg to player 8888 
inquire/ 
3333 1800 6078 200 check 
6666 578 8000 200 check 
5555 1778 8000 200 check 
1111 1500 8000 100 fold 
2222 1850 8000 50 fold 
4444 1000 8000 0 fold 
7777 1500 8000 200 check 
8888 6766 8000 200 check 
total pot: 1150 
/inquire 
recv from player 8888: check
send inquire msg to player 7777 
inquire/ 
8888 6766 8000 200 check 
3333 1800 6078 200 check 
6666 578 8000 200 check 
5555 1778 8000 200 check 
1111 1500 8000 100 fold 
2222 1850 8000 50 fold 
4444 1000 8000 0 fold 
7777 1500 8000 200 check 
total pot: 1150 
/inquire 
recv from player 7777: check

---show down---
showdown/ 
common/ 
SPADES J 
DIAMONDS 6 
DIAMONDS K 
SPADES 9 
HEARTS 5 
/common 
2: 5555 HEARTS 4 DIAMONDS Q HIGH_CARD 
1: 6666 SPADES 10 SPADES K ONE_PAIR 
4: 3333 HEARTS 8 DIAMONDS 3 HIGH_CARD 
5: 8888 SPADES 3 CLUBS 7 HIGH_CARD 
3: 7777 SPADES 4 DIAMONDS 10 HIGH_CARD 
/showdown 

---Allocate pot---
pot-win/ 
6666: 1150 
/pot-win 
it is player 2222's turn to be button

-----6 Hand-----

----- clean player data in socket -----
seat/ 
button: 2222 1850 8000 
small blind: 1111 1500 8000 
big blind: 5555 1778 8000 
6666 1728 8000 
3333 1800 6078 
8888 6766 8000 
7777 1500 8000 
4444 1000 8000 
/seat 
blind/ 
1111: 50 
5555: 100 
/blind 
player 1111:hold/ 
CLUBS Q 
CLUBS 3 
/hold 
player 5555:hold/ 
DIAMONDS 10 
DIAMONDS Q 
/hold 
player 6666:hold/ 
DIAMONDS J 
CLUBS K 
/hold 
player 3333:hold/ 
HEARTS K 
SPADES Q 
/hold 
player 8888:hold/ 
CLUBS 8 
DIAMONDS 9 
/hold 
player 7777:hold/ 
CLUBS 2 
DIAMONDS 5 
/hold 
player 4444:hold/ 
CLUBS 4 
CLUBS A 
/hold 
player 2222:hold/ 
SPADES 8 
SPADES 4 
/hold 

---pre flop round bet---
valid player: 8, all in player: 0, fold player: 0
send inquire msg to player 6666 
inquire/ 
5555 1678 8000 100 blind 
1111 1450 8000 50 blind 
total pot: 150 
/inquire 
recv from player 6666: check
send inquire msg to player 3333 
inquire/ 
6666 1628 8000 100 call 
5555 1678 8000 100 blind 
1111 1450 8000 50 blind 
total pot: 250 
/inquire 
recv from player 3333: check
send inquire msg to player 8888 
inquire/ 
3333 1700 6078 100 call 
6666 1628 8000 100 call 
5555 1678 8000 100 blind 
1111 1450 8000 50 blind 
total pot: 350 
/inquire 
recv from player 8888: check
send inquire msg to player 7777 
inquire/ 
8888 6666 8000 100 call 
3333 1700 6078 100 call 
6666 1628 8000 100 call 
5555 1678 8000 100 blind 
1111 1450 8000 50 blind 
total pot: 450 
/inquire 
recv from player 7777: check
send inquire msg to player 4444 
inquire/ 
7777 1400 8000 100 call 
8888 6666 8000 100 call 
3333 1700 6078 100 call 
6666 1628 8000 100 call 
5555 1678 8000 100 blind 
1111 1450 8000 50 blind 
total pot: 550 
/inquire 
recv from player 4444: check
send inquire msg to player 2222 
inquire/ 
4444 900 8000 100 call 
7777 1400 8000 100 call 
8888 6666 8000 100 call 
3333 1700 6078 100 call 
6666 1628 8000 100 call 
5555 1678 8000 100 blind 
1111 1450 8000 50 blind 
total pot: 650 
/inquire 
recv from player 2222: fold
send inquire msg to player 1111 
inquire/ 
2222 1850 8000 0 fold 
4444 900 8000 100 call 
7777 1400 8000 100 call 
8888 6666 8000 100 call 
3333 1700 6078 100 call 
6666 1628 8000 100 call 
5555 1678 8000 100 blind 
1111 1450 8000 50 blind 
total pot: 650 
/inquire 
recv from player 1111: check
send inquire msg to player 5555 
inquire/ 
1111 1400 8000 100 call 
2222 1850 8000 0 fold 
4444 900 8000 100 call 
7777 1400 8000 100 call 
8888 6666 8000 100 call 
3333 1700 6078 100 call 
6666 1628 8000 100 call 
5555 1678 8000 100 blind 
total pot: 700 
/inquire 
recv from player 5555: raise 0
send inquire msg to player 6666 
inquire/ 
5555 1578 8000 200 raise 
1111 1400 8000 100 call 
2222 1850 8000 0 fold 
4444 900 8000 100 call 
7777 1400 8000 100 call 
8888 6666 8000 100 call 
3333 1700 6078 100 call 
6666 1628 8000 100 call 
total pot: 800 
/inquire 
recv from player 6666: check
send inquire msg to player 3333 
inquire/ 
6666 1528 8000 200 call 
5555 1578 8000 200 raise 
1111 1400 8000 100 call 
2222 1850 8000 0 fold 
4444 900 8000 100 call 
7777 1400 8000 100 call 
8888 6666 8000 100 call 
3333 1700 6078 100 call 
total pot: 900 
/inquire 
recv from player 3333: check
send inquire msg to player 8888 
inquire/ 
3333 1600 6078 200 call 
6666 1528 8000 200 call 
5555 1578 8000 200 raise 
1111 1400 8000 100 call 
2222 1850 8000 0 fold 
4444 900 8000 100 call 
7777 1400 8000 100 call 
8888 6666 8000 100 call 
total pot: 1000 
/inquire 
recv from player 8888: check
send inquire msg to player 7777 
inquire/ 
8888 6566 8000 200 call 
3333 1600 6078 200 call 
6666 1528 8000 200 call 
5555 1578 8000 200 raise 
1111 1400 8000 100 call 
2222 1850 8000 0 fold 
4444 900 8000 100 call 
7777 1400 8000 100 call 
total pot: 1100 
/inquire 
recv from player 7777: fold
send inquire msg to player 4444 
inquire/ 
7777 1400 8000 100 fold 
8888 6566 8000 200 call 
3333 1600 6078 200 call 
6666 1528 8000 200 call 
5555 1578 8000 200 raise 
1111 1400 8000 100 call 
2222 1850 8000 0 fold 
4444 900 8000 100 call 
total pot: 1100 
/inquire 
recv from player 4444: check
send inquire msg to player 2222 
inquire/ 
4444 800 8000 200 call 
7777 1400 8000 100 fold 
8888 6566 8000 200 call 
3333 1600 6078 200 call 
6666 1528 8000 200 call 
5555 1578 8000 200 raise 
1111 1400 8000 100 call 
2222 1850 8000 0 fold 
total pot: 1200 
/inquire 
send inquire msg to player 1111 
inquire/ 
2222 1850 8000 0 fold 
4444 800 8000 200 call 
7777 1400 8000 100 fold 
8888 6566 8000 200 call 
3333 1600 6078 200 call 
6666 1528 8000 200 call 
5555 1578 8000 200 raise 
1111 1400 8000 100 call 
total pot: 1200 
/inquire 
recv from player 1111: fold
flop/ 
SPADES K 
DIAMONDS 8 
DIAMONDS 2 
/flop 

---flop round bet---
valid player: 8, all in player: 0, fold player: 3
send inquire msg to player 1111 
inquire/ 
2222 1850 8000 0 fold 
4444 800 8000 200 call 
7777 1400 8000 100 fold 
8888 6566 8000 200 call 
3333 1600 6078 200 call 
6666 1528 8000 200 call 
5555 1578 8000 200 raise 
1111 1400 8000 100 fold 
total pot: 1200 
/inquire 
send inquire msg to player 5555 
inquire/ 
1111 1400 8000 100 fold 
2222 1850 8000 0 fold 
4444 800 8000 200 call 
7777 1400 8000 100 fold 
8888 6566 8000 200 call 
3333 1600 6078 200 call 
6666 1528 8000 200 call 
5555 1578 8000 200 raise 
total pot: 1200 
/inquire 
recv from player 5555: check
send inquire msg to player 6666 
inquire/ 
5555 1578 8000 200 check 
1111 1400 8000 100 fold 
2222 1850 8000 0 fold 
4444 800 8000 200 call 
7777 1400 8000 100 fold 
8888 6566 8000 200 call 
3333 1600 6078 200 call 
6666 1528 8000 200 call 
total pot: 1200 
/inquire 
recv from player 6666: check
send inquire msg to player 3333 
inquire/ 
6666 1528 8000 200 check 
5555 1578 8000 200 check 
1111 1400 8000 100 fold 
2222 1850 8000 0 fold 
4444 800 8000 200 call 
7777 1400 8000 100 fold 
8888 6566 8000 200 call 
3333 1600 6078 200 call 
total pot: 1200 
/inquire 
recv from player 3333: check
send inquire msg to player 8888 
inquire/ 
3333 1600 6078 200 check 
6666 1528 8000 200 check 
5555 1578 8000 200 check 
1111 1400 8000 100 fold 
2222 1850 8000 0 fold 
4444 800 8000 200 call 
7777 1400 8000 100 fold 
8888 6566 8000 200 call 
total pot: 1200 
/inquire 
recv from player 8888: check
send inquire msg to player 7777 
inquire/ 
8888 6566 8000 200 check 
3333 1600 6078 200 check 
6666 1528 8000 200 check 
5555 1578 8000 200 check 
1111 1400 8000 100 fold 
2222 1850 8000 0 fold 
4444 800 8000 200 call 
7777 1400 8000 100 fold 
total pot: 1200 
/inquire 
send inquire msg to player 4444 
inquire/ 
7777 1400 8000 100 fold 
8888 6566 8000 200 check 
3333 1600 6078 200 check 
6666 1528 8000 200 check 
5555 1578 8000 200 check 
1111 1400 8000 100 fold 
2222 1850 8000 0 fold 
4444 800 8000 200 call 
total pot: 1200 
/inquire 
recv from player 4444: check
turn/ 
SPADES A 
/turn 

---turn round bet---
valid player: 8, all in player: 0, fold player: 3
send inquire msg to player 1111 
inquire/ 
2222 1850 8000 0 fold 
4444 800 8000 200 check 
7777 1400 8000 100 fold 
8888 6566 8000 200 check 
3333 1600 6078 200 check 
6666 1528 8000 200 check 
5555 1578 8000 200 check 
1111 1400 8000 100 fold 
total pot: 1200 
/inquire 
send inquire msg to player 5555 
inquire/ 
1111 1400 8000 100 fold 
2222 1850 8000 0 fold 
4444 800 8000 200 check 
7777 1400 8000 100 fold 
8888 6566 8000 200 check 
3333 1600 6078 200 check 
6666 1528 8000 200 check 
5555 1578 8000 200 check 
total pot: 1200 
/inquire 
recv from player 5555: check
send inquire msg to player 6666 
inquire/ 
5555 1578 8000 200 check 
1111 1400 8000 100 fold 
2222 1850 8000 0 fold 
4444 800 8000 200 check 
7777 1400 8000 100 fold 
8888 6566 8000 200 check 
3333 1600 6078 200 check 
6666 1528 8000 200 check 
total pot: 1200 
/inquire 
recv from player 6666: raise 18
send inquire msg to player 3333 
inquire/ 
6666 1428 8000 300 raise 
5555 1578 8000 200 check 
1111 1400 8000 100 fold 
2222 1850 8000 0 fold 
4444 800 8000 200 check 
7777 1400 8000 100 fold 
8888 6566 8000 200 check 
3333 1600 6078 200 check 
total pot: 1300 
/inquire 
recv from player 3333: check
send inquire msg to player 8888 
inquire/ 
3333 1500 6078 300 call 
6666 1428 8000 300 raise 
5555 1578 8000 200 check 
1111 1400 8000 100 fold 
2222 1850 8000 0 fold 
4444 800 8000 200 check 
7777 1400 8000 100 fold 
8888 6566 8000 200 check 
total pot: 1400 
/inquire 
recv from player 8888: check
send inquire msg to player 7777 
inquire/ 
8888 6466 8000 300 call 
3333 1500 6078 300 call 
6666 1428 8000 300 raise 
5555 1578 8000 200 check 
1111 1400 8000 100 fold 
2222 1850 8000 0 fold 
4444 800 8000 200 check 
7777 1400 8000 100 fold 
total pot: 1500 
/inquire 
send inquire msg to player 4444 
inquire/ 
7777 1400 8000 100 fold 
8888 6466 8000 300 call 
3333 1500 6078 300 call 
6666 1428 8000 300 raise 
5555 1578 8000 200 check 
1111 1400 8000 100 fold 
2222 1850 8000 0 fold 
4444 800 8000 200 check 
total pot: 1500 
/inquire 
recv from player 4444: check
send inquire msg to player 2222 
inquire/ 
4444 700 8000 300 call 
7777 1400 8000 100 fold 
8888 6466 8000 300 call 
3333 1500 6078 300 call 
6666 1428 8000 300 raise 
5555 1578 8000 200 check 
1111 1400 8000 100 fold 
2222 1850 8000 0 fold 
total pot: 1600 
/inquire 
send inquire msg to player 1111 
inquire/ 
2222 1850 8000 0 fold 
4444 700 8000 300 call 
7777 1400 8000 100 fold 
8888 6466 8000 300 call 
3333 1500 6078 300 call 
6666 1428 8000 300 raise 
5555 1578 8000 200 check 
1111 1400 8000 100 fold 
total pot: 1600 
/inquire 
send inquire msg to player 5555 
inquire/ 
1111 1400 8000 100 fold 
2222 1850 8000 0 fold 
4444 700 8000 300 call 
7777 1400 8000 100 fold 
8888 6466 8000 300 call 
3333 1500 6078 300 call 
6666 1428 8000 300 raise 
5555 1578 8000 200 check 
total pot: 1600 
/inquire 
recv from player 5555: check
river/ 
DIAMONDS A 
/river 

---river round bet---
valid player: 8, all in player: 0, fold player: 3
send inquire msg to player 1111 
inquire/ 
2222 1850 8000 0 fold 
4444 700 8000 300 call 
7777 1400 8000 100 fold 
8888 6466 8000 300 call 
3333 1500 6078 300 call 
6666 1428 8000 300 raise 
5555 1478 8000 300 call 
1111 1400 8000 100 fold 
total pot: 1700 
/inquire 
send inquire msg to player 5555 
inquire/ 
1111 1400 8000 100 fold 
2222 1850 8000 0 fold 
4444 700 8000 300 call 
7777 1400 8000 100 fold 
8888 6466 8000 300 call 
3333 1500 6078 300 call 
6666 1428 8000 300 raise 
5555 1478 8000 300 call 
total pot: 1700 
/inquire 
recv from player 5555: raise 0
send inquire msg to player 6666 
inquire/ 
5555 1378 8000 400 raise 
1111 1400 8000 100 fold 
2222 1850 8000 0 fold 
4444 700 8000 300 call 
7777 1400 8000 100 fold 
8888 6466 8000 300 call 
3333 1500 6078 300 call 
6666 1428 8000 300 raise 
total pot: 1800 
/inquire 
recv from player 6666: check
send inquire msg to player 3333 
inquire/ 
6666 1328 8000 400 call 
5555 1378 8000 400 raise 
1111 1400 8000 100 fold 
2222 1850 8000 0 fold 
4444 700 8000 300 call 
7777 1400 8000 100 fold 
8888 6466 8000 300 call 
3333 1500 6078 300 call 
total pot: 1900 
/inquire 
recv from player 3333: check
send inquire msg to player 8888 
inquire/ 
3333 1400 6078 400 call 
6666 1328 8000 400 call 
5555 1378 8000 400 raise 
1111 1400 8000 100 fold 
2222 1850 8000 0 fold 
4444 700 8000 300 call 
7777 1400 8000 100 fold 
8888 6466 8000 300 call 
total pot: 2000 
/inquire 
recv from player 8888: check
send inquire msg to player 7777 
inquire/ 
8888 6366 8000 400 call 
3333 1400 6078 400 call 
6666 1328 8000 400 call 
5555 1378 8000 400 raise 
1111 1400 8000 100 fold 
2222 1850 8000 0 fold 
4444 700 8000 300 call 
7777 1400 8000 100 fold 
total pot: 2100 
/inquire 
send inquire msg to player 4444 
inquire/ 
7777 1400 8000 100 fold 
8888 6366 8000 400 call 
3333 1400 6078 400 call 
6666 1328 8000 400 call 
5555 1378 8000 400 raise 
1111 1400 8000 100 fold 
2222 1850 8000 0 fold 
4444 700 8000 300 call 
total pot: 2100 
/inquire 
recv from player 4444: check

---show down---
showdown/ 
common/ 
SPADES K 
DIAMONDS 8 
DIAMONDS 2 
SPADES A 
DIAMONDS A 
/common 
1: 5555 DIAMONDS 10 DIAMONDS Q FLUSH 
4: 6666 DIAMONDS J CLUBS K TWO_PAIR 
3: 3333 HEARTS K SPADES Q TWO_PAIR 
5: 8888 CLUBS 8 DIAMONDS 9 TWO_PAIR 
2: 4444 CLUBS 4 CLUBS A THREE_OF_A_KIND 
/showdown 

---Allocate pot---
pot-win/ 
5555: 2200 
/pot-win 
it is player 1111's turn to be button

-----7 Hand-----

----- clean player data in socket -----
seat/ 
button: 1111 1400 8000 
small blind: 5555 3578 8000 
big blind: 6666 1328 8000 
3333 1400 6078 
8888 6366 8000 
7777 1400 8000 
4444 600 8000 
2222 1850 8000 
/seat 
blind/ 
5555: 50 
6666: 100 
/blind 
player 5555:hold/ 
HEARTS 6 
SPADES 9 
/hold 
player 6666:hold/ 
CLUBS Q 
DIAMONDS Q 
/hold 
player 3333:hold/ 
HEARTS A 
HEARTS 5 
/hold 
player 8888:hold/ 
SPADES 4 
DIAMONDS 9 
/hold 
player 7777:hold/ 
SPADES 7 
DIAMONDS 5 
/hold 
player 4444:hold/ 
DIAMONDS A 
DIAMONDS 2 
/hold 
player 2222:hold/ 
CLUBS 4 
SPADES A 
/hold 
player 1111:hold/ 
HEARTS 2 
HEARTS 4 
/hold 

---pre flop round bet---
valid player: 8, all in player: 0, fold player: 0
send inquire msg to player 3333 
inquire/ 
6666 1228 8000 100 blind 
5555 3528 8000 50 blind 
total pot: 150 
/inquire 
recv from player 3333: check
send inquire msg to player 8888 
inquire/ 
3333 1300 6078 100 call 
6666 1228 8000 100 blind 
5555 3528 8000 50 blind 
total pot: 250 
/inquire 
recv from player 8888: check
send inquire msg to player 7777 
inquire/ 
8888 6266 8000 100 call 
3333 1300 6078 100 call 
6666 1228 8000 100 blind 
5555 3528 8000 50 blind 
total pot: 350 
/inquire 
recv from player 7777: check
send inquire msg to player 4444 
inquire/ 
7777 1300 8000 100 call 
8888 6266 8000 100 call 
3333 1300 6078 100 call 
6666 1228 8000 100 blind 
5555 3528 8000 50 blind 
total pot: 450 
/inquire 
recv from player 4444: check
send inquire msg to player 2222 
inquire/ 
4444 500 8000 100 call 
7777 1300 8000 100 call 
8888 6266 8000 100 call 
3333 1300 6078 100 call 
6666 1228 8000 100 blind 
5555 3528 8000 50 blind 
total pot: 550 
/inquire 
recv from player 2222: check
send inquire msg to player 1111 
inquire/ 
2222 1750 8000 100 call 
4444 500 8000 100 call 
7777 1300 8000 100 call 
8888 6266 8000 100 call 
3333 1300 6078 100 call 
6666 1228 8000 100 blind 
5555 3528 8000 50 blind 
total pot: 650 
/inquire 
recv from player 1111: fold
send inquire msg to player 5555 
inquire/ 
1111 1400 8000 0 fold 
2222 1750 8000 100 call 
4444 500 8000 100 call 
7777 1300 8000 100 call 
8888 6266 8000 100 call 
3333 1300 6078 100 call 
6666 1228 8000 100 blind 
5555 3528 8000 50 blind 
total pot: 650 
/inquire 
recv from player 5555: raise 0
send inquire msg to player 6666 
inquire/ 
5555 3378 8000 200 raise 
1111 1400 8000 0 fold 
2222 1750 8000 100 call 
4444 500 8000 100 call 
7777 1300 8000 100 call 
8888 6266 8000 100 call 
3333 1300 6078 100 call 
6666 1228 8000 100 blind 
total pot: 800 
/inquire 
recv from player 6666: raise 141
send inquire msg to player 3333 
inquire/ 
6666 987 8000 341 raise 
5555 3378 8000 200 raise 
1111 1400 8000 0 fold 
2222 1750 8000 100 call 
4444 500 8000 100 call 
7777 1300 8000 100 call 
8888 6266 8000 100 call 
3333 1300 6078 100 call 
total pot: 1041 
/inquire 
recv from player 3333: check
send inquire msg to player 8888 
inquire/ 
3333 1059 6078 341 call 
6666 987 8000 341 raise 
5555 3378 8000 200 raise 
1111 1400 8000 0 fold 
2222 1750 8000 100 call 
4444 500 8000 100 call 
7777 1300 8000 100 call 
8888 6266 8000 100 call 
total pot: 1282 
/inquire 
recv from player 8888: check
send inquire msg to player 7777 
inquire/ 
8888 6025 8000 341 call 
3333 1059 6078 341 call 
6666 987 8000 341 raise 
5555 3378 8000 200 raise 
1111 1400 8000 0 fold 
2222 1750 8000 100 call 
4444 500 8000 100 call 
7777 1300 8000 100 call 
total pot: 1523 
/inquire 
recv from player 7777: fold
send inquire msg to player 4444 
inquire/ 
7777 1300 8000 100 fold 
8888 6025 8000 341 call 
3333 1059 6078 341 call 
6666 987 8000 341 raise 
5555 3378 8000 200 raise 
1111 1400 8000 0 fold 
2222 1750 8000 100 call 
4444 500 8000 100 call 
total pot: 1523 
/inquire 
recv from player 4444: fold
send inquire msg to player 2222 
inquire/ 
4444 500 8000 100 fold 
7777 1300 8000 100 fold 
8888 6025 8000 341 call 
3333 1059 6078 341 call 
6666 987 8000 341 raise 
5555 3378 8000 200 raise 
1111 1400 8000 0 fold 
2222 1750 8000 100 call 
total pot: 1523 
/inquire 
recv from player 2222: check
send inquire msg to player 1111 
inquire/ 
2222 1509 8000 341 call 
4444 500 8000 100 fold 
7777 1300 8000 100 fold 
8888 6025 8000 341 call 
3333 1059 6078 341 call 
6666 987 8000 341 raise 
5555 3378 8000 200 raise 
1111 1400 8000 0 fold 
total pot: 1764 
/inquire 
send inquire msg to player 5555 
inquire/ 
1111 1400 8000 0 fold 
2222 1509 8000 341 call 
4444 500 8000 100 fold 
7777 1300 8000 100 fold 
8888 6025 8000 341 call 
3333 1059 6078 341 call 
6666 987 8000 341 raise 
5555 3378 8000 200 raise 
total pot: 1764 
/inquire 
recv from player 5555: check
flop/ 
HEARTS 3 
CLUBS J 
CLUBS 3 
/flop 

---flop round bet---
valid player: 8, all in player: 0, fold player: 3
send inquire msg to player 5555 
inquire/ 
1111 1400 8000 0 fold 
2222 1509 8000 341 call 
4444 500 8000 100 fold 
7777 1300 8000 100 fold 
8888 6025 8000 341 call 
3333 1059 6078 341 call 
6666 987 8000 341 raise 
5555 3237 8000 341 call 
total pot: 1905 
/inquire 
recv from player 5555: raise 0
send inquire msg to player 6666 
inquire/ 
5555 3137 8000 441 raise 
1111 1400 8000 0 fold 
2222 1509 8000 341 call 
4444 500 8000 100 fold 
7777 1300 8000 100 fold 
8888 6025 8000 341 call 
3333 1059 6078 341 call 
6666 987 8000 341 raise 
total pot: 2005 
/inquire 
recv from player 6666: check
send inquire msg to player 3333 
inquire/ 
6666 887 8000 441 call 
5555 3137 8000 441 raise 
1111 1400 8000 0 fold 
2222 1509 8000 341 call 
4444 500 8000 100 fold 
7777 1300 8000 100 fold 
8888 6025 8000 341 call 
3333 1059 6078 341 call 
total pot: 2105 
/inquire 
recv from player 3333: check
send inquire msg to player 8888 
inquire/ 
3333 959 6078 441 call 
6666 887 8000 441 call 
5555 3137 8000 441 raise 
1111 1400 8000 0 fold 
2222 1509 8000 341 call 
4444 500 8000 100 fold 
7777 1300 8000 100 fold 
8888 6025 8000 341 call 
total pot: 2205 
/inquire 
recv from player 8888: check
send inquire msg to player 7777 
inquire/ 
8888 5925 8000 441 call 
3333 959 6078 441 call 
6666 887 8000 441 call 
5555 3137 8000 441 raise 
1111 1400 8000 0 fold 
2222 1509 8000 341 call 
4444 500 8000 100 fold 
7777 1300 8000 100 fold 
total pot: 2305 
/inquire 
send inquire msg to player 4444 
inquire/ 
7777 1300 8000 100 fold 
8888 5925 8000 441 call 
3333 959 6078 441 call 
6666 887 8000 441 call 
5555 3137 8000 441 raise 
1111 1400 8000 0 fold 
2222 1509 8000 341 call 
4444 500 8000 100 fold 
total pot: 2305 
/inquire 
send inquire msg to player 2222 
inquire/ 
4444 500 8000 100 fold 
7777 1300 8000 100 fold 
8888 5925 8000 441 call 
3333 959 6078 441 call 
6666 887 8000 441 call 
5555 3137 8000 441 raise 
1111 1400 8000 0 fold 
2222 1509 8000 341 call 
total pot: 2305 
/inquire 
recv from player 2222: fold
turn/ 
HEARTS 8 
/turn 

---turn round bet---
valid player: 8, all in player: 0, fold player: 4
send inquire msg to player 5555 
inquire/ 
1111 1400 8000 0 fold 
2222 1509 8000 341 fold 
4444 500 8000 100 fold 
7777 1300 8000 100 fold 
8888 5925 8000 441 call 
3333 959 6078 441 call 
6666 887 8000 441 call 
5555 3137 8000 441 raise 
total pot: 2305 
/inquire 
recv from player 5555: check
send inquire msg to player 6666 
inquire/ 
5555 3137 8000 441 check 
1111 1400 8000 0 fold 
2222 1509 8000 341 fold 
4444 500 8000 100 fold 
7777 1300 8000 100 fold 
8888 5925 8000 441 call 
3333 959 6078 441 call 
6666 887 8000 441 call 
total pot: 2305 
/inquire 
recv from player 6666: check
send inquire msg to player 3333 
inquire/ 
6666 887 8000 441 check 
5555 3137 8000 441 check 
1111 1400 8000 0 fold 
2222 1509 8000 341 fold 
4444 500 8000 100 fold 
7777 1300 8000 100 fold 
8888 5925 8000 441 call 
3333 959 6078 441 call 
total pot: 2305 
/inquire 
recv from player 3333: check
send inquire msg to player 8888 
inquire/ 
3333 959 6078 441 check 
6666 887 8000 441 check 
5555 3137 8000 441 check 
1111 1400 8000 0 fold 
2222 1509 8000 341 fold 
4444 500 8000 100 fold 
7777 1300 8000 100 fold 
8888 5925 8000 441 call 
total pot: 2305 
/inquire 
recv from player 8888: check
river/ 
DIAMONDS K 
/river 

---river round bet---
valid player: 8, all in player: 0, fold player: 4
send inquire msg to player 5555 
inquire/ 
1111 1400 8000 0 fold 
2222 1509 8000 341 fold 
4444 500 8000 100 fold 
7777 1300 8000 100 fold 
8888 5925 8000 441 check 
3333 959 6078 441 check 
6666 887 8000 441 check 
5555 3137 8000 441 check 
total pot: 2305 
/inquire 
recv from player 5555: check
send inquire msg to player 6666 
inquire/ 
5555 3137 8000 441 check 
1111 1400 8000 0 fold 
2222 1509 8000 341 fold 
4444 500 8000 100 fold 
7777 1300 8000 100 fold 
8888 5925 8000 441 check 
3333 959 6078 441 check 
6666 887 8000 441 check 
total pot: 2305 
/inquire 
recv from player 6666: check
send inquire msg to player 3333 
inquire/ 
6666 887 8000 441 check 
5555 3137 8000 441 check 
1111 1400 8000 0 fold 
2222 1509 8000 341 fold 
4444 500 8000 100 fold 
7777 1300 8000 100 fold 
8888 5925 8000 441 check 
3333 959 6078 441 check 
total pot: 2305 
/inquire 
recv from player 3333: check
send inquire msg to player 8888 
inquire/ 
3333 959 6078 441 check 
6666 887 8000 441 check 
5555 3137 8000 441 check 
1111 1400 8000 0 fold 
2222 1509 8000 341 fold 
4444 500 8000 100 fold 
7777 1300 8000 100 fold 
8888 5925 8000 441 check 
total pot: 2305 
/inquire 
recv from player 8888: check

---show down---
showdown/ 
common/ 
HEARTS 3 
CLUBS J 
CLUBS 3 
HEARTS 8 
DIAMONDS K 
/common 
3: 5555 HEARTS 6 SPADES 9 ONE_PAIR 
1: 6666 CLUBS Q DIAMONDS Q TWO_PAIR 
2: 3333 HEARTS A HEARTS 5 ONE_PAIR 
3: 8888 SPADES 4 DIAMONDS 9 ONE_PAIR 
/showdown 

---Allocate pot---
pot-win/ 
6666: 2305 
/pot-win 
it is player 5555's turn to be button

-----8 Hand-----

----- clean player data in socket -----
seat/ 
button: 5555 3137 8000 
small blind: 6666 3192 8000 
big blind: 3333 959 6078 
8888 5925 8000 
7777 1300 8000 
4444 500 8000 
2222 1509 8000 
1111 1400 8000 
/seat 
blind/ 
6666: 50 
3333: 100 
/blind 
player 6666:hold/ 
DIAMONDS 3 
SPADES 6 
/hold 
player 3333:hold/ 
HEARTS Q 
CLUBS 10 
/hold 
player 8888:hold/ 
CLUBS 6 
CLUBS 3 
/hold 
player 7777:hold/ 
HEARTS A 
SPADES 3 
/hold 
player 4444:hold/ 
DIAMONDS 4 
CLUBS 5 
/hold 
player 2222:hold/ 
CLUBS J 
HEARTS 7 
/hold 
player 1111:hold/ 
CLUBS A 
DIAMONDS 7 
/hold 
player 5555:hold/ 
HEARTS J 
CLUBS 4 
/hold 

---pre flop round bet---
valid player: 8, all in player: 0, fold player: 0
send inquire msg to player 8888 
inquire/ 
3333 859 6078 100 blind 
6666 3142 8000 50 blind 
total pot: 150 
/inquire 
recv from player 8888: check
send inquire msg to player 7777 
inquire/ 
8888 5825 8000 100 call 
3333 859 6078 100 blind 
6666 3142 8000 50 blind 
total pot: 250 
/inquire 
recv from player 7777: check
send inquire msg to player 4444 
inquire/ 
7777 1200 8000 100 call 
8888 5825 8000 100 call 
3333 859 6078 100 blind 
6666 3142 8000 50 blind 
total pot: 350 
/inquire 
recv from player 4444: fold
send inquire msg to player 2222 
inquire/ 
4444 500 8000 0 fold 
7777 1200 8000 100 call 
8888 5825 8000 100 call 
3333 859 6078 100 blind 
6666 3142 8000 50 blind 
total pot: 350 
/inquire 
recv from player 2222: fold
send inquire msg to player 1111 
inquire/ 
2222 1509 8000 0 fold 
4444 500 8000 0 fold 
7777 1200 8000 100 call 
8888 5825 8000 100 call 
3333 859 6078 100 blind 
6666 3142 8000 50 blind 
total pot: 350 
/inquire 
recv from player 1111: check
send inquire msg to player 5555 
inquire/ 
1111 1300 8000 100 call 
2222 1509 8000 0 fold 
4444 500 8000 0 fold 
7777 1200 8000 100 call 
8888 5825 8000 100 call 
3333 859 6078 100 blind 
6666 3142 8000 50 blind 
total pot: 450 
/inquire 
recv from player 5555: raise 0
send inquire msg to player 6666 
inquire/ 
5555 2937 8000 200 raise 
1111 1300 8000 100 call 
2222 1509 8000 0 fold 
4444 500 8000 0 fold 
7777 1200 8000 100 call 
8888 5825 8000 100 call 
3333 859 6078 100 blind 
6666 3142 8000 50 blind 
total pot: 650 
/inquire 
recv from player 6666: check
send inquire msg to player 3333 
inquire/ 
6666 2992 8000 200 call 
5555 2937 8000 200 raise 
1111 1300 8000 100 call 
2222 1509 8000 0 fold 
4444 500 8000 0 fold 
7777 1200 8000 100 call 
8888 5825 8000 100 call 
3333 859 6078 100 blind 
total pot: 800 
/inquire 
recv from player 3333: check
send inquire msg to player 8888 
inquire/ 
3333 759 6078 200 call 
6666 2992 8000 200 call 
5555 2937 8000 200 raise 
1111 1300 8000 100 call 
2222 1509 8000 0 fold 
4444 500 8000 0 fold 
7777 1200 8000 100 call 
8888 5825 8000 100 call 
total pot: 900 
/inquire 
recv from player 8888: check
send inquire msg to player 7777 
inquire/ 
8888 5725 8000 200 call 
3333 759 6078 200 call 
6666 2992 8000 200 call 
5555 2937 8000 200 raise 
1111 1300 8000 100 call 
2222 1509 8000 0 fold 
4444 500 8000 0 fold 
7777 1200 8000 100 call 
total pot: 1000 
/inquire 
recv from player 7777: check
send inquire msg to player 4444 
inquire/ 
7777 1100 8000 200 call 
8888 5725 8000 200 call 
3333 759 6078 200 call 
6666 2992 8000 200 call 
5555 2937 8000 200 raise 
1111 1300 8000 100 call 
2222 1509 8000 0 fold 
4444 500 8000 0 fold 
total pot: 1100 
/inquire 
send inquire msg to player 2222 
inquire/ 
4444 500 8000 0 fold 
7777 1100 8000 200 call 
8888 5725 8000 200 call 
3333 759 6078 200 call 
6666 2992 8000 200 call 
5555 2937 8000 200 raise 
1111 1300 8000 100 call 
2222 1509 8000 0 fold 
total pot: 1100 
/inquire 
send inquire msg to player 1111 
inquire/ 
2222 1509 8000 0 fold 
4444 500 8000 0 fold 
7777 1100 8000 200 call 
8888 5725 8000 200 call 
3333 759 6078 200 call 
6666 2992 8000 200 call 
5555 2937 8000 200 raise 
1111 1300 8000 100 call 
total pot: 1100 
/inquire 
recv from player 1111: fold
flop/ 
CLUBS Q 
HEARTS 5 
SPADES Q 
/flop 

---flop round bet---
valid player: 8, all in player: 0, fold player: 3
send inquire msg to player 6666 
inquire/ 
5555 2937 8000 200 raise 
1111 1300 8000 100 fold 
2222 1509 8000 0 fold 
4444 500 8000 0 fold 
7777 1100 8000 200 call 
8888 5725 8000 200 call 
3333 759 6078 200 call 
6666 2992 8000 200 call 
total pot: 1100 
/inquire 
recv from player 6666: check
send inquire msg to player 3333 
inquire/ 
6666 2992 8000 200 check 
5555 2937 8000 200 raise 
1111 1300 8000 100 fold 
2222 1509 8000 0 fold 
4444 500 8000 0 fold 
7777 1100 8000 200 call 
8888 5725 8000 200 call 
3333 759 6078 200 call 
total pot: 1100 
/inquire 
recv from player 3333: check
send inquire msg to player 8888 
inquire/ 
3333 759 6078 200 check 
6666 2992 8000 200 check 
5555 2937 8000 200 raise 
1111 1300 8000 100 fold 
2222 1509 8000 0 fold 
4444 500 8000 0 fold 
7777 1100 8000 200 call 
8888 5725 8000 200 call 
total pot: 1100 
/inquire 
recv from player 8888: check
send inquire msg to player 7777 
inquire/ 
8888 5725 8000 200 check 
3333 759 6078 200 check 
6666 2992 8000 200 check 
5555 2937 8000 200 raise 
1111 1300 8000 100 fold 
2222 1509 8000 0 fold 
4444 500 8000 0 fold 
7777 1100 8000 200 call 
total pot: 1100 
/inquire 
recv from player 7777: check
send inquire msg to player 4444 
inquire/ 
7777 1100 8000 200 check 
8888 5725 8000 200 check 
3333 759 6078 200 check 
6666 2992 8000 200 check 
5555 2937 8000 200 raise 
1111 1300 8000 100 fold 
2222 1509 8000 0 fold 
4444 500 8000 0 fold 
total pot: 1100 
/inquire 
send inquire msg to player 2222 
inquire/ 
4444 500 8000 0 fold 
7777 1100 8000 200 check 
8888 5725 8000 200 check 
3333 759 6078 200 check 
6666 2992 8000 200 check 
5555 2937 8000 200 raise 
1111 1300 8000 100 fold 
2222 1509 8000 0 fold 
total pot: 1100 
/inquire 
send inquire msg to player 1111 
inquire/ 
2222 1509 8000 0 fold 
4444 500 8000 0 fold 
7777 1100 8000 200 check 
8888 5725 8000 200 check 
3333 759 6078 200 check 
6666 2992 8000 200 check 
5555 2937 8000 200 raise 
1111 1300 8000 100 fold 
total pot: 1100 
/inquire 
send inquire msg to player 5555 
inquire/ 
1111 1300 8000 100 fold 
2222 1509 8000 0 fold 
4444 500 8000 0 fold 
7777 1100 8000 200 check 
8888 5725 8000 200 check 
3333 759 6078 200 check 
6666 2992 8000 200 check 
5555 2937 8000 200 raise 
total pot: 1100 
/inquire 
recv from player 5555: check
turn/ 
DIAMONDS 6 
/turn 

---turn round bet---
valid player: 8, all in player: 0, fold player: 3
send inquire msg to player 6666 
inquire/ 
5555 2937 8000 200 check 
1111 1300 8000 100 fold 
2222 1509 8000 0 fold 
4444 500 8000 0 fold 
7777 1100 8000 200 check 
8888 5725 8000 200 check 
3333 759 6078 200 check 
6666 2992 8000 200 check 
total pot: 1100 
/inquire 
recv from player 6666: check
send inquire msg to player 3333 
inquire/ 
6666 2992 8000 200 check 
5555 2937 8000 200 check 
1111 1300 8000 100 fold 
2222 1509 8000 0 fold 
4444 500 8000 0 fold 
7777 1100 8000 200 check 
8888 5725 8000 200 check 
3333 759 6078 200 check 
total pot: 1100 
/inquire 
recv from player 3333: check
send inquire msg to player 8888 
inquire/ 
3333 759 6078 200 check 
6666 2992 8000 200 check 
5555 2937 8000 200 check 
1111 1300 8000 100 fold 
2222 1509 8000 0 fold 
4444 500 8000 0 fold 
7777 1100 8000 200 check 
8888 5725 8000 200 check 
total pot: 1100 
/inquire 
recv from player 8888: check
send inquire msg to player 7777 
inquire/ 
8888 5725 8000 200 check 
3333 759 6078 200 check 
6666 2992 8000 200 check 
5555 2937 8000 200 check 
1111 1300 8000 100 fold 
2222 1509 8000 0 fold 
4444 500 8000 0 fold 
7777 1100 8000 200 check 
total pot: 1100 
/inquire 
recv from player 7777: check
send inquire msg to player 4444 
inquire/ 
7777 1100 8000 200 check 
8888 5725 8000 200 check 
3333 759 6078 200 check 
6666 2992 8000 200 check 
5555 2937 8000 200 check 
1111 1300 8000 100 fold 
2222 1509 8000 0 fold 
4444 500 8000 0 fold 
total pot: 1100 
/inquire 
send inquire msg to player 2222 
inquire/ 
4444 500 8000 0 fold 
7777 1100 8000 200 check 
8888 5725 8000 200 check 
3333 759 6078 200 check 
6666 2992 8000 200 check 
5555 2937 8000 200 check 
1111 1300 8000 100 fold 
2222 1509 8000 0 fold 
total pot: 1100 
/inquire 
send inquire msg to player 1111 
inquire/ 
2222 1509 8000 0 fold 
4444 500 8000 0 fold 
7777 1100 8000 200 check 
8888 5725 8000 200 check 
3333 759 6078 200 check 
6666 2992 8000 200 check 
5555 2937 8000 200 check 
1111 1300 8000 100 fold 
total pot: 1100 
/inquire 
send inquire msg to player 5555 
inquire/ 
1111 1300 8000 100 fold 
2222 1509 8000 0 fold 
4444 500 8000 0 fold 
7777 1100 8000 200 check 
8888 5725 8000 200 check 
3333 759 6078 200 check 
6666 2992 8000 200 check 
5555 2937 8000 200 check 
total pot: 1100 
/inquire 
recv from player 5555: check
river/ 
SPADES J 
/river 

---river round bet---
valid player: 8, all in player: 0, fold player: 3
send inquire msg to player 6666 
inquire/ 
5555 2937 8000 200 check 
1111 1300 8000 100 fold 
2222 1509 8000 0 fold 
4444 500 8000 0 fold 
7777 1100 8000 200 check 
8888 5725 8000 200 check 
3333 759 6078 200 check 
6666 2992 8000 200 check 
total pot: 1100 
/inquire 
recv from player 6666: check
send inquire msg to player 3333 
inquire/ 
6666 2992 8000 200 check 
5555 2937 8000 200 check 
1111 1300 8000 100 fold 
2222 1509 8000 0 fold 
4444 500 8000 0 fold 
7777 1100 8000 200 check 
8888 5725 8000 200 check 
3333 759 6078 200 check 
total pot: 1100 
/inquire 
recv from player 3333: check
send inquire msg to player 8888 
inquire/ 
3333 759 6078 200 check 
6666 2992 8000 200 check 
5555 2937 8000 200 check 
1111 1300 8000 100 fold 
2222 1509 8000 0 fold 
4444 500 8000 0 fold 
7777 1100 8000 200 check 
8888 5725 8000 200 check 
total pot: 1100 
/inquire 
recv from player 8888: check
send inquire msg to player 7777 
inquire/ 
8888 5725 8000 200 check 
3333 759 6078 200 check 
6666 2992 8000 200 check 
5555 2937 8000 200 check 
1111 1300 8000 100 fold 
2222 1509 8000 0 fold 
4444 500 8000 0 fold 
7777 1100 8000 200 check 
total pot: 1100 
/inquire 
recv from player 7777: check
send inquire msg to player 4444 
inquire/ 
7777 1100 8000 200 check 
8888 5725 8000 200 check 
3333 759 6078 200 check 
6666 2992 8000 200 check 
5555 2937 8000 200 check 
1111 1300 8000 100 fold 
2222 1509 8000 0 fold 
4444 500 8000 0 fold 
total pot: 1100 
/inquire 
send inquire msg to player 2222 
inquire/ 
4444 500 8000 0 fold 
7777 1100 8000 200 check 
8888 5725 8000 200 check 
3333 759 6078 200 check 
6666 2992 8000 200 check 
5555 2937 8000 200 check 
1111 1300 8000 100 fold 
2222 1509 8000 0 fold 
total pot: 1100 
/inquire 
send inquire msg to player 1111 
inquire/ 
2222 1509 8000 0 fold 
4444 500 8000 0 fold 
7777 1100 8000 200 check 
8888 5725 8000 200 check 
3333 759 6078 200 check 
6666 2992 8000 200 check 
5555 2937 8000 200 check 
1111 1300 8000 100 fold 
total pot: 1100 
/inquire 
send inquire msg to player 5555 
inquire/ 
1111 1300 8000 100 fold 
2222 1509 8000 0 fold 
4444 500 8000 0 fold 
7777 1100 8000 200 check 
8888 5725 8000 200 check 
3333 759 6078 200 check 
6666 2992 8000 200 check 
5555 2937 8000 200 check 
total pot: 1100 
/inquire 
recv from player 5555: check

---show down---
showdown/ 
common/ 
CLUBS Q 
HEARTS 5 
SPADES Q 
DIAMONDS 6 
SPADES J 
/common 
3: 6666 DIAMONDS 3 SPADES 6 TWO_PAIR 
1: 3333 HEARTS Q CLUBS 10 THREE_OF_A_KIND 
3: 8888 CLUBS 6 CLUBS 3 TWO_PAIR 
4: 7777 HEARTS A SPADES 3 ONE_PAIR 
2: 5555 HEARTS J CLUBS 4 TWO_PAIR 
/showdown 

---Allocate pot---
pot-win/ 
3333: 1100 
/pot-win 
it is player 6666's turn to be button

-----9 Hand-----

----- clean player data in socket -----
seat/ 
button: 6666 2992 8000 
small blind: 3333 1859 6078 
big blind: 8888 5725 8000 
7777 1100 8000 
4444 500 8000 
2222 1509 8000 
1111 1300 8000 
5555 2937 8000 
/seat 
blind/ 
3333: 50 
8888: 100 
/blind 
player 3333:hold/ 
CLUBS K 
HEARTS 9 
/hold 
player 8888:hold/ 
CLUBS J 
DIAMONDS 7 
/hold 
player 7777:hold/ 
CLUBS 3 
SPADES 2 
/hold 
player 4444:hold/ 
DIAMONDS 6 
CLUBS 10 
/hold 
player 2222:hold/ 
CLUBS 4 
CLUBS 6 
/hold 
player 1111:hold/ 
SPADES 10 
DIAMONDS 4 
/hold 
player 5555:hold/ 
CLUBS 8 
DIAMONDS A 
/hold 
player 6666:hold/ 
HEARTS 4 
SPADES A 
/hold 

---pre flop round bet---
valid player: 8, all in player: 0, fold player: 0
send inquire msg to player 7777 
inquire/ 
8888 5625 8000 100 blind 
3333 1809 6078 50 blind 
total pot: 150 
/inquire 
recv from player 7777: check
send inquire msg to player 4444 
inquire/ 
7777 1000 8000 100 call 
8888 5625 8000 100 blind 
3333 1809 6078 50 blind 
total pot: 250 
/inquire 
recv from player 4444: fold
send inquire msg to player 2222 
inquire/ 
4444 500 8000 0 fold 
7777 1000 8000 100 call 
8888 5625 8000 100 blind 
3333 1809 6078 50 blind 
total pot: 250 
/inquire 
recv from player 2222: fold
send inquire msg to player 1111 
inquire/ 
2222 1509 8000 0 fold 
4444 500 8000 0 fold 
7777 1000 8000 100 call 
8888 5625 8000 100 blind 
3333 1809 6078 50 blind 
total pot: 250 
/inquire 
recv from player 1111: check
send inquire msg to player 5555 
inquire/ 
1111 1200 8000 100 call 
2222 1509 8000 0 fold 
4444 500 8000 0 fold 
7777 1000 8000 100 call 
8888 5625 8000 100 blind 
3333 1809 6078 50 blind 
total pot: 350 
/inquire 
recv from player 5555: check
send inquire msg to player 6666 
inquire/ 
5555 2837 8000 100 call 
1111 1200 8000 100 call 
2222 1509 8000 0 fold 
4444 500 8000 0 fold 
7777 1000 8000 100 call 
8888 5625 8000 100 blind 
3333 1809 6078 50 blind 
total pot: 450 
/inquire 
recv from player 6666: raise 170
send inquire msg to player 3333 
inquire/ 
6666 2722 8000 270 raise 
5555 2837 8000 100 call 
1111 1200 8000 100 call 
2222 1509 8000 0 fold 
4444 500 8000 0 fold 
7777 1000 8000 100 call 
8888 5625 8000 100 blind 
3333 1809 6078 50 blind 
total pot: 720 
/inquire 
recv from player 3333: check
send inquire msg to player 8888 
inquire/ 
3333 1589 6078 270 call 
6666 2722 8000 270 raise 
5555 2837 8000 100 call 
1111 1200 8000 100 call 
2222 1509 8000 0 fold 
4444 500 8000 0 fold 
7777 1000 8000 100 call 
8888 5625 8000 100 blind 
total pot: 940 
/inquire 
recv from player 8888: check
send inquire msg to player 7777 
inquire/ 
8888 5455 8000 270 call 
3333 1589 6078 270 call 
6666 2722 8000 270 raise 
5555 2837 8000 100 call 
1111 1200 8000 100 call 
2222 1509 8000 0 fold 
4444 500 8000 0 fold 
7777 1000 8000 100 call 
total pot: 1110 
/inquire 
recv from player 7777: fold
send inquire msg to player 4444 
inquire/ 
7777 1000 8000 100 fold 
8888 5455 8000 270 call 
3333 1589 6078 270 call 
6666 2722 8000 270 raise 
5555 2837 8000 100 call 
1111 1200 8000 100 call 
2222 1509 8000 0 fold 
4444 500 8000 0 fold 
total pot: 1110 
/inquire 
send inquire msg to player 2222 
inquire/ 
4444 500 8000 0 fold 
7777 1000 8000 100 fold 
8888 5455 8000 270 call 
3333 1589 6078 270 call 
6666 2722 8000 270 raise 
5555 2837 8000 100 call 
1111 1200 8000 100 call 
2222 1509 8000 0 fold 
total pot: 1110 
/inquire 
send inquire msg to player 1111 
inquire/ 
2222 1509 8000 0 fold 
4444 500 8000 0 fold 
7777 1000 8000 100 fold 
8888 5455 8000 270 call 
3333 1589 6078 270 call 
6666 2722 8000 270 raise 
5555 2837 8000 100 call 
1111 1200 8000 100 call 
total pot: 1110 
/inquire 
recv from player 1111: fold
send inquire msg to player 5555 
inquire/ 
1111 1200 8000 100 fold 
2222 1509 8000 0 fold 
4444 500 8000 0 fold 
7777 1000 8000 100 fold 
8888 5455 8000 270 call 
3333 1589 6078 270 call 
6666 2722 8000 270 raise 
5555 2837 8000 100 call 
total pot: 1110 
/inquire 
recv from player 5555: check
flop/ 
CLUBS A 
HEARTS 10 
DIAMONDS 8 
/flop 

---flop round bet---
valid player: 8, all in player: 0, fold player: 4
send inquire msg to player 3333 
inquire/ 
6666 2722 8000 270 raise 
5555 2667 8000 270 call 
1111 1200 8000 100 fold 
2222 1509 8000 0 fold 
4444 500 8000 0 fold 
7777 1000 8000 100 fold 
8888 5455 8000 270 call 
3333 1589 6078 270 call 
total pot: 1280 
/inquire 
recv from player 3333: check
send inquire msg to player 8888 
inquire/ 
3333 1589 6078 270 check 
6666 2722 8000 270 raise 
5555 2667 8000 270 call 
1111 1200 8000 100 fold 
2222 1509 8000 0 fold 
4444 500 8000 0 fold 
7777 1000 8000 100 fold 
8888 5455 8000 270 call 
total pot: 1280 
/inquire 
recv from player 8888: check
send inquire msg to player 7777 
inquire/ 
8888 5455 8000 270 check 
3333 1589 6078 270 check 
6666 2722 8000 270 raise 
5555 2667 8000 270 call 
1111 1200 8000 100 fold 
2222 1509 8000 0 fold 
4444 500 8000 0 fold 
7777 1000 8000 100 fold 
total pot: 1280 
/inquire 
send inquire msg to player 4444 
inquire/ 
7777 1000 8000 100 fold 
8888 5455 8000 270 check 
3333 1589 6078 270 check 
6666 2722 8000 270 raise 
5555 2667 8000 270 call 
1111 1200 8000 100 fold 
2222 1509 8000 0 fold 
4444 500 8000 0 fold 
total pot: 1280 
/inquire 
send inquire msg to player 2222 
inquire/ 
4444 500 8000 0 fold 
7777 1000 8000 100 fold 
8888 5455 8000 270 check 
3333 1589 6078 270 check 
6666 2722 8000 270 raise 
5555 2667 8000 270 call 
1111 1200 8000 100 fold 
2222 1509 8000 0 fold 
total pot: 1280 
/inquire 
send inquire msg to player 1111 
inquire/ 
2222 1509 8000 0 fold 
4444 500 8000 0 fold 
7777 1000 8000 100 fold 
8888 5455 8000 270 check 
3333 1589 6078 270 check 
6666 2722 8000 270 raise 
5555 2667 8000 270 call 
1111 1200 8000 100 fold 
total pot: 1280 
/inquire 
send inquire msg to player 5555 
inquire/ 
1111 1200 8000 100 fold 
2222 1509 8000 0 fold 
4444 500 8000 0 fold 
7777 1000 8000 100 fold 
8888 5455 8000 270 check 
3333 1589 6078 270 check 
6666 2722 8000 270 raise 
5555 2667 8000 270 call 
total pot: 1280 
/inquire 
recv from player 5555: check
send inquire msg to player 6666 
inquire/ 
5555 2667 8000 270 check 
1111 1200 8000 100 fold 
2222 1509 8000 0 fold 
4444 500 8000 0 fold 
7777 1000 8000 100 fold 
8888 5455 8000 270 check 
3333 1589 6078 270 check 
6666 2722 8000 270 raise 
total pot: 1280 
/inquire 
recv from player 6666: raise 400
send inquire msg to player 3333 
inquire/ 
6666 2322 8000 670 raise 
5555 2667 8000 270 check 
1111 1200 8000 100 fold 
2222 1509 8000 0 fold 
4444 500 8000 0 fold 
7777 1000 8000 100 fold 
8888 5455 8000 270 check 
3333 1589 6078 270 check 
total pot: 1680 
/inquire 
recv from player 3333: check
send inquire msg to player 8888 
inquire/ 
3333 1189 6078 670 call 
6666 2322 8000 670 raise 
5555 2667 8000 270 check 
1111 1200 8000 100 fold 
2222 1509 8000 0 fold 
4444 500 8000 0 fold 
7777 1000 8000 100 fold 
8888 5455 8000 270 check 
total pot: 2080 
/inquire 
recv from player 8888: check
send inquire msg to player 7777 
inquire/ 
8888 5055 8000 670 call 
3333 1189 6078 670 call 
6666 2322 8000 670 raise 
5555 2667 8000 270 check 
1111 1200 8000 100 fold 
2222 1509 8000 0 fold 
4444 500 8000 0 fold 
7777 1000 8000 100 fold 
total pot: 2480 
/inquire 
send inquire msg to player 4444 
inquire/ 
7777 1000 8000 100 fold 
8888 5055 8000 670 call 
3333 1189 6078 670 call 
6666 2322 8000 670 raise 
5555 2667 8000 270 check 
1111 1200 8000 100 fold 
2222 1509 8000 0 fold 
4444 500 8000 0 fold 
total pot: 2480 
/inquire 
send inquire msg to player 2222 
inquire/ 
4444 500 8000 0 fold 
7777 1000 8000 100 fold 
8888 5055 8000 670 call 
3333 1189 6078 670 call 
6666 2322 8000 670 raise 
5555 2667 8000 270 check 
1111 1200 8000 100 fold 
2222 1509 8000 0 fold 
total pot: 2480 
/inquire 
send inquire msg to player 1111 
inquire/ 
2222 1509 8000 0 fold 
4444 500 8000 0 fold 
7777 1000 8000 100 fold 
8888 5055 8000 670 call 
3333 1189 6078 670 call 
6666 2322 8000 670 raise 
5555 2667 8000 270 check 
1111 1200 8000 100 fold 
total pot: 2480 
/inquire 
send inquire msg to player 5555 
inquire/ 
1111 1200 8000 100 fold 
2222 1509 8000 0 fold 
4444 500 8000 0 fold 
7777 1000 8000 100 fold 
8888 5055 8000 670 call 
3333 1189 6078 670 call 
6666 2322 8000 670 raise 
5555 2667 8000 270 check 
total pot: 2480 
/inquire 
recv from player 5555: check
turn/ 
DIAMONDS 2 
/turn 

---turn round bet---
valid player: 8, all in player: 0, fold player: 4
send inquire msg to player 3333 
inquire/ 
6666 2322 8000 670 raise 
5555 2267 8000 670 call 
1111 1200 8000 100 fold 
2222 1509 8000 0 fold 
4444 500 8000 0 fold 
7777 1000 8000 100 fold 
8888 5055 8000 670 call 
3333 1189 6078 670 call 
total pot: 2880 
/inquire 
recv from player 3333: check
send inquire msg to player 8888 
inquire/ 
3333 1189 6078 670 check 
6666 2322 8000 670 raise 
5555 2267 8000 670 call 
1111 1200 8000 100 fold 
2222 1509 8000 0 fold 
4444 500 8000 0 fold 
7777 1000 8000 100 fold 
8888 5055 8000 670 call 
total pot: 2880 
/inquire 
recv from player 8888: check
send inquire msg to player 7777 
inquire/ 
8888 5055 8000 670 check 
3333 1189 6078 670 check 
6666 2322 8000 670 raise 
5555 2267 8000 670 call 
1111 1200 8000 100 fold 
2222 1509 8000 0 fold 
4444 500 8000 0 fold 
7777 1000 8000 100 fold 
total pot: 2880 
/inquire 
send inquire msg to player 4444 
inquire/ 
7777 1000 8000 100 fold 
8888 5055 8000 670 check 
3333 1189 6078 670 check 
6666 2322 8000 670 raise 
5555 2267 8000 670 call 
1111 1200 8000 100 fold 
2222 1509 8000 0 fold 
4444 500 8000 0 fold 
total pot: 2880 
/inquire 
send inquire msg to player 2222 
inquire/ 
4444 500 8000 0 fold 
7777 1000 8000 100 fold 
8888 5055 8000 670 check 
3333 1189 6078 670 check 
6666 2322 8000 670 raise 
5555 2267 8000 670 call 
1111 1200 8000 100 fold 
2222 1509 8000 0 fold 
total pot: 2880 
/inquire 
send inquire msg to player 1111 
inquire/ 
2222 1509 8000 0 fold 
4444 500 8000 0 fold 
7777 1000 8000 100 fold 
8888 5055 8000 670 check 
3333 1189 6078 670 check 
6666 2322 8000 670 raise 
5555 2267 8000 670 call 
1111 1200 8000 100 fold 
total pot: 2880 
/inquire 
send inquire msg to player 5555 
inquire/ 
1111 1200 8000 100 fold 
2222 1509 8000 0 fold 
4444 500 8000 0 fold 
7777 1000 8000 100 fold 
8888 5055 8000 670 check 
3333 1189 6078 670 check 
6666 2322 8000 670 raise 
5555 2267 8000 670 call 
total pot: 2880 
/inquire 
recv from player 5555: check
send inquire msg to player 6666 
inquire/ 
5555 2267 8000 670 check 
1111 1200 8000 100 fold 
2222 1509 8000 0 fold 
4444 500 8000 0 fold 
7777 1000 8000 100 fold 
8888 5055 8000 670 check 
3333 1189 6078 670 check 
6666 2322 8000 670 raise 
total pot: 2880 
/inquire 
recv from player 6666: check
river/ 
HEARTS A 
/river 

---river round bet---
valid player: 8, all in player: 0, fold player: 4
send inquire msg to player 3333 
inquire/ 
6666 2322 8000 670 check 
5555 2267 8000 670 check 
1111 1200 8000 100 fold 
2222 1509 8000 0 fold 
4444 500 8000 0 fold 
7777 1000 8000 100 fold 
8888 5055 8000 670 check 
3333 1189 6078 670 check 
total pot: 2880 
/inquire 
recv from player 3333: check
send inquire msg to player 8888 
inquire/ 
3333 1189 6078 670 check 
6666 2322 8000 670 check 
5555 2267 8000 670 check 
1111 1200 8000 100 fold 
2222 1509 8000 0 fold 
4444 500 8000 0 fold 
7777 1000 8000 100 fold 
8888 5055 8000 670 check 
total pot: 2880 
/inquire 
recv from player 8888: check
send inquire msg to player 7777 
inquire/ 
8888 5055 8000 670 check 
3333 1189 6078 670 check 
6666 2322 8000 670 check 
5555 2267 8000 670 check 
1111 1200 8000 100 fold 
2222 1509 8000 0 fold 
4444 500 8000 0 fold 
7777 1000 8000 100 fold 
total pot: 2880 
/inquire 
send inquire msg to player 4444 
inquire/ 
7777 1000 8000 100 fold 
8888 5055 8000 670 check 
3333 1189 6078 670 check 
6666 2322 8000 670 check 
5555 2267 8000 670 check 
1111 1200 8000 100 fold 
2222 1509 8000 0 fold 
4444 500 8000 0 fold 
total pot: 2880 
/inquire 
send inquire msg to player 2222 
inquire/ 
4444 500 8000 0 fold 
7777 1000 8000 100 fold 
8888 5055 8000 670 check 
3333 1189 6078 670 check 
6666 2322 8000 670 check 
5555 2267 8000 670 check 
1111 1200 8000 100 fold 
2222 1509 8000 0 fold 
total pot: 2880 
/inquire 
send inquire msg to player 1111 
inquire/ 
2222 1509 8000 0 fold 
4444 500 8000 0 fold 
7777 1000 8000 100 fold 
8888 5055 8000 670 check 
3333 1189 6078 670 check 
6666 2322 8000 670 check 
5555 2267 8000 670 check 
1111 1200 8000 100 fold 
total pot: 2880 
/inquire 
send inquire msg to player 5555 
inquire/ 
1111 1200 8000 100 fold 
2222 1509 8000 0 fold 
4444 500 8000 0 fold 
7777 1000 8000 100 fold 
8888 5055 8000 670 check 
3333 1189 6078 670 check 
6666 2322 8000 670 check 
5555 2267 8000 670 check 
total pot: 2880 
/inquire 
recv from player 5555: check
send inquire msg to player 6666 
inquire/ 
5555 2267 8000 670 check 
1111 1200 8000 100 fold 
2222 1509 8000 0 fold 
4444 500 8000 0 fold 
7777 1000 8000 100 fold 
8888 5055 8000 670 check 
3333 1189 6078 670 check 
6666 2322 8000 670 check 
total pot: 2880 
/inquire 
recv from player 6666: raise 620
send inquire msg to player 3333 
inquire/ 
6666 1702 8000 1290 raise 
5555 2267 8000 670 check 
1111 1200 8000 100 fold 
2222 1509 8000 0 fold 
4444 500 8000 0 fold 
7777 1000 8000 100 fold 
8888 5055 8000 670 check 
3333 1189 6078 670 check 
total pot: 3500 
/inquire 
recv from player 3333: check
send inquire msg to player 8888 
inquire/ 
3333 569 6078 1290 call 
6666 1702 8000 1290 raise 
5555 2267 8000 670 check 
1111 1200 8000 100 fold 
2222 1509 8000 0 fold 
4444 500 8000 0 fold 
7777 1000 8000 100 fold 
8888 5055 8000 670 check 
total pot: 4120 
/inquire 
recv from player 8888: check
send inquire msg to player 7777 
inquire/ 
8888 4435 8000 1290 call 
3333 569 6078 1290 call 
6666 1702 8000 1290 raise 
5555 2267 8000 670 check 
1111 1200 8000 100 fold 
2222 1509 8000 0 fold 
4444 500 8000 0 fold 
7777 1000 8000 100 fold 
total pot: 4740 
/inquire 
send inquire msg to player 4444 
inquire/ 
7777 1000 8000 100 fold 
8888 4435 8000 1290 call 
3333 569 6078 1290 call 
6666 1702 8000 1290 raise 
5555 2267 8000 670 check 
1111 1200 8000 100 fold 
2222 1509 8000 0 fold 
4444 500 8000 0 fold 
total pot: 4740 
/inquire 
send inquire msg to player 2222 
inquire/ 
4444 500 8000 0 fold 
7777 1000 8000 100 fold 
8888 4435 8000 1290 call 
3333 569 6078 1290 call 
6666 1702 8000 1290 raise 
5555 2267 8000 670 check 
1111 1200 8000 100 fold 
2222 1509 8000 0 fold 
total pot: 4740 
/inquire 
send inquire msg to player 1111 
inquire/ 
2222 1509 8000 0 fold 
4444 500 8000 0 fold 
7777 1000 8000 100 fold 
8888 4435 8000 1290 call 
3333 569 6078 1290 call 
6666 1702 8000 1290 raise 
5555 2267 8000 670 check 
1111 1200 8000 100 fold 
total pot: 4740 
/inquire 
send inquire msg to player 5555 
inquire/ 
1111 1200 8000 100 fold 
2222 1509 8000 0 fold 
4444 500 8000 0 fold 
7777 1000 8000 100 fold 
8888 4435 8000 1290 call 
3333 569 6078 1290 call 
6666 1702 8000 1290 raise 
5555 2267 8000 670 check 
total pot: 4740 
/inquire 
recv from player 5555: raise 0
send inquire msg to player 6666 
inquire/ 
5555 1027 8000 1910 raise 
1111 1200 8000 100 fold 
2222 1509 8000 0 fold 
4444 500 8000 0 fold 
7777 1000 8000 100 fold 
8888 4435 8000 1290 call 
3333 569 6078 1290 call 
6666 1702 8000 1290 raise 
total pot: 5980 
/inquire 
recv from player 6666: check
send inquire msg to player 3333 
inquire/ 
6666 1082 8000 1910 call 
5555 1027 8000 1910 raise 
1111 1200 8000 100 fold 
2222 1509 8000 0 fold 
4444 500 8000 0 fold 
7777 1000 8000 100 fold 
8888 4435 8000 1290 call 
3333 569 6078 1290 call 
total pot: 6600 
/inquire 
recv from player 3333: check
send inquire msg to player 8888 
inquire/ 
3333 0 6078 1859 all_in 
6666 1082 8000 1910 call 
5555 1027 8000 1910 raise 
1111 1200 8000 100 fold 
2222 1509 8000 0 fold 
4444 500 8000 0 fold 
7777 1000 8000 100 fold 
8888 4435 8000 1290 call 
total pot: 7169 
/inquire 
recv from player 8888: check

---show down---
showdown/ 
common/ 
CLUBS A 
HEARTS 10 
DIAMONDS 8 
DIAMONDS 2 
HEARTS A 
/common 
3: 3333 CLUBS K HEARTS 9 ONE_PAIR 
4: 8888 CLUBS J DIAMONDS 7 ONE_PAIR 
1: 5555 CLUBS 8 DIAMONDS A FULL_HOUSE 
2: 6666 HEARTS 4 SPADES A THREE_OF_A_KIND 
/showdown 

---Allocate pot---
pot-win/ 
5555: 7789 
/pot-win 
it is player 3333's turn to be button

-----10 Hand-----

----- clean player data in socket -----
seat/ 
button: 3333 2000 4078 
small blind: 8888 3815 8000 
big blind: 7777 1000 8000 
4444 500 8000 
2222 1509 8000 
1111 1200 8000 
5555 8816 8000 
6666 1082 8000 
/seat 
blind/ 
8888: 50 
7777: 100 
/blind 
player 8888:hold/ 
SPADES Q 
DIAMONDS 2 
/hold 
player 7777:hold/ 
SPADES 5 
CLUBS A 
/hold 
player 4444:hold/ 
CLUBS 2 
SPADES 10 
/hold 
player 2222:hold/ 
CLUBS 3 
DIAMONDS A 
/hold 
player 1111:hold/ 
SPADES 4 
DIAMONDS Q 
/hold 
player 5555:hold/ 
SPADES 9 
HEARTS 3 
/hold 
player 6666:hold/ 
DIAMONDS 4 
DIAMONDS J 
/hold 
player 3333:hold/ 
HEARTS 10 
DIAMONDS 5 
/hold 

---pre flop round bet---
valid player: 8, all in player: 0, fold player: 0
send inquire msg to player 4444 
inquire/ 
7777 900 8000 100 blind 
8888 3765 8000 50 blind 
total pot: 150 
/inquire 
recv from player 4444: fold
send inquire msg to player 2222 
inquire/ 
4444 500 8000 0 fold 
7777 900 8000 100 blind 
8888 3765 8000 50 blind 
total pot: 150 
/inquire 
recv from player 2222: fold
send inquire msg to player 1111 
inquire/ 
2222 1509 8000 0 fold 
4444 500 8000 0 fold 
7777 900 8000 100 blind 
8888 3765 8000 50 blind 
total pot: 150 
/inquire 
recv from player 1111: fold
send inquire msg to player 5555 
inquire/ 
1111 1200 8000 0 fold 
2222 1509 8000 0 fold 
4444 500 8000 0 fold 
7777 900 8000 100 blind 
8888 3765 8000 50 blind 
total pot: 150 
/inquire 
recv from player 5555: raise 0
send inquire msg to player 6666 
inquire/ 
5555 8616 8000 200 raise 
1111 1200 8000 0 fold 
2222 1509 8000 0 fold 
4444 500 8000 0 fold 
7777 900 8000 100 blind 
8888 3765 8000 50 blind 
total pot: 350 
/inquire 
recv from player 6666: fold
send inquire msg to player 3333 
inquire/ 
6666 1082 8000 0 fold 
5555 8616 8000 200 raise 
1111 1200 8000 0 fold 
2222 1509 8000 0 fold 
4444 500 8000 0 fold 
7777 900 8000 100 blind 
8888 3765 8000 50 blind 
total pot: 350 
/inquire 
recv from player 3333: check
send inquire msg to player 8888 
inquire/ 
3333 1800 4078 200 call 
6666 1082 8000 0 fold 
5555 8616 8000 200 raise 
1111 1200 8000 0 fold 
2222 1509 8000 0 fold 
4444 500 8000 0 fold 
7777 900 8000 100 blind 
8888 3765 8000 50 blind 
total pot: 550 
/inquire 
recv from player 8888: check
send inquire msg to player 7777 
inquire/ 
8888 3615 8000 200 call 
3333 1800 4078 200 call 
6666 1082 8000 0 fold 
5555 8616 8000 200 raise 
1111 1200 8000 0 fold 
2222 1509 8000 0 fold 
4444 500 8000 0 fold 
7777 900 8000 100 blind 
total pot: 700 
/inquire 
recv from player 7777: fold
flop/ 
CLUBS Q 
HEARTS 2 
HEARTS K 
/flop 

---flop round bet---
valid player: 8, all in player: 0, fold player: 5
send inquire msg to player 8888 
inquire/ 
3333 1800 4078 200 call 
6666 1082 8000 0 fold 
5555 8616 8000 200 raise 
1111 1200 8000 0 fold 
2222 1509 8000 0 fold 
4444 500 8000 0 fold 
7777 900 8000 100 fold 
8888 3615 8000 200 call 
total pot: 700 
/inquire 
recv from player 8888: check
send inquire msg to player 7777 
inquire/ 
8888 3615 8000 200 check 
3333 1800 4078 200 call 
6666 1082 8000 0 fold 
5555 8616 8000 200 raise 
1111 1200 8000 0 fold 
2222 1509 8000 0 fold 
4444 500 8000 0 fold 
7777 900 8000 100 fold 
total pot: 700 
/inquire 
send inquire msg to player 4444 
inquire/ 
7777 900 8000 100 fold 
8888 3615 8000 200 check 
3333 1800 4078 200 call 
6666 1082 8000 0 fold 
5555 8616 8000 200 raise 
1111 1200 8000 0 fold 
2222 1509 8000 0 fold 
4444 500 8000 0 fold 
total pot: 700 
/inquire 
send inquire msg to player 2222 
inquire/ 
4444 500 8000 0 fold 
7777 900 8000 100 fold 
8888 3615 8000 200 check 
3333 1800 4078 200 call 
6666 1082 8000 0 fold 
5555 8616 8000 200 raise 
1111 1200 8000 0 fold 
2222 1509 8000 0 fold 
total pot: 700 
/inquire 
send inquire msg to player 1111 
inquire/ 
2222 1509 8000 0 fold 
4444 500 8000 0 fold 
7777 900 8000 100 fold 
8888 3615 8000 200 check 
3333 1800 4078 200 call 
6666 1082 8000 0 fold 
5555 8616 8000 200 raise 
1111 1200 8000 0 fold 
total pot: 700 
/inquire 
send inquire msg to player 5555 
inquire/ 
1111 1200 8000 0 fold 
2222 1509 8000 0 fold 
4444 500 8000 0 fold 
7777 900 8000 100 fold 
8888 3615 8000 200 check 
3333 1800 4078 200 call 
6666 1082 8000 0 fold 
5555 8616 8000 200 raise 
total pot: 700 
/inquire 
recv from player 5555: check
send inquire msg to player 6666 
inquire/ 
5555 8616 8000 200 check 
1111 1200 8000 0 fold 
2222 1509 8000 0 fold 
4444 500 8000 0 fold 
7777 900 8000 100 fold 
8888 3615 8000 200 check 
3333 1800 4078 200 call 
6666 1082 8000 0 fold 
total pot: 700 
/inquire 
send inquire msg to player 3333 
inquire/ 
6666 1082 8000 0 fold 
5555 8616 8000 200 check 
1111 1200 8000 0 fold 
2222 1509 8000 0 fold 
4444 500 8000 0 fold 
7777 900 8000 100 fold 
8888 3615 8000 200 check 
3333 1800 4078 200 call 
total pot: 700 
/inquire 
recv from player 3333: check
turn/ 
CLUBS J 
/turn 

---turn round bet---
valid player: 8, all in player: 0, fold player: 5
send inquire msg to player 8888 
inquire/ 
3333 1800 4078 200 check 
6666 1082 8000 0 fold 
5555 8616 8000 200 check 
1111 1200 8000 0 fold 
2222 1509 8000 0 fold 
4444 500 8000 0 fold 
7777 900 8000 100 fold 
8888 3615 8000 200 check 
total pot: 700 
/inquire 
recv from player 8888: check
send inquire msg to player 7777 
inquire/ 
8888 3615 8000 200 check 
3333 1800 4078 200 check 
6666 1082 8000 0 fold 
5555 8616 8000 200 check 
1111 1200 8000 0 fold 
2222 1509 8000 0 fold 
4444 500 8000 0 fold 
7777 900 8000 100 fold 
total pot: 700 
/inquire 
send inquire msg to player 4444 
inquire/ 
7777 900 8000 100 fold 
8888 3615 8000 200 check 
3333 1800 4078 200 check 
6666 1082 8000 0 fold 
5555 8616 8000 200 check 
1111 1200 8000 0 fold 
2222 1509 8000 0 fold 
4444 500 8000 0 fold 
total pot: 700 
/inquire 
send inquire msg to player 2222 
inquire/ 
4444 500 8000 0 fold 
7777 900 8000 100 fold 
8888 3615 8000 200 check 
3333 1800 4078 200 check 
6666 1082 8000 0 fold 
5555 8616 8000 200 check 
1111 1200 8000 0 fold 
2222 1509 8000 0 fold 
total pot: 700 
/inquire 
send inquire msg to player 1111 
inquire/ 
2222 1509 8000 0 fold 
4444 500 8000 0 fold 
7777 900 8000 100 fold 
8888 3615 8000 200 check 
3333 1800 4078 200 check 
6666 1082 8000 0 fold 
5555 8616 8000 200 check 
1111 1200 8000 0 fold 
total pot: 700 
/inquire 
send inquire msg to player 5555 
inquire/ 
1111 1200 8000 0 fold 
2222 1509 8000 0 fold 
4444 500 8000 0 fold 
7777 900 8000 100 fold 
8888 3615 8000 200 check 
3333 1800 4078 200 check 
6666 1082 8000 0 fold 
5555 8616 8000 200 check 
total pot: 700 
/inquire 
recv from player 5555: raise 0
send inquire msg to player 6666 
inquire/ 
5555 8516 8000 300 raise 
1111 1200 8000 0 fold 
2222 1509 8000 0 fold 
4444 500 8000 0 fold 
7777 900 8000 100 fold 
8888 3615 8000 200 check 
3333 1800 4078 200 check 
6666 1082 8000 0 fold 
total pot: 800 
/inquire 
send inquire msg to player 3333 
inquire/ 
6666 1082 8000 0 fold 
5555 8516 8000 300 raise 
1111 1200 8000 0 fold 
2222 1509 8000 0 fold 
4444 500 8000 0 fold 
7777 900 8000 100 fold 
8888 3615 8000 200 check 
3333 1800 4078 200 check 
total pot: 800 
/inquire 
recv from player 3333: check
send inquire msg to player 8888 
inquire/ 
3333 1700 4078 300 call 
6666 1082 8000 0 fold 
5555 8516 8000 300 raise 
1111 1200 8000 0 fold 
2222 1509 8000 0 fold 
4444 500 8000 0 fold 
7777 900 8000 100 fold 
8888 3615 8000 200 check 
total pot: 900 
/inquire 
recv from player 8888: check
river/ 
HEARTS Q 
/river 

---river round bet---
valid player: 8, all in player: 0, fold player: 5
send inquire msg to player 8888 
inquire/ 
3333 1700 4078 300 call 
6666 1082 8000 0 fold 
5555 8516 8000 300 raise 
1111 1200 8000 0 fold 
2222 1509 8000 0 fold 
4444 500 8000 0 fold 
7777 900 8000 100 fold 
8888 3515 8000 300 call 
total pot: 1000 
/inquire 
recv from player 8888: check
send inquire msg to player 7777 
inquire/ 
8888 3515 8000 300 check 
3333 1700 4078 300 call 
6666 1082 8000 0 fold 
5555 8516 8000 300 raise 
1111 1200 8000 0 fold 
2222 1509 8000 0 fold 
4444 500 8000 0 fold 
7777 900 8000 100 fold 
total pot: 1000 
/inquire 
send inquire msg to player 4444 
inquire/ 
7777 900 8000 100 fold 
8888 3515 8000 300 check 
3333 1700 4078 300 call 
6666 1082 8000 0 fold 
5555 8516 8000 300 raise 
1111 1200 8000 0 fold 
2222 1509 8000 0 fold 
4444 500 8000 0 fold 
total pot: 1000 
/inquire 
send inquire msg to player 2222 
inquire/ 
4444 500 8000 0 fold 
7777 900 8000 100 fold 
8888 3515 8000 300 check 
3333 1700 4078 300 call 
6666 1082 8000 0 fold 
5555 8516 8000 300 raise 
1111 1200 8000 0 fold 
2222 1509 8000 0 fold 
total pot: 1000 
/inquire 
send inquire msg to player 1111 
inquire/ 
2222 1509 8000 0 fold 
4444 500 8000 0 fold 
7777 900 8000 100 fold 
8888 3515 8000 300 check 
3333 1700 4078 300 call 
6666 1082 8000 0 fold 
5555 8516 8000 300 raise 
1111 1200 8000 0 fold 
total pot: 1000 
/inquire 
send inquire msg to player 5555 
inquire/ 
1111 1200 8000 0 fold 
2222 1509 8000 0 fold 
4444 500 8000 0 fold 
7777 900 8000 100 fold 
8888 3515 8000 300 check 
3333 1700 4078 300 call 
6666 1082 8000 0 fold 
5555 8516 8000 300 raise 
total pot: 1000 
/inquire 
recv from player 5555: check
send inquire msg to player 6666 
inquire/ 
5555 8516 8000 300 check 
1111 1200 8000 0 fold 
2222 1509 8000 0 fold 
4444 500 8000 0 fold 
7777 900 8000 100 fold 
8888 3515 8000 300 check 
3333 1700 4078 300 call 
6666 1082 8000 0 fold 
total pot: 1000 
/inquire 
send inquire msg to player 3333 
inquire/ 
6666 1082 8000 0 fold 
5555 8516 8000 300 check 
1111 1200 8000 0 fold 
2222 1509 8000 0 fold 
4444 500 8000 0 fold 
7777 900 8000 100 fold 
8888 3515 8000 300 check 
3333 1700 4078 300 call 
total pot: 1000 
/inquire 
recv from player 3333: check

---show down---
showdown/ 
common/ 
CLUBS Q 
HEARTS 2 
HEARTS K 
CLUBS J 
HEARTS Q 
/common 
1: 8888 SPADES Q DIAMONDS 2 FULL_HOUSE 
3: 5555 SPADES 9 HEARTS 3 ONE_PAIR 
2: 3333 HEARTS 10 DIAMONDS 5 ONE_PAIR 
/showdown 

---Allocate pot---
pot-win/ 
8888: 1000 
/pot-win 
it is player 8888's turn to be button

-----11 Hand-----

----- clean player data in socket -----
seat/ 
button: 8888 4515 8000 
small blind: 7777 900 8000 
big blind: 4444 500 8000 
2222 1509 8000 
1111 1200 8000 
5555 8516 8000 
6666 1082 8000 
3333 1700 4078 
/seat 
blind/ 
7777: 50 
4444: 100 
/blind 
player 7777:hold/ 
SPADES 4 
SPADES 7 
/hold 
player 4444:hold/ 
SPADES Q 
SPADES 8 
/hold 
player 2222:hold/ 
SPADES A 
HEARTS 10 
/hold 
player 1111:hold/ 
CLUBS 4 
CLUBS Q 
/hold 
player 5555:hold/ 
HEARTS 6 
CLUBS 9 
/hold 
player 6666:hold/ 
CLUBS 3 
HEARTS 2 
/hold 
player 3333:hold/ 
DIAMONDS 3 
DIAMONDS K 
/hold 
player 8888:hold/ 
CLUBS 6 
DIAMONDS 8 
/hold 

---pre flop round bet---
valid player: 8, all in player: 0, fold player: 0
send inquire msg to player 2222 
inquire/ 
4444 400 8000 100 blind 
7777 850 8000 50 blind 
total pot: 150 
/inquire 
recv from player 2222: fold
send inquire msg to player 1111 
inquire/ 
2222 1509 8000 0 fold 
4444 400 8000 100 blind 
7777 850 8000 50 blind 
total pot: 150 
/inquire 
recv from player 1111: check
send inquire msg to player 5555 
inquire/ 
1111 1100 8000 100 call 
2222 1509 8000 0 fold 
4444 400 8000 100 blind 
7777 850 8000 50 blind 
total pot: 250 
/inquire 
recv from player 5555: check
send inquire msg to player 6666 
inquire/ 
5555 8416 8000 100 call 
1111 1100 8000 100 call 
2222 1509 8000 0 fold 
4444 400 8000 100 blind 
7777 850 8000 50 blind 
total pot: 350 
/inquire 
recv from player 6666: fold
send inquire msg to player 3333 
inquire/ 
6666 1082 8000 0 fold 
5555 8416 8000 100 call 
1111 1100 8000 100 call 
2222 1509 8000 0 fold 
4444 400 8000 100 blind 
7777 850 8000 50 blind 
total pot: 350 
/inquire 
recv from player 3333: check
send inquire msg to player 8888 
inquire/ 
3333 1600 4078 100 call 
6666 1082 8000 0 fold 
5555 8416 8000 100 call 
1111 1100 8000 100 call 
2222 1509 8000 0 fold 
4444 400 8000 100 blind 
7777 850 8000 50 blind 
total pot: 450 
/inquire 
recv from player 8888: check
send inquire msg to player 7777 
inquire/ 
8888 4415 8000 100 call 
3333 1600 4078 100 call 
6666 1082 8000 0 fold 
5555 8416 8000 100 call 
1111 1100 8000 100 call 
2222 1509 8000 0 fold 
4444 400 8000 100 blind 
7777 850 8000 50 blind 
total pot: 550 
/inquire 
recv from player 7777: check
send inquire msg to player 4444 
inquire/ 
7777 800 8000 100 call 
8888 4415 8000 100 call 
3333 1600 4078 100 call 
6666 1082 8000 0 fold 
5555 8416 8000 100 call 
1111 1100 8000 100 call 
2222 1509 8000 0 fold 
4444 400 8000 100 blind 
total pot: 600 
/inquire 
recv from player 4444: check
flop/ 
CLUBS A 
HEARTS Q 
SPADES 2 
/flop 

---flop round bet---
valid player: 8, all in player: 0, fold player: 2
send inquire msg to player 7777 
inquire/ 
8888 4415 8000 100 call 
3333 1600 4078 100 call 
6666 1082 8000 0 fold 
5555 8416 8000 100 call 
1111 1100 8000 100 call 
2222 1509 8000 0 fold 
4444 400 8000 100 check 
7777 800 8000 100 call 
total pot: 600 
/inquire 
recv from player 7777: check
send inquire msg to player 4444 
inquire/ 
7777 800 8000 100 check 
8888 4415 8000 100 call 
3333 1600 4078 100 call 
6666 1082 8000 0 fold 
5555 8416 8000 100 call 
1111 1100 8000 100 call 
2222 1509 8000 0 fold 
4444 400 8000 100 check 
total pot: 600 
/inquire 
recv from player 4444: check
send inquire msg to player 2222 
inquire/ 
4444 400 8000 100 check 
7777 800 8000 100 check 
8888 4415 8000 100 call 
3333 1600 4078 100 call 
6666 1082 8000 0 fold 
5555 8416 8000 100 call 
1111 1100 8000 100 call 
2222 1509 8000 0 fold 
total pot: 600 
/inquire 
send inquire msg to player 1111 
inquire/ 
2222 1509 8000 0 fold 
4444 400 8000 100 check 
7777 800 8000 100 check 
8888 4415 8000 100 call 
3333 1600 4078 100 call 
6666 1082 8000 0 fold 
5555 8416 8000 100 call 
1111 1100 8000 100 call 
total pot: 600 
/inquire 
recv from player 1111: check
send inquire msg to player 5555 
inquire/ 
1111 1100 8000 100 check 
2222 1509 8000 0 fold 
4444 400 8000 100 check 
7777 800 8000 100 check 
8888 4415 8000 100 call 
3333 1600 4078 100 call 
6666 1082 8000 0 fold 
5555 8416 8000 100 call 
total pot: 600 
/inquire 
recv from player 5555: check
send inquire msg to player 6666 
inquire/ 
5555 8416 8000 100 check 
1111 1100 8000 100 check 
2222 1509 8000 0 fold 
4444 400 8000 100 check 
7777 800 8000 100 check 
8888 4415 8000 100 call 
3333 1600 4078 100 call 
6666 1082 8000 0 fold 
total pot: 600 
/inquire 
send inquire msg to player 3333 
inquire/ 
6666 1082 8000 0 fold 
5555 8416 8000 100 check 
1111 1100 8000 100 check 
2222 1509 8000 0 fold 
4444 400 8000 100 check 
7777 800 8000 100 check 
8888 4415 8000 100 call 
3333 1600 4078 100 call 
total pot: 600 
/inquire 
recv from player 3333: check
send inquire msg to player 8888 
inquire/ 
3333 1600 4078 100 check 
6666 1082 8000 0 fold 
5555 8416 8000 100 check 
1111 1100 8000 100 check 
2222 1509 8000 0 fold 
4444 400 8000 100 check 
7777 800 8000 100 check 
8888 4415 8000 100 call 
total pot: 600 
/inquire 
recv from player 8888: check
turn/ 
DIAMONDS J 
/turn 

---turn round bet---
valid player: 8, all in player: 0, fold player: 2
send inquire msg to player 7777 
inquire/ 
8888 4415 8000 100 check 
3333 1600 4078 100 check 
6666 1082 8000 0 fold 
5555 8416 8000 100 check 
1111 1100 8000 100 check 
2222 1509 8000 0 fold 
4444 400 8000 100 check 
7777 800 8000 100 check 
total pot: 600 
/inquire 
recv from player 7777: check
send inquire msg to player 4444 
inquire/ 
7777 800 8000 100 check 
8888 4415 8000 100 check 
3333 1600 4078 100 check 
6666 1082 8000 0 fold 
5555 8416 8000 100 check 
1111 1100 8000 100 check 
2222 1509 8000 0 fold 
4444 400 8000 100 check 
total pot: 600 
/inquire 
recv from player 4444: check
send inquire msg to player 2222 
inquire/ 
4444 400 8000 100 check 
7777 800 8000 100 check 
8888 4415 8000 100 check 
3333 1600 4078 100 check 
6666 1082 8000 0 fold 
5555 8416 8000 100 check 
1111 1100 8000 100 check 
2222 1509 8000 0 fold 
total pot: 600 
/inquire 
send inquire msg to player 1111 
inquire/ 
2222 1509 8000 0 fold 
4444 400 8000 100 check 
7777 800 8000 100 check 
8888 4415 8000 100 check 
3333 1600 4078 100 check 
6666 1082 8000 0 fold 
5555 8416 8000 100 check 
1111 1100 8000 100 check 
total pot: 600 
/inquire 
recv from player 1111: check
send inquire msg to player 5555 
inquire/ 
1111 1100 8000 100 check 
2222 1509 8000 0 fold 
4444 400 8000 100 check 
7777 800 8000 100 check 
8888 4415 8000 100 check 
3333 1600 4078 100 check 
6666 1082 8000 0 fold 
5555 8416 8000 100 check 
total pot: 600 
/inquire 
recv from player 5555: raise 0
send inquire msg to player 6666 
inquire/ 
5555 8316 8000 200 raise 
1111 1100 8000 100 check 
2222 1509 8000 0 fold 
4444 400 8000 100 check 
7777 800 8000 100 check 
8888 4415 8000 100 check 
3333 1600 4078 100 check 
6666 1082 8000 0 fold 
total pot: 700 
/inquire 
send inquire msg to player 3333 
inquire/ 
6666 1082 8000 0 fold 
5555 8316 8000 200 raise 
1111 1100 8000 100 check 
2222 1509 8000 0 fold 
4444 400 8000 100 check 
7777 800 8000 100 check 
8888 4415 8000 100 check 
3333 1600 4078 100 check 
total pot: 700 
/inquire 
recv from player 3333: check
send inquire msg to player 8888 
inquire/ 
3333 1500 4078 200 call 
6666 1082 8000 0 fold 
5555 8316 8000 200 raise 
1111 1100 8000 100 check 
2222 1509 8000 0 fold 
4444 400 8000 100 check 
7777 800 8000 100 check 
8888 4415 8000 100 check 
total pot: 800 
/inquire 
recv from player 8888: check
send inquire msg to player 7777 
inquire/ 
8888 4315 8000 200 call 
3333 1500 4078 200 call 
6666 1082 8000 0 fold 
5555 8316 8000 200 raise 
1111 1100 8000 100 check 
2222 1509 8000 0 fold 
4444 400 8000 100 check 
7777 800 8000 100 check 
total pot: 900 
/inquire 
recv from player 7777: fold
send inquire msg to player 4444 
inquire/ 
7777 800 8000 100 fold 
8888 4315 8000 200 call 
3333 1500 4078 200 call 
6666 1082 8000 0 fold 
5555 8316 8000 200 raise 
1111 1100 8000 100 check 
2222 1509 8000 0 fold 
4444 400 8000 100 check 
total pot: 900 
/inquire 
recv from player 4444: check
send inquire msg to player 2222 
inquire/ 
4444 300 8000 200 call 
7777 800 8000 100 fold 
8888 4315 8000 200 call 
3333 1500 4078 200 call 
6666 1082 8000 0 fold 
5555 8316 8000 200 raise 
1111 1100 8000 100 check 
2222 1509 8000 0 fold 
total pot: 1000 
/inquire 
send inquire msg to player 1111 
inquire/ 
2222 1509 8000 0 fold 
4444 300 8000 200 call 
7777 800 8000 100 fold 
8888 4315 8000 200 call 
3333 1500 4078 200 call 
6666 1082 8000 0 fold 
5555 8316 8000 200 raise 
1111 1100 8000 100 check 
total pot: 1000 
/inquire 
recv from player 1111: fold
river/ 
HEARTS K 
/river 

---river round bet---
valid player: 8, all in player: 0, fold player: 4
send inquire msg to player 7777 
inquire/ 
8888 4315 8000 200 call 
3333 1500 4078 200 call 
6666 1082 8000 0 fold 
5555 8316 8000 200 raise 
1111 1100 8000 100 fold 
2222 1509 8000 0 fold 
4444 300 8000 200 call 
7777 800 8000 100 fold 
total pot: 1000 
/inquire 
send inquire msg to player 4444 
inquire/ 
7777 800 8000 100 fold 
8888 4315 8000 200 call 
3333 1500 4078 200 call 
6666 1082 8000 0 fold 
5555 8316 8000 200 raise 
1111 1100 8000 100 fold 
2222 1509 8000 0 fold 
4444 300 8000 200 call 
total pot: 1000 
/inquire 
recv from player 4444: check
send inquire msg to player 2222 
inquire/ 
4444 300 8000 200 check 
7777 800 8000 100 fold 
8888 4315 8000 200 call 
3333 1500 4078 200 call 
6666 1082 8000 0 fold 
5555 8316 8000 200 raise 
1111 1100 8000 100 fold 
2222 1509 8000 0 fold 
total pot: 1000 
/inquire 
send inquire msg to player 1111 
inquire/ 
2222 1509 8000 0 fold 
4444 300 8000 200 check 
7777 800 8000 100 fold 
8888 4315 8000 200 call 
3333 1500 4078 200 call 
6666 1082 8000 0 fold 
5555 8316 8000 200 raise 
1111 1100 8000 100 fold 
total pot: 1000 
/inquire 
send inquire msg to player 5555 
inquire/ 
1111 1100 8000 100 fold 
2222 1509 8000 0 fold 
4444 300 8000 200 check 
7777 800 8000 100 fold 
8888 4315 8000 200 call 
3333 1500 4078 200 call 
6666 1082 8000 0 fold 
5555 8316 8000 200 raise 
total pot: 1000 
/inquire 
recv from player 5555: check
send inquire msg to player 6666 
inquire/ 
5555 8316 8000 200 check 
1111 1100 8000 100 fold 
2222 1509 8000 0 fold 
4444 300 8000 200 check 
7777 800 8000 100 fold 
8888 4315 8000 200 call 
3333 1500 4078 200 call 
6666 1082 8000 0 fold 
total pot: 1000 
/inquire 
send inquire msg to player 3333 
inquire/ 
6666 1082 8000 0 fold 
5555 8316 8000 200 check 
1111 1100 8000 100 fold 
2222 1509 8000 0 fold 
4444 300 8000 200 check 
7777 800 8000 100 fold 
8888 4315 8000 200 call 
3333 1500 4078 200 call 
total pot: 1000 
/inquire 
recv from player 3333: check
send inquire msg to player 8888 
inquire/ 
3333 1500 4078 200 check 
6666 1082 8000 0 fold 
5555 8316 8000 200 check 
1111 1100 8000 100 fold 
2222 1509 8000 0 fold 
4444 300 8000 200 check 
7777 800 8000 100 fold 
8888 4315 8000 200 call 
total pot: 1000 
/inquire 
recv from player 8888: check

---show down---
showdown/ 
common/ 
CLUBS A 
HEARTS Q 
SPADES 2 
DIAMONDS J 
HEARTS K 
/common 
2: 4444 SPADES Q SPADES 8 ONE_PAIR 
3: 5555 HEARTS 6 CLUBS 9 HIGH_CARD 
1: 3333 DIAMONDS 3 DIAMONDS K ONE_PAIR 
4: 8888 CLUBS 6 DIAMONDS 8 HIGH_CARD 
/showdown 

---Allocate pot---
pot-win/ 
3333: 1000 
/pot-win 
it is player 7777's turn to be button

-----12 Hand-----

----- clean player data in socket -----
seat/ 
button: 7777 800 8000 
small blind: 4444 300 8000 
big blind: 2222 1509 8000 
1111 1100 8000 
5555 8316 8000 
6666 1082 8000 
3333 2500 4078 
8888 4315 8000 
/seat 
blind/ 
4444: 50 
2222: 100 
/blind 
player 4444:hold/ 
DIAMONDS K 
DIAMONDS 5 
/hold 
player 2222:hold/ 
CLUBS 3 
DIAMONDS 10 
/hold 
player 1111:hold/ 
HEARTS 2 
DIAMONDS 6 
/hold 
player 5555:hold/ 
HEARTS K 
SPADES 9 
/hold 
player 6666:hold/ 
CLUBS 8 
SPADES 10 
/hold 
player 3333:hold/ 
DIAMONDS 2 
HEARTS 3 
/hold 
player 8888:hold/ 
DIAMONDS Q 
SPADES 2 
/hold 
player 7777:hold/ 
HEARTS 10 
HEARTS 8 
/hold 

---pre flop round bet---
valid player: 8, all in player: 0, fold player: 0
send inquire msg to player 1111 
inquire/ 
2222 1409 8000 100 blind 
4444 250 8000 50 blind 
total pot: 150 
/inquire 
recv from player 1111: fold
send inquire msg to player 5555 
inquire/ 
1111 1100 8000 0 fold 
2222 1409 8000 100 blind 
4444 250 8000 50 blind 
total pot: 150 
/inquire 
recv from player 5555: raise 0
send inquire msg to player 6666 
inquire/ 
5555 8116 8000 200 raise 
1111 1100 8000 0 fold 
2222 1409 8000 100 blind 
4444 250 8000 50 blind 
total pot: 350 
/inquire 
recv from player 6666: fold
send inquire msg to player 3333 
inquire/ 
6666 1082 8000 0 fold 
5555 8116 8000 200 raise 
1111 1100 8000 0 fold 
2222 1409 8000 100 blind 
4444 250 8000 50 blind 
total pot: 350 
/inquire 
recv from player 3333: check
send inquire msg to player 8888 
inquire/ 
3333 2300 4078 200 call 
6666 1082 8000 0 fold 
5555 8116 8000 200 raise 
1111 1100 8000 0 fold 
2222 1409 8000 100 blind 
4444 250 8000 50 blind 
total pot: 550 
/inquire 
recv from player 8888: check
send inquire msg to player 7777 
inquire/ 
8888 4115 8000 200 call 
3333 2300 4078 200 call 
6666 1082 8000 0 fold 
5555 8116 8000 200 raise 
1111 1100 8000 0 fold 
2222 1409 8000 100 blind 
4444 250 8000 50 blind 
total pot: 750 
/inquire 
recv from player 7777: fold
send inquire msg to player 4444 
inquire/ 
7777 800 8000 0 fold 
8888 4115 8000 200 call 
3333 2300 4078 200 call 
6666 1082 8000 0 fold 
5555 8116 8000 200 raise 
1111 1100 8000 0 fold 
2222 1409 8000 100 blind 
4444 250 8000 50 blind 
total pot: 750 
/inquire 
recv from player 4444: fold
send inquire msg to player 2222 
inquire/ 
4444 250 8000 50 fold 
7777 800 8000 0 fold 
8888 4115 8000 200 call 
3333 2300 4078 200 call 
6666 1082 8000 0 fold 
5555 8116 8000 200 raise 
1111 1100 8000 0 fold 
2222 1409 8000 100 blind 
total pot: 750 
/inquire 
recv from player 2222: fold
flop/ 
CLUBS 6 
HEARTS 6 
SPADES 3 
/flop 

---flop round bet---
valid player: 8, all in player: 0, fold player: 5
send inquire msg to player 4444 
inquire/ 
7777 800 8000 0 fold 
8888 4115 8000 200 call 
3333 2300 4078 200 call 
6666 1082 8000 0 fold 
5555 8116 8000 200 raise 
1111 1100 8000 0 fold 
2222 1409 8000 100 fold 
4444 250 8000 50 fold 
total pot: 750 
/inquire 
send inquire msg to player 2222 
inquire/ 
4444 250 8000 50 fold 
7777 800 8000 0 fold 
8888 4115 8000 200 call 
3333 2300 4078 200 call 
6666 1082 8000 0 fold 
5555 8116 8000 200 raise 
1111 1100 8000 0 fold 
2222 1409 8000 100 fold 
total pot: 750 
/inquire 
send inquire msg to player 1111 
inquire/ 
2222 1409 8000 100 fold 
4444 250 8000 50 fold 
7777 800 8000 0 fold 
8888 4115 8000 200 call 
3333 2300 4078 200 call 
6666 1082 8000 0 fold 
5555 8116 8000 200 raise 
1111 1100 8000 0 fold 
total pot: 750 
/inquire 
send inquire msg to player 5555 
inquire/ 
1111 1100 8000 0 fold 
2222 1409 8000 100 fold 
4444 250 8000 50 fold 
7777 800 8000 0 fold 
8888 4115 8000 200 call 
3333 2300 4078 200 call 
6666 1082 8000 0 fold 
5555 8116 8000 200 raise 
total pot: 750 
/inquire 
recv from player 5555: raise 0
send inquire msg to player 6666 
inquire/ 
5555 8016 8000 300 raise 
1111 1100 8000 0 fold 
2222 1409 8000 100 fold 
4444 250 8000 50 fold 
7777 800 8000 0 fold 
8888 4115 8000 200 call 
3333 2300 4078 200 call 
6666 1082 8000 0 fold 
total pot: 850 
/inquire 
send inquire msg to player 3333 
inquire/ 
6666 1082 8000 0 fold 
5555 8016 8000 300 raise 
1111 1100 8000 0 fold 
2222 1409 8000 100 fold 
4444 250 8000 50 fold 
7777 800 8000 0 fold 
8888 4115 8000 200 call 
3333 2300 4078 200 call 
total pot: 850 
/inquire 
recv from player 3333: check
send inquire msg to player 8888 
inquire/ 
3333 2200 4078 300 call 
6666 1082 8000 0 fold 
5555 8016 8000 300 raise 
1111 1100 8000 0 fold 
2222 1409 8000 100 fold 
4444 250 8000 50 fold 
7777 800 8000 0 fold 
8888 4115 8000 200 call 
total pot: 950 
/inquire 
recv from player 8888: check
turn/ 
DIAMONDS 4 
/turn 

---turn round bet---
valid player: 8, all in player: 0, fold player: 5
send inquire msg to player 4444 
inquire/ 
7777 800 8000 0 fold 
8888 4015 8000 300 call 
3333 2200 4078 300 call 
6666 1082 8000 0 fold 
5555 8016 8000 300 raise 
1111 1100 8000 0 fold 
2222 1409 8000 100 fold 
4444 250 8000 50 fold 
total pot: 1050 
/inquire 
send inquire msg to player 2222 
inquire/ 
4444 250 8000 50 fold 
7777 800 8000 0 fold 
8888 4015 8000 300 call 
3333 2200 4078 300 call 
6666 1082 8000 0 fold 
5555 8016 8000 300 raise 
1111 1100 8000 0 fold 
2222 1409 8000 100 fold 
total pot: 1050 
/inquire 
send inquire msg to player 1111 
inquire/ 
2222 1409 8000 100 fold 
4444 250 8000 50 fold 
7777 800 8000 0 fold 
8888 4015 8000 300 call 
3333 2200 4078 300 call 
6666 1082 8000 0 fold 
5555 8016 8000 300 raise 
1111 1100 8000 0 fold 
total pot: 1050 
/inquire 
send inquire msg to player 5555 
inquire/ 
1111 1100 8000 0 fold 
2222 1409 8000 100 fold 
4444 250 8000 50 fold 
7777 800 8000 0 fold 
8888 4015 8000 300 call 
3333 2200 4078 300 call 
6666 1082 8000 0 fold 
5555 8016 8000 300 raise 
total pot: 1050 
/inquire 
recv from player 5555: raise 0
send inquire msg to player 6666 
inquire/ 
5555 7916 8000 400 raise 
1111 1100 8000 0 fold 
2222 1409 8000 100 fold 
4444 250 8000 50 fold 
7777 800 8000 0 fold 
8888 4015 8000 300 call 
3333 2200 4078 300 call 
6666 1082 8000 0 fold 
total pot: 1150 
/inquire 
send inquire msg to player 3333 
inquire/ 
6666 1082 8000 0 fold 
5555 7916 8000 400 raise 
1111 1100 8000 0 fold 
2222 1409 8000 100 fold 
4444 250 8000 50 fold 
7777 800 8000 0 fold 
8888 4015 8000 300 call 
3333 2200 4078 300 call 
total pot: 1150 
/inquire 
recv from player 3333: check
send inquire msg to player 8888 
inquire/ 
3333 2100 4078 400 call 
6666 1082 8000 0 fold 
5555 7916 8000 400 raise 
1111 1100 8000 0 fold 
2222 1409 8000 100 fold 
4444 250 8000 50 fold 
7777 800 8000 0 fold 
8888 4015 8000 300 call 
total pot: 1250 
/inquire 
recv from player 8888: check
river/ 
DIAMONDS J 
/river 

---river round bet---
valid player: 8, all in player: 0, fold player: 5
send inquire msg to player 4444 
inquire/ 
7777 800 8000 0 fold 
8888 3915 8000 400 call 
3333 2100 4078 400 call 
6666 1082 8000 0 fold 
5555 7916 8000 400 raise 
1111 1100 8000 0 fold 
2222 1409 8000 100 fold 
4444 250 8000 50 fold 
total pot: 1350 
/inquire 
send inquire msg to player 2222 
inquire/ 
4444 250 8000 50 fold 
7777 800 8000 0 fold 
8888 3915 8000 400 call 
3333 2100 4078 400 call 
6666 1082 8000 0 fold 
5555 7916 8000 400 raise 
1111 1100 8000 0 fold 
2222 1409 8000 100 fold 
total pot: 1350 
/inquire 
send inquire msg to player 1111 
inquire/ 
2222 1409 8000 100 fold 
4444 250 8000 50 fold 
7777 800 8000 0 fold 
8888 3915 8000 400 call 
3333 2100 4078 400 call 
6666 1082 8000 0 fold 
5555 7916 8000 400 raise 
1111 1100 8000 0 fold 
total pot: 1350 
/inquire 
send inquire msg to player 5555 
inquire/ 
1111 1100 8000 0 fold 
2222 1409 8000 100 fold 
4444 250 8000 50 fold 
7777 800 8000 0 fold 
8888 3915 8000 400 call 
3333 2100 4078 400 call 
6666 1082 8000 0 fold 
5555 7916 8000 400 raise 
total pot: 1350 
/inquire 
recv from player 5555: raise 0
send inquire msg to player 6666 
inquire/ 
5555 7816 8000 500 raise 
1111 1100 8000 0 fold 
2222 1409 8000 100 fold 
4444 250 8000 50 fold 
7777 800 8000 0 fold 
8888 3915 8000 400 call 
3333 2100 4078 400 call 
6666 1082 8000 0 fold 
total pot: 1450 
/inquire 
send inquire msg to player 3333 
inquire/ 
6666 1082 8000 0 fold 
5555 7816 8000 500 raise 
1111 1100 8000 0 fold 
2222 1409 8000 100 fold 
4444 250 8000 50 fold 
7777 800 8000 0 fold 
8888 3915 8000 400 call 
3333 2100 4078 400 call 
total pot: 1450 
/inquire 
recv from player 3333: check
send inquire msg to player 8888 
inquire/ 
3333 2000 4078 500 call 
6666 1082 8000 0 fold 
5555 7816 8000 500 raise 
1111 1100 8000 0 fold 
2222 1409 8000 100 fold 
4444 250 8000 50 fold 
7777 800 8000 0 fold 
8888 3915 8000 400 call 
total pot: 1550 
/inquire 
recv from player 8888: check

---show down---
showdown/ 
common/ 
CLUBS 6 
HEARTS 6 
SPADES 3 
DIAMONDS 4 
DIAMONDS J 
/common 
2: 5555 HEARTS K SPADES 9 ONE_PAIR 
1: 3333 DIAMONDS 2 HEARTS 3 TWO_PAIR 
3: 8888 DIAMONDS Q SPADES 2 ONE_PAIR 
/showdown 

---Allocate pot---
pot-win/ 
3333: 1650 
/pot-win 
it is player 4444's turn to be button

-----13 Hand-----

----- clean player data in socket -----
seat/ 
button: 4444 250 8000 
small blind: 2222 1409 8000 
big blind: 1111 1100 8000 
5555 7816 8000 
6666 1082 8000 
3333 3650 4078 
8888 3815 8000 
7777 800 8000 
/seat 
blind/ 
2222: 50 
1111: 100 
/blind 
player 2222:hold/ 
DIAMONDS K 
DIAMONDS 5 
/hold 
player 1111:hold/ 
CLUBS 3 
DIAMONDS 10 
/hold 
player 5555:hold/ 
HEARTS 2 
DIAMONDS 6 
/hold 
player 6666:hold/ 
HEARTS K 
SPADES 9 
/hold 
player 3333:hold/ 
CLUBS 8 
SPADES 10 
/hold 
player 8888:hold/ 
DIAMONDS 2 
HEARTS 3 
/hold 
player 7777:hold/ 
DIAMONDS Q 
SPADES 2 
/hold 
player 4444:hold/ 
HEARTS 10 
HEARTS 8 
/hold 

---pre flop round bet---
valid player: 8, all in player: 0, fold player: 0
send inquire msg to player 5555 
inquire/ 
1111 1000 8000 100 blind 
2222 1359 8000 50 blind 
total pot: 150 
/inquire 
recv from player 5555: raise 0
send inquire msg to player 6666 
inquire/ 
5555 7616 8000 200 raise 
1111 1000 8000 100 blind 
2222 1359 8000 50 blind 
total pot: 350 
/inquire 
recv from player 6666: check
send inquire msg to player 3333 
inquire/ 
6666 882 8000 200 call 
5555 7616 8000 200 raise 
1111 1000 8000 100 blind 
2222 1359 8000 50 blind 
total pot: 550 
/inquire 
recv from player 3333: check
send inquire msg to player 8888 
inquire/ 
3333 3450 4078 200 call 
6666 882 8000 200 call 
5555 7616 8000 200 raise 
1111 1000 8000 100 blind 
2222 1359 8000 50 blind 
total pot: 750 
/inquire 
recv from player 8888: check
send inquire msg to player 7777 
inquire/ 
8888 3615 8000 200 call 
3333 3450 4078 200 call 
6666 882 8000 200 call 
5555 7616 8000 200 raise 
1111 1000 8000 100 blind 
2222 1359 8000 50 blind 
total pot: 950 
/inquire 
recv from player 7777: fold
send inquire msg to player 4444 
inquire/ 
7777 800 8000 0 fold 
8888 3615 8000 200 call 
3333 3450 4078 200 call 
6666 882 8000 200 call 
5555 7616 8000 200 raise 
1111 1000 8000 100 blind 
2222 1359 8000 50 blind 
total pot: 950 
/inquire 
recv from player 4444: fold
send inquire msg to player 2222 
inquire/ 
4444 250 8000 0 fold 
7777 800 8000 0 fold 
8888 3615 8000 200 call 
3333 3450 4078 200 call 
6666 882 8000 200 call 
5555 7616 8000 200 raise 
1111 1000 8000 100 blind 
2222 1359 8000 50 blind 
total pot: 950 
/inquire 
recv from player 2222: fold
send inquire msg to player 1111 
inquire/ 
2222 1359 8000 50 fold 
4444 250 8000 0 fold 
7777 800 8000 0 fold 
8888 3615 8000 200 call 
3333 3450 4078 200 call 
6666 882 8000 200 call 
5555 7616 8000 200 raise 
1111 1000 8000 100 blind 
total pot: 950 
/inquire 
recv from player 1111: fold
flop/ 
CLUBS 6 
HEARTS 6 
SPADES 3 
/flop 

---flop round bet---
valid player: 8, all in player: 0, fold player: 4
send inquire msg to player 2222 
inquire/ 
4444 250 8000 0 fold 
7777 800 8000 0 fold 
8888 3615 8000 200 call 
3333 3450 4078 200 call 
6666 882 8000 200 call 
5555 7616 8000 200 raise 
1111 1000 8000 100 fold 
2222 1359 8000 50 fold 
total pot: 950 
/inquire 
send inquire msg to player 1111 
inquire/ 
2222 1359 8000 50 fold 
4444 250 8000 0 fold 
7777 800 8000 0 fold 
8888 3615 8000 200 call 
3333 3450 4078 200 call 
6666 882 8000 200 call 
5555 7616 8000 200 raise 
1111 1000 8000 100 fold 
total pot: 950 
/inquire 
send inquire msg to player 5555 
inquire/ 
1111 1000 8000 100 fold 
2222 1359 8000 50 fold 
4444 250 8000 0 fold 
7777 800 8000 0 fold 
8888 3615 8000 200 call 
3333 3450 4078 200 call 
6666 882 8000 200 call 
5555 7616 8000 200 raise 
total pot: 950 
/inquire 
recv from player 5555: raise 0
send inquire msg to player 6666 
inquire/ 
5555 7516 8000 300 raise 
1111 1000 8000 100 fold 
2222 1359 8000 50 fold 
4444 250 8000 0 fold 
7777 800 8000 0 fold 
8888 3615 8000 200 call 
3333 3450 4078 200 call 
6666 882 8000 200 call 
total pot: 1050 
/inquire 
recv from player 6666: check
send inquire msg to player 3333 
inquire/ 
6666 782 8000 300 call 
5555 7516 8000 300 raise 
1111 1000 8000 100 fold 
2222 1359 8000 50 fold 
4444 250 8000 0 fold 
7777 800 8000 0 fold 
8888 3615 8000 200 call 
3333 3450 4078 200 call 
total pot: 1150 
/inquire 
recv from player 3333: check
send inquire msg to player 8888 
inquire/ 
3333 3350 4078 300 call 
6666 782 8000 300 call 
5555 7516 8000 300 raise 
1111 1000 8000 100 fold 
2222 1359 8000 50 fold 
4444 250 8000 0 fold 
7777 800 8000 0 fold 
8888 3615 8000 200 call 
total pot: 1250 
/inquire 
recv from player 8888: check
turn/ 
DIAMONDS 4 
/turn 

---turn round bet---
valid player: 8, all in player: 0, fold player: 4
send inquire msg to player 2222 
inquire/ 
4444 250 8000 0 fold 
7777 800 8000 0 fold 
8888 3515 8000 300 call 
3333 3350 4078 300 call 
6666 782 8000 300 call 
5555 7516 8000 300 raise 
1111 1000 8000 100 fold 
2222 1359 8000 50 fold 
total pot: 1350 
/inquire 
send inquire msg to player 1111 
inquire/ 
2222 1359 8000 50 fold 
4444 250 8000 0 fold 
7777 800 8000 0 fold 
8888 3515 8000 300 call 
3333 3350 4078 300 call 
6666 782 8000 300 call 
5555 7516 8000 300 raise 
1111 1000 8000 100 fold 
total pot: 1350 
/inquire 
send inquire msg to player 5555 
inquire/ 
1111 1000 8000 100 fold 
2222 1359 8000 50 fold 
4444 250 8000 0 fold 
7777 800 8000 0 fold 
8888 3515 8000 300 call 
3333 3350 4078 300 call 
6666 782 8000 300 call 
5555 7516 8000 300 raise 
total pot: 1350 
/inquire 
recv from player 5555: raise 0
send inquire msg to player 6666 
inquire/ 
5555 7416 8000 400 raise 
1111 1000 8000 100 fold 
2222 1359 8000 50 fold 
4444 250 8000 0 fold 
7777 800 8000 0 fold 
8888 3515 8000 300 call 
3333 3350 4078 300 call 
6666 782 8000 300 call 
total pot: 1450 
/inquire 
recv from player 6666: fold
send inquire msg to player 3333 
inquire/ 
6666 782 8000 300 fold 
5555 7416 8000 400 raise 
1111 1000 8000 100 fold 
2222 1359 8000 50 fold 
4444 250 8000 0 fold 
7777 800 8000 0 fold 
8888 3515 8000 300 call 
3333 3350 4078 300 call 
total pot: 1450 
/inquire 
recv from player 3333: check
send inquire msg to player 8888 
inquire/ 
3333 3250 4078 400 call 
6666 782 8000 300 fold 
5555 7416 8000 400 raise 
1111 1000 8000 100 fold 
2222 1359 8000 50 fold 
4444 250 8000 0 fold 
7777 800 8000 0 fold 
8888 3515 8000 300 call 
total pot: 1550 
/inquire 
recv from player 8888: check
river/ 
DIAMONDS J 
/river 

---river round bet---
valid player: 8, all in player: 0, fold player: 5
send inquire msg to player 2222 
inquire/ 
4444 250 8000 0 fold 
7777 800 8000 0 fold 
8888 3415 8000 400 call 
3333 3250 4078 400 call 
6666 782 8000 300 fold 
5555 7416 8000 400 raise 
1111 1000 8000 100 fold 
2222 1359 8000 50 fold 
total pot: 1650 
/inquire 
send inquire msg to player 1111 
inquire/ 
2222 1359 8000 50 fold 
4444 250 8000 0 fold 
7777 800 8000 0 fold 
8888 3415 8000 400 call 
3333 3250 4078 400 call 
6666 782 8000 300 fold 
5555 7416 8000 400 raise 
1111 1000 8000 100 fold 
total pot: 1650 
/inquire 
send inquire msg to player 5555 
inquire/ 
1111 1000 8000 100 fold 
2222 1359 8000 50 fold 
4444 250 8000 0 fold 
7777 800 8000 0 fold 
8888 3415 8000 400 call 
3333 3250 4078 400 call 
6666 782 8000 300 fold 
5555 7416 8000 400 raise 
total pot: 1650 
/inquire 
recv from player 5555: check
send inquire msg to player 6666 
inquire/ 
5555 7416 8000 400 check 
1111 1000 8000 100 fold 
2222 1359 8000 50 fold 
4444 250 8000 0 fold 
7777 800 8000 0 fold 
8888 3415 8000 400 call 
3333 3250 4078 400 call 
6666 782 8000 300 fold 
total pot: 1650 
/inquire 
send inquire msg to player 3333 
inquire/ 
6666 782 8000 300 fold 
5555 7416 8000 400 check 
1111 1000 8000 100 fold 
2222 1359 8000 50 fold 
4444 250 8000 0 fold 
7777 800 8000 0 fold 
8888 3415 8000 400 call 
3333 3250 4078 400 call 
total pot: 1650 
/inquire 
recv from player 3333: check
send inquire msg to player 8888 
inquire/ 
3333 3250 4078 400 check 
6666 782 8000 300 fold 
5555 7416 8000 400 check 
1111 1000 8000 100 fold 
2222 1359 8000 50 fold 
4444 250 8000 0 fold 
7777 800 8000 0 fold 
8888 3415 8000 400 call 
total pot: 1650 
/inquire 
recv from player 8888: check

---show down---
showdown/ 
common/ 
CLUBS 6 
HEARTS 6 
SPADES 3 
DIAMONDS 4 
DIAMONDS J 
/common 
1: 5555 HEARTS 2 DIAMONDS 6 THREE_OF_A_KIND 
3: 3333 CLUBS 8 SPADES 10 ONE_PAIR 
2: 8888 DIAMONDS 2 HEARTS 3 TWO_PAIR 
/showdown 

---Allocate pot---
pot-win/ 
5555: 1650 
/pot-win 
it is player 2222's turn to be button

-----14 Hand-----

----- clean player data in socket -----
seat/ 
button: 2222 1359 8000 
small blind: 1111 1000 8000 
big blind: 5555 9066 8000 
6666 782 8000 
3333 3250 4078 
8888 3415 8000 
7777 800 8000 
4444 250 8000 
/seat 
blind/ 
1111: 50 
5555: 100 
/blind 
player 1111:hold/ 
CLUBS 8 
DIAMONDS 5 
/hold 
player 5555:hold/ 
CLUBS 9 
DIAMONDS 9 
/hold 
player 6666:hold/ 
DIAMONDS 6 
SPADES 4 
/hold 
player 3333:hold/ 
CLUBS 2 
HEARTS 3 
/hold 
player 8888:hold/ 
SPADES 2 
DIAMONDS J 
/hold 
player 7777:hold/ 
SPADES 3 
DIAMONDS A 
/hold 
player 4444:hold/ 
CLUBS 10 
HEARTS J 
/hold 
player 2222:hold/ 
SPADES 9 
SPADES 5 
/hold 

---pre flop round bet---
valid player: 8, all in player: 0, fold player: 0
send inquire msg to player 6666 
inquire/ 
5555 8966 8000 100 blind 
1111 950 8000 50 blind 
total pot: 150 
/inquire 
recv from player 6666: fold
send inquire msg to player 3333 
inquire/ 
6666 782 8000 0 fold 
5555 8966 8000 100 blind 
1111 950 8000 50 blind 
total pot: 150 
/inquire 
recv from player 3333: check
send inquire msg to player 8888 
inquire/ 
3333 3150 4078 100 call 
6666 782 8000 0 fold 
5555 8966 8000 100 blind 
1111 950 8000 50 blind 
total pot: 250 
/inquire 
recv from player 8888: check
send inquire msg to player 7777 
inquire/ 
8888 3315 8000 100 call 
3333 3150 4078 100 call 
6666 782 8000 0 fold 
5555 8966 8000 100 blind 
1111 950 8000 50 blind 
total pot: 350 
/inquire 
recv from player 7777: check
send inquire msg to player 4444 
inquire/ 
7777 700 8000 100 call 
8888 3315 8000 100 call 
3333 3150 4078 100 call 
6666 782 8000 0 fold 
5555 8966 8000 100 blind 
1111 950 8000 50 blind 
total pot: 450 
/inquire 
recv from player 4444: fold
send inquire msg to player 2222 
inquire/ 
4444 250 8000 0 fold 
7777 700 8000 100 call 
8888 3315 8000 100 call 
3333 3150 4078 100 call 
6666 782 8000 0 fold 
5555 8966 8000 100 blind 
1111 950 8000 50 blind 
total pot: 450 
/inquire 
recv from player 2222: fold
send inquire msg to player 1111 
inquire/ 
2222 1359 8000 0 fold 
4444 250 8000 0 fold 
7777 700 8000 100 call 
8888 3315 8000 100 call 
3333 3150 4078 100 call 
6666 782 8000 0 fold 
5555 8966 8000 100 blind 
1111 950 8000 50 blind 
total pot: 450 
/inquire 
recv from player 1111: check
send inquire msg to player 5555 
inquire/ 
1111 900 8000 100 call 
2222 1359 8000 0 fold 
4444 250 8000 0 fold 
7777 700 8000 100 call 
8888 3315 8000 100 call 
3333 3150 4078 100 call 
6666 782 8000 0 fold 
5555 8966 8000 100 blind 
total pot: 500 
/inquire 
recv from player 5555: check
flop/ 
HEARTS 10 
SPADES 6 
HEARTS Q 
/flop 

---flop round bet---
valid player: 8, all in player: 0, fold player: 3
send inquire msg to player 1111 
inquire/ 
2222 1359 8000 0 fold 
4444 250 8000 0 fold 
7777 700 8000 100 call 
8888 3315 8000 100 call 
3333 3150 4078 100 call 
6666 782 8000 0 fold 
5555 8966 8000 100 check 
1111 900 8000 100 call 
total pot: 500 
/inquire 
recv from player 1111: fold
send inquire msg to player 5555 
inquire/ 
1111 900 8000 100 fold 
2222 1359 8000 0 fold 
4444 250 8000 0 fold 
7777 700 8000 100 call 
8888 3315 8000 100 call 
3333 3150 4078 100 call 
6666 782 8000 0 fold 
5555 8966 8000 100 check 
total pot: 500 
/inquire 
recv from player 5555: check
send inquire msg to player 6666 
inquire/ 
5555 8966 8000 100 check 
1111 900 8000 100 fold 
2222 1359 8000 0 fold 
4444 250 8000 0 fold 
7777 700 8000 100 call 
8888 3315 8000 100 call 
3333 3150 4078 100 call 
6666 782 8000 0 fold 
total pot: 500 
/inquire 
send inquire msg to player 3333 
inquire/ 
6666 782 8000 0 fold 
5555 8966 8000 100 check 
1111 900 8000 100 fold 
2222 1359 8000 0 fold 
4444 250 8000 0 fold 
7777 700 8000 100 call 
8888 3315 8000 100 call 
3333 3150 4078 100 call 
total pot: 500 
/inquire 
recv from player 3333: check
send inquire msg to player 8888 
inquire/ 
3333 3150 4078 100 check 
6666 782 8000 0 fold 
5555 8966 8000 100 check 
1111 900 8000 100 fold 
2222 1359 8000 0 fold 
4444 250 8000 0 fold 
7777 700 8000 100 call 
8888 3315 8000 100 call 
total pot: 500 
/inquire 
recv from player 8888: check
send inquire msg to player 7777 
inquire/ 
8888 3315 8000 100 check 
3333 3150 4078 100 check 
6666 782 8000 0 fold 
5555 8966 8000 100 check 
1111 900 8000 100 fold 
2222 1359 8000 0 fold 
4444 250 8000 0 fold 
7777 700 8000 100 call 
total pot: 500 
/inquire 
recv from player 7777: check
turn/ 
HEARTS 6 
/turn 

---turn round bet---
valid player: 8, all in player: 0, fold player: 4
send inquire msg to player 1111 
inquire/ 
2222 1359 8000 0 fold 
4444 250 8000 0 fold 
7777 700 8000 100 check 
8888 3315 8000 100 check 
3333 3150 4078 100 check 
6666 782 8000 0 fold 
5555 8966 8000 100 check 
1111 900 8000 100 fold 
total pot: 500 
/inquire 
send inquire msg to player 5555 
inquire/ 
1111 900 8000 100 fold 
2222 1359 8000 0 fold 
4444 250 8000 0 fold 
7777 700 8000 100 check 
8888 3315 8000 100 check 
3333 3150 4078 100 check 
6666 782 8000 0 fold 
5555 8966 8000 100 check 
total pot: 500 
/inquire 
recv from player 5555: raise 0
send inquire msg to player 6666 
inquire/ 
5555 8866 8000 200 raise 
1111 900 8000 100 fold 
2222 1359 8000 0 fold 
4444 250 8000 0 fold 
7777 700 8000 100 check 
8888 3315 8000 100 check 
3333 3150 4078 100 check 
6666 782 8000 0 fold 
total pot: 600 
/inquire 
send inquire msg to player 3333 
inquire/ 
6666 782 8000 0 fold 
5555 8866 8000 200 raise 
1111 900 8000 100 fold 
2222 1359 8000 0 fold 
4444 250 8000 0 fold 
7777 700 8000 100 check 
8888 3315 8000 100 check 
3333 3150 4078 100 check 
total pot: 600 
/inquire 
recv from player 3333: check
send inquire msg to player 8888 
inquire/ 
3333 3050 4078 200 call 
6666 782 8000 0 fold 
5555 8866 8000 200 raise 
1111 900 8000 100 fold 
2222 1359 8000 0 fold 
4444 250 8000 0 fold 
7777 700 8000 100 check 
8888 3315 8000 100 check 
total pot: 700 
/inquire 
recv from player 8888: check
send inquire msg to player 7777 
inquire/ 
8888 3215 8000 200 call 
3333 3050 4078 200 call 
6666 782 8000 0 fold 
5555 8866 8000 200 raise 
1111 900 8000 100 fold 
2222 1359 8000 0 fold 
4444 250 8000 0 fold 
7777 700 8000 100 check 
total pot: 800 
/inquire 
recv from player 7777: fold
river/ 
CLUBS 5 
/river 

---river round bet---
valid player: 8, all in player: 0, fold player: 5
send inquire msg to player 1111 
inquire/ 
2222 1359 8000 0 fold 
4444 250 8000 0 fold 
7777 700 8000 100 fold 
8888 3215 8000 200 call 
3333 3050 4078 200 call 
6666 782 8000 0 fold 
5555 8866 8000 200 raise 
1111 900 8000 100 fold 
total pot: 800 
/inquire 
send inquire msg to player 5555 
inquire/ 
1111 900 8000 100 fold 
2222 1359 8000 0 fold 
4444 250 8000 0 fold 
7777 700 8000 100 fold 
8888 3215 8000 200 call 
3333 3050 4078 200 call 
6666 782 8000 0 fold 
5555 8866 8000 200 raise 
total pot: 800 
/inquire 
recv from player 5555: check
send inquire msg to player 6666 
inquire/ 
5555 8866 8000 200 check 
1111 900 8000 100 fold 
2222 1359 8000 0 fold 
4444 250 8000 0 fold 
7777 700 8000 100 fold 
8888 3215 8000 200 call 
3333 3050 4078 200 call 
6666 782 8000 0 fold 
total pot: 800 
/inquire 
send inquire msg to player 3333 
inquire/ 
6666 782 8000 0 fold 
5555 8866 8000 200 check 
1111 900 8000 100 fold 
2222 1359 8000 0 fold 
4444 250 8000 0 fold 
7777 700 8000 100 fold 
8888 3215 8000 200 call 
3333 3050 4078 200 call 
total pot: 800 
/inquire 
recv from player 3333: check
send inquire msg to player 8888 
inquire/ 
3333 3050 4078 200 check 
6666 782 8000 0 fold 
5555 8866 8000 200 check 
1111 900 8000 100 fold 
2222 1359 8000 0 fold 
4444 250 8000 0 fold 
7777 700 8000 100 fold 
8888 3215 8000 200 call 
total pot: 800 
/inquire 
recv from player 8888: check

---show down---
showdown/ 
common/ 
HEARTS 10 
SPADES 6 
HEARTS Q 
HEARTS 6 
CLUBS 5 
/common 
1: 5555 CLUBS 9 DIAMONDS 9 TWO_PAIR 
3: 3333 CLUBS 2 HEARTS 3 ONE_PAIR 
2: 8888 SPADES 2 DIAMONDS J ONE_PAIR 
/showdown 

---Allocate pot---
pot-win/ 
5555: 800 
/pot-win 
it is player 1111's turn to be button

-----15 Hand-----

----- clean player data in socket -----
seat/ 
button: 1111 900 8000 
small blind: 5555 9666 8000 
big blind: 6666 782 8000 
3333 3050 4078 
8888 3215 8000 
7777 700 8000 
4444 250 8000 
2222 1359 8000 
/seat 
blind/ 
5555: 50 
6666: 100 
/blind 
player 5555:hold/ 
HEARTS 2 
CLUBS K 
/hold 
player 6666:hold/ 
CLUBS 4 
SPADES A 
/hold 
player 3333:hold/ 
HEARTS 7 
HEARTS 8 
/hold 
player 8888:hold/ 
DIAMONDS 8 
CLUBS 6 
/hold 
player 7777:hold/ 
HEARTS K 
CLUBS 7 
/hold 
player 4444:hold/ 
DIAMONDS 3 
CLUBS 10 
/hold 
player 2222:hold/ 
DIAMONDS 5 
DIAMONDS 4 
/hold 
player 1111:hold/ 
HEARTS 3 
SPADES 6 
/hold 

---pre flop round bet---
valid player: 8, all in player: 0, fold player: 0
send inquire msg to player 3333 
inquire/ 
6666 682 8000 100 blind 
5555 9616 8000 50 blind 
total pot: 150 
/inquire 
recv from player 3333: check
send inquire msg to player 8888 
inquire/ 
3333 2950 4078 100 call 
6666 682 8000 100 blind 
5555 9616 8000 50 blind 
total pot: 250 
/inquire 
recv from player 8888: check
send inquire msg to player 7777 
inquire/ 
8888 3115 8000 100 call 
3333 2950 4078 100 call 
6666 682 8000 100 blind 
5555 9616 8000 50 blind 
total pot: 350 
/inquire 
recv from player 7777: check
send inquire msg to player 4444 
inquire/ 
7777 600 8000 100 call 
8888 3115 8000 100 call 
3333 2950 4078 100 call 
6666 682 8000 100 blind 
5555 9616 8000 50 blind 
total pot: 450 
/inquire 
recv from player 4444: fold
send inquire msg to player 2222 
inquire/ 
4444 250 8000 0 fold 
7777 600 8000 100 call 
8888 3115 8000 100 call 
3333 2950 4078 100 call 
6666 682 8000 100 blind 
5555 9616 8000 50 blind 
total pot: 450 
/inquire 
recv from player 2222: fold
send inquire msg to player 1111 
inquire/ 
2222 1359 8000 0 fold 
4444 250 8000 0 fold 
7777 600 8000 100 call 
8888 3115 8000 100 call 
3333 2950 4078 100 call 
6666 682 8000 100 blind 
5555 9616 8000 50 blind 
total pot: 450 
/inquire 
recv from player 1111: fold
send inquire msg to player 5555 
inquire/ 
1111 900 8000 0 fold 
2222 1359 8000 0 fold 
4444 250 8000 0 fold 
7777 600 8000 100 call 
8888 3115 8000 100 call 
3333 2950 4078 100 call 
6666 682 8000 100 blind 
5555 9616 8000 50 blind 
total pot: 450 
/inquire 
recv from player 5555: check
send inquire msg to player 6666 
inquire/ 
5555 9566 8000 100 call 
1111 900 8000 0 fold 
2222 1359 8000 0 fold 
4444 250 8000 0 fold 
7777 600 8000 100 call 
8888 3115 8000 100 call 
3333 2950 4078 100 call 
6666 682 8000 100 blind 
total pot: 500 
/inquire 
recv from player 6666: check
flop/ 
SPADES 10 
SPADES 4 
DIAMONDS 2 
/flop 

---flop round bet---
valid player: 8, all in player: 0, fold player: 3
send inquire msg to player 5555 
inquire/ 
1111 900 8000 0 fold 
2222 1359 8000 0 fold 
4444 250 8000 0 fold 
7777 600 8000 100 call 
8888 3115 8000 100 call 
3333 2950 4078 100 call 
6666 682 8000 100 check 
5555 9566 8000 100 call 
total pot: 500 
/inquire 
recv from player 5555: raise 0
send inquire msg to player 6666 
inquire/ 
5555 9466 8000 200 raise 
1111 900 8000 0 fold 
2222 1359 8000 0 fold 
4444 250 8000 0 fold 
7777 600 8000 100 call 
8888 3115 8000 100 call 
3333 2950 4078 100 call 
6666 682 8000 100 check 
total pot: 600 
/inquire 
recv from player 6666: check
send inquire msg to player 3333 
inquire/ 
6666 582 8000 200 call 
5555 9466 8000 200 raise 
1111 900 8000 0 fold 
2222 1359 8000 0 fold 
4444 250 8000 0 fold 
7777 600 8000 100 call 
8888 3115 8000 100 call 
3333 2950 4078 100 call 
total pot: 700 
/inquire 
recv from player 3333: check
send inquire msg to player 8888 
inquire/ 
3333 2850 4078 200 call 
6666 582 8000 200 call 
5555 9466 8000 200 raise 
1111 900 8000 0 fold 
2222 1359 8000 0 fold 
4444 250 8000 0 fold 
7777 600 8000 100 call 
8888 3115 8000 100 call 
total pot: 800 
/inquire 
recv from player 8888: check
send inquire msg to player 7777 
inquire/ 
8888 3015 8000 200 call 
3333 2850 4078 200 call 
6666 582 8000 200 call 
5555 9466 8000 200 raise 
1111 900 8000 0 fold 
2222 1359 8000 0 fold 
4444 250 8000 0 fold 
7777 600 8000 100 call 
total pot: 900 
/inquire 
recv from player 7777: fold
turn/ 
SPADES K 
/turn 

---turn round bet---
valid player: 8, all in player: 0, fold player: 4
send inquire msg to player 5555 
inquire/ 
1111 900 8000 0 fold 
2222 1359 8000 0 fold 
4444 250 8000 0 fold 
7777 600 8000 100 fold 
8888 3015 8000 200 call 
3333 2850 4078 200 call 
6666 582 8000 200 call 
5555 9466 8000 200 raise 
total pot: 900 
/inquire 
recv from player 5555: raise 0
send inquire msg to player 6666 
inquire/ 
5555 9366 8000 300 raise 
1111 900 8000 0 fold 
2222 1359 8000 0 fold 
4444 250 8000 0 fold 
7777 600 8000 100 fold 
8888 3015 8000 200 call 
3333 2850 4078 200 call 
6666 582 8000 200 call 
total pot: 1000 
/inquire 
recv from player 6666: check
send inquire msg to player 3333 
inquire/ 
6666 482 8000 300 call 
5555 9366 8000 300 raise 
1111 900 8000 0 fold 
2222 1359 8000 0 fold 
4444 250 8000 0 fold 
7777 600 8000 100 fold 
8888 3015 8000 200 call 
3333 2850 4078 200 call 
total pot: 1100 
/inquire 
recv from player 3333: check
send inquire msg to player 8888 
inquire/ 
3333 2750 4078 300 call 
6666 482 8000 300 call 
5555 9366 8000 300 raise 
1111 900 8000 0 fold 
2222 1359 8000 0 fold 
4444 250 8000 0 fold 
7777 600 8000 100 fold 
8888 3015 8000 200 call 
total pot: 1200 
/inquire 
recv from player 8888: check
river/ 
HEARTS 10 
/river 

---river round bet---
valid player: 8, all in player: 0, fold player: 4
send inquire msg to player 5555 
inquire/ 
1111 900 8000 0 fold 
2222 1359 8000 0 fold 
4444 250 8000 0 fold 
7777 600 8000 100 fold 
8888 2915 8000 300 call 
3333 2750 4078 300 call 
6666 482 8000 300 call 
5555 9366 8000 300 raise 
total pot: 1300 
/inquire 
recv from player 5555: raise 0
send inquire msg to player 6666 
inquire/ 
5555 9266 8000 400 raise 
1111 900 8000 0 fold 
2222 1359 8000 0 fold 
4444 250 8000 0 fold 
7777 600 8000 100 fold 
8888 2915 8000 300 call 
3333 2750 4078 300 call 
6666 482 8000 300 call 
total pot: 1400 
/inquire 
recv from player 6666: fold
send inquire msg to player 3333 
inquire/ 
6666 482 8000 300 fold 
5555 9266 8000 400 raise 
1111 900 8000 0 fold 
2222 1359 8000 0 fold 
4444 250 8000 0 fold 
7777 600 8000 100 fold 
8888 2915 8000 300 call 
3333 2750 4078 300 call 
total pot: 1400 
/inquire 
recv from player 3333: check
send inquire msg to player 8888 
inquire/ 
3333 2650 4078 400 call 
6666 482 8000 300 fold 
5555 9266 8000 400 raise 
1111 900 8000 0 fold 
2222 1359 8000 0 fold 
4444 250 8000 0 fold 
7777 600 8000 100 fold 
8888 2915 8000 300 call 
total pot: 1500 
/inquire 
recv from player 8888: check

---show down---
showdown/ 
common/ 
SPADES 10 
SPADES 4 
DIAMONDS 2 
SPADES K 
HEARTS 10 
/common 
1: 5555 HEARTS 2 CLUBS K TWO_PAIR 
2: 3333 HEARTS 7 HEARTS 8 ONE_PAIR 
3: 8888 DIAMONDS 8 CLUBS 6 ONE_PAIR 
/showdown 

---Allocate pot---
pot-win/ 
5555: 1600 
/pot-win 
it is player 5555's turn to be button

-----16 Hand-----

----- clean player data in socket -----
seat/ 
button: 5555 10866 8000 
small blind: 6666 482 8000 
big blind: 3333 2650 4078 
8888 2815 8000 
7777 600 8000 
4444 250 8000 
2222 1359 8000 
1111 900 8000 
/seat 
blind/ 
6666: 50 
3333: 100 
/blind 
player 6666:hold/ 
CLUBS K 
HEARTS 5 
/hold 
player 3333:hold/ 
DIAMONDS 10 
SPADES 2 
/hold 
player 8888:hold/ 
DIAMONDS 4 
CLUBS 10 
/hold 
player 7777:hold/ 
CLUBS 9 
CLUBS J 
/hold 
player 4444:hold/ 
HEARTS 10 
DIAMONDS Q 
/hold 
player 2222:hold/ 
SPADES 3 
HEARTS 9 
/hold 
player 1111:hold/ 
HEARTS 8 
SPADES J 
/hold 
player 5555:hold/ 
DIAMONDS A 
CLUBS 8 
/hold 

---pre flop round bet---
valid player: 8, all in player: 0, fold player: 0
send inquire msg to player 8888 
inquire/ 
3333 2550 4078 100 blind 
6666 432 8000 50 blind 
total pot: 150 
/inquire 
recv from player 8888: check
send inquire msg to player 7777 
inquire/ 
8888 2715 8000 100 call 
3333 2550 4078 100 blind 
6666 432 8000 50 blind 
total pot: 250 
/inquire 
recv from player 7777: check
send inquire msg to player 4444 
inquire/ 
7777 500 8000 100 call 
8888 2715 8000 100 call 
3333 2550 4078 100 blind 
6666 432 8000 50 blind 
total pot: 350 
/inquire 
recv from player 4444: fold
send inquire msg to player 2222 
inquire/ 
4444 250 8000 0 fold 
7777 500 8000 100 call 
8888 2715 8000 100 call 
3333 2550 4078 100 blind 
6666 432 8000 50 blind 
total pot: 350 
/inquire 
recv from player 2222: check
send inquire msg to player 1111 
inquire/ 
2222 1259 8000 100 call 
4444 250 8000 0 fold 
7777 500 8000 100 call 
8888 2715 8000 100 call 
3333 2550 4078 100 blind 
6666 432 8000 50 blind 
total pot: 450 
/inquire 
recv from player 1111: fold
send inquire msg to player 5555 
inquire/ 
1111 900 8000 0 fold 
2222 1259 8000 100 call 
4444 250 8000 0 fold 
7777 500 8000 100 call 
8888 2715 8000 100 call 
3333 2550 4078 100 blind 
6666 432 8000 50 blind 
total pot: 450 
/inquire 
recv from player 5555: raise 0
send inquire msg to player 6666 
inquire/ 
5555 10666 8000 200 raise 
1111 900 8000 0 fold 
2222 1259 8000 100 call 
4444 250 8000 0 fold 
7777 500 8000 100 call 
8888 2715 8000 100 call 
3333 2550 4078 100 blind 
6666 432 8000 50 blind 
total pot: 650 
/inquire 
recv from player 6666: fold
send inquire msg to player 3333 
inquire/ 
6666 432 8000 50 fold 
5555 10666 8000 200 raise 
1111 900 8000 0 fold 
2222 1259 8000 100 call 
4444 250 8000 0 fold 
7777 500 8000 100 call 
8888 2715 8000 100 call 
3333 2550 4078 100 blind 
total pot: 650 
/inquire 
recv from player 3333: check
send inquire msg to player 8888 
inquire/ 
3333 2450 4078 200 call 
6666 432 8000 50 fold 
5555 10666 8000 200 raise 
1111 900 8000 0 fold 
2222 1259 8000 100 call 
4444 250 8000 0 fold 
7777 500 8000 100 call 
8888 2715 8000 100 call 
total pot: 750 
/inquire 
recv from player 8888: check
send inquire msg to player 7777 
inquire/ 
8888 2615 8000 200 call 
3333 2450 4078 200 call 
6666 432 8000 50 fold 
5555 10666 8000 200 raise 
1111 900 8000 0 fold 
2222 1259 8000 100 call 
4444 250 8000 0 fold 
7777 500 8000 100 call 
total pot: 850 
/inquire 
recv from player 7777: fold
send inquire msg to player 4444 
inquire/ 
7777 500 8000 100 fold 
8888 2615 8000 200 call 
3333 2450 4078 200 call 
6666 432 8000 50 fold 
5555 10666 8000 200 raise 
1111 900 8000 0 fold 
2222 1259 8000 100 call 
4444 250 8000 0 fold 
total pot: 850 
/inquire 
send inquire msg to player 2222 
inquire/ 
4444 250 8000 0 fold 
7777 500 8000 100 fold 
8888 2615 8000 200 call 
3333 2450 4078 200 call 
6666 432 8000 50 fold 
5555 10666 8000 200 raise 
1111 900 8000 0 fold 
2222 1259 8000 100 call 
total pot: 850 
/inquire 
recv from player 2222: check
flop/ 
DIAMONDS 7 
HEARTS 6 
HEARTS 4 
/flop 

---flop round bet---
valid player: 8, all in player: 0, fold player: 4
send inquire msg to player 6666 
inquire/ 
5555 10666 8000 200 raise 
1111 900 8000 0 fold 
2222 1159 8000 200 call 
4444 250 8000 0 fold 
7777 500 8000 100 fold 
8888 2615 8000 200 call 
3333 2450 4078 200 call 
6666 432 8000 50 fold 
total pot: 950 
/inquire 
send inquire msg to player 3333 
inquire/ 
6666 432 8000 50 fold 
5555 10666 8000 200 raise 
1111 900 8000 0 fold 
2222 1159 8000 200 call 
4444 250 8000 0 fold 
7777 500 8000 100 fold 
8888 2615 8000 200 call 
3333 2450 4078 200 call 
total pot: 950 
/inquire 
recv from player 3333: check
send inquire msg to player 8888 
inquire/ 
3333 2450 4078 200 check 
6666 432 8000 50 fold 
5555 10666 8000 200 raise 
1111 900 8000 0 fold 
2222 1159 8000 200 call 
4444 250 8000 0 fold 
7777 500 8000 100 fold 
8888 2615 8000 200 call 
total pot: 950 
/inquire 
recv from player 8888: check
send inquire msg to player 7777 
inquire/ 
8888 2615 8000 200 check 
3333 2450 4078 200 check 
6666 432 8000 50 fold 
5555 10666 8000 200 raise 
1111 900 8000 0 fold 
2222 1159 8000 200 call 
4444 250 8000 0 fold 
7777 500 8000 100 fold 
total pot: 950 
/inquire 
send inquire msg to player 4444 
inquire/ 
7777 500 8000 100 fold 
8888 2615 8000 200 check 
3333 2450 4078 200 check 
6666 432 8000 50 fold 
5555 10666 8000 200 raise 
1111 900 8000 0 fold 
2222 1159 8000 200 call 
4444 250 8000 0 fold 
total pot: 950 
/inquire 
send inquire msg to player 2222 
inquire/ 
4444 250 8000 0 fold 
7777 500 8000 100 fold 
8888 2615 8000 200 check 
3333 2450 4078 200 check 
6666 432 8000 50 fold 
5555 10666 8000 200 raise 
1111 900 8000 0 fold 
2222 1159 8000 200 call 
total pot: 950 
/inquire 
recv from player 2222: fold
send inquire msg to player 1111 
inquire/ 
2222 1159 8000 200 fold 
4444 250 8000 0 fold 
7777 500 8000 100 fold 
8888 2615 8000 200 check 
3333 2450 4078 200 check 
6666 432 8000 50 fold 
5555 10666 8000 200 raise 
1111 900 8000 0 fold 
total pot: 950 
/inquire 
send inquire msg to player 5555 
inquire/ 
1111 900 8000 0 fold 
2222 1159 8000 200 fold 
4444 250 8000 0 fold 
7777 500 8000 100 fold 
8888 2615 8000 200 check 
3333 2450 4078 200 check 
6666 432 8000 50 fold 
5555 10666 8000 200 raise 
total pot: 950 
/inquire 
recv from player 5555: check
turn/ 
SPADES 6 
/turn 

---turn round bet---
valid player: 8, all in player: 0, fold player: 5
send inquire msg to player 6666 
inquire/ 
5555 10666 8000 200 check 
1111 900 8000 0 fold 
2222 1159 8000 200 fold 
4444 250 8000 0 fold 
7777 500 8000 100 fold 
8888 2615 8000 200 check 
3333 2450 4078 200 check 
6666 432 8000 50 fold 
total pot: 950 
/inquire 
send inquire msg to player 3333 
inquire/ 
6666 432 8000 50 fold 
5555 10666 8000 200 check 
1111 900 8000 0 fold 
2222 1159 8000 200 fold 
4444 250 8000 0 fold 
7777 500 8000 100 fold 
8888 2615 8000 200 check 
3333 2450 4078 200 check 
total pot: 950 
/inquire 
recv from player 3333: check
send inquire msg to player 8888 
inquire/ 
3333 2450 4078 200 check 
6666 432 8000 50 fold 
5555 10666 8000 200 check 
1111 900 8000 0 fold 
2222 1159 8000 200 fold 
4444 250 8000 0 fold 
7777 500 8000 100 fold 
8888 2615 8000 200 check 
total pot: 950 
/inquire 
recv from player 8888: check
send inquire msg to player 7777 
inquire/ 
8888 2615 8000 200 check 
3333 2450 4078 200 check 
6666 432 8000 50 fold 
5555 10666 8000 200 check 
1111 900 8000 0 fold 
2222 1159 8000 200 fold 
4444 250 8000 0 fold 
7777 500 8000 100 fold 
total pot: 950 
/inquire 
send inquire msg to player 4444 
inquire/ 
7777 500 8000 100 fold 
8888 2615 8000 200 check 
3333 2450 4078 200 check 
6666 432 8000 50 fold 
5555 10666 8000 200 check 
1111 900 8000 0 fold 
2222 1159 8000 200 fold 
4444 250 8000 0 fold 
total pot: 950 
/inquire 
send inquire msg to player 2222 
inquire/ 
4444 250 8000 0 fold 
7777 500 8000 100 fold 
8888 2615 8000 200 check 
3333 2450 4078 200 check 
6666 432 8000 50 fold 
5555 10666 8000 200 check 
1111 900 8000 0 fold 
2222 1159 8000 200 fold 
total pot: 950 
/inquire 
send inquire msg to player 1111 
inquire/ 
2222 1159 8000 200 fold 
4444 250 8000 0 fold 
7777 500 8000 100 fold 
8888 2615 8000 200 check 
3333 2450 4078 200 check 
6666 432 8000 50 fold 
5555 10666 8000 200 check 
1111 900 8000 0 fold 
total pot: 950 
/inquire 
send inquire msg to player 5555 
inquire/ 
1111 900 8000 0 fold 
2222 1159 8000 200 fold 
4444 250 8000 0 fold 
7777 500 8000 100 fold 
8888 2615 8000 200 check 
3333 2450 4078 200 check 
6666 432 8000 50 fold 
5555 10666 8000 200 check 
total pot: 950 
/inquire 
recv from player 5555: raise 0
send inquire msg to player 6666 
inquire/ 
5555 10566 8000 300 raise 
1111 900 8000 0 fold 
2222 1159 8000 200 fold 
4444 250 8000 0 fold 
7777 500 8000 100 fold 
8888 2615 8000 200 check 
3333 2450 4078 200 check 
6666 432 8000 50 fold 
total pot: 1050 
/inquire 
send inquire msg to player 3333 
inquire/ 
6666 432 8000 50 fold 
5555 10566 8000 300 raise 
1111 900 8000 0 fold 
2222 1159 8000 200 fold 
4444 250 8000 0 fold 
7777 500 8000 100 fold 
8888 2615 8000 200 check 
3333 2450 4078 200 check 
total pot: 1050 
/inquire 
recv from player 3333: check
send inquire msg to player 8888 
inquire/ 
3333 2350 4078 300 call 
6666 432 8000 50 fold 
5555 10566 8000 300 raise 
1111 900 8000 0 fold 
2222 1159 8000 200 fold 
4444 250 8000 0 fold 
7777 500 8000 100 fold 
8888 2615 8000 200 check 
total pot: 1150 
/inquire 
recv from player 8888: check
river/ 
HEARTS J 
/river 

---river round bet---
valid player: 8, all in player: 0, fold player: 5
send inquire msg to player 6666 
inquire/ 
5555 10566 8000 300 raise 
1111 900 8000 0 fold 
2222 1159 8000 200 fold 
4444 250 8000 0 fold 
7777 500 8000 100 fold 
8888 2515 8000 300 call 
3333 2350 4078 300 call 
6666 432 8000 50 fold 
total pot: 1250 
/inquire 
send inquire msg to player 3333 
inquire/ 
6666 432 8000 50 fold 
5555 10566 8000 300 raise 
1111 900 8000 0 fold 
2222 1159 8000 200 fold 
4444 250 8000 0 fold 
7777 500 8000 100 fold 
8888 2515 8000 300 call 
3333 2350 4078 300 call 
total pot: 1250 
/inquire 
recv from player 3333: check
send inquire msg to player 8888 
inquire/ 
3333 2350 4078 300 check 
6666 432 8000 50 fold 
5555 10566 8000 300 raise 
1111 900 8000 0 fold 
2222 1159 8000 200 fold 
4444 250 8000 0 fold 
7777 500 8000 100 fold 
8888 2515 8000 300 call 
total pot: 1250 
/inquire 
recv from player 8888: check
send inquire msg to player 7777 
inquire/ 
8888 2515 8000 300 check 
3333 2350 4078 300 check 
6666 432 8000 50 fold 
5555 10566 8000 300 raise 
1111 900 8000 0 fold 
2222 1159 8000 200 fold 
4444 250 8000 0 fold 
7777 500 8000 100 fold 
total pot: 1250 
/inquire 
send inquire msg to player 4444 
inquire/ 
7777 500 8000 100 fold 
8888 2515 8000 300 check 
3333 2350 4078 300 check 
6666 432 8000 50 fold 
5555 10566 8000 300 raise 
1111 900 8000 0 fold 
2222 1159 8000 200 fold 
4444 250 8000 0 fold 
total pot: 1250 
/inquire 
send inquire msg to player 2222 
inquire/ 
4444 250 8000 0 fold 
7777 500 8000 100 fold 
8888 2515 8000 300 check 
3333 2350 4078 300 check 
6666 432 8000 50 fold 
5555 10566 8000 300 raise 
1111 900 8000 0 fold 
2222 1159 8000 200 fold 
total pot: 1250 
/inquire 
send inquire msg to player 1111 
inquire/ 
2222 1159 8000 200 fold 
4444 250 8000 0 fold 
7777 500 8000 100 fold 
8888 2515 8000 300 check 
3333 2350 4078 300 check 
6666 432 8000 50 fold 
5555 10566 8000 300 raise 
1111 900 8000 0 fold 
total pot: 1250 
/inquire 
send inquire msg to player 5555 
inquire/ 
1111 900 8000 0 fold 
2222 1159 8000 200 fold 
4444 250 8000 0 fold 
7777 500 8000 100 fold 
8888 2515 8000 300 check 
3333 2350 4078 300 check 
6666 432 8000 50 fold 
5555 10566 8000 300 raise 
total pot: 1250 
/inquire 
recv from player 5555: raise 0
send inquire msg to player 6666 
inquire/ 
5555 10466 8000 400 raise 
1111 900 8000 0 fold 
2222 1159 8000 200 fold 
4444 250 8000 0 fold 
7777 500 8000 100 fold 
8888 2515 8000 300 check 
3333 2350 4078 300 check 
6666 432 8000 50 fold 
total pot: 1350 
/inquire 
send inquire msg to player 3333 
inquire/ 
6666 432 8000 50 fold 
5555 10466 8000 400 raise 
1111 900 8000 0 fold 
2222 1159 8000 200 fold 
4444 250 8000 0 fold 
7777 500 8000 100 fold 
8888 2515 8000 300 check 
3333 2350 4078 300 check 
total pot: 1350 
/inquire 
recv from player 3333: check
send inquire msg to player 8888 
inquire/ 
3333 2250 4078 400 call 
6666 432 8000 50 fold 
5555 10466 8000 400 raise 
1111 900 8000 0 fold 
2222 1159 8000 200 fold 
4444 250 8000 0 fold 
7777 500 8000 100 fold 
8888 2515 8000 300 check 
total pot: 1450 
/inquire 
recv from player 8888: check

---show down---
showdown/ 
common/ 
DIAMONDS 7 
HEARTS 6 
HEARTS 4 
SPADES 6 
HEARTS J 
/common 
3: 3333 DIAMONDS 10 SPADES 2 ONE_PAIR 
1: 8888 DIAMONDS 4 CLUBS 10 TWO_PAIR 
2: 5555 DIAMONDS A CLUBS 8 ONE_PAIR 
/showdown 

---Allocate pot---
pot-win/ 
8888: 1550 
/pot-win 
it is player 6666's turn to be button

-----17 Hand-----

----- clean player data in socket -----
seat/ 
button: 6666 432 8000 
small blind: 3333 2250 4078 
big blind: 8888 3965 8000 
7777 500 8000 
4444 250 8000 
2222 1159 8000 
1111 900 8000 
5555 10466 8000 
/seat 
blind/ 
3333: 50 
8888: 100 
/blind 
player 3333:hold/ 
CLUBS K 
HEARTS 5 
/hold 
player 8888:hold/ 
DIAMONDS 10 
SPADES 2 
/hold 
player 7777:hold/ 
DIAMONDS 4 
CLUBS 10 
/hold 
player 4444:hold/ 
CLUBS 9 
CLUBS J 
/hold 
player 2222:hold/ 
HEARTS 10 
DIAMONDS Q 
/hold 
player 1111:hold/ 
SPADES 3 
HEARTS 9 
/hold 
player 5555:hold/ 
HEARTS 8 
SPADES J 
/hold 
player 6666:hold/ 
DIAMONDS A 
CLUBS 8 
/hold 

---pre flop round bet---
valid player: 8, all in player: 0, fold player: 0
send inquire msg to player 7777 
inquire/ 
8888 3865 8000 100 blind 
3333 2200 4078 50 blind 
total pot: 150 
/inquire 
recv from player 7777: check
send inquire msg to player 4444 
inquire/ 
7777 400 8000 100 call 
8888 3865 8000 100 blind 
3333 2200 4078 50 blind 
total pot: 250 
/inquire 
recv from player 4444: fold
send inquire msg to player 2222 
inquire/ 
4444 250 8000 0 fold 
7777 400 8000 100 call 
8888 3865 8000 100 blind 
3333 2200 4078 50 blind 
total pot: 250 
/inquire 
recv from player 2222: fold
send inquire msg to player 1111 
inquire/ 
2222 1159 8000 0 fold 
4444 250 8000 0 fold 
7777 400 8000 100 call 
8888 3865 8000 100 blind 
3333 2200 4078 50 blind 
total pot: 250 
/inquire 
recv from player 1111: fold
send inquire msg to player 5555 
inquire/ 
1111 900 8000 0 fold 
2222 1159 8000 0 fold 
4444 250 8000 0 fold 
7777 400 8000 100 call 
8888 3865 8000 100 blind 
3333 2200 4078 50 blind 
total pot: 250 
/inquire 
recv from player 5555: raise 0
send inquire msg to player 6666 
inquire/ 
5555 10266 8000 200 raise 
1111 900 8000 0 fold 
2222 1159 8000 0 fold 
4444 250 8000 0 fold 
7777 400 8000 100 call 
8888 3865 8000 100 blind 
3333 2200 4078 50 blind 
total pot: 450 
/inquire 
recv from player 6666: fold
send inquire msg to player 3333 
inquire/ 
6666 432 8000 0 fold 
5555 10266 8000 200 raise 
1111 900 8000 0 fold 
2222 1159 8000 0 fold 
4444 250 8000 0 fold 
7777 400 8000 100 call 
8888 3865 8000 100 blind 
3333 2200 4078 50 blind 
total pot: 450 
/inquire 
recv from player 3333: check
send inquire msg to player 8888 
inquire/ 
3333 2050 4078 200 call 
6666 432 8000 0 fold 
5555 10266 8000 200 raise 
1111 900 8000 0 fold 
2222 1159 8000 0 fold 
4444 250 8000 0 fold 
7777 400 8000 100 call 
8888 3865 8000 100 blind 
total pot: 600 
/inquire 
recv from player 8888: check
send inquire msg to player 7777 
inquire/ 
8888 3765 8000 200 call 
3333 2050 4078 200 call 
6666 432 8000 0 fold 
5555 10266 8000 200 raise 
1111 900 8000 0 fold 
2222 1159 8000 0 fold 
4444 250 8000 0 fold 
7777 400 8000 100 call 
total pot: 700 
/inquire 
recv from player 7777: fold
flop/ 
DIAMONDS 7 
HEARTS 6 
HEARTS 4 
/flop 

---flop round bet---
valid player: 8, all in player: 0, fold player: 5
send inquire msg to player 3333 
inquire/ 
6666 432 8000 0 fold 
5555 10266 8000 200 raise 
1111 900 8000 0 fold 
2222 1159 8000 0 fold 
4444 250 8000 0 fold 
7777 400 8000 100 fold 
8888 3765 8000 200 call 
3333 2050 4078 200 call 
total pot: 700 
/inquire 
recv from player 3333: check
send inquire msg to player 8888 
inquire/ 
3333 2050 4078 200 check 
6666 432 8000 0 fold 
5555 10266 8000 200 raise 
1111 900 8000 0 fold 
2222 1159 8000 0 fold 
4444 250 8000 0 fold 
7777 400 8000 100 fold 
8888 3765 8000 200 call 
total pot: 700 
/inquire 
recv from player 8888: check
send inquire msg to player 7777 
inquire/ 
8888 3765 8000 200 check 
3333 2050 4078 200 check 
6666 432 8000 0 fold 
5555 10266 8000 200 raise 
1111 900 8000 0 fold 
2222 1159 8000 0 fold 
4444 250 8000 0 fold 
7777 400 8000 100 fold 
total pot: 700 
/inquire 
send inquire msg to player 4444 
inquire/ 
7777 400 8000 100 fold 
8888 3765 8000 200 check 
3333 2050 4078 200 check 
6666 432 8000 0 fold 
5555 10266 8000 200 raise 
1111 900 8000 0 fold 
2222 1159 8000 0 fold 
4444 250 8000 0 fold 
total pot: 700 
/inquire 
send inquire msg to player 2222 
inquire/ 
4444 250 8000 0 fold 
7777 400 8000 100 fold 
8888 3765 8000 200 check 
3333 2050 4078 200 check 
6666 432 8000 0 fold 
5555 10266 8000 200 raise 
1111 900 8000 0 fold 
2222 1159 8000 0 fold 
total pot: 700 
/inquire 
send inquire msg to player 1111 
inquire/ 
2222 1159 8000 0 fold 
4444 250 8000 0 fold 
7777 400 8000 100 fold 
8888 3765 8000 200 check 
3333 2050 4078 200 check 
6666 432 8000 0 fold 
5555 10266 8000 200 raise 
1111 900 8000 0 fold 
total pot: 700 
/inquire 
send inquire msg to player 5555 
inquire/ 
1111 900 8000 0 fold 
2222 1159 8000 0 fold 
4444 250 8000 0 fold 
7777 400 8000 100 fold 
8888 3765 8000 200 check 
3333 2050 4078 200 check 
6666 432 8000 0 fold 
5555 10266 8000 200 raise 
total pot: 700 
/inquire 
recv from player 5555: check
turn/ 
SPADES 6 
/turn 

---turn round bet---
valid player: 8, all in player: 0, fold player: 5
send inquire msg to player 3333 
inquire/ 
6666 432 8000 0 fold 
5555 10266 8000 200 check 
1111 900 8000 0 fold 
2222 1159 8000 0 fold 
4444 250 8000 0 fold 
7777 400 8000 100 fold 
8888 3765 8000 200 check 
3333 2050 4078 200 check 
total pot: 700 
/inquire 
recv from player 3333: check
send inquire msg to player 8888 
inquire/ 
3333 2050 4078 200 check 
6666 432 8000 0 fold 
5555 10266 8000 200 check 
1111 900 8000 0 fold 
2222 1159 8000 0 fold 
4444 250 8000 0 fold 
7777 400 8000 100 fold 
8888 3765 8000 200 check 
total pot: 700 
/inquire 
recv from player 8888: check
send inquire msg to player 7777 
inquire/ 
8888 3765 8000 200 check 
3333 2050 4078 200 check 
6666 432 8000 0 fold 
5555 10266 8000 200 check 
1111 900 8000 0 fold 
2222 1159 8000 0 fold 
4444 250 8000 0 fold 
7777 400 8000 100 fold 
total pot: 700 
/inquire 
send inquire msg to player 4444 
inquire/ 
7777 400 8000 100 fold 
8888 3765 8000 200 check 
3333 2050 4078 200 check 
6666 432 8000 0 fold 
5555 10266 8000 200 check 
1111 900 8000 0 fold 
2222 1159 8000 0 fold 
4444 250 8000 0 fold 
total pot: 700 
/inquire 
send inquire msg to player 2222 
inquire/ 
4444 250 8000 0 fold 
7777 400 8000 100 fold 
8888 3765 8000 200 check 
3333 2050 4078 200 check 
6666 432 8000 0 fold 
5555 10266 8000 200 check 
1111 900 8000 0 fold 
2222 1159 8000 0 fold 
total pot: 700 
/inquire 
send inquire msg to player 1111 
inquire/ 
2222 1159 8000 0 fold 
4444 250 8000 0 fold 
7777 400 8000 100 fold 
8888 3765 8000 200 check 
3333 2050 4078 200 check 
6666 432 8000 0 fold 
5555 10266 8000 200 check 
1111 900 8000 0 fold 
total pot: 700 
/inquire 
send inquire msg to player 5555 
inquire/ 
1111 900 8000 0 fold 
2222 1159 8000 0 fold 
4444 250 8000 0 fold 
7777 400 8000 100 fold 
8888 3765 8000 200 check 
3333 2050 4078 200 check 
6666 432 8000 0 fold 
5555 10266 8000 200 check 
total pot: 700 
/inquire 
recv from player 5555: check
river/ 
HEARTS J 
/river 

---river round bet---
valid player: 8, all in player: 0, fold player: 5
send inquire msg to player 3333 
inquire/ 
6666 432 8000 0 fold 
5555 10266 8000 200 check 
1111 900 8000 0 fold 
2222 1159 8000 0 fold 
4444 250 8000 0 fold 
7777 400 8000 100 fold 
8888 3765 8000 200 check 
3333 2050 4078 200 check 
total pot: 700 
/inquire 
recv from player 3333: check
send inquire msg to player 8888 
inquire/ 
3333 2050 4078 200 check 
6666 432 8000 0 fold 
5555 10266 8000 200 check 
1111 900 8000 0 fold 
2222 1159 8000 0 fold 
4444 250 8000 0 fold 
7777 400 8000 100 fold 
8888 3765 8000 200 check 
total pot: 700 
/inquire 
recv from player 8888: check
send inquire msg to player 7777 
inquire/ 
8888 3765 8000 200 check 
3333 2050 4078 200 check 
6666 432 8000 0 fold 
5555 10266 8000 200 check 
1111 900 8000 0 fold 
2222 1159 8000 0 fold 
4444 250 8000 0 fold 
7777 400 8000 100 fold 
total pot: 700 
/inquire 
send inquire msg to player 4444 
inquire/ 
7777 400 8000 100 fold 
8888 3765 8000 200 check 
3333 2050 4078 200 check 
6666 432 8000 0 fold 
5555 10266 8000 200 check 
1111 900 8000 0 fold 
2222 1159 8000 0 fold 
4444 250 8000 0 fold 
total pot: 700 
/inquire 
send inquire msg to player 2222 
inquire/ 
4444 250 8000 0 fold 
7777 400 8000 100 fold 
8888 3765 8000 200 check 
3333 2050 4078 200 check 
6666 432 8000 0 fold 
5555 10266 8000 200 check 
1111 900 8000 0 fold 
2222 1159 8000 0 fold 
total pot: 700 
/inquire 
send inquire msg to player 1111 
inquire/ 
2222 1159 8000 0 fold 
4444 250 8000 0 fold 
7777 400 8000 100 fold 
8888 3765 8000 200 check 
3333 2050 4078 200 check 
6666 432 8000 0 fold 
5555 10266 8000 200 check 
1111 900 8000 0 fold 
total pot: 700 
/inquire 
send inquire msg to player 5555 
inquire/ 
1111 900 8000 0 fold 
2222 1159 8000 0 fold 
4444 250 8000 0 fold 
7777 400 8000 100 fold 
8888 3765 8000 200 check 
3333 2050 4078 200 check 
6666 432 8000 0 fold 
5555 10266 8000 200 check 
total pot: 700 
/inquire 
recv from player 5555: check

---show down---
showdown/ 
common/ 
DIAMONDS 7 
HEARTS 6 
HEARTS 4 
SPADES 6 
HEARTS J 
/common 
2: 3333 CLUBS K HEARTS 5 ONE_PAIR 
3: 8888 DIAMONDS 10 SPADES 2 ONE_PAIR 
1: 5555 HEARTS 8 SPADES J TWO_PAIR 
/showdown 

---Allocate pot---
pot-win/ 
5555: 700 
/pot-win 
it is player 3333's turn to be button

-----18 Hand-----

----- clean player data in socket -----
seat/ 
button: 3333 2050 4078 
small blind: 8888 3765 8000 
big blind: 7777 400 8000 
4444 250 8000 
2222 1159 8000 
1111 900 8000 
5555 10966 8000 
6666 432 8000 
/seat 
blind/ 
8888: 50 
7777: 100 
/blind 
player 8888:hold/ 
DIAMONDS Q 
DIAMONDS K 
/hold 
player 7777:hold/ 
CLUBS 4 
CLUBS Q 
/hold 
player 4444:hold/ 
HEARTS 2 
DIAMONDS 5 
/hold 
player 2222:hold/ 
DIAMONDS 4 
DIAMONDS 7 
/hold 
player 1111:hold/ 
HEARTS 8 
SPADES 8 
/hold 
player 5555:hold/ 
SPADES J 
CLUBS K 
/hold 
player 6666:hold/ 
SPADES 7 
DIAMONDS 10 
/hold 
player 3333:hold/ 
DIAMONDS 9 
DIAMONDS 6 
/hold 

---pre flop round bet---
valid player: 8, all in player: 0, fold player: 0
send inquire msg to player 4444 
inquire/ 
7777 300 8000 100 blind 
8888 3715 8000 50 blind 
total pot: 150 
/inquire 
recv from player 4444: fold
send inquire msg to player 2222 
inquire/ 
4444 250 8000 0 fold 
7777 300 8000 100 blind 
8888 3715 8000 50 blind 
total pot: 150 
/inquire 
recv from player 2222: check
send inquire msg to player 1111 
inquire/ 
2222 1059 8000 100 call 
4444 250 8000 0 fold 
7777 300 8000 100 blind 
8888 3715 8000 50 blind 
total pot: 250 
/inquire 
recv from player 1111: fold
send inquire msg to player 5555 
inquire/ 
1111 900 8000 0 fold 
2222 1059 8000 100 call 
4444 250 8000 0 fold 
7777 300 8000 100 blind 
8888 3715 8000 50 blind 
total pot: 250 
/inquire 
recv from player 5555: raise 0
send inquire msg to player 6666 
inquire/ 
5555 10766 8000 200 raise 
1111 900 8000 0 fold 
2222 1059 8000 100 call 
4444 250 8000 0 fold 
7777 300 8000 100 blind 
8888 3715 8000 50 blind 
total pot: 450 
/inquire 
recv from player 6666: fold
send inquire msg to player 3333 
inquire/ 
6666 432 8000 0 fold 
5555 10766 8000 200 raise 
1111 900 8000 0 fold 
2222 1059 8000 100 call 
4444 250 8000 0 fold 
7777 300 8000 100 blind 
8888 3715 8000 50 blind 
total pot: 450 
/inquire 
recv from player 3333: check
send inquire msg to player 8888 
inquire/ 
3333 1850 4078 200 call 
6666 432 8000 0 fold 
5555 10766 8000 200 raise 
1111 900 8000 0 fold 
2222 1059 8000 100 call 
4444 250 8000 0 fold 
7777 300 8000 100 blind 
8888 3715 8000 50 blind 
total pot: 650 
/inquire 
recv from player 8888: check
send inquire msg to player 7777 
inquire/ 
8888 3565 8000 200 call 
3333 1850 4078 200 call 
6666 432 8000 0 fold 
5555 10766 8000 200 raise 
1111 900 8000 0 fold 
2222 1059 8000 100 call 
4444 250 8000 0 fold 
7777 300 8000 100 blind 
total pot: 800 
/inquire 
recv from player 7777: fold
send inquire msg to player 4444 
inquire/ 
7777 300 8000 100 fold 
8888 3565 8000 200 call 
3333 1850 4078 200 call 
6666 432 8000 0 fold 
5555 10766 8000 200 raise 
1111 900 8000 0 fold 
2222 1059 8000 100 call 
4444 250 8000 0 fold 
total pot: 800 
/inquire 
send inquire msg to player 2222 
inquire/ 
4444 250 8000 0 fold 
7777 300 8000 100 fold 
8888 3565 8000 200 call 
3333 1850 4078 200 call 
6666 432 8000 0 fold 
5555 10766 8000 200 raise 
1111 900 8000 0 fold 
2222 1059 8000 100 call 
total pot: 800 
/inquire 
recv from player 2222: check
flop/ 
CLUBS 7 
DIAMONDS 8 
SPADES 5 
/flop 

---flop round bet---
valid player: 8, all in player: 0, fold player: 4
send inquire msg to player 8888 
inquire/ 
3333 1850 4078 200 call 
6666 432 8000 0 fold 
5555 10766 8000 200 raise 
1111 900 8000 0 fold 
2222 959 8000 200 call 
4444 250 8000 0 fold 
7777 300 8000 100 fold 
8888 3565 8000 200 call 
total pot: 900 
/inquire 
recv from player 8888: check
send inquire msg to player 7777 
inquire/ 
8888 3565 8000 200 check 
3333 1850 4078 200 call 
6666 432 8000 0 fold 
5555 10766 8000 200 raise 
1111 900 8000 0 fold 
2222 959 8000 200 call 
4444 250 8000 0 fold 
7777 300 8000 100 fold 
total pot: 900 
/inquire 
send inquire msg to player 4444 
inquire/ 
7777 300 8000 100 fold 
8888 3565 8000 200 check 
3333 1850 4078 200 call 
6666 432 8000 0 fold 
5555 10766 8000 200 raise 
1111 900 8000 0 fold 
2222 959 8000 200 call 
4444 250 8000 0 fold 
total pot: 900 
/inquire 
send inquire msg to player 2222 
inquire/ 
4444 250 8000 0 fold 
7777 300 8000 100 fold 
8888 3565 8000 200 check 
3333 1850 4078 200 call 
6666 432 8000 0 fold 
5555 10766 8000 200 raise 
1111 900 8000 0 fold 
2222 959 8000 200 call 
total pot: 900 
/inquire 
recv from player 2222: fold
send inquire msg to player 1111 
inquire/ 
2222 959 8000 200 fold 
4444 250 8000 0 fold 
7777 300 8000 100 fold 
8888 3565 8000 200 check 
3333 1850 4078 200 call 
6666 432 8000 0 fold 
5555 10766 8000 200 raise 
1111 900 8000 0 fold 
total pot: 900 
/inquire 
send inquire msg to player 5555 
inquire/ 
1111 900 8000 0 fold 
2222 959 8000 200 fold 
4444 250 8000 0 fold 
7777 300 8000 100 fold 
8888 3565 8000 200 check 
3333 1850 4078 200 call 
6666 432 8000 0 fold 
5555 10766 8000 200 raise 
total pot: 900 
/inquire 
recv from player 5555: check
send inquire msg to player 6666 
inquire/ 
5555 10766 8000 200 check 
1111 900 8000 0 fold 
2222 959 8000 200 fold 
4444 250 8000 0 fold 
7777 300 8000 100 fold 
8888 3565 8000 200 check 
3333 1850 4078 200 call 
6666 432 8000 0 fold 
total pot: 900 
/inquire 
send inquire msg to player 3333 
inquire/ 
6666 432 8000 0 fold 
5555 10766 8000 200 check 
1111 900 8000 0 fold 
2222 959 8000 200 fold 
4444 250 8000 0 fold 
7777 300 8000 100 fold 
8888 3565 8000 200 check 
3333 1850 4078 200 call 
total pot: 900 
/inquire 
recv from player 3333: check
turn/ 
SPADES 9 
/turn 

---turn round bet---
valid player: 8, all in player: 0, fold player: 5
send inquire msg to player 8888 
inquire/ 
3333 1850 4078 200 check 
6666 432 8000 0 fold 
5555 10766 8000 200 check 
1111 900 8000 0 fold 
2222 959 8000 200 fold 
4444 250 8000 0 fold 
7777 300 8000 100 fold 
8888 3565 8000 200 check 
total pot: 900 
/inquire 
recv from player 8888: check
send inquire msg to player 7777 
inquire/ 
8888 3565 8000 200 check 
3333 1850 4078 200 check 
6666 432 8000 0 fold 
5555 10766 8000 200 check 
1111 900 8000 0 fold 
2222 959 8000 200 fold 
4444 250 8000 0 fold 
7777 300 8000 100 fold 
total pot: 900 
/inquire 
send inquire msg to player 4444 
inquire/ 
7777 300 8000 100 fold 
8888 3565 8000 200 check 
3333 1850 4078 200 check 
6666 432 8000 0 fold 
5555 10766 8000 200 check 
1111 900 8000 0 fold 
2222 959 8000 200 fold 
4444 250 8000 0 fold 
total pot: 900 
/inquire 
send inquire msg to player 2222 
inquire/ 
4444 250 8000 0 fold 
7777 300 8000 100 fold 
8888 3565 8000 200 check 
3333 1850 4078 200 check 
6666 432 8000 0 fold 
5555 10766 8000 200 check 
1111 900 8000 0 fold 
2222 959 8000 200 fold 
total pot: 900 
/inquire 
send inquire msg to player 1111 
inquire/ 
2222 959 8000 200 fold 
4444 250 8000 0 fold 
7777 300 8000 100 fold 
8888 3565 8000 200 check 
3333 1850 4078 200 check 
6666 432 8000 0 fold 
5555 10766 8000 200 check 
1111 900 8000 0 fold 
total pot: 900 
/inquire 
send inquire msg to player 5555 
inquire/ 
1111 900 8000 0 fold 
2222 959 8000 200 fold 
4444 250 8000 0 fold 
7777 300 8000 100 fold 
8888 3565 8000 200 check 
3333 1850 4078 200 check 
6666 432 8000 0 fold 
5555 10766 8000 200 check 
total pot: 900 
/inquire 
recv from player 5555: raise 0
send inquire msg to player 6666 
inquire/ 
5555 10666 8000 300 raise 
1111 900 8000 0 fold 
2222 959 8000 200 fold 
4444 250 8000 0 fold 
7777 300 8000 100 fold 
8888 3565 8000 200 check 
3333 1850 4078 200 check 
6666 432 8000 0 fold 
total pot: 1000 
/inquire 
send inquire msg to player 3333 
inquire/ 
6666 432 8000 0 fold 
5555 10666 8000 300 raise 
1111 900 8000 0 fold 
2222 959 8000 200 fold 
4444 250 8000 0 fold 
7777 300 8000 100 fold 
8888 3565 8000 200 check 
3333 1850 4078 200 check 
total pot: 1000 
/inquire 
recv from player 3333: check
send inquire msg to player 8888 
inquire/ 
3333 1750 4078 300 call 
6666 432 8000 0 fold 
5555 10666 8000 300 raise 
1111 900 8000 0 fold 
2222 959 8000 200 fold 
4444 250 8000 0 fold 
7777 300 8000 100 fold 
8888 3565 8000 200 check 
total pot: 1100 
/inquire 
recv from player 8888: check
river/ 
SPADES 4 
/river 

---river round bet---
valid player: 8, all in player: 0, fold player: 5
send inquire msg to player 8888 
inquire/ 
3333 1750 4078 300 call 
6666 432 8000 0 fold 
5555 10666 8000 300 raise 
1111 900 8000 0 fold 
2222 959 8000 200 fold 
4444 250 8000 0 fold 
7777 300 8000 100 fold 
8888 3465 8000 300 call 
total pot: 1200 
/inquire 
recv from player 8888: check
send inquire msg to player 7777 
inquire/ 
8888 3465 8000 300 check 
3333 1750 4078 300 call 
6666 432 8000 0 fold 
5555 10666 8000 300 raise 
1111 900 8000 0 fold 
2222 959 8000 200 fold 
4444 250 8000 0 fold 
7777 300 8000 100 fold 
total pot: 1200 
/inquire 
send inquire msg to player 4444 
inquire/ 
7777 300 8000 100 fold 
8888 3465 8000 300 check 
3333 1750 4078 300 call 
6666 432 8000 0 fold 
5555 10666 8000 300 raise 
1111 900 8000 0 fold 
2222 959 8000 200 fold 
4444 250 8000 0 fold 
total pot: 1200 
/inquire 
send inquire msg to player 2222 
inquire/ 
4444 250 8000 0 fold 
7777 300 8000 100 fold 
8888 3465 8000 300 check 
3333 1750 4078 300 call 
6666 432 8000 0 fold 
5555 10666 8000 300 raise 
1111 900 8000 0 fold 
2222 959 8000 200 fold 
total pot: 1200 
/inquire 
send inquire msg to player 1111 
inquire/ 
2222 959 8000 200 fold 
4444 250 8000 0 fold 
7777 300 8000 100 fold 
8888 3465 8000 300 check 
3333 1750 4078 300 call 
6666 432 8000 0 fold 
5555 10666 8000 300 raise 
1111 900 8000 0 fold 
total pot: 1200 
/inquire 
send inquire msg to player 5555 
inquire/ 
1111 900 8000 0 fold 
2222 959 8000 200 fold 
4444 250 8000 0 fold 
7777 300 8000 100 fold 
8888 3465 8000 300 check 
3333 1750 4078 300 call 
6666 432 8000 0 fold 
5555 10666 8000 300 raise 
total pot: 1200 
/inquire 
recv from player 5555: raise 0
send inquire msg to player 6666 
inquire/ 
5555 10566 8000 400 raise 
1111 900 8000 0 fold 
2222 959 8000 200 fold 
4444 250 8000 0 fold 
7777 300 8000 100 fold 
8888 3465 8000 300 check 
3333 1750 4078 300 call 
6666 432 8000 0 fold 
total pot: 1300 
/inquire 
send inquire msg to player 3333 
inquire/ 
6666 432 8000 0 fold 
5555 10566 8000 400 raise 
1111 900 8000 0 fold 
2222 959 8000 200 fold 
4444 250 8000 0 fold 
7777 300 8000 100 fold 
8888 3465 8000 300 check 
3333 1750 4078 300 call 
total pot: 1300 
/inquire 
recv from player 3333: check
send inquire msg to player 8888 
inquire/ 
3333 1650 4078 400 call 
6666 432 8000 0 fold 
5555 10566 8000 400 raise 
1111 900 8000 0 fold 
2222 959 8000 200 fold 
4444 250 8000 0 fold 
7777 300 8000 100 fold 
8888 3465 8000 300 check 
total pot: 1400 
/inquire 
recv from player 8888: check

---show down---
showdown/ 
common/ 
CLUBS 7 
DIAMONDS 8 
SPADES 5 
SPADES 9 
SPADES 4 
/common 
2: 8888 DIAMONDS Q DIAMONDS K HIGH_CARD 
3: 5555 SPADES J CLUBS K HIGH_CARD 
1: 3333 DIAMONDS 9 DIAMONDS 6 STRAIGHT 
/showdown 

---Allocate pot---
pot-win/ 
3333: 1500 
/pot-win 
it is player 8888's turn to be button

-----19 Hand-----

----- clean player data in socket -----
seat/ 
button: 8888 3365 8000 
small blind: 7777 300 8000 
big blind: 4444 250 8000 
2222 959 8000 
1111 900 8000 
5555 10566 8000 
6666 432 8000 
3333 3150 4078 
/seat 
blind/ 
7777: 50 
4444: 100 
/blind 
player 7777:hold/ 
HEARTS Q 
CLUBS K 
/hold 
player 4444:hold/ 
CLUBS 4 
DIAMONDS 4 
/hold 
player 2222:hold/ 
DIAMONDS J 
HEARTS 7 
/hold 
player 1111:hold/ 
CLUBS J 
SPADES Q 
/hold 
player 5555:hold/ 
SPADES 9 
HEARTS A 
/hold 
player 6666:hold/ 
DIAMONDS 10 
CLUBS Q 
/hold 
player 3333:hold/ 
SPADES 2 
CLUBS 10 
/hold 
player 8888:hold/ 
SPADES 5 
DIAMONDS 9 
/hold 

---pre flop round bet---
valid player: 8, all in player: 0, fold player: 0
send inquire msg to player 2222 
inquire/ 
4444 150 8000 100 blind 
7777 250 8000 50 blind 
total pot: 150 
/inquire 
recv from player 2222: fold
send inquire msg to player 1111 
inquire/ 
2222 959 8000 0 fold 
4444 150 8000 100 blind 
7777 250 8000 50 blind 
total pot: 150 
/inquire 
recv from player 1111: fold
send inquire msg to player 5555 
inquire/ 
1111 900 8000 0 fold 
2222 959 8000 0 fold 
4444 150 8000 100 blind 
7777 250 8000 50 blind 
total pot: 150 
/inquire 
recv from player 5555: raise 0
send inquire msg to player 6666 
inquire/ 
5555 10366 8000 200 raise 
1111 900 8000 0 fold 
2222 959 8000 0 fold 
4444 150 8000 100 blind 
7777 250 8000 50 blind 
total pot: 350 
/inquire 
recv from player 6666: fold
send inquire msg to player 3333 
inquire/ 
6666 432 8000 0 fold 
5555 10366 8000 200 raise 
1111 900 8000 0 fold 
2222 959 8000 0 fold 
4444 150 8000 100 blind 
7777 250 8000 50 blind 
total pot: 350 
/inquire 
recv from player 3333: check
send inquire msg to player 8888 
inquire/ 
3333 2950 4078 200 call 
6666 432 8000 0 fold 
5555 10366 8000 200 raise 
1111 900 8000 0 fold 
2222 959 8000 0 fold 
4444 150 8000 100 blind 
7777 250 8000 50 blind 
total pot: 550 
/inquire 
recv from player 8888: check
send inquire msg to player 7777 
inquire/ 
8888 3165 8000 200 call 
3333 2950 4078 200 call 
6666 432 8000 0 fold 
5555 10366 8000 200 raise 
1111 900 8000 0 fold 
2222 959 8000 0 fold 
4444 150 8000 100 blind 
7777 250 8000 50 blind 
total pot: 750 
/inquire 
recv from player 7777: fold
send inquire msg to player 4444 
inquire/ 
7777 250 8000 50 fold 
8888 3165 8000 200 call 
3333 2950 4078 200 call 
6666 432 8000 0 fold 
5555 10366 8000 200 raise 
1111 900 8000 0 fold 
2222 959 8000 0 fold 
4444 150 8000 100 blind 
total pot: 750 
/inquire 
recv from player 4444: fold
flop/ 
CLUBS 9 
SPADES J 
HEARTS 6 
/flop 

---flop round bet---
valid player: 8, all in player: 0, fold player: 5
send inquire msg to player 7777 
inquire/ 
8888 3165 8000 200 call 
3333 2950 4078 200 call 
6666 432 8000 0 fold 
5555 10366 8000 200 raise 
1111 900 8000 0 fold 
2222 959 8000 0 fold 
4444 150 8000 100 fold 
7777 250 8000 50 fold 
total pot: 750 
/inquire 
send inquire msg to player 4444 
inquire/ 
7777 250 8000 50 fold 
8888 3165 8000 200 call 
3333 2950 4078 200 call 
6666 432 8000 0 fold 
5555 10366 8000 200 raise 
1111 900 8000 0 fold 
2222 959 8000 0 fold 
4444 150 8000 100 fold 
total pot: 750 
/inquire 
send inquire msg to player 2222 
inquire/ 
4444 150 8000 100 fold 
7777 250 8000 50 fold 
8888 3165 8000 200 call 
3333 2950 4078 200 call 
6666 432 8000 0 fold 
5555 10366 8000 200 raise 
1111 900 8000 0 fold 
2222 959 8000 0 fold 
total pot: 750 
/inquire 
send inquire msg to player 1111 
inquire/ 
2222 959 8000 0 fold 
4444 150 8000 100 fold 
7777 250 8000 50 fold 
8888 3165 8000 200 call 
3333 2950 4078 200 call 
6666 432 8000 0 fold 
5555 10366 8000 200 raise 
1111 900 8000 0 fold 
total pot: 750 
/inquire 
send inquire msg to player 5555 
inquire/ 
1111 900 8000 0 fold 
2222 959 8000 0 fold 
4444 150 8000 100 fold 
7777 250 8000 50 fold 
8888 3165 8000 200 call 
3333 2950 4078 200 call 
6666 432 8000 0 fold 
5555 10366 8000 200 raise 
total pot: 750 
/inquire 
recv from player 5555: check
send inquire msg to player 6666 
inquire/ 
5555 10366 8000 200 check 
1111 900 8000 0 fold 
2222 959 8000 0 fold 
4444 150 8000 100 fold 
7777 250 8000 50 fold 
8888 3165 8000 200 call 
3333 2950 4078 200 call 
6666 432 8000 0 fold 
total pot: 750 
/inquire 
send inquire msg to player 3333 
inquire/ 
6666 432 8000 0 fold 
5555 10366 8000 200 check 
1111 900 8000 0 fold 
2222 959 8000 0 fold 
4444 150 8000 100 fold 
7777 250 8000 50 fold 
8888 3165 8000 200 call 
3333 2950 4078 200 call 
total pot: 750 
/inquire 
recv from player 3333: check
send inquire msg to player 8888 
inquire/ 
3333 2950 4078 200 check 
6666 432 8000 0 fold 
5555 10366 8000 200 check 
1111 900 8000 0 fold 
2222 959 8000 0 fold 
4444 150 8000 100 fold 
7777 250 8000 50 fold 
8888 3165 8000 200 call 
total pot: 750 
/inquire 
recv from player 8888: check
turn/ 
HEARTS 10 
/turn 

---turn round bet---
valid player: 8, all in player: 0, fold player: 5
send inquire msg to player 7777 
inquire/ 
8888 3165 8000 200 check 
3333 2950 4078 200 check 
6666 432 8000 0 fold 
5555 10366 8000 200 check 
1111 900 8000 0 fold 
2222 959 8000 0 fold 
4444 150 8000 100 fold 
7777 250 8000 50 fold 
total pot: 750 
/inquire 
send inquire msg to player 4444 
inquire/ 
7777 250 8000 50 fold 
8888 3165 8000 200 check 
3333 2950 4078 200 check 
6666 432 8000 0 fold 
5555 10366 8000 200 check 
1111 900 8000 0 fold 
2222 959 8000 0 fold 
4444 150 8000 100 fold 
total pot: 750 
/inquire 
send inquire msg to player 2222 
inquire/ 
4444 150 8000 100 fold 
7777 250 8000 50 fold 
8888 3165 8000 200 check 
3333 2950 4078 200 check 
6666 432 8000 0 fold 
5555 10366 8000 200 check 
1111 900 8000 0 fold 
2222 959 8000 0 fold 
total pot: 750 
/inquire 
send inquire msg to player 1111 
inquire/ 
2222 959 8000 0 fold 
4444 150 8000 100 fold 
7777 250 8000 50 fold 
8888 3165 8000 200 check 
3333 2950 4078 200 check 
6666 432 8000 0 fold 
5555 10366 8000 200 check 
1111 900 8000 0 fold 
total pot: 750 
/inquire 
send inquire msg to player 5555 
inquire/ 
1111 900 8000 0 fold 
2222 959 8000 0 fold 
4444 150 8000 100 fold 
7777 250 8000 50 fold 
8888 3165 8000 200 check 
3333 2950 4078 200 check 
6666 432 8000 0 fold 
5555 10366 8000 200 check 
total pot: 750 
/inquire 
recv from player 5555: raise 0
send inquire msg to player 6666 
inquire/ 
5555 10266 8000 300 raise 
1111 900 8000 0 fold 
2222 959 8000 0 fold 
4444 150 8000 100 fold 
7777 250 8000 50 fold 
8888 3165 8000 200 check 
3333 2950 4078 200 check 
6666 432 8000 0 fold 
total pot: 850 
/inquire 
send inquire msg to player 3333 
inquire/ 
6666 432 8000 0 fold 
5555 10266 8000 300 raise 
1111 900 8000 0 fold 
2222 959 8000 0 fold 
4444 150 8000 100 fold 
7777 250 8000 50 fold 
8888 3165 8000 200 check 
3333 2950 4078 200 check 
total pot: 850 
/inquire 
recv from player 3333: check
send inquire msg to player 8888 
inquire/ 
3333 2850 4078 300 call 
6666 432 8000 0 fold 
5555 10266 8000 300 raise 
1111 900 8000 0 fold 
2222 959 8000 0 fold 
4444 150 8000 100 fold 
7777 250 8000 50 fold 
8888 3165 8000 200 check 
total pot: 950 
/inquire 
recv from player 8888: check
river/ 
SPADES 3 
/river 

---river round bet---
valid player: 8, all in player: 0, fold player: 5
send inquire msg to player 7777 
inquire/ 
8888 3065 8000 300 call 
3333 2850 4078 300 call 
6666 432 8000 0 fold 
5555 10266 8000 300 raise 
1111 900 8000 0 fold 
2222 959 8000 0 fold 
4444 150 8000 100 fold 
7777 250 8000 50 fold 
total pot: 1050 
/inquire 
send inquire msg to player 4444 
inquire/ 
7777 250 8000 50 fold 
8888 3065 8000 300 call 
3333 2850 4078 300 call 
6666 432 8000 0 fold 
5555 10266 8000 300 raise 
1111 900 8000 0 fold 
2222 959 8000 0 fold 
4444 150 8000 100 fold 
total pot: 1050 
/inquire 
send inquire msg to player 2222 
inquire/ 
4444 150 8000 100 fold 
7777 250 8000 50 fold 
8888 3065 8000 300 call 
3333 2850 4078 300 call 
6666 432 8000 0 fold 
5555 10266 8000 300 raise 
1111 900 8000 0 fold 
2222 959 8000 0 fold 
total pot: 1050 
/inquire 
send inquire msg to player 1111 
inquire/ 
2222 959 8000 0 fold 
4444 150 8000 100 fold 
7777 250 8000 50 fold 
8888 3065 8000 300 call 
3333 2850 4078 300 call 
6666 432 8000 0 fold 
5555 10266 8000 300 raise 
1111 900 8000 0 fold 
total pot: 1050 
/inquire 
send inquire msg to player 5555 
inquire/ 
1111 900 8000 0 fold 
2222 959 8000 0 fold 
4444 150 8000 100 fold 
7777 250 8000 50 fold 
8888 3065 8000 300 call 
3333 2850 4078 300 call 
6666 432 8000 0 fold 
5555 10266 8000 300 raise 
total pot: 1050 
/inquire 
recv from player 5555: check
send inquire msg to player 6666 
inquire/ 
5555 10266 8000 300 check 
1111 900 8000 0 fold 
2222 959 8000 0 fold 
4444 150 8000 100 fold 
7777 250 8000 50 fold 
8888 3065 8000 300 call 
3333 2850 4078 300 call 
6666 432 8000 0 fold 
total pot: 1050 
/inquire 
send inquire msg to player 3333 
inquire/ 
6666 432 8000 0 fold 
5555 10266 8000 300 check 
1111 900 8000 0 fold 
2222 959 8000 0 fold 
4444 150 8000 100 fold 
7777 250 8000 50 fold 
8888 3065 8000 300 call 
3333 2850 4078 300 call 
total pot: 1050 
/inquire 
recv from player 3333: check
send inquire msg to player 8888 
inquire/ 
3333 2850 4078 300 check 
6666 432 8000 0 fold 
5555 10266 8000 300 check 
1111 900 8000 0 fold 
2222 959 8000 0 fold 
4444 150 8000 100 fold 
7777 250 8000 50 fold 
8888 3065 8000 300 call 
total pot: 1050 
/inquire 
recv from player 8888: check

---show down---
showdown/ 
common/ 
CLUBS 9 
SPADES J 
HEARTS 6 
HEARTS 10 
SPADES 3 
/common 
2: 5555 SPADES 9 HEARTS A ONE_PAIR 
1: 3333 SPADES 2 CLUBS 10 ONE_PAIR 
3: 8888 SPADES 5 DIAMONDS 9 ONE_PAIR 
/showdown 

---Allocate pot---
pot-win/ 
3333: 1050 
/pot-win 
it is player 7777's turn to be button

-----20 Hand-----

----- clean player data in socket -----
seat/ 
button: 7777 250 8000 
small blind: 4444 150 8000 
big blind: 2222 959 8000 
1111 900 8000 
5555 10266 8000 
6666 432 8000 
3333 3900 4078 
8888 3065 8000 
/seat 
blind/ 
4444: 50 
2222: 100 
/blind 
player 4444:hold/ 
DIAMONDS 3 
HEARTS 6 
/hold 
player 2222:hold/ 
HEARTS 8 
HEARTS 10 
/hold 
player 1111:hold/ 
CLUBS 10 
CLUBS 7 
/hold 
player 5555:hold/ 
DIAMONDS Q 
DIAMONDS A 
/hold 
player 6666:hold/ 
DIAMONDS J 
CLUBS K 
/hold 
player 3333:hold/ 
DIAMONDS 6 
CLUBS Q 
/hold 
player 8888:hold/ 
DIAMONDS 4 
SPADES 4 
/hold 
player 7777:hold/ 
CLUBS J 
HEARTS 7 
/hold 

---pre flop round bet---
valid player: 8, all in player: 0, fold player: 0
send inquire msg to player 1111 
inquire/ 
2222 859 8000 100 blind 
4444 100 8000 50 blind 
total pot: 150 
/inquire 
recv from player 1111: fold
send inquire msg to player 5555 
inquire/ 
1111 900 8000 0 fold 
2222 859 8000 100 blind 
4444 100 8000 50 blind 
total pot: 150 
/inquire 
recv from player 5555: check
send inquire msg to player 6666 
inquire/ 
5555 10166 8000 100 call 
1111 900 8000 0 fold 
2222 859 8000 100 blind 
4444 100 8000 50 blind 
total pot: 250 
/inquire 
recv from player 6666: check
send inquire msg to player 3333 
inquire/ 
6666 332 8000 100 call 
5555 10166 8000 100 call 
1111 900 8000 0 fold 
2222 859 8000 100 blind 
4444 100 8000 50 blind 
total pot: 350 
/inquire 
recv from player 3333: check
send inquire msg to player 8888 
inquire/ 
3333 3800 4078 100 call 
6666 332 8000 100 call 
5555 10166 8000 100 call 
1111 900 8000 0 fold 
2222 859 8000 100 blind 
4444 100 8000 50 blind 
total pot: 450 
/inquire 
recv from player 8888: check
send inquire msg to player 7777 
inquire/ 
8888 2965 8000 100 call 
3333 3800 4078 100 call 
6666 332 8000 100 call 
5555 10166 8000 100 call 
1111 900 8000 0 fold 
2222 859 8000 100 blind 
4444 100 8000 50 blind 
total pot: 550 
/inquire 
recv from player 7777: check
send inquire msg to player 4444 
inquire/ 
7777 150 8000 100 call 
8888 2965 8000 100 call 
3333 3800 4078 100 call 
6666 332 8000 100 call 
5555 10166 8000 100 call 
1111 900 8000 0 fold 
2222 859 8000 100 blind 
4444 100 8000 50 blind 
total pot: 650 
/inquire 
recv from player 4444: fold
send inquire msg to player 2222 
inquire/ 
4444 100 8000 50 fold 
7777 150 8000 100 call 
8888 2965 8000 100 call 
3333 3800 4078 100 call 
6666 332 8000 100 call 
5555 10166 8000 100 call 
1111 900 8000 0 fold 
2222 859 8000 100 blind 
total pot: 650 
/inquire 
recv from player 2222: check
flop/ 
SPADES K 
CLUBS 6 
HEARTS Q 
/flop 

---flop round bet---
valid player: 8, all in player: 0, fold player: 2
send inquire msg to player 4444 
inquire/ 
7777 150 8000 100 call 
8888 2965 8000 100 call 
3333 3800 4078 100 call 
6666 332 8000 100 call 
5555 10166 8000 100 call 
1111 900 8000 0 fold 
2222 859 8000 100 check 
4444 100 8000 50 fold 
total pot: 650 
/inquire 
send inquire msg to player 2222 
inquire/ 
4444 100 8000 50 fold 
7777 150 8000 100 call 
8888 2965 8000 100 call 
3333 3800 4078 100 call 
6666 332 8000 100 call 
5555 10166 8000 100 call 
1111 900 8000 0 fold 
2222 859 8000 100 check 
total pot: 650 
/inquire 
recv from player 2222: fold
send inquire msg to player 1111 
inquire/ 
2222 859 8000 100 fold 
4444 100 8000 50 fold 
7777 150 8000 100 call 
8888 2965 8000 100 call 
3333 3800 4078 100 call 
6666 332 8000 100 call 
5555 10166 8000 100 call 
1111 900 8000 0 fold 
total pot: 650 
/inquire 
send inquire msg to player 5555 
inquire/ 
1111 900 8000 0 fold 
2222 859 8000 100 fold 
4444 100 8000 50 fold 
7777 150 8000 100 call 
8888 2965 8000 100 call 
3333 3800 4078 100 call 
6666 332 8000 100 call 
5555 10166 8000 100 call 
total pot: 650 
/inquire 
recv from player 5555: raise 0
send inquire msg to player 6666 
inquire/ 
5555 10066 8000 200 raise 
1111 900 8000 0 fold 
2222 859 8000 100 fold 
4444 100 8000 50 fold 
7777 150 8000 100 call 
8888 2965 8000 100 call 
3333 3800 4078 100 call 
6666 332 8000 100 call 
total pot: 750 
/inquire 
recv from player 6666: check
send inquire msg to player 3333 
inquire/ 
6666 232 8000 200 call 
5555 10066 8000 200 raise 
1111 900 8000 0 fold 
2222 859 8000 100 fold 
4444 100 8000 50 fold 
7777 150 8000 100 call 
8888 2965 8000 100 call 
3333 3800 4078 100 call 
total pot: 850 
/inquire 
recv from player 3333: check
send inquire msg to player 8888 
inquire/ 
3333 3700 4078 200 call 
6666 232 8000 200 call 
5555 10066 8000 200 raise 
1111 900 8000 0 fold 
2222 859 8000 100 fold 
4444 100 8000 50 fold 
7777 150 8000 100 call 
8888 2965 8000 100 call 
total pot: 950 
/inquire 
recv from player 8888: check
send inquire msg to player 7777 
inquire/ 
8888 2865 8000 200 call 
3333 3700 4078 200 call 
6666 232 8000 200 call 
5555 10066 8000 200 raise 
1111 900 8000 0 fold 
2222 859 8000 100 fold 
4444 100 8000 50 fold 
7777 150 8000 100 call 
total pot: 1050 
/inquire 
recv from player 7777: fold
turn/ 
SPADES 2 
/turn 

---turn round bet---
valid player: 8, all in player: 0, fold player: 4
send inquire msg to player 4444 
inquire/ 
7777 150 8000 100 fold 
8888 2865 8000 200 call 
3333 3700 4078 200 call 
6666 232 8000 200 call 
5555 10066 8000 200 raise 
1111 900 8000 0 fold 
2222 859 8000 100 fold 
4444 100 8000 50 fold 
total pot: 1050 
/inquire 
send inquire msg to player 2222 
inquire/ 
4444 100 8000 50 fold 
7777 150 8000 100 fold 
8888 2865 8000 200 call 
3333 3700 4078 200 call 
6666 232 8000 200 call 
5555 10066 8000 200 raise 
1111 900 8000 0 fold 
2222 859 8000 100 fold 
total pot: 1050 
/inquire 
send inquire msg to player 1111 
inquire/ 
2222 859 8000 100 fold 
4444 100 8000 50 fold 
7777 150 8000 100 fold 
8888 2865 8000 200 call 
3333 3700 4078 200 call 
6666 232 8000 200 call 
5555 10066 8000 200 raise 
1111 900 8000 0 fold 
total pot: 1050 
/inquire 
send inquire msg to player 5555 
inquire/ 
1111 900 8000 0 fold 
2222 859 8000 100 fold 
4444 100 8000 50 fold 
7777 150 8000 100 fold 
8888 2865 8000 200 call 
3333 3700 4078 200 call 
6666 232 8000 200 call 
5555 10066 8000 200 raise 
total pot: 1050 
/inquire 
recv from player 5555: check
send inquire msg to player 6666 
inquire/ 
5555 10066 8000 200 check 
1111 900 8000 0 fold 
2222 859 8000 100 fold 
4444 100 8000 50 fold 
7777 150 8000 100 fold 
8888 2865 8000 200 call 
3333 3700 4078 200 call 
6666 232 8000 200 call 
total pot: 1050 
/inquire 
recv from player 6666: check
send inquire msg to player 3333 
inquire/ 
6666 232 8000 200 check 
5555 10066 8000 200 check 
1111 900 8000 0 fold 
2222 859 8000 100 fold 
4444 100 8000 50 fold 
7777 150 8000 100 fold 
8888 2865 8000 200 call 
3333 3700 4078 200 call 
total pot: 1050 
/inquire 
recv from player 3333: check
send inquire msg to player 8888 
inquire/ 
3333 3700 4078 200 check 
6666 232 8000 200 check 
5555 10066 8000 200 check 
1111 900 8000 0 fold 
2222 859 8000 100 fold 
4444 100 8000 50 fold 
7777 150 8000 100 fold 
8888 2865 8000 200 call 
total pot: 1050 
/inquire 
recv from player 8888: check
river/ 
DIAMONDS 2 
/river 

---river round bet---
valid player: 8, all in player: 0, fold player: 4
send inquire msg to player 4444 
inquire/ 
7777 150 8000 100 fold 
8888 2865 8000 200 check 
3333 3700 4078 200 check 
6666 232 8000 200 check 
5555 10066 8000 200 check 
1111 900 8000 0 fold 
2222 859 8000 100 fold 
4444 100 8000 50 fold 
total pot: 1050 
/inquire 
send inquire msg to player 2222 
inquire/ 
4444 100 8000 50 fold 
7777 150 8000 100 fold 
8888 2865 8000 200 check 
3333 3700 4078 200 check 
6666 232 8000 200 check 
5555 10066 8000 200 check 
1111 900 8000 0 fold 
2222 859 8000 100 fold 
total pot: 1050 
/inquire 
send inquire msg to player 1111 
inquire/ 
2222 859 8000 100 fold 
4444 100 8000 50 fold 
7777 150 8000 100 fold 
8888 2865 8000 200 check 
3333 3700 4078 200 check 
6666 232 8000 200 check 
5555 10066 8000 200 check 
1111 900 8000 0 fold 
total pot: 1050 
/inquire 
send inquire msg to player 5555 
inquire/ 
1111 900 8000 0 fold 
2222 859 8000 100 fold 
4444 100 8000 50 fold 
7777 150 8000 100 fold 
8888 2865 8000 200 check 
3333 3700 4078 200 check 
6666 232 8000 200 check 
5555 10066 8000 200 check 
total pot: 1050 
/inquire 
recv from player 5555: raise 0
send inquire msg to player 6666 
inquire/ 
5555 9966 8000 300 raise 
1111 900 8000 0 fold 
2222 859 8000 100 fold 
4444 100 8000 50 fold 
7777 150 8000 100 fold 
8888 2865 8000 200 check 
3333 3700 4078 200 check 
6666 232 8000 200 check 
total pot: 1150 
/inquire 
recv from player 6666: fold
send inquire msg to player 3333 
inquire/ 
6666 232 8000 200 fold 
5555 9966 8000 300 raise 
1111 900 8000 0 fold 
2222 859 8000 100 fold 
4444 100 8000 50 fold 
7777 150 8000 100 fold 
8888 2865 8000 200 check 
3333 3700 4078 200 check 
total pot: 1150 
/inquire 
recv from player 3333: check
send inquire msg to player 8888 
inquire/ 
3333 3600 4078 300 call 
6666 232 8000 200 fold 
5555 9966 8000 300 raise 
1111 900 8000 0 fold 
2222 859 8000 100 fold 
4444 100 8000 50 fold 
7777 150 8000 100 fold 
8888 2865 8000 200 check 
total pot: 1250 
/inquire 
recv from player 8888: check

---show down---
showdown/ 
common/ 
SPADES K 
CLUBS 6 
HEARTS Q 
SPADES 2 
DIAMONDS 2 
/common 
2: 5555 DIAMONDS Q DIAMONDS A TWO_PAIR 
1: 3333 DIAMONDS 6 CLUBS Q TWO_PAIR 
3: 8888 DIAMONDS 4 SPADES 4 TWO_PAIR 
/showdown 

---Allocate pot---
pot-win/ 
3333: 1350 
/pot-win 
it is player 4444's turn to be button

-----21 Hand-----

----- clean player data in socket -----
seat/ 
button: 4444 100 8000 
small blind: 2222 859 8000 
big blind: 1111 900 8000 
5555 9966 8000 
6666 232 8000 
3333 4950 4078 
8888 2765 8000 
7777 150 8000 
/seat 
blind/ 
2222: 50 
1111: 100 
/blind 
player 2222:hold/ 
DIAMONDS 9 
HEARTS 2 
/hold 
player 1111:hold/ 
SPADES 9 
CLUBS 4 
/hold 
player 5555:hold/ 
DIAMONDS A 
DIAMONDS 5 
/hold 
player 6666:hold/ 
SPADES 5 
HEARTS 10 
/hold 
player 3333:hold/ 
CLUBS 7 
CLUBS Q 
/hold 
player 8888:hold/ 
SPADES 7 
DIAMONDS 6 
/hold 
player 7777:hold/ 
HEARTS K 
HEARTS 6 
/hold 
player 4444:hold/ 
CLUBS J 
SPADES K 
/hold 

---pre flop round bet---
valid player: 8, all in player: 0, fold player: 0
send inquire msg to player 5555 
inquire/ 
1111 800 8000 100 blind 
2222 809 8000 50 blind 
total pot: 150 
/inquire 
recv from player 5555: check
send inquire msg to player 6666 
inquire/ 
5555 9866 8000 100 call 
1111 800 8000 100 blind 
2222 809 8000 50 blind 
total pot: 250 
/inquire 
recv from player 6666: fold
send inquire msg to player 3333 
inquire/ 
6666 232 8000 0 fold 
5555 9866 8000 100 call 
1111 800 8000 100 blind 
2222 809 8000 50 blind 
total pot: 250 
/inquire 
recv from player 3333: check
send inquire msg to player 8888 
inquire/ 
3333 4850 4078 100 call 
6666 232 8000 0 fold 
5555 9866 8000 100 call 
1111 800 8000 100 blind 
2222 809 8000 50 blind 
total pot: 350 
/inquire 
recv from player 8888: check
send inquire msg to player 7777 
inquire/ 
8888 2665 8000 100 call 
3333 4850 4078 100 call 
6666 232 8000 0 fold 
5555 9866 8000 100 call 
1111 800 8000 100 blind 
2222 809 8000 50 blind 
total pot: 450 
/inquire 
recv from player 7777: check
send inquire msg to player 4444 
inquire/ 
7777 50 8000 100 call 
8888 2665 8000 100 call 
3333 4850 4078 100 call 
6666 232 8000 0 fold 
5555 9866 8000 100 call 
1111 800 8000 100 blind 
2222 809 8000 50 blind 
total pot: 550 
/inquire 
recv from player 4444: fold
send inquire msg to player 2222 
inquire/ 
4444 100 8000 0 fold 
7777 50 8000 100 call 
8888 2665 8000 100 call 
3333 4850 4078 100 call 
6666 232 8000 0 fold 
5555 9866 8000 100 call 
1111 800 8000 100 blind 
2222 809 8000 50 blind 
total pot: 550 
/inquire 
recv from player 2222: fold
send inquire msg to player 1111 
inquire/ 
2222 809 8000 50 fold 
4444 100 8000 0 fold 
7777 50 8000 100 call 
8888 2665 8000 100 call 
3333 4850 4078 100 call 
6666 232 8000 0 fold 
5555 9866 8000 100 call 
1111 800 8000 100 blind 
total pot: 550 
/inquire 
recv from player 1111: fold
flop/ 
HEARTS 7 
HEARTS 5 
HEARTS 4 
/flop 

---flop round bet---
valid player: 8, all in player: 0, fold player: 4
send inquire msg to player 2222 
inquire/ 
4444 100 8000 0 fold 
7777 50 8000 100 call 
8888 2665 8000 100 call 
3333 4850 4078 100 call 
6666 232 8000 0 fold 
5555 9866 8000 100 call 
1111 800 8000 100 fold 
2222 809 8000 50 fold 
total pot: 550 
/inquire 
send inquire msg to player 1111 
inquire/ 
2222 809 8000 50 fold 
4444 100 8000 0 fold 
7777 50 8000 100 call 
8888 2665 8000 100 call 
3333 4850 4078 100 call 
6666 232 8000 0 fold 
5555 9866 8000 100 call 
1111 800 8000 100 fold 
total pot: 550 
/inquire 
send inquire msg to player 5555 
inquire/ 
1111 800 8000 100 fold 
2222 809 8000 50 fold 
4444 100 8000 0 fold 
7777 50 8000 100 call 
8888 2665 8000 100 call 
3333 4850 4078 100 call 
6666 232 8000 0 fold 
5555 9866 8000 100 call 
total pot: 550 
/inquire 
recv from player 5555: raise 0
send inquire msg to player 6666 
inquire/ 
5555 9766 8000 200 raise 
1111 800 8000 100 fold 
2222 809 8000 50 fold 
4444 100 8000 0 fold 
7777 50 8000 100 call 
8888 2665 8000 100 call 
3333 4850 4078 100 call 
6666 232 8000 0 fold 
total pot: 650 
/inquire 
send inquire msg to player 3333 
inquire/ 
6666 232 8000 0 fold 
5555 9766 8000 200 raise 
1111 800 8000 100 fold 
2222 809 8000 50 fold 
4444 100 8000 0 fold 
7777 50 8000 100 call 
8888 2665 8000 100 call 
3333 4850 4078 100 call 
total pot: 650 
/inquire 
recv from player 3333: check
send inquire msg to player 8888 
inquire/ 
3333 4750 4078 200 call 
6666 232 8000 0 fold 
5555 9766 8000 200 raise 
1111 800 8000 100 fold 
2222 809 8000 50 fold 
4444 100 8000 0 fold 
7777 50 8000 100 call 
8888 2665 8000 100 call 
total pot: 750 
/inquire 
recv from player 8888: check
send inquire msg to player 7777 
inquire/ 
8888 2565 8000 200 call 
3333 4750 4078 200 call 
6666 232 8000 0 fold 
5555 9766 8000 200 raise 
1111 800 8000 100 fold 
2222 809 8000 50 fold 
4444 100 8000 0 fold 
7777 50 8000 100 call 
total pot: 850 
/inquire 
recv from player 7777: fold
turn/ 
CLUBS A 
/turn 

---turn round bet---
valid player: 8, all in player: 0, fold player: 5
send inquire msg to player 2222 
inquire/ 
4444 100 8000 0 fold 
7777 50 8000 100 fold 
8888 2565 8000 200 call 
3333 4750 4078 200 call 
6666 232 8000 0 fold 
5555 9766 8000 200 raise 
1111 800 8000 100 fold 
2222 809 8000 50 fold 
total pot: 850 
/inquire 
send inquire msg to player 1111 
inquire/ 
2222 809 8000 50 fold 
4444 100 8000 0 fold 
7777 50 8000 100 fold 
8888 2565 8000 200 call 
3333 4750 4078 200 call 
6666 232 8000 0 fold 
5555 9766 8000 200 raise 
1111 800 8000 100 fold 
total pot: 850 
/inquire 
send inquire msg to player 5555 
inquire/ 
1111 800 8000 100 fold 
2222 809 8000 50 fold 
4444 100 8000 0 fold 
7777 50 8000 100 fold 
8888 2565 8000 200 call 
3333 4750 4078 200 call 
6666 232 8000 0 fold 
5555 9766 8000 200 raise 
total pot: 850 
/inquire 
recv from player 5555: raise 0
send inquire msg to player 6666 
inquire/ 
5555 9666 8000 300 raise 
1111 800 8000 100 fold 
2222 809 8000 50 fold 
4444 100 8000 0 fold 
7777 50 8000 100 fold 
8888 2565 8000 200 call 
3333 4750 4078 200 call 
6666 232 8000 0 fold 
total pot: 950 
/inquire 
send inquire msg to player 3333 
inquire/ 
6666 232 8000 0 fold 
5555 9666 8000 300 raise 
1111 800 8000 100 fold 
2222 809 8000 50 fold 
4444 100 8000 0 fold 
7777 50 8000 100 fold 
8888 2565 8000 200 call 
3333 4750 4078 200 call 
total pot: 950 
/inquire 
recv from player 3333: check
send inquire msg to player 8888 
inquire/ 
3333 4650 4078 300 call 
6666 232 8000 0 fold 
5555 9666 8000 300 raise 
1111 800 8000 100 fold 
2222 809 8000 50 fold 
4444 100 8000 0 fold 
7777 50 8000 100 fold 
8888 2565 8000 200 call 
total pot: 1050 
/inquire 
recv from player 8888: check
river/ 
DIAMONDS Q 
/river 

---river round bet---
valid player: 8, all in player: 0, fold player: 5
send inquire msg to player 2222 
inquire/ 
4444 100 8000 0 fold 
7777 50 8000 100 fold 
8888 2465 8000 300 call 
3333 4650 4078 300 call 
6666 232 8000 0 fold 
5555 9666 8000 300 raise 
1111 800 8000 100 fold 
2222 809 8000 50 fold 
total pot: 1150 
/inquire 
send inquire msg to player 1111 
inquire/ 
2222 809 8000 50 fold 
4444 100 8000 0 fold 
7777 50 8000 100 fold 
8888 2465 8000 300 call 
3333 4650 4078 300 call 
6666 232 8000 0 fold 
5555 9666 8000 300 raise 
1111 800 8000 100 fold 
total pot: 1150 
/inquire 
send inquire msg to player 5555 
inquire/ 
1111 800 8000 100 fold 
2222 809 8000 50 fold 
4444 100 8000 0 fold 
7777 50 8000 100 fold 
8888 2465 8000 300 call 
3333 4650 4078 300 call 
6666 232 8000 0 fold 
5555 9666 8000 300 raise 
total pot: 1150 
/inquire 
recv from player 5555: check
send inquire msg to player 6666 
inquire/ 
5555 9666 8000 300 check 
1111 800 8000 100 fold 
2222 809 8000 50 fold 
4444 100 8000 0 fold 
7777 50 8000 100 fold 
8888 2465 8000 300 call 
3333 4650 4078 300 call 
6666 232 8000 0 fold 
total pot: 1150 
/inquire 
send inquire msg to player 3333 
inquire/ 
6666 232 8000 0 fold 
5555 9666 8000 300 check 
1111 800 8000 100 fold 
2222 809 8000 50 fold 
4444 100 8000 0 fold 
7777 50 8000 100 fold 
8888 2465 8000 300 call 
3333 4650 4078 300 call 
total pot: 1150 
/inquire 
recv from player 3333: check
send inquire msg to player 8888 
inquire/ 
3333 4650 4078 300 check 
6666 232 8000 0 fold 
5555 9666 8000 300 check 
1111 800 8000 100 fold 
2222 809 8000 50 fold 
4444 100 8000 0 fold 
7777 50 8000 100 fold 
8888 2465 8000 300 call 
total pot: 1150 
/inquire 
recv from player 8888: check

---show down---
showdown/ 
common/ 
HEARTS 7 
HEARTS 5 
HEARTS 4 
CLUBS A 
DIAMONDS Q 
/common 
1: 5555 DIAMONDS A DIAMONDS 5 TWO_PAIR 
2: 3333 CLUBS 7 CLUBS Q TWO_PAIR 
3: 8888 SPADES 7 DIAMONDS 6 ONE_PAIR 
/showdown 

---Allocate pot---
pot-win/ 
5555: 1150 
/pot-win 
it is player 2222's turn to be button

-----22 Hand-----

----- clean player data in socket -----
seat/ 
button: 2222 809 8000 
small blind: 1111 800 8000 
big blind: 5555 10816 8000 
6666 232 8000 
3333 4650 4078 
8888 2465 8000 
7777 2000 6050 
4444 100 8000 
/seat 
blind/ 
1111: 50 
5555: 100 
/blind 
player 1111:hold/ 
DIAMONDS 6 
DIAMONDS A 
/hold 
player 5555:hold/ 
CLUBS 7 
CLUBS 9 
/hold 
player 6666:hold/ 
HEARTS 8 
SPADES J 
/hold 
player 3333:hold/ 
HEARTS K 
DIAMONDS 4 
/hold 
player 8888:hold/ 
CLUBS Q 
DIAMONDS 7 
/hold 
player 7777:hold/ 
HEARTS 4 
SPADES 2 
/hold 
player 4444:hold/ 
DIAMONDS 8 
DIAMONDS Q 
/hold 
player 2222:hold/ 
CLUBS 8 
DIAMONDS 9 
/hold 

---pre flop round bet---
valid player: 8, all in player: 0, fold player: 0
send inquire msg to player 6666 
inquire/ 
5555 10716 8000 100 blind 
1111 750 8000 50 blind 
total pot: 150 
/inquire 
recv from player 6666: fold
send inquire msg to player 3333 
inquire/ 
6666 232 8000 0 fold 
5555 10716 8000 100 blind 
1111 750 8000 50 blind 
total pot: 150 
/inquire 
recv from player 3333: check
send inquire msg to player 8888 
inquire/ 
3333 4550 4078 100 call 
6666 232 8000 0 fold 
5555 10716 8000 100 blind 
1111 750 8000 50 blind 
total pot: 250 
/inquire 
recv from player 8888: check
send inquire msg to player 7777 
inquire/ 
8888 2365 8000 100 call 
3333 4550 4078 100 call 
6666 232 8000 0 fold 
5555 10716 8000 100 blind 
1111 750 8000 50 blind 
total pot: 350 
/inquire 
recv from player 7777: check
send inquire msg to player 4444 
inquire/ 
7777 1900 6050 100 call 
8888 2365 8000 100 call 
3333 4550 4078 100 call 
6666 232 8000 0 fold 
5555 10716 8000 100 blind 
1111 750 8000 50 blind 
total pot: 450 
/inquire 
recv from player 4444: fold
send inquire msg to player 2222 
inquire/ 
4444 100 8000 0 fold 
7777 1900 6050 100 call 
8888 2365 8000 100 call 
3333 4550 4078 100 call 
6666 232 8000 0 fold 
5555 10716 8000 100 blind 
1111 750 8000 50 blind 
total pot: 450 
/inquire 
recv from player 2222: fold
send inquire msg to player 1111 
inquire/ 
2222 809 8000 0 fold 
4444 100 8000 0 fold 
7777 1900 6050 100 call 
8888 2365 8000 100 call 
3333 4550 4078 100 call 
6666 232 8000 0 fold 
5555 10716 8000 100 blind 
1111 750 8000 50 blind 
total pot: 450 
/inquire 
recv from player 1111: fold
send inquire msg to player 5555 
inquire/ 
1111 750 8000 50 fold 
2222 809 8000 0 fold 
4444 100 8000 0 fold 
7777 1900 6050 100 call 
8888 2365 8000 100 call 
3333 4550 4078 100 call 
6666 232 8000 0 fold 
5555 10716 8000 100 blind 
total pot: 450 
/inquire 
recv from player 5555: raise 0
send inquire msg to player 6666 
inquire/ 
5555 10616 8000 200 raise 
1111 750 8000 50 fold 
2222 809 8000 0 fold 
4444 100 8000 0 fold 
7777 1900 6050 100 call 
8888 2365 8000 100 call 
3333 4550 4078 100 call 
6666 232 8000 0 fold 
total pot: 550 
/inquire 
send inquire msg to player 3333 
inquire/ 
6666 232 8000 0 fold 
5555 10616 8000 200 raise 
1111 750 8000 50 fold 
2222 809 8000 0 fold 
4444 100 8000 0 fold 
7777 1900 6050 100 call 
8888 2365 8000 100 call 
3333 4550 4078 100 call 
total pot: 550 
/inquire 
recv from player 3333: check
send inquire msg to player 8888 
inquire/ 
3333 4450 4078 200 call 
6666 232 8000 0 fold 
5555 10616 8000 200 raise 
1111 750 8000 50 fold 
2222 809 8000 0 fold 
4444 100 8000 0 fold 
7777 1900 6050 100 call 
8888 2365 8000 100 call 
total pot: 650 
/inquire 
recv from player 8888: check
send inquire msg to player 7777 
inquire/ 
8888 2265 8000 200 call 
3333 4450 4078 200 call 
6666 232 8000 0 fold 
5555 10616 8000 200 raise 
1111 750 8000 50 fold 
2222 809 8000 0 fold 
4444 100 8000 0 fold 
7777 1900 6050 100 call 
total pot: 750 
/inquire 
recv from player 7777: fold
flop/ 
DIAMONDS J 
SPADES 6 
CLUBS 3 
/flop 

---flop round bet---
valid player: 8, all in player: 0, fold player: 5
send inquire msg to player 1111 
inquire/ 
2222 809 8000 0 fold 
4444 100 8000 0 fold 
7777 1900 6050 100 fold 
8888 2265 8000 200 call 
3333 4450 4078 200 call 
6666 232 8000 0 fold 
5555 10616 8000 200 raise 
1111 750 8000 50 fold 
total pot: 750 
/inquire 
send inquire msg to player 5555 
inquire/ 
1111 750 8000 50 fold 
2222 809 8000 0 fold 
4444 100 8000 0 fold 
7777 1900 6050 100 fold 
8888 2265 8000 200 call 
3333 4450 4078 200 call 
6666 232 8000 0 fold 
5555 10616 8000 200 raise 
total pot: 750 
/inquire 
recv from player 5555: raise 0
send inquire msg to player 6666 
inquire/ 
5555 10516 8000 300 raise 
1111 750 8000 50 fold 
2222 809 8000 0 fold 
4444 100 8000 0 fold 
7777 1900 6050 100 fold 
8888 2265 8000 200 call 
3333 4450 4078 200 call 
6666 232 8000 0 fold 
total pot: 850 
/inquire 
send inquire msg to player 3333 
inquire/ 
6666 232 8000 0 fold 
5555 10516 8000 300 raise 
1111 750 8000 50 fold 
2222 809 8000 0 fold 
4444 100 8000 0 fold 
7777 1900 6050 100 fold 
8888 2265 8000 200 call 
3333 4450 4078 200 call 
total pot: 850 
/inquire 
recv from player 3333: check
send inquire msg to player 8888 
inquire/ 
3333 4350 4078 300 call 
6666 232 8000 0 fold 
5555 10516 8000 300 raise 
1111 750 8000 50 fold 
2222 809 8000 0 fold 
4444 100 8000 0 fold 
7777 1900 6050 100 fold 
8888 2265 8000 200 call 
total pot: 950 
/inquire 
recv from player 8888: check
turn/ 
CLUBS J 
/turn 

---turn round bet---
valid player: 8, all in player: 0, fold player: 5
send inquire msg to player 1111 
inquire/ 
2222 809 8000 0 fold 
4444 100 8000 0 fold 
7777 1900 6050 100 fold 
8888 2165 8000 300 call 
3333 4350 4078 300 call 
6666 232 8000 0 fold 
5555 10516 8000 300 raise 
1111 750 8000 50 fold 
total pot: 1050 
/inquire 
send inquire msg to player 5555 
inquire/ 
1111 750 8000 50 fold 
2222 809 8000 0 fold 
4444 100 8000 0 fold 
7777 1900 6050 100 fold 
8888 2165 8000 300 call 
3333 4350 4078 300 call 
6666 232 8000 0 fold 
5555 10516 8000 300 raise 
total pot: 1050 
/inquire 
recv from player 5555: raise 0
send inquire msg to player 6666 
inquire/ 
5555 10416 8000 400 raise 
1111 750 8000 50 fold 
2222 809 8000 0 fold 
4444 100 8000 0 fold 
7777 1900 6050 100 fold 
8888 2165 8000 300 call 
3333 4350 4078 300 call 
6666 232 8000 0 fold 
total pot: 1150 
/inquire 
send inquire msg to player 3333 
inquire/ 
6666 232 8000 0 fold 
5555 10416 8000 400 raise 
1111 750 8000 50 fold 
2222 809 8000 0 fold 
4444 100 8000 0 fold 
7777 1900 6050 100 fold 
8888 2165 8000 300 call 
3333 4350 4078 300 call 
total pot: 1150 
/inquire 
recv from player 3333: check
send inquire msg to player 8888 
inquire/ 
3333 4250 4078 400 call 
6666 232 8000 0 fold 
5555 10416 8000 400 raise 
1111 750 8000 50 fold 
2222 809 8000 0 fold 
4444 100 8000 0 fold 
7777 1900 6050 100 fold 
8888 2165 8000 300 call 
total pot: 1250 
/inquire 
recv from player 8888: check
river/ 
SPADES 3 
/river 

---river round bet---
valid player: 8, all in player: 0, fold player: 5
send inquire msg to player 1111 
inquire/ 
2222 809 8000 0 fold 
4444 100 8000 0 fold 
7777 1900 6050 100 fold 
8888 2065 8000 400 call 
3333 4250 4078 400 call 
6666 232 8000 0 fold 
5555 10416 8000 400 raise 
1111 750 8000 50 fold 
total pot: 1350 
/inquire 
send inquire msg to player 5555 
inquire/ 
1111 750 8000 50 fold 
2222 809 8000 0 fold 
4444 100 8000 0 fold 
7777 1900 6050 100 fold 
8888 2065 8000 400 call 
3333 4250 4078 400 call 
6666 232 8000 0 fold 
5555 10416 8000 400 raise 
total pot: 1350 
/inquire 
recv from player 5555: raise 0
send inquire msg to player 6666 
inquire/ 
5555 10316 8000 500 raise 
1111 750 8000 50 fold 
2222 809 8000 0 fold 
4444 100 8000 0 fold 
7777 1900 6050 100 fold 
8888 2065 8000 400 call 
3333 4250 4078 400 call 
6666 232 8000 0 fold 
total pot: 1450 
/inquire 
send inquire msg to player 3333 
inquire/ 
6666 232 8000 0 fold 
5555 10316 8000 500 raise 
1111 750 8000 50 fold 
2222 809 8000 0 fold 
4444 100 8000 0 fold 
7777 1900 6050 100 fold 
8888 2065 8000 400 call 
3333 4250 4078 400 call 
total pot: 1450 
/inquire 
recv from player 3333: check
send inquire msg to player 8888 
inquire/ 
3333 4150 4078 500 call 
6666 232 8000 0 fold 
5555 10316 8000 500 raise 
1111 750 8000 50 fold 
2222 809 8000 0 fold 
4444 100 8000 0 fold 
7777 1900 6050 100 fold 
8888 2065 8000 400 call 
total pot: 1550 
/inquire 
recv from player 8888: check

---show down---
showdown/ 
common/ 
DIAMONDS J 
SPADES 6 
CLUBS 3 
CLUBS J 
SPADES 3 
/common 
3: 5555 CLUBS 7 CLUBS 9 TWO_PAIR 
1: 3333 HEARTS K DIAMONDS 4 TWO_PAIR 
2: 8888 CLUBS Q DIAMONDS 7 TWO_PAIR 
/showdown 

---Allocate pot---
pot-win/ 
3333: 1650 
/pot-win 
it is player 1111's turn to be button

-----23 Hand-----

----- clean player data in socket -----
seat/ 
button: 1111 750 8000 
small blind: 5555 10316 8000 
big blind: 6666 232 8000 
3333 5800 4078 
8888 1965 8000 
7777 1900 6050 
4444 100 8000 
2222 809 8000 
/seat 
blind/ 
5555: 50 
6666: 100 
/blind 
player 5555:hold/ 
SPADES 2 
CLUBS K 
/hold 
player 6666:hold/ 
DIAMONDS 7 
SPADES A 
/hold 
player 3333:hold/ 
SPADES 6 
CLUBS 6 
/hold 
player 8888:hold/ 
CLUBS 7 
SPADES 5 
/hold 
player 7777:hold/ 
HEARTS 6 
DIAMONDS 6 
/hold 
player 4444:hold/ 
HEARTS K 
CLUBS A 
/hold 
player 2222:hold/ 
DIAMONDS 8 
SPADES 10 
/hold 
player 1111:hold/ 
DIAMONDS 9 
HEARTS 8 
/hold 

---pre flop round bet---
valid player: 8, all in player: 0, fold player: 0
send inquire msg to player 3333 
inquire/ 
6666 132 8000 100 blind 
5555 10266 8000 50 blind 
total pot: 150 
/inquire 
recv from player 3333: check
send inquire msg to player 8888 
inquire/ 
3333 5700 4078 100 call 
6666 132 8000 100 blind 
5555 10266 8000 50 blind 
total pot: 250 
/inquire 
recv from player 8888: check
send inquire msg to player 7777 
inquire/ 
8888 1865 8000 100 call 
3333 5700 4078 100 call 
6666 132 8000 100 blind 
5555 10266 8000 50 blind 
total pot: 350 
/inquire 
recv from player 7777: check
send inquire msg to player 4444 
inquire/ 
7777 1800 6050 100 call 
8888 1865 8000 100 call 
3333 5700 4078 100 call 
6666 132 8000 100 blind 
5555 10266 8000 50 blind 
total pot: 450 
/inquire 
recv from player 4444: fold
send inquire msg to player 2222 
inquire/ 
4444 100 8000 0 fold 
7777 1800 6050 100 call 
8888 1865 8000 100 call 
3333 5700 4078 100 call 
6666 132 8000 100 blind 
5555 10266 8000 50 blind 
total pot: 450 
/inquire 
recv from player 2222: fold
send inquire msg to player 1111 
inquire/ 
2222 809 8000 0 fold 
4444 100 8000 0 fold 
7777 1800 6050 100 call 
8888 1865 8000 100 call 
3333 5700 4078 100 call 
6666 132 8000 100 blind 
5555 10266 8000 50 blind 
total pot: 450 
/inquire 
recv from player 1111: fold
send inquire msg to player 5555 
inquire/ 
1111 750 8000 0 fold 
2222 809 8000 0 fold 
4444 100 8000 0 fold 
7777 1800 6050 100 call 
8888 1865 8000 100 call 
3333 5700 4078 100 call 
6666 132 8000 100 blind 
5555 10266 8000 50 blind 
total pot: 450 
/inquire 
recv from player 5555: raise 0
send inquire msg to player 6666 
inquire/ 
5555 10116 8000 200 raise 
1111 750 8000 0 fold 
2222 809 8000 0 fold 
4444 100 8000 0 fold 
7777 1800 6050 100 call 
8888 1865 8000 100 call 
3333 5700 4078 100 call 
6666 132 8000 100 blind 
total pot: 600 
/inquire 
recv from player 6666: fold
send inquire msg to player 3333 
inquire/ 
6666 132 8000 100 fold 
5555 10116 8000 200 raise 
1111 750 8000 0 fold 
2222 809 8000 0 fold 
4444 100 8000 0 fold 
7777 1800 6050 100 call 
8888 1865 8000 100 call 
3333 5700 4078 100 call 
total pot: 600 
/inquire 
recv from player 3333: check
send inquire msg to player 8888 
inquire/ 
3333 5600 4078 200 call 
6666 132 8000 100 fold 
5555 10116 8000 200 raise 
1111 750 8000 0 fold 
2222 809 8000 0 fold 
4444 100 8000 0 fold 
7777 1800 6050 100 call 
8888 1865 8000 100 call 
total pot: 700 
/inquire 
recv from player 8888: check
send inquire msg to player 7777 
inquire/ 
8888 1765 8000 200 call 
3333 5600 4078 200 call 
6666 132 8000 100 fold 
5555 10116 8000 200 raise 
1111 750 8000 0 fold 
2222 809 8000 0 fold 
4444 100 8000 0 fold 
7777 1800 6050 100 call 
total pot: 800 
/inquire 
recv from player 7777: check
flop/ 
DIAMONDS 3 
DIAMONDS 2 
HEARTS Q 
/flop 

---flop round bet---
valid player: 8, all in player: 0, fold player: 4
send inquire msg to player 5555 
inquire/ 
1111 750 8000 0 fold 
2222 809 8000 0 fold 
4444 100 8000 0 fold 
7777 1700 6050 200 call 
8888 1765 8000 200 call 
3333 5600 4078 200 call 
6666 132 8000 100 fold 
5555 10116 8000 200 raise 
total pot: 900 
/inquire 
recv from player 5555: raise 0
send inquire msg to player 6666 
inquire/ 
5555 10016 8000 300 raise 
1111 750 8000 0 fold 
2222 809 8000 0 fold 
4444 100 8000 0 fold 
7777 1700 6050 200 call 
8888 1765 8000 200 call 
3333 5600 4078 200 call 
6666 132 8000 100 fold 
total pot: 1000 
/inquire 
send inquire msg to player 3333 
inquire/ 
6666 132 8000 100 fold 
5555 10016 8000 300 raise 
1111 750 8000 0 fold 
2222 809 8000 0 fold 
4444 100 8000 0 fold 
7777 1700 6050 200 call 
8888 1765 8000 200 call 
3333 5600 4078 200 call 
total pot: 1000 
/inquire 
recv from player 3333: check
send inquire msg to player 8888 
inquire/ 
3333 5500 4078 300 call 
6666 132 8000 100 fold 
5555 10016 8000 300 raise 
1111 750 8000 0 fold 
2222 809 8000 0 fold 
4444 100 8000 0 fold 
7777 1700 6050 200 call 
8888 1765 8000 200 call 
total pot: 1100 
/inquire 
recv from player 8888: check
send inquire msg to player 7777 
inquire/ 
8888 1665 8000 300 call 
3333 5500 4078 300 call 
6666 132 8000 100 fold 
5555 10016 8000 300 raise 
1111 750 8000 0 fold 
2222 809 8000 0 fold 
4444 100 8000 0 fold 
7777 1700 6050 200 call 
total pot: 1200 
/inquire 
recv from player 7777: check
turn/ 
SPADES 4 
/turn 

---turn round bet---
valid player: 8, all in player: 0, fold player: 4
send inquire msg to player 5555 
inquire/ 
1111 750 8000 0 fold 
2222 809 8000 0 fold 
4444 100 8000 0 fold 
7777 1600 6050 300 call 
8888 1665 8000 300 call 
3333 5500 4078 300 call 
6666 132 8000 100 fold 
5555 10016 8000 300 raise 
total pot: 1300 
/inquire 
recv from player 5555: raise 0
send inquire msg to player 6666 
inquire/ 
5555 9916 8000 400 raise 
1111 750 8000 0 fold 
2222 809 8000 0 fold 
4444 100 8000 0 fold 
7777 1600 6050 300 call 
8888 1665 8000 300 call 
3333 5500 4078 300 call 
6666 132 8000 100 fold 
total pot: 1400 
/inquire 
send inquire msg to player 3333 
inquire/ 
6666 132 8000 100 fold 
5555 9916 8000 400 raise 
1111 750 8000 0 fold 
2222 809 8000 0 fold 
4444 100 8000 0 fold 
7777 1600 6050 300 call 
8888 1665 8000 300 call 
3333 5500 4078 300 call 
total pot: 1400 
/inquire 
recv from player 3333: check
send inquire msg to player 8888 
inquire/ 
3333 5400 4078 400 call 
6666 132 8000 100 fold 
5555 9916 8000 400 raise 
1111 750 8000 0 fold 
2222 809 8000 0 fold 
4444 100 8000 0 fold 
7777 1600 6050 300 call 
8888 1665 8000 300 call 
total pot: 1500 
/inquire 
recv from player 8888: check
send inquire msg to player 7777 
inquire/ 
8888 1565 8000 400 call 
3333 5400 4078 400 call 
6666 132 8000 100 fold 
5555 9916 8000 400 raise 
1111 750 8000 0 fold 
2222 809 8000 0 fold 
4444 100 8000 0 fold 
7777 1600 6050 300 call 
total pot: 1600 
/inquire 
recv from player 7777: check
river/ 
CLUBS 4 
/river 

---river round bet---
valid player: 8, all in player: 0, fold player: 4
send inquire msg to player 5555 
inquire/ 
1111 750 8000 0 fold 
2222 809 8000 0 fold 
4444 100 8000 0 fold 
7777 1500 6050 400 call 
8888 1565 8000 400 call 
3333 5400 4078 400 call 
6666 132 8000 100 fold 
5555 9916 8000 400 raise 
total pot: 1700 
/inquire 
recv from player 5555: raise 0
send inquire msg to player 6666 
inquire/ 
5555 9816 8000 500 raise 
1111 750 8000 0 fold 
2222 809 8000 0 fold 
4444 100 8000 0 fold 
7777 1500 6050 400 call 
8888 1565 8000 400 call 
3333 5400 4078 400 call 
6666 132 8000 100 fold 
total pot: 1800 
/inquire 
send inquire msg to player 3333 
inquire/ 
6666 132 8000 100 fold 
5555 9816 8000 500 raise 
1111 750 8000 0 fold 
2222 809 8000 0 fold 
4444 100 8000 0 fold 
7777 1500 6050 400 call 
8888 1565 8000 400 call 
3333 5400 4078 400 call 
total pot: 1800 
/inquire 
recv from player 3333: check
send inquire msg to player 8888 
inquire/ 
3333 5300 4078 500 call 
6666 132 8000 100 fold 
5555 9816 8000 500 raise 
1111 750 8000 0 fold 
2222 809 8000 0 fold 
4444 100 8000 0 fold 
7777 1500 6050 400 call 
8888 1565 8000 400 call 
total pot: 1900 
/inquire 
recv from player 8888: check
send inquire msg to player 7777 
inquire/ 
8888 1465 8000 500 call 
3333 5300 4078 500 call 
6666 132 8000 100 fold 
5555 9816 8000 500 raise 
1111 750 8000 0 fold 
2222 809 8000 0 fold 
4444 100 8000 0 fold 
7777 1500 6050 400 call 
total pot: 2000 
/inquire 
recv from player 7777: check

---show down---
showdown/ 
common/ 
DIAMONDS 3 
DIAMONDS 2 
HEARTS Q 
SPADES 4 
CLUBS 4 
/common 
2: 5555 SPADES 2 CLUBS K TWO_PAIR 
1: 3333 SPADES 6 CLUBS 6 TWO_PAIR 
3: 8888 CLUBS 7 SPADES 5 ONE_PAIR 
1: 7777 HEARTS 6 DIAMONDS 6 TWO_PAIR 
/showdown 

---Allocate pot---
pot-win/ 
3333: 1050 
7777: 1050 
/pot-win 
it is player 5555's turn to be button

-----24 Hand-----

----- clean player data in socket -----
seat/ 
button: 5555 9816 8000 
small blind: 6666 132 8000 
big blind: 3333 6350 4078 
8888 1465 8000 
7777 2450 6050 
4444 100 8000 
2222 809 8000 
1111 750 8000 
/seat 
blind/ 
6666: 50 
3333: 100 
/blind 
player 6666:hold/ 
HEARTS 8 
SPADES 7 
/hold 
player 3333:hold/ 
CLUBS 6 
DIAMONDS 2 
/hold 
player 8888:hold/ 
HEARTS 4 
CLUBS 3 
/hold 
player 7777:hold/ 
CLUBS 7 
SPADES J 
/hold 
player 4444:hold/ 
HEARTS 3 
CLUBS 2 
/hold 
player 2222:hold/ 
DIAMONDS K 
SPADES 8 
/hold 
player 1111:hold/ 
HEARTS K 
CLUBS K 
/hold 
player 5555:hold/ 
DIAMONDS 10 
DIAMONDS Q 
/hold 

---pre flop round bet---
valid player: 8, all in player: 0, fold player: 0
send inquire msg to player 8888 
inquire/ 
3333 6250 4078 100 blind 
6666 82 8000 50 blind 
total pot: 150 
/inquire 
recv from player 8888: check
send inquire msg to player 7777 
inquire/ 
8888 1365 8000 100 call 
3333 6250 4078 100 blind 
6666 82 8000 50 blind 
total pot: 250 
/inquire 
recv from player 7777: check
send inquire msg to player 4444 
inquire/ 
7777 2350 6050 100 call 
8888 1365 8000 100 call 
3333 6250 4078 100 blind 
6666 82 8000 50 blind 
total pot: 350 
/inquire 
recv from player 4444: fold
send inquire msg to player 2222 
inquire/ 
4444 100 8000 0 fold 
7777 2350 6050 100 call 
8888 1365 8000 100 call 
3333 6250 4078 100 blind 
6666 82 8000 50 blind 
total pot: 350 
/inquire 
recv from player 2222: check
send inquire msg to player 1111 
inquire/ 
2222 709 8000 100 call 
4444 100 8000 0 fold 
7777 2350 6050 100 call 
8888 1365 8000 100 call 
3333 6250 4078 100 blind 
6666 82 8000 50 blind 
total pot: 450 
/inquire 
recv from player 1111: fold
send inquire msg to player 5555 
inquire/ 
1111 750 8000 0 fold 
2222 709 8000 100 call 
4444 100 8000 0 fold 
7777 2350 6050 100 call 
8888 1365 8000 100 call 
3333 6250 4078 100 blind 
6666 82 8000 50 blind 
total pot: 450 
/inquire 
recv from player 5555: check
send inquire msg to player 6666 
inquire/ 
5555 9716 8000 100 call 
1111 750 8000 0 fold 
2222 709 8000 100 call 
4444 100 8000 0 fold 
7777 2350 6050 100 call 
8888 1365 8000 100 call 
3333 6250 4078 100 blind 
6666 82 8000 50 blind 
total pot: 550 
/inquire 
recv from player 6666: fold
send inquire msg to player 3333 
inquire/ 
6666 82 8000 50 fold 
5555 9716 8000 100 call 
1111 750 8000 0 fold 
2222 709 8000 100 call 
4444 100 8000 0 fold 
7777 2350 6050 100 call 
8888 1365 8000 100 call 
3333 6250 4078 100 blind 
total pot: 550 
/inquire 
recv from player 3333: check
flop/ 
HEARTS A 
DIAMONDS A 
DIAMONDS 3 
/flop 

---flop round bet---
valid player: 8, all in player: 0, fold player: 3
send inquire msg to player 6666 
inquire/ 
5555 9716 8000 100 call 
1111 750 8000 0 fold 
2222 709 8000 100 call 
4444 100 8000 0 fold 
7777 2350 6050 100 call 
8888 1365 8000 100 call 
3333 6250 4078 100 check 
6666 82 8000 50 fold 
total pot: 550 
/inquire 
send inquire msg to player 3333 
inquire/ 
6666 82 8000 50 fold 
5555 9716 8000 100 call 
1111 750 8000 0 fold 
2222 709 8000 100 call 
4444 100 8000 0 fold 
7777 2350 6050 100 call 
8888 1365 8000 100 call 
3333 6250 4078 100 check 
total pot: 550 
/inquire 
recv from player 3333: check
send inquire msg to player 8888 
inquire/ 
3333 6250 4078 100 check 
6666 82 8000 50 fold 
5555 9716 8000 100 call 
1111 750 8000 0 fold 
2222 709 8000 100 call 
4444 100 8000 0 fold 
7777 2350 6050 100 call 
8888 1365 8000 100 call 
total pot: 550 
/inquire 
recv from player 8888: check
send inquire msg to player 7777 
inquire/ 
8888 1365 8000 100 check 
3333 6250 4078 100 check 
6666 82 8000 50 fold 
5555 9716 8000 100 call 
1111 750 8000 0 fold 
2222 709 8000 100 call 
4444 100 8000 0 fold 
7777 2350 6050 100 call 
total pot: 550 
/inquire 
recv from player 7777: check
send inquire msg to player 4444 
inquire/ 
7777 2350 6050 100 check 
8888 1365 8000 100 check 
3333 6250 4078 100 check 
6666 82 8000 50 fold 
5555 9716 8000 100 call 
1111 750 8000 0 fold 
2222 709 8000 100 call 
4444 100 8000 0 fold 
total pot: 550 
/inquire 
send inquire msg to player 2222 
inquire/ 
4444 100 8000 0 fold 
7777 2350 6050 100 check 
8888 1365 8000 100 check 
3333 6250 4078 100 check 
6666 82 8000 50 fold 
5555 9716 8000 100 call 
1111 750 8000 0 fold 
2222 709 8000 100 call 
total pot: 550 
/inquire 
recv from player 2222: fold
send inquire msg to player 1111 
inquire/ 
2222 709 8000 100 fold 
4444 100 8000 0 fold 
7777 2350 6050 100 check 
8888 1365 8000 100 check 
3333 6250 4078 100 check 
6666 82 8000 50 fold 
5555 9716 8000 100 call 
1111 750 8000 0 fold 
total pot: 550 
/inquire 
send inquire msg to player 5555 
inquire/ 
1111 750 8000 0 fold 
2222 709 8000 100 fold 
4444 100 8000 0 fold 
7777 2350 6050 100 check 
8888 1365 8000 100 check 
3333 6250 4078 100 check 
6666 82 8000 50 fold 
5555 9716 8000 100 call 
total pot: 550 
/inquire 
recv from player 5555: raise 0
send inquire msg to player 6666 
inquire/ 
5555 9616 8000 200 raise 
1111 750 8000 0 fold 
2222 709 8000 100 fold 
4444 100 8000 0 fold 
7777 2350 6050 100 check 
8888 1365 8000 100 check 
3333 6250 4078 100 check 
6666 82 8000 50 fold 
total pot: 650 
/inquire 
send inquire msg to player 3333 
inquire/ 
6666 82 8000 50 fold 
5555 9616 8000 200 raise 
1111 750 8000 0 fold 
2222 709 8000 100 fold 
4444 100 8000 0 fold 
7777 2350 6050 100 check 
8888 1365 8000 100 check 
3333 6250 4078 100 check 
total pot: 650 
/inquire 
recv from player 3333: check
send inquire msg to player 8888 
inquire/ 
3333 6150 4078 200 call 
6666 82 8000 50 fold 
5555 9616 8000 200 raise 
1111 750 8000 0 fold 
2222 709 8000 100 fold 
4444 100 8000 0 fold 
7777 2350 6050 100 check 
8888 1365 8000 100 check 
total pot: 750 
/inquire 
recv from player 8888: check
send inquire msg to player 7777 
inquire/ 
8888 1265 8000 200 call 
3333 6150 4078 200 call 
6666 82 8000 50 fold 
5555 9616 8000 200 raise 
1111 750 8000 0 fold 
2222 709 8000 100 fold 
4444 100 8000 0 fold 
7777 2350 6050 100 check 
total pot: 850 
/inquire 
recv from player 7777: fold
turn/ 
SPADES 9 
/turn 

---turn round bet---
valid player: 8, all in player: 0, fold player: 5
send inquire msg to player 6666 
inquire/ 
5555 9616 8000 200 raise 
1111 750 8000 0 fold 
2222 709 8000 100 fold 
4444 100 8000 0 fold 
7777 2350 6050 100 fold 
8888 1265 8000 200 call 
3333 6150 4078 200 call 
6666 82 8000 50 fold 
total pot: 850 
/inquire 
send inquire msg to player 3333 
inquire/ 
6666 82 8000 50 fold 
5555 9616 8000 200 raise 
1111 750 8000 0 fold 
2222 709 8000 100 fold 
4444 100 8000 0 fold 
7777 2350 6050 100 fold 
8888 1265 8000 200 call 
3333 6150 4078 200 call 
total pot: 850 
/inquire 
recv from player 3333: check
send inquire msg to player 8888 
inquire/ 
3333 6150 4078 200 check 
6666 82 8000 50 fold 
5555 9616 8000 200 raise 
1111 750 8000 0 fold 
2222 709 8000 100 fold 
4444 100 8000 0 fold 
7777 2350 6050 100 fold 
8888 1265 8000 200 call 
total pot: 850 
/inquire 
recv from player 8888: check
send inquire msg to player 7777 
inquire/ 
8888 1265 8000 200 check 
3333 6150 4078 200 check 
6666 82 8000 50 fold 
5555 9616 8000 200 raise 
1111 750 8000 0 fold 
2222 709 8000 100 fold 
4444 100 8000 0 fold 
7777 2350 6050 100 fold 
total pot: 850 
/inquire 
send inquire msg to player 4444 
inquire/ 
7777 2350 6050 100 fold 
8888 1265 8000 200 check 
3333 6150 4078 200 check 
6666 82 8000 50 fold 
5555 9616 8000 200 raise 
1111 750 8000 0 fold 
2222 709 8000 100 fold 
4444 100 8000 0 fold 
total pot: 850 
/inquire 
send inquire msg to player 2222 
inquire/ 
4444 100 8000 0 fold 
7777 2350 6050 100 fold 
8888 1265 8000 200 check 
3333 6150 4078 200 check 
6666 82 8000 50 fold 
5555 9616 8000 200 raise 
1111 750 8000 0 fold 
2222 709 8000 100 fold 
total pot: 850 
/inquire 
send inquire msg to player 1111 
inquire/ 
2222 709 8000 100 fold 
4444 100 8000 0 fold 
7777 2350 6050 100 fold 
8888 1265 8000 200 check 
3333 6150 4078 200 check 
6666 82 8000 50 fold 
5555 9616 8000 200 raise 
1111 750 8000 0 fold 
total pot: 850 
/inquire 
send inquire msg to player 5555 
inquire/ 
1111 750 8000 0 fold 
2222 709 8000 100 fold 
4444 100 8000 0 fold 
7777 2350 6050 100 fold 
8888 1265 8000 200 check 
3333 6150 4078 200 check 
6666 82 8000 50 fold 
5555 9616 8000 200 raise 
total pot: 850 
/inquire 
recv from player 5555: check
river/ 
SPADES 10 
/river 

---river round bet---
valid player: 8, all in player: 0, fold player: 5
send inquire msg to player 6666 
inquire/ 
5555 9616 8000 200 check 
1111 750 8000 0 fold 
2222 709 8000 100 fold 
4444 100 8000 0 fold 
7777 2350 6050 100 fold 
8888 1265 8000 200 check 
3333 6150 4078 200 check 
6666 82 8000 50 fold 
total pot: 850 
/inquire 
send inquire msg to player 3333 
inquire/ 
6666 82 8000 50 fold 
5555 9616 8000 200 check 
1111 750 8000 0 fold 
2222 709 8000 100 fold 
4444 100 8000 0 fold 
7777 2350 6050 100 fold 
8888 1265 8000 200 check 
3333 6150 4078 200 check 
total pot: 850 
/inquire 
recv from player 3333: check
send inquire msg to player 8888 
inquire/ 
3333 6150 4078 200 check 
6666 82 8000 50 fold 
5555 9616 8000 200 check 
1111 750 8000 0 fold 
2222 709 8000 100 fold 
4444 100 8000 0 fold 
7777 2350 6050 100 fold 
8888 1265 8000 200 check 
total pot: 850 
/inquire 
recv from player 8888: check
send inquire msg to player 7777 
inquire/ 
8888 1265 8000 200 check 
3333 6150 4078 200 check 
6666 82 8000 50 fold 
5555 9616 8000 200 check 
1111 750 8000 0 fold 
2222 709 8000 100 fold 
4444 100 8000 0 fold 
7777 2350 6050 100 fold 
total pot: 850 
/inquire 
send inquire msg to player 4444 
inquire/ 
7777 2350 6050 100 fold 
8888 1265 8000 200 check 
3333 6150 4078 200 check 
6666 82 8000 50 fold 
5555 9616 8000 200 check 
1111 750 8000 0 fold 
2222 709 8000 100 fold 
4444 100 8000 0 fold 
total pot: 850 
/inquire 
send inquire msg to player 2222 
inquire/ 
4444 100 8000 0 fold 
7777 2350 6050 100 fold 
8888 1265 8000 200 check 
3333 6150 4078 200 check 
6666 82 8000 50 fold 
5555 9616 8000 200 check 
1111 750 8000 0 fold 
2222 709 8000 100 fold 
total pot: 850 
/inquire 
send inquire msg to player 1111 
inquire/ 
2222 709 8000 100 fold 
4444 100 8000 0 fold 
7777 2350 6050 100 fold 
8888 1265 8000 200 check 
3333 6150 4078 200 check 
6666 82 8000 50 fold 
5555 9616 8000 200 check 
1111 750 8000 0 fold 
total pot: 850 
/inquire 
send inquire msg to player 5555 
inquire/ 
1111 750 8000 0 fold 
2222 709 8000 100 fold 
4444 100 8000 0 fold 
7777 2350 6050 100 fold 
8888 1265 8000 200 check 
3333 6150 4078 200 check 
6666 82 8000 50 fold 
5555 9616 8000 200 check 
total pot: 850 
/inquire 
recv from player 5555: check

---show down---
showdown/ 
common/ 
HEARTS A 
DIAMONDS A 
DIAMONDS 3 
SPADES 9 
SPADES 10 
/common 
3: 3333 CLUBS 6 DIAMONDS 2 ONE_PAIR 
2: 8888 HEARTS 4 CLUBS 3 TWO_PAIR 
1: 5555 DIAMONDS 10 DIAMONDS Q TWO_PAIR 
/showdown 

---Allocate pot---
pot-win/ 
5555: 850 
/pot-win 
it is player 6666's turn to be button

-----25 Hand-----

----- clean player data in socket -----
seat/ 
button: 6666 2000 6082 
small blind: 3333 6150 4078 
big blind: 8888 1265 8000 
7777 2350 6050 
4444 100 8000 
2222 709 8000 
1111 750 8000 
5555 10466 8000 
/seat 
blind/ 
3333: 50 
8888: 100 
/blind 
player 3333:hold/ 
HEARTS K 
CLUBS 4 
/hold 
player 8888:hold/ 
DIAMONDS K 
CLUBS 10 
/hold 
player 7777:hold/ 
SPADES 8 
CLUBS Q 
/hold 
player 4444:hold/ 
SPADES Q 
CLUBS 6 
/hold 
player 2222:hold/ 
CLUBS A 
CLUBS 9 
/hold 
player 1111:hold/ 
CLUBS 5 
SPADES A 
/hold 
player 5555:hold/ 
DIAMONDS 6 
HEARTS 7 
/hold 
player 6666:hold/ 
DIAMONDS 7 
DIAMONDS 4 
/hold 

---pre flop round bet---
valid player: 8, all in player: 0, fold player: 0
send inquire msg to player 7777 
inquire/ 
8888 1165 8000 100 blind 
3333 6100 4078 50 blind 
total pot: 150 
/inquire 
recv from player 7777: check
send inquire msg to player 4444 
inquire/ 
7777 2250 6050 100 call 
8888 1165 8000 100 blind 
3333 6100 4078 50 blind 
total pot: 250 
/inquire 
recv from player 4444: fold
send inquire msg to player 2222 
inquire/ 
4444 100 8000 0 fold 
7777 2250 6050 100 call 
8888 1165 8000 100 blind 
3333 6100 4078 50 blind 
total pot: 250 
/inquire 
recv from player 2222: check
send inquire msg to player 1111 
inquire/ 
2222 609 8000 100 call 
4444 100 8000 0 fold 
7777 2250 6050 100 call 
8888 1165 8000 100 blind 
3333 6100 4078 50 blind 
total pot: 350 
/inquire 
recv from player 1111: check
send inquire msg to player 5555 
inquire/ 
1111 650 8000 100 call 
2222 609 8000 100 call 
4444 100 8000 0 fold 
7777 2250 6050 100 call 
8888 1165 8000 100 blind 
3333 6100 4078 50 blind 
total pot: 450 
/inquire 
recv from player 5555: check
send inquire msg to player 6666 
inquire/ 
5555 10366 8000 100 call 
1111 650 8000 100 call 
2222 609 8000 100 call 
4444 100 8000 0 fold 
7777 2250 6050 100 call 
8888 1165 8000 100 blind 
3333 6100 4078 50 blind 
total pot: 550 
/inquire 
recv from player 6666: raise 123
send inquire msg to player 3333 
inquire/ 
6666 1777 6082 223 raise 
5555 10366 8000 100 call 
1111 650 8000 100 call 
2222 609 8000 100 call 
4444 100 8000 0 fold 
7777 2250 6050 100 call 
8888 1165 8000 100 blind 
3333 6100 4078 50 blind 
total pot: 773 
/inquire 
recv from player 3333: check
send inquire msg to player 8888 
inquire/ 
3333 5927 4078 223 call 
6666 1777 6082 223 raise 
5555 10366 8000 100 call 
1111 650 8000 100 call 
2222 609 8000 100 call 
4444 100 8000 0 fold 
7777 2250 6050 100 call 
8888 1165 8000 100 blind 
total pot: 946 
/inquire 
recv from player 8888: check
send inquire msg to player 7777 
inquire/ 
8888 1042 8000 223 call 
3333 5927 4078 223 call 
6666 1777 6082 223 raise 
5555 10366 8000 100 call 
1111 650 8000 100 call 
2222 609 8000 100 call 
4444 100 8000 0 fold 
7777 2250 6050 100 call 
total pot: 1069 
/inquire 
recv from player 7777: check
send inquire msg to player 4444 
inquire/ 
7777 2127 6050 223 call 
8888 1042 8000 223 call 
3333 5927 4078 223 call 
6666 1777 6082 223 raise 
5555 10366 8000 100 call 
1111 650 8000 100 call 
2222 609 8000 100 call 
4444 100 8000 0 fold 
total pot: 1192 
/inquire 
send inquire msg to player 2222 
inquire/ 
4444 100 8000 0 fold 
7777 2127 6050 223 call 
8888 1042 8000 223 call 
3333 5927 4078 223 call 
6666 1777 6082 223 raise 
5555 10366 8000 100 call 
1111 650 8000 100 call 
2222 609 8000 100 call 
total pot: 1192 
/inquire 
recv from player 2222: check
send inquire msg to player 1111 
inquire/ 
2222 486 8000 223 call 
4444 100 8000 0 fold 
7777 2127 6050 223 call 
8888 1042 8000 223 call 
3333 5927 4078 223 call 
6666 1777 6082 223 raise 
5555 10366 8000 100 call 
1111 650 8000 100 call 
total pot: 1315 
/inquire 
recv from player 1111: check
send inquire msg to player 5555 
inquire/ 
1111 527 8000 223 call 
2222 486 8000 223 call 
4444 100 8000 0 fold 
7777 2127 6050 223 call 
8888 1042 8000 223 call 
3333 5927 4078 223 call 
6666 1777 6082 223 raise 
5555 10366 8000 100 call 
total pot: 1438 
/inquire 
recv from player 5555: raise 0
send inquire msg to player 6666 
inquire/ 
5555 10120 8000 346 raise 
1111 527 8000 223 call 
2222 486 8000 223 call 
4444 100 8000 0 fold 
7777 2127 6050 223 call 
8888 1042 8000 223 call 
3333 5927 4078 223 call 
6666 1777 6082 223 raise 
total pot: 1684 
/inquire 
recv from player 6666: check
send inquire msg to player 3333 
inquire/ 
6666 1654 6082 346 call 
5555 10120 8000 346 raise 
1111 527 8000 223 call 
2222 486 8000 223 call 
4444 100 8000 0 fold 
7777 2127 6050 223 call 
8888 1042 8000 223 call 
3333 5927 4078 223 call 
total pot: 1807 
/inquire 
recv from player 3333: check
send inquire msg to player 8888 
inquire/ 
3333 5804 4078 346 call 
6666 1654 6082 346 call 
5555 10120 8000 346 raise 
1111 527 8000 223 call 
2222 486 8000 223 call 
4444 100 8000 0 fold 
7777 2127 6050 223 call 
8888 1042 8000 223 call 
total pot: 1930 
/inquire 
recv from player 8888: check
send inquire msg to player 7777 
inquire/ 
8888 919 8000 346 call 
3333 5804 4078 346 call 
6666 1654 6082 346 call 
5555 10120 8000 346 raise 
1111 527 8000 223 call 
2222 486 8000 223 call 
4444 100 8000 0 fold 
7777 2127 6050 223 call 
total pot: 2053 
/inquire 
recv from player 7777: check
send inquire msg to player 4444 
inquire/ 
7777 2004 6050 346 call 
8888 919 8000 346 call 
3333 5804 4078 346 call 
6666 1654 6082 346 call 
5555 10120 8000 346 raise 
1111 527 8000 223 call 
2222 486 8000 223 call 
4444 100 8000 0 fold 
total pot: 2176 
/inquire 
send inquire msg to player 2222 
inquire/ 
4444 100 8000 0 fold 
7777 2004 6050 346 call 
8888 919 8000 346 call 
3333 5804 4078 346 call 
6666 1654 6082 346 call 
5555 10120 8000 346 raise 
1111 527 8000 223 call 
2222 486 8000 223 call 
total pot: 2176 
/inquire 
recv from player 2222: fold
send inquire msg to player 1111 
inquire/ 
2222 486 8000 223 fold 
4444 100 8000 0 fold 
7777 2004 6050 346 call 
8888 919 8000 346 call 
3333 5804 4078 346 call 
6666 1654 6082 346 call 
5555 10120 8000 346 raise 
1111 527 8000 223 call 
total pot: 2176 
/inquire 
recv from player 1111: check
flop/ 
DIAMONDS 8 
CLUBS J 
SPADES 5 
/flop 

---flop round bet---
valid player: 8, all in player: 0, fold player: 2
send inquire msg to player 3333 
inquire/ 
6666 1654 6082 346 call 
5555 10120 8000 346 raise 
1111 404 8000 346 call 
2222 486 8000 223 fold 
4444 100 8000 0 fold 
7777 2004 6050 346 call 
8888 919 8000 346 call 
3333 5804 4078 346 call 
total pot: 2299 
/inquire 
recv from player 3333: check
send inquire msg to player 8888 
inquire/ 
3333 5804 4078 346 check 
6666 1654 6082 346 call 
5555 10120 8000 346 raise 
1111 404 8000 346 call 
2222 486 8000 223 fold 
4444 100 8000 0 fold 
7777 2004 6050 346 call 
8888 919 8000 346 call 
total pot: 2299 
/inquire 
recv from player 8888: check
send inquire msg to player 7777 
inquire/ 
8888 919 8000 346 check 
3333 5804 4078 346 check 
6666 1654 6082 346 call 
5555 10120 8000 346 raise 
1111 404 8000 346 call 
2222 486 8000 223 fold 
4444 100 8000 0 fold 
7777 2004 6050 346 call 
total pot: 2299 
/inquire 
recv from player 7777: check
send inquire msg to player 4444 
inquire/ 
7777 2004 6050 346 check 
8888 919 8000 346 check 
3333 5804 4078 346 check 
6666 1654 6082 346 call 
5555 10120 8000 346 raise 
1111 404 8000 346 call 
2222 486 8000 223 fold 
4444 100 8000 0 fold 
total pot: 2299 
/inquire 
send inquire msg to player 2222 
inquire/ 
4444 100 8000 0 fold 
7777 2004 6050 346 check 
8888 919 8000 346 check 
3333 5804 4078 346 check 
6666 1654 6082 346 call 
5555 10120 8000 346 raise 
1111 404 8000 346 call 
2222 486 8000 223 fold 
total pot: 2299 
/inquire 
send inquire msg to player 1111 
inquire/ 
2222 486 8000 223 fold 
4444 100 8000 0 fold 
7777 2004 6050 346 check 
8888 919 8000 346 check 
3333 5804 4078 346 check 
6666 1654 6082 346 call 
5555 10120 8000 346 raise 
1111 404 8000 346 call 
total pot: 2299 
/inquire 
recv from player 1111: fold
send inquire msg to player 5555 
inquire/ 
1111 404 8000 346 fold 
2222 486 8000 223 fold 
4444 100 8000 0 fold 
7777 2004 6050 346 check 
8888 919 8000 346 check 
3333 5804 4078 346 check 
6666 1654 6082 346 call 
5555 10120 8000 346 raise 
total pot: 2299 
/inquire 
recv from player 5555: check
send inquire msg to player 6666 
inquire/ 
5555 10120 8000 346 check 
1111 404 8000 346 fold 
2222 486 8000 223 fold 
4444 100 8000 0 fold 
7777 2004 6050 346 check 
8888 919 8000 346 check 
3333 5804 4078 346 check 
6666 1654 6082 346 call 
total pot: 2299 
/inquire 
recv from player 6666: check
turn/ 
SPADES K 
/turn 

---turn round bet---
valid player: 8, all in player: 0, fold player: 3
send inquire msg to player 3333 
inquire/ 
6666 1654 6082 346 check 
5555 10120 8000 346 check 
1111 404 8000 346 fold 
2222 486 8000 223 fold 
4444 100 8000 0 fold 
7777 2004 6050 346 check 
8888 919 8000 346 check 
3333 5804 4078 346 check 
total pot: 2299 
/inquire 
recv from player 3333: check
send inquire msg to player 8888 
inquire/ 
3333 5804 4078 346 check 
6666 1654 6082 346 check 
5555 10120 8000 346 check 
1111 404 8000 346 fold 
2222 486 8000 223 fold 
4444 100 8000 0 fold 
7777 2004 6050 346 check 
8888 919 8000 346 check 
total pot: 2299 
/inquire 
recv from player 8888: check
send inquire msg to player 7777 
inquire/ 
8888 919 8000 346 check 
3333 5804 4078 346 check 
6666 1654 6082 346 check 
5555 10120 8000 346 check 
1111 404 8000 346 fold 
2222 486 8000 223 fold 
4444 100 8000 0 fold 
7777 2004 6050 346 check 
total pot: 2299 
/inquire 
recv from player 7777: check
send inquire msg to player 4444 
inquire/ 
7777 2004 6050 346 check 
8888 919 8000 346 check 
3333 5804 4078 346 check 
6666 1654 6082 346 check 
5555 10120 8000 346 check 
1111 404 8000 346 fold 
2222 486 8000 223 fold 
4444 100 8000 0 fold 
total pot: 2299 
/inquire 
send inquire msg to player 2222 
inquire/ 
4444 100 8000 0 fold 
7777 2004 6050 346 check 
8888 919 8000 346 check 
3333 5804 4078 346 check 
6666 1654 6082 346 check 
5555 10120 8000 346 check 
1111 404 8000 346 fold 
2222 486 8000 223 fold 
total pot: 2299 
/inquire 
send inquire msg to player 1111 
inquire/ 
2222 486 8000 223 fold 
4444 100 8000 0 fold 
7777 2004 6050 346 check 
8888 919 8000 346 check 
3333 5804 4078 346 check 
6666 1654 6082 346 check 
5555 10120 8000 346 check 
1111 404 8000 346 fold 
total pot: 2299 
/inquire 
send inquire msg to player 5555 
inquire/ 
1111 404 8000 346 fold 
2222 486 8000 223 fold 
4444 100 8000 0 fold 
7777 2004 6050 346 check 
8888 919 8000 346 check 
3333 5804 4078 346 check 
6666 1654 6082 346 check 
5555 10120 8000 346 check 
total pot: 2299 
/inquire 
recv from player 5555: check
send inquire msg to player 6666 
inquire/ 
5555 10120 8000 346 check 
1111 404 8000 346 fold 
2222 486 8000 223 fold 
4444 100 8000 0 fold 
7777 2004 6050 346 check 
8888 919 8000 346 check 
3333 5804 4078 346 check 
6666 1654 6082 346 check 
total pot: 2299 
/inquire 
recv from player 6666: check
river/ 
DIAMONDS 5 
/river 

---river round bet---
valid player: 8, all in player: 0, fold player: 3
send inquire msg to player 3333 
inquire/ 
6666 1654 6082 346 check 
5555 10120 8000 346 check 
1111 404 8000 346 fold 
2222 486 8000 223 fold 
4444 100 8000 0 fold 
7777 2004 6050 346 check 
8888 919 8000 346 check 
3333 5804 4078 346 check 
total pot: 2299 
/inquire 
recv from player 3333: check
send inquire msg to player 8888 
inquire/ 
3333 5804 4078 346 check 
6666 1654 6082 346 check 
5555 10120 8000 346 check 
1111 404 8000 346 fold 
2222 486 8000 223 fold 
4444 100 8000 0 fold 
7777 2004 6050 346 check 
8888 919 8000 346 check 
total pot: 2299 
/inquire 
recv from player 8888: check
send inquire msg to player 7777 
inquire/ 
8888 919 8000 346 check 
3333 5804 4078 346 check 
6666 1654 6082 346 check 
5555 10120 8000 346 check 
1111 404 8000 346 fold 
2222 486 8000 223 fold 
4444 100 8000 0 fold 
7777 2004 6050 346 check 
total pot: 2299 
/inquire 
recv from player 7777: check
send inquire msg to player 4444 
inquire/ 
7777 2004 6050 346 check 
8888 919 8000 346 check 
3333 5804 4078 346 check 
6666 1654 6082 346 check 
5555 10120 8000 346 check 
1111 404 8000 346 fold 
2222 486 8000 223 fold 
4444 100 8000 0 fold 
total pot: 2299 
/inquire 
send inquire msg to player 2222 
inquire/ 
4444 100 8000 0 fold 
7777 2004 6050 346 check 
8888 919 8000 346 check 
3333 5804 4078 346 check 
6666 1654 6082 346 check 
5555 10120 8000 346 check 
1111 404 8000 346 fold 
2222 486 8000 223 fold 
total pot: 2299 
/inquire 
send inquire msg to player 1111 
inquire/ 
2222 486 8000 223 fold 
4444 100 8000 0 fold 
7777 2004 6050 346 check 
8888 919 8000 346 check 
3333 5804 4078 346 check 
6666 1654 6082 346 check 
5555 10120 8000 346 check 
1111 404 8000 346 fold 
total pot: 2299 
/inquire 
send inquire msg to player 5555 
inquire/ 
1111 404 8000 346 fold 
2222 486 8000 223 fold 
4444 100 8000 0 fold 
7777 2004 6050 346 check 
8888 919 8000 346 check 
3333 5804 4078 346 check 
6666 1654 6082 346 check 
5555 10120 8000 346 check 
total pot: 2299 
/inquire 
recv from player 5555: raise 0
send inquire msg to player 6666 
inquire/ 
5555 10020 8000 446 raise 
1111 404 8000 346 fold 
2222 486 8000 223 fold 
4444 100 8000 0 fold 
7777 2004 6050 346 check 
8888 919 8000 346 check 
3333 5804 4078 346 check 
6666 1654 6082 346 check 
total pot: 2399 
/inquire 
recv from player 6666: fold
send inquire msg to player 3333 
inquire/ 
6666 1654 6082 346 fold 
5555 10020 8000 446 raise 
1111 404 8000 346 fold 
2222 486 8000 223 fold 
4444 100 8000 0 fold 
7777 2004 6050 346 check 
8888 919 8000 346 check 
3333 5804 4078 346 check 
total pot: 2399 
/inquire 
recv from player 3333: check
send inquire msg to player 8888 
inquire/ 
3333 5704 4078 446 call 
6666 1654 6082 346 fold 
5555 10020 8000 446 raise 
1111 404 8000 346 fold 
2222 486 8000 223 fold 
4444 100 8000 0 fold 
7777 2004 6050 346 check 
8888 919 8000 346 check 
total pot: 2499 
/inquire 
recv from player 8888: check
send inquire msg to player 7777 
inquire/ 
8888 819 8000 446 call 
3333 5704 4078 446 call 
6666 1654 6082 346 fold 
5555 10020 8000 446 raise 
1111 404 8000 346 fold 
2222 486 8000 223 fold 
4444 100 8000 0 fold 
7777 2004 6050 346 check 
total pot: 2599 
/inquire 
recv from player 7777: check

---show down---
showdown/ 
common/ 
DIAMONDS 8 
CLUBS J 
SPADES 5 
SPADES K 
DIAMONDS 5 
/common 
1: 3333 HEARTS K CLUBS 4 TWO_PAIR 
1: 8888 DIAMONDS K CLUBS 10 TWO_PAIR 
2: 7777 SPADES 8 CLUBS Q TWO_PAIR 
3: 5555 DIAMONDS 6 HEARTS 7 ONE_PAIR 
/showdown 

---Allocate pot---
pot-win/ 
3333: 1349 
8888: 1349 
/pot-win 
it is player 3333's turn to be button

-----26 Hand-----

----- clean player data in socket -----
seat/ 
button: 3333 7053 4078 
small blind: 8888 2168 8000 
big blind: 7777 1904 6050 
4444 100 8000 
2222 486 8000 
1111 404 8000 
5555 10020 8000 
6666 1654 6082 
/seat 
blind/ 
8888: 50 
7777: 100 
/blind 
player 8888:hold/ 
CLUBS Q 
DIAMONDS J 
/hold 
player 7777:hold/ 
DIAMONDS Q 
DIAMONDS 8 
/hold 
player 4444:hold/ 
SPADES 3 
CLUBS 10 
/hold 
player 2222:hold/ 
SPADES 5 
HEARTS 10 
/hold 
player 1111:hold/ 
DIAMONDS 6 
CLUBS K 
/hold 
player 5555:hold/ 
CLUBS 8 
HEARTS K 
/hold 
player 6666:hold/ 
SPADES 10 
SPADES 9 
/hold 
player 3333:hold/ 
HEARTS J 
HEARTS 6 
/hold 

---pre flop round bet---
valid player: 8, all in player: 0, fold player: 0
send inquire msg to player 4444 
inquire/ 
7777 1804 6050 100 blind 
8888 2118 8000 50 blind 
total pot: 150 
/inquire 
recv from player 4444: fold
send inquire msg to player 2222 
inquire/ 
4444 100 8000 0 fold 
7777 1804 6050 100 blind 
8888 2118 8000 50 blind 
total pot: 150 
/inquire 
recv from player 2222: fold
send inquire msg to player 1111 
inquire/ 
2222 486 8000 0 fold 
4444 100 8000 0 fold 
7777 1804 6050 100 blind 
8888 2118 8000 50 blind 
total pot: 150 
/inquire 
recv from player 1111: fold
send inquire msg to player 5555 
inquire/ 
1111 404 8000 0 fold 
2222 486 8000 0 fold 
4444 100 8000 0 fold 
7777 1804 6050 100 blind 
8888 2118 8000 50 blind 
total pot: 150 
/inquire 
recv from player 5555: raise 0
send inquire msg to player 6666 
inquire/ 
5555 9820 8000 200 raise 
1111 404 8000 0 fold 
2222 486 8000 0 fold 
4444 100 8000 0 fold 
7777 1804 6050 100 blind 
8888 2118 8000 50 blind 
total pot: 350 
/inquire 
recv from player 6666: check
send inquire msg to player 3333 
inquire/ 
6666 1454 6082 200 call 
5555 9820 8000 200 raise 
1111 404 8000 0 fold 
2222 486 8000 0 fold 
4444 100 8000 0 fold 
7777 1804 6050 100 blind 
8888 2118 8000 50 blind 
total pot: 550 
/inquire 
recv from player 3333: check
send inquire msg to player 8888 
inquire/ 
3333 6853 4078 200 call 
6666 1454 6082 200 call 
5555 9820 8000 200 raise 
1111 404 8000 0 fold 
2222 486 8000 0 fold 
4444 100 8000 0 fold 
7777 1804 6050 100 blind 
8888 2118 8000 50 blind 
total pot: 750 
/inquire 
recv from player 8888: check
send inquire msg to player 7777 
inquire/ 
8888 1968 8000 200 call 
3333 6853 4078 200 call 
6666 1454 6082 200 call 
5555 9820 8000 200 raise 
1111 404 8000 0 fold 
2222 486 8000 0 fold 
4444 100 8000 0 fold 
7777 1804 6050 100 blind 
total pot: 900 
/inquire 
recv from player 7777: fold
flop/ 
HEARTS 8 
HEARTS 7 
DIAMONDS 10 
/flop 

---flop round bet---
valid player: 8, all in player: 0, fold player: 4
send inquire msg to player 8888 
inquire/ 
3333 6853 4078 200 call 
6666 1454 6082 200 call 
5555 9820 8000 200 raise 
1111 404 8000 0 fold 
2222 486 8000 0 fold 
4444 100 8000 0 fold 
7777 1804 6050 100 fold 
8888 1968 8000 200 call 
total pot: 900 
/inquire 
recv from player 8888: check
send inquire msg to player 7777 
inquire/ 
8888 1968 8000 200 check 
3333 6853 4078 200 call 
6666 1454 6082 200 call 
5555 9820 8000 200 raise 
1111 404 8000 0 fold 
2222 486 8000 0 fold 
4444 100 8000 0 fold 
7777 1804 6050 100 fold 
total pot: 900 
/inquire 
send inquire msg to player 4444 
inquire/ 
7777 1804 6050 100 fold 
8888 1968 8000 200 check 
3333 6853 4078 200 call 
6666 1454 6082 200 call 
5555 9820 8000 200 raise 
1111 404 8000 0 fold 
2222 486 8000 0 fold 
4444 100 8000 0 fold 
total pot: 900 
/inquire 
send inquire msg to player 2222 
inquire/ 
4444 100 8000 0 fold 
7777 1804 6050 100 fold 
8888 1968 8000 200 check 
3333 6853 4078 200 call 
6666 1454 6082 200 call 
5555 9820 8000 200 raise 
1111 404 8000 0 fold 
2222 486 8000 0 fold 
total pot: 900 
/inquire 
send inquire msg to player 1111 
inquire/ 
2222 486 8000 0 fold 
4444 100 8000 0 fold 
7777 1804 6050 100 fold 
8888 1968 8000 200 check 
3333 6853 4078 200 call 
6666 1454 6082 200 call 
5555 9820 8000 200 raise 
1111 404 8000 0 fold 
total pot: 900 
/inquire 
send inquire msg to player 5555 
inquire/ 
1111 404 8000 0 fold 
2222 486 8000 0 fold 
4444 100 8000 0 fold 
7777 1804 6050 100 fold 
8888 1968 8000 200 check 
3333 6853 4078 200 call 
6666 1454 6082 200 call 
5555 9820 8000 200 raise 
total pot: 900 
/inquire 
recv from player 5555: check
send inquire msg to player 6666 
inquire/ 
5555 9820 8000 200 check 
1111 404 8000 0 fold 
2222 486 8000 0 fold 
4444 100 8000 0 fold 
7777 1804 6050 100 fold 
8888 1968 8000 200 check 
3333 6853 4078 200 call 
6666 1454 6082 200 call 
total pot: 900 
/inquire 
recv from player 6666: raise 38
send inquire msg to player 3333 
inquire/ 
6666 1354 6082 300 raise 
5555 9820 8000 200 check 
1111 404 8000 0 fold 
2222 486 8000 0 fold 
4444 100 8000 0 fold 
7777 1804 6050 100 fold 
8888 1968 8000 200 check 
3333 6853 4078 200 call 
total pot: 1000 
/inquire 
recv from player 3333: check
send inquire msg to player 8888 
inquire/ 
3333 6753 4078 300 call 
6666 1354 6082 300 raise 
5555 9820 8000 200 check 
1111 404 8000 0 fold 
2222 486 8000 0 fold 
4444 100 8000 0 fold 
7777 1804 6050 100 fold 
8888 1968 8000 200 check 
total pot: 1100 
/inquire 
recv from player 8888: check
send inquire msg to player 7777 
inquire/ 
8888 1868 8000 300 call 
3333 6753 4078 300 call 
6666 1354 6082 300 raise 
5555 9820 8000 200 check 
1111 404 8000 0 fold 
2222 486 8000 0 fold 
4444 100 8000 0 fold 
7777 1804 6050 100 fold 
total pot: 1200 
/inquire 
send inquire msg to player 4444 
inquire/ 
7777 1804 6050 100 fold 
8888 1868 8000 300 call 
3333 6753 4078 300 call 
6666 1354 6082 300 raise 
5555 9820 8000 200 check 
1111 404 8000 0 fold 
2222 486 8000 0 fold 
4444 100 8000 0 fold 
total pot: 1200 
/inquire 
send inquire msg to player 2222 
inquire/ 
4444 100 8000 0 fold 
7777 1804 6050 100 fold 
8888 1868 8000 300 call 
3333 6753 4078 300 call 
6666 1354 6082 300 raise 
5555 9820 8000 200 check 
1111 404 8000 0 fold 
2222 486 8000 0 fold 
total pot: 1200 
/inquire 
send inquire msg to player 1111 
inquire/ 
2222 486 8000 0 fold 
4444 100 8000 0 fold 
7777 1804 6050 100 fold 
8888 1868 8000 300 call 
3333 6753 4078 300 call 
6666 1354 6082 300 raise 
5555 9820 8000 200 check 
1111 404 8000 0 fold 
total pot: 1200 
/inquire 
send inquire msg to player 5555 
inquire/ 
1111 404 8000 0 fold 
2222 486 8000 0 fold 
4444 100 8000 0 fold 
7777 1804 6050 100 fold 
8888 1868 8000 300 call 
3333 6753 4078 300 call 
6666 1354 6082 300 raise 
5555 9820 8000 200 check 
total pot: 1200 
/inquire 
recv from player 5555: check
turn/ 
DIAMONDS A 
/turn 

---turn round bet---
valid player: 8, all in player: 0, fold player: 4
send inquire msg to player 8888 
inquire/ 
3333 6753 4078 300 call 
6666 1354 6082 300 raise 
5555 9720 8000 300 call 
1111 404 8000 0 fold 
2222 486 8000 0 fold 
4444 100 8000 0 fold 
7777 1804 6050 100 fold 
8888 1868 8000 300 call 
total pot: 1300 
/inquire 
recv from player 8888: check
send inquire msg to player 7777 
inquire/ 
8888 1868 8000 300 check 
3333 6753 4078 300 call 
6666 1354 6082 300 raise 
5555 9720 8000 300 call 
1111 404 8000 0 fold 
2222 486 8000 0 fold 
4444 100 8000 0 fold 
7777 1804 6050 100 fold 
total pot: 1300 
/inquire 
send inquire msg to player 4444 
inquire/ 
7777 1804 6050 100 fold 
8888 1868 8000 300 check 
3333 6753 4078 300 call 
6666 1354 6082 300 raise 
5555 9720 8000 300 call 
1111 404 8000 0 fold 
2222 486 8000 0 fold 
4444 100 8000 0 fold 
total pot: 1300 
/inquire 
send inquire msg to player 2222 
inquire/ 
4444 100 8000 0 fold 
7777 1804 6050 100 fold 
8888 1868 8000 300 check 
3333 6753 4078 300 call 
6666 1354 6082 300 raise 
5555 9720 8000 300 call 
1111 404 8000 0 fold 
2222 486 8000 0 fold 
total pot: 1300 
/inquire 
send inquire msg to player 1111 
inquire/ 
2222 486 8000 0 fold 
4444 100 8000 0 fold 
7777 1804 6050 100 fold 
8888 1868 8000 300 check 
3333 6753 4078 300 call 
6666 1354 6082 300 raise 
5555 9720 8000 300 call 
1111 404 8000 0 fold 
total pot: 1300 
/inquire 
send inquire msg to player 5555 
inquire/ 
1111 404 8000 0 fold 
2222 486 8000 0 fold 
4444 100 8000 0 fold 
7777 1804 6050 100 fold 
8888 1868 8000 300 check 
3333 6753 4078 300 call 
6666 1354 6082 300 raise 
5555 9720 8000 300 call 
total pot: 1300 
/inquire 
recv from player 5555: check
send inquire msg to player 6666 
inquire/ 
5555 9720 8000 300 check 
1111 404 8000 0 fold 
2222 486 8000 0 fold 
4444 100 8000 0 fold 
7777 1804 6050 100 fold 
8888 1868 8000 300 check 
3333 6753 4078 300 call 
6666 1354 6082 300 raise 
total pot: 1300 
/inquire 
recv from player 6666: check
send inquire msg to player 3333 
inquire/ 
6666 1354 6082 300 check 
5555 9720 8000 300 check 
1111 404 8000 0 fold 
2222 486 8000 0 fold 
4444 100 8000 0 fold 
7777 1804 6050 100 fold 
8888 1868 8000 300 check 
3333 6753 4078 300 call 
total pot: 1300 
/inquire 
recv from player 3333: check
river/ 
CLUBS 7 
/river 

---river round bet---
valid player: 8, all in player: 0, fold player: 4
send inquire msg to player 8888 
inquire/ 
3333 6753 4078 300 check 
6666 1354 6082 300 check 
5555 9720 8000 300 check 
1111 404 8000 0 fold 
2222 486 8000 0 fold 
4444 100 8000 0 fold 
7777 1804 6050 100 fold 
8888 1868 8000 300 check 
total pot: 1300 
/inquire 
recv from player 8888: check
send inquire msg to player 7777 
inquire/ 
8888 1868 8000 300 check 
3333 6753 4078 300 check 
6666 1354 6082 300 check 
5555 9720 8000 300 check 
1111 404 8000 0 fold 
2222 486 8000 0 fold 
4444 100 8000 0 fold 
7777 1804 6050 100 fold 
total pot: 1300 
/inquire 
send inquire msg to player 4444 
inquire/ 
7777 1804 6050 100 fold 
8888 1868 8000 300 check 
3333 6753 4078 300 check 
6666 1354 6082 300 check 
5555 9720 8000 300 check 
1111 404 8000 0 fold 
2222 486 8000 0 fold 
4444 100 8000 0 fold 
total pot: 1300 
/inquire 
send inquire msg to player 2222 
inquire/ 
4444 100 8000 0 fold 
7777 1804 6050 100 fold 
8888 1868 8000 300 check 
3333 6753 4078 300 check 
6666 1354 6082 300 check 
5555 9720 8000 300 check 
1111 404 8000 0 fold 
2222 486 8000 0 fold 
total pot: 1300 
/inquire 
send inquire msg to player 1111 
inquire/ 
2222 486 8000 0 fold 
4444 100 8000 0 fold 
7777 1804 6050 100 fold 
8888 1868 8000 300 check 
3333 6753 4078 300 check 
6666 1354 6082 300 check 
5555 9720 8000 300 check 
1111 404 8000 0 fold 
total pot: 1300 
/inquire 
send inquire msg to player 5555 
inquire/ 
1111 404 8000 0 fold 
2222 486 8000 0 fold 
4444 100 8000 0 fold 
7777 1804 6050 100 fold 
8888 1868 8000 300 check 
3333 6753 4078 300 check 
6666 1354 6082 300 check 
5555 9720 8000 300 check 
total pot: 1300 
/inquire 
recv from player 5555: check
send inquire msg to player 6666 
inquire/ 
5555 9720 8000 300 check 
1111 404 8000 0 fold 
2222 486 8000 0 fold 
4444 100 8000 0 fold 
7777 1804 6050 100 fold 
8888 1868 8000 300 check 
3333 6753 4078 300 check 
6666 1354 6082 300 check 
total pot: 1300 
/inquire 
recv from player 6666: check
send inquire msg to player 3333 
inquire/ 
6666 1354 6082 300 check 
5555 9720 8000 300 check 
1111 404 8000 0 fold 
2222 486 8000 0 fold 
4444 100 8000 0 fold 
7777 1804 6050 100 fold 
8888 1868 8000 300 check 
3333 6753 4078 300 check 
total pot: 1300 
/inquire 
recv from player 3333: check

---show down---
showdown/ 
common/ 
HEARTS 8 
HEARTS 7 
DIAMONDS 10 
DIAMONDS A 
CLUBS 7 
/common 
3: 8888 CLUBS Q DIAMONDS J ONE_PAIR 
2: 5555 CLUBS 8 HEARTS K TWO_PAIR 
1: 6666 SPADES 10 SPADES 9 TWO_PAIR 
4: 3333 HEARTS J HEARTS 6 ONE_PAIR 
/showdown 

---Allocate pot---
pot-win/ 
6666: 1300 
/pot-win 
it is player 8888's turn to be button

-----27 Hand-----

----- clean player data in socket -----
seat/ 
button: 8888 1868 8000 
small blind: 7777 1804 6050 
big blind: 4444 100 8000 
2222 486 8000 
1111 404 8000 
5555 9720 8000 
6666 2654 6082 
3333 6753 4078 
/seat 
blind/ 
7777: 50 
4444: 100 
/blind 
player 7777:hold/ 
HEARTS 10 
SPADES 6 
/hold 
player 4444:hold/ 
CLUBS 4 
CLUBS 10 
/hold 
player 2222:hold/ 
CLUBS A 
HEARTS Q 
/hold 
player 1111:hold/ 
CLUBS 2 
SPADES 5 
/hold 
player 5555:hold/ 
DIAMONDS Q 
SPADES A 
/hold 
player 6666:hold/ 
CLUBS 8 
HEARTS 9 
/hold 
player 3333:hold/ 
CLUBS 3 
HEARTS 3 
/hold 
player 8888:hold/ 
DIAMONDS K 
SPADES 4 
/hold 

---pre flop round bet---
valid player: 8, all in player: 0, fold player: 0
send inquire msg to player 2222 
inquire/ 
4444 0 8000 100 blind 
7777 1754 6050 50 blind 
total pot: 150 
/inquire 
recv from player 2222: check
send inquire msg to player 1111 
inquire/ 
2222 386 8000 100 call 
4444 0 8000 100 blind 
7777 1754 6050 50 blind 
total pot: 250 
/inquire 
recv from player 1111: fold
send inquire msg to player 5555 
inquire/ 
1111 404 8000 0 fold 
2222 386 8000 100 call 
4444 0 8000 100 blind 
7777 1754 6050 50 blind 
total pot: 250 
/inquire 
recv from player 5555: check
send inquire msg to player 6666 
inquire/ 
5555 9620 8000 100 call 
1111 404 8000 0 fold 
2222 386 8000 100 call 
4444 0 8000 100 blind 
7777 1754 6050 50 blind 
total pot: 350 
/inquire 
recv from player 6666: raise 152
send inquire msg to player 3333 
inquire/ 
6666 2402 6082 252 raise 
5555 9620 8000 100 call 
1111 404 8000 0 fold 
2222 386 8000 100 call 
4444 0 8000 100 blind 
7777 1754 6050 50 blind 
total pot: 602 
/inquire 
recv from player 3333: check
send inquire msg to player 8888 
inquire/ 
3333 6501 4078 252 call 
6666 2402 6082 252 raise 
5555 9620 8000 100 call 
1111 404 8000 0 fold 
2222 386 8000 100 call 
4444 0 8000 100 blind 
7777 1754 6050 50 blind 
total pot: 854 
/inquire 
recv from player 8888: check
send inquire msg to player 7777 
inquire/ 
8888 1616 8000 252 call 
3333 6501 4078 252 call 
6666 2402 6082 252 raise 
5555 9620 8000 100 call 
1111 404 8000 0 fold 
2222 386 8000 100 call 
4444 0 8000 100 blind 
7777 1754 6050 50 blind 
total pot: 1106 
/inquire 
recv from player 7777: check
send inquire msg to player 4444 
inquire/ 
7777 1552 6050 252 call 
8888 1616 8000 252 call 
3333 6501 4078 252 call 
6666 2402 6082 252 raise 
5555 9620 8000 100 call 
1111 404 8000 0 fold 
2222 386 8000 100 call 
4444 0 8000 100 blind 
total pot: 1308 
/inquire 
recv from player 4444: fold
send inquire msg to player 2222 
inquire/ 
4444 0 8000 100 fold 
7777 1552 6050 252 call 
8888 1616 8000 252 call 
3333 6501 4078 252 call 
6666 2402 6082 252 raise 
5555 9620 8000 100 call 
1111 404 8000 0 fold 
2222 386 8000 100 call 
total pot: 1308 
/inquire 
recv from player 2222: fold
send inquire msg to player 1111 
inquire/ 
2222 386 8000 100 fold 
4444 0 8000 100 fold 
7777 1552 6050 252 call 
8888 1616 8000 252 call 
3333 6501 4078 252 call 
6666 2402 6082 252 raise 
5555 9620 8000 100 call 
1111 404 8000 0 fold 
total pot: 1308 
/inquire 
send inquire msg to player 5555 
inquire/ 
1111 404 8000 0 fold 
2222 386 8000 100 fold 
4444 0 8000 100 fold 
7777 1552 6050 252 call 
8888 1616 8000 252 call 
3333 6501 4078 252 call 
6666 2402 6082 252 raise 
5555 9620 8000 100 call 
total pot: 1308 
/inquire 
recv from player 5555: check
flop/ 
DIAMONDS 10 
SPADES 3 
SPADES 7 
/flop 

---flop round bet---
valid player: 8, all in player: 0, fold player: 3
send inquire msg to player 7777 
inquire/ 
8888 1616 8000 252 call 
3333 6501 4078 252 call 
6666 2402 6082 252 raise 
5555 9468 8000 252 call 
1111 404 8000 0 fold 
2222 386 8000 100 fold 
4444 0 8000 100 fold 
7777 1552 6050 252 call 
total pot: 1460 
/inquire 
recv from player 7777: check
send inquire msg to player 4444 
inquire/ 
7777 1552 6050 252 check 
8888 1616 8000 252 call 
3333 6501 4078 252 call 
6666 2402 6082 252 raise 
5555 9468 8000 252 call 
1111 404 8000 0 fold 
2222 386 8000 100 fold 
4444 0 8000 100 fold 
total pot: 1460 
/inquire 
send inquire msg to player 2222 
inquire/ 
4444 0 8000 100 fold 
7777 1552 6050 252 check 
8888 1616 8000 252 call 
3333 6501 4078 252 call 
6666 2402 6082 252 raise 
5555 9468 8000 252 call 
1111 404 8000 0 fold 
2222 386 8000 100 fold 
total pot: 1460 
/inquire 
send inquire msg to player 1111 
inquire/ 
2222 386 8000 100 fold 
4444 0 8000 100 fold 
7777 1552 6050 252 check 
8888 1616 8000 252 call 
3333 6501 4078 252 call 
6666 2402 6082 252 raise 
5555 9468 8000 252 call 
1111 404 8000 0 fold 
total pot: 1460 
/inquire 
send inquire msg to player 5555 
inquire/ 
1111 404 8000 0 fold 
2222 386 8000 100 fold 
4444 0 8000 100 fold 
7777 1552 6050 252 check 
8888 1616 8000 252 call 
3333 6501 4078 252 call 
6666 2402 6082 252 raise 
5555 9468 8000 252 call 
total pot: 1460 
/inquire 
recv from player 5555: raise 0
send inquire msg to player 6666 
inquire/ 
5555 9368 8000 352 raise 
1111 404 8000 0 fold 
2222 386 8000 100 fold 
4444 0 8000 100 fold 
7777 1552 6050 252 check 
8888 1616 8000 252 call 
3333 6501 4078 252 call 
6666 2402 6082 252 raise 
total pot: 1560 
/inquire 
recv from player 6666: check
send inquire msg to player 3333 
inquire/ 
6666 2302 6082 352 call 
5555 9368 8000 352 raise 
1111 404 8000 0 fold 
2222 386 8000 100 fold 
4444 0 8000 100 fold 
7777 1552 6050 252 check 
8888 1616 8000 252 call 
3333 6501 4078 252 call 
total pot: 1660 
/inquire 
recv from player 3333: check
send inquire msg to player 8888 
inquire/ 
3333 6401 4078 352 call 
6666 2302 6082 352 call 
5555 9368 8000 352 raise 
1111 404 8000 0 fold 
2222 386 8000 100 fold 
4444 0 8000 100 fold 
7777 1552 6050 252 check 
8888 1616 8000 252 call 
total pot: 1760 
/inquire 
recv from player 8888: check
send inquire msg to player 7777 
inquire/ 
8888 1516 8000 352 call 
3333 6401 4078 352 call 
6666 2302 6082 352 call 
5555 9368 8000 352 raise 
1111 404 8000 0 fold 
2222 386 8000 100 fold 
4444 0 8000 100 fold 
7777 1552 6050 252 check 
total pot: 1860 
/inquire 
recv from player 7777: check
turn/ 
DIAMONDS 7 
/turn 

---turn round bet---
valid player: 8, all in player: 0, fold player: 3
send inquire msg to player 7777 
inquire/ 
8888 1516 8000 352 call 
3333 6401 4078 352 call 
6666 2302 6082 352 call 
5555 9368 8000 352 raise 
1111 404 8000 0 fold 
2222 386 8000 100 fold 
4444 0 8000 100 fold 
7777 1452 6050 352 call 
total pot: 1960 
/inquire 
recv from player 7777: check
send inquire msg to player 4444 
inquire/ 
7777 1452 6050 352 check 
8888 1516 8000 352 call 
3333 6401 4078 352 call 
6666 2302 6082 352 call 
5555 9368 8000 352 raise 
1111 404 8000 0 fold 
2222 386 8000 100 fold 
4444 0 8000 100 fold 
total pot: 1960 
/inquire 
send inquire msg to player 2222 
inquire/ 
4444 0 8000 100 fold 
7777 1452 6050 352 check 
8888 1516 8000 352 call 
3333 6401 4078 352 call 
6666 2302 6082 352 call 
5555 9368 8000 352 raise 
1111 404 8000 0 fold 
2222 386 8000 100 fold 
total pot: 1960 
/inquire 
send inquire msg to player 1111 
inquire/ 
2222 386 8000 100 fold 
4444 0 8000 100 fold 
7777 1452 6050 352 check 
8888 1516 8000 352 call 
3333 6401 4078 352 call 
6666 2302 6082 352 call 
5555 9368 8000 352 raise 
1111 404 8000 0 fold 
total pot: 1960 
/inquire 
send inquire msg to player 5555 
inquire/ 
1111 404 8000 0 fold 
2222 386 8000 100 fold 
4444 0 8000 100 fold 
7777 1452 6050 352 check 
8888 1516 8000 352 call 
3333 6401 4078 352 call 
6666 2302 6082 352 call 
5555 9368 8000 352 raise 
total pot: 1960 
/inquire 
recv from player 5555: raise 0
send inquire msg to player 6666 
inquire/ 
5555 9268 8000 452 raise 
1111 404 8000 0 fold 
2222 386 8000 100 fold 
4444 0 8000 100 fold 
7777 1452 6050 352 check 
8888 1516 8000 352 call 
3333 6401 4078 352 call 
6666 2302 6082 352 call 
total pot: 2060 
/inquire 
recv from player 6666: check
send inquire msg to player 3333 
inquire/ 
6666 2202 6082 452 call 
5555 9268 8000 452 raise 
1111 404 8000 0 fold 
2222 386 8000 100 fold 
4444 0 8000 100 fold 
7777 1452 6050 352 check 
8888 1516 8000 352 call 
3333 6401 4078 352 call 
total pot: 2160 
/inquire 
recv from player 3333: check
send inquire msg to player 8888 
inquire/ 
3333 6301 4078 452 call 
6666 2202 6082 452 call 
5555 9268 8000 452 raise 
1111 404 8000 0 fold 
2222 386 8000 100 fold 
4444 0 8000 100 fold 
7777 1452 6050 352 check 
8888 1516 8000 352 call 
total pot: 2260 
/inquire 
recv from player 8888: check
send inquire msg to player 7777 
inquire/ 
8888 1416 8000 452 call 
3333 6301 4078 452 call 
6666 2202 6082 452 call 
5555 9268 8000 452 raise 
1111 404 8000 0 fold 
2222 386 8000 100 fold 
4444 0 8000 100 fold 
7777 1452 6050 352 check 
total pot: 2360 
/inquire 
recv from player 7777: check
river/ 
SPADES J 
/river 

---river round bet---
valid player: 8, all in player: 0, fold player: 3
send inquire msg to player 7777 
inquire/ 
8888 1416 8000 452 call 
3333 6301 4078 452 call 
6666 2202 6082 452 call 
5555 9268 8000 452 raise 
1111 404 8000 0 fold 
2222 386 8000 100 fold 
4444 0 8000 100 fold 
7777 1352 6050 452 call 
total pot: 2460 
/inquire 
recv from player 7777: check
send inquire msg to player 4444 
inquire/ 
7777 1352 6050 452 check 
8888 1416 8000 452 call 
3333 6301 4078 452 call 
6666 2202 6082 452 call 
5555 9268 8000 452 raise 
1111 404 8000 0 fold 
2222 386 8000 100 fold 
4444 0 8000 100 fold 
total pot: 2460 
/inquire 
send inquire msg to player 2222 
inquire/ 
4444 0 8000 100 fold 
7777 1352 6050 452 check 
8888 1416 8000 452 call 
3333 6301 4078 452 call 
6666 2202 6082 452 call 
5555 9268 8000 452 raise 
1111 404 8000 0 fold 
2222 386 8000 100 fold 
total pot: 2460 
/inquire 
send inquire msg to player 1111 
inquire/ 
2222 386 8000 100 fold 
4444 0 8000 100 fold 
7777 1352 6050 452 check 
8888 1416 8000 452 call 
3333 6301 4078 452 call 
6666 2202 6082 452 call 
5555 9268 8000 452 raise 
1111 404 8000 0 fold 
total pot: 2460 
/inquire 
send inquire msg to player 5555 
inquire/ 
1111 404 8000 0 fold 
2222 386 8000 100 fold 
4444 0 8000 100 fold 
7777 1352 6050 452 check 
8888 1416 8000 452 call 
3333 6301 4078 452 call 
6666 2202 6082 452 call 
5555 9268 8000 452 raise 
total pot: 2460 
/inquire 
recv from player 5555: check
send inquire msg to player 6666 
inquire/ 
5555 9268 8000 452 check 
1111 404 8000 0 fold 
2222 386 8000 100 fold 
4444 0 8000 100 fold 
7777 1352 6050 452 check 
8888 1416 8000 452 call 
3333 6301 4078 452 call 
6666 2202 6082 452 call 
total pot: 2460 
/inquire 
recv from player 6666: check
send inquire msg to player 3333 
inquire/ 
6666 2202 6082 452 check 
5555 9268 8000 452 check 
1111 404 8000 0 fold 
2222 386 8000 100 fold 
4444 0 8000 100 fold 
7777 1352 6050 452 check 
8888 1416 8000 452 call 
3333 6301 4078 452 call 
total pot: 2460 
/inquire 
recv from player 3333: check
send inquire msg to player 8888 
inquire/ 
3333 6301 4078 452 check 
6666 2202 6082 452 check 
5555 9268 8000 452 check 
1111 404 8000 0 fold 
2222 386 8000 100 fold 
4444 0 8000 100 fold 
7777 1352 6050 452 check 
8888 1416 8000 452 call 
total pot: 2460 
/inquire 
recv from player 8888: check

---show down---
showdown/ 
common/ 
DIAMONDS 10 
SPADES 3 
SPADES 7 
DIAMONDS 7 
SPADES J 
/common 
3: 7777 HEARTS 10 SPADES 6 TWO_PAIR 
4: 5555 DIAMONDS Q SPADES A ONE_PAIR 
2: 6666 CLUBS 8 HEARTS 9 STRAIGHT 
1: 3333 CLUBS 3 HEARTS 3 FULL_HOUSE 
5: 8888 DIAMONDS K SPADES 4 ONE_PAIR 
/showdown 

---Allocate pot---
pot-win/ 
3333: 2460 
/pot-win 
it is player 7777's turn to be button

-----28 Hand-----

----- clean player data in socket -----
seat/ 
button: 7777 1352 6050 
small blind: 4444 2000 6000 
big blind: 2222 386 8000 
1111 404 8000 
5555 9268 8000 
6666 2202 6082 
3333 8761 4078 
8888 1416 8000 
/seat 
blind/ 
4444: 50 
2222: 100 
/blind 
player 4444:hold/ 
DIAMONDS Q 
SPADES Q 
/hold 
player 2222:hold/ 
DIAMONDS K 
SPADES 3 
/hold 
player 1111:hold/ 
SPADES 8 
CLUBS 10 
/hold 
player 5555:hold/ 
CLUBS A 
CLUBS 8 
/hold 
player 6666:hold/ 
DIAMONDS 7 
DIAMONDS 5 
/hold 
player 3333:hold/ 
DIAMONDS 10 
HEARTS 8 
/hold 
player 8888:hold/ 
CLUBS K 
SPADES 10 
/hold 
player 7777:hold/ 
HEARTS J 
HEARTS 5 
/hold 

---pre flop round bet---
valid player: 8, all in player: 0, fold player: 0
send inquire msg to player 1111 
inquire/ 
2222 286 8000 100 blind 
4444 1950 6000 50 blind 
total pot: 150 
/inquire 
recv from player 1111: fold
send inquire msg to player 5555 
inquire/ 
1111 404 8000 0 fold 
2222 286 8000 100 blind 
4444 1950 6000 50 blind 
total pot: 150 
/inquire 
recv from player 5555: check
send inquire msg to player 6666 
inquire/ 
5555 9168 8000 100 call 
1111 404 8000 0 fold 
2222 286 8000 100 blind 
4444 1950 6000 50 blind 
total pot: 250 
/inquire 
recv from player 6666: raise 146
send inquire msg to player 3333 
inquire/ 
6666 1956 6082 246 raise 
5555 9168 8000 100 call 
1111 404 8000 0 fold 
2222 286 8000 100 blind 
4444 1950 6000 50 blind 
total pot: 496 
/inquire 
recv from player 3333: check
send inquire msg to player 8888 
inquire/ 
3333 8515 4078 246 call 
6666 1956 6082 246 raise 
5555 9168 8000 100 call 
1111 404 8000 0 fold 
2222 286 8000 100 blind 
4444 1950 6000 50 blind 
total pot: 742 
/inquire 
recv from player 8888: check
send inquire msg to player 7777 
inquire/ 
8888 1170 8000 246 call 
3333 8515 4078 246 call 
6666 1956 6082 246 raise 
5555 9168 8000 100 call 
1111 404 8000 0 fold 
2222 286 8000 100 blind 
4444 1950 6000 50 blind 
total pot: 988 
/inquire 
recv from player 7777: check
send inquire msg to player 4444 
inquire/ 
7777 1106 6050 246 call 
8888 1170 8000 246 call 
3333 8515 4078 246 call 
6666 1956 6082 246 raise 
5555 9168 8000 100 call 
1111 404 8000 0 fold 
2222 286 8000 100 blind 
4444 1950 6000 50 blind 
total pot: 1234 
/inquire 
recv from player 4444: raise 337
send inquire msg to player 2222 
inquire/ 
4444 1417 6000 583 raise 
7777 1106 6050 246 call 
8888 1170 8000 246 call 
3333 8515 4078 246 call 
6666 1956 6082 246 raise 
5555 9168 8000 100 call 
1111 404 8000 0 fold 
2222 286 8000 100 blind 
total pot: 1767 
/inquire 
recv from player 2222: fold
send inquire msg to player 1111 
inquire/ 
2222 286 8000 100 fold 
4444 1417 6000 583 raise 
7777 1106 6050 246 call 
8888 1170 8000 246 call 
3333 8515 4078 246 call 
6666 1956 6082 246 raise 
5555 9168 8000 100 call 
1111 404 8000 0 fold 
total pot: 1767 
/inquire 
send inquire msg to player 5555 
inquire/ 
1111 404 8000 0 fold 
2222 286 8000 100 fold 
4444 1417 6000 583 raise 
7777 1106 6050 246 call 
8888 1170 8000 246 call 
3333 8515 4078 246 call 
6666 1956 6082 246 raise 
5555 9168 8000 100 call 
total pot: 1767 
/inquire 
recv from player 5555: check
send inquire msg to player 6666 
inquire/ 
5555 8685 8000 583 call 
1111 404 8000 0 fold 
2222 286 8000 100 fold 
4444 1417 6000 583 raise 
7777 1106 6050 246 call 
8888 1170 8000 246 call 
3333 8515 4078 246 call 
6666 1956 6082 246 raise 
total pot: 2250 
/inquire 
recv from player 6666: check
send inquire msg to player 3333 
inquire/ 
6666 1619 6082 583 call 
5555 8685 8000 583 call 
1111 404 8000 0 fold 
2222 286 8000 100 fold 
4444 1417 6000 583 raise 
7777 1106 6050 246 call 
8888 1170 8000 246 call 
3333 8515 4078 246 call 
total pot: 2587 
/inquire 
recv from player 3333: check
send inquire msg to player 8888 
inquire/ 
3333 8178 4078 583 call 
6666 1619 6082 583 call 
5555 8685 8000 583 call 
1111 404 8000 0 fold 
2222 286 8000 100 fold 
4444 1417 6000 583 raise 
7777 1106 6050 246 call 
8888 1170 8000 246 call 
total pot: 2924 
/inquire 
recv from player 8888: check
send inquire msg to player 7777 
inquire/ 
8888 833 8000 583 call 
3333 8178 4078 583 call 
6666 1619 6082 583 call 
5555 8685 8000 583 call 
1111 404 8000 0 fold 
2222 286 8000 100 fold 
4444 1417 6000 583 raise 
7777 1106 6050 246 call 
total pot: 3261 
/inquire 
recv from player 7777: fold
flop/ 
SPADES 2 
SPADES 7 
DIAMONDS 4 
/flop 

---flop round bet---
valid player: 8, all in player: 0, fold player: 3
send inquire msg to player 4444 
inquire/ 
7777 1106 6050 246 fold 
8888 833 8000 583 call 
3333 8178 4078 583 call 
6666 1619 6082 583 call 
5555 8685 8000 583 call 
1111 404 8000 0 fold 
2222 286 8000 100 fold 
4444 1417 6000 583 raise 
total pot: 3261 
/inquire 
recv from player 4444: check
send inquire msg to player 2222 
inquire/ 
4444 1417 6000 583 check 
7777 1106 6050 246 fold 
8888 833 8000 583 call 
3333 8178 4078 583 call 
6666 1619 6082 583 call 
5555 8685 8000 583 call 
1111 404 8000 0 fold 
2222 286 8000 100 fold 
total pot: 3261 
/inquire 
send inquire msg to player 1111 
inquire/ 
2222 286 8000 100 fold 
4444 1417 6000 583 check 
7777 1106 6050 246 fold 
8888 833 8000 583 call 
3333 8178 4078 583 call 
6666 1619 6082 583 call 
5555 8685 8000 583 call 
1111 404 8000 0 fold 
total pot: 3261 
/inquire 
send inquire msg to player 5555 
inquire/ 
1111 404 8000 0 fold 
2222 286 8000 100 fold 
4444 1417 6000 583 check 
7777 1106 6050 246 fold 
8888 833 8000 583 call 
3333 8178 4078 583 call 
6666 1619 6082 583 call 
5555 8685 8000 583 call 
total pot: 3261 
/inquire 
recv from player 5555: check
send inquire msg to player 6666 
inquire/ 
5555 8685 8000 583 check 
1111 404 8000 0 fold 
2222 286 8000 100 fold 
4444 1417 6000 583 check 
7777 1106 6050 246 fold 
8888 833 8000 583 call 
3333 8178 4078 583 call 
6666 1619 6082 583 call 
total pot: 3261 
/inquire 
recv from player 6666: check
send inquire msg to player 3333 
inquire/ 
6666 1619 6082 583 check 
5555 8685 8000 583 check 
1111 404 8000 0 fold 
2222 286 8000 100 fold 
4444 1417 6000 583 check 
7777 1106 6050 246 fold 
8888 833 8000 583 call 
3333 8178 4078 583 call 
total pot: 3261 
/inquire 
recv from player 3333: check
send inquire msg to player 8888 
inquire/ 
3333 8178 4078 583 check 
6666 1619 6082 583 check 
5555 8685 8000 583 check 
1111 404 8000 0 fold 
2222 286 8000 100 fold 
4444 1417 6000 583 check 
7777 1106 6050 246 fold 
8888 833 8000 583 call 
total pot: 3261 
/inquire 
recv from player 8888: check
turn/ 
CLUBS 9 
/turn 

---turn round bet---
valid player: 8, all in player: 0, fold player: 3
send inquire msg to player 4444 
inquire/ 
7777 1106 6050 246 fold 
8888 833 8000 583 check 
3333 8178 4078 583 check 
6666 1619 6082 583 check 
5555 8685 8000 583 check 
1111 404 8000 0 fold 
2222 286 8000 100 fold 
4444 1417 6000 583 check 
total pot: 3261 
/inquire 
recv from player 4444: check
send inquire msg to player 2222 
inquire/ 
4444 1417 6000 583 check 
7777 1106 6050 246 fold 
8888 833 8000 583 check 
3333 8178 4078 583 check 
6666 1619 6082 583 check 
5555 8685 8000 583 check 
1111 404 8000 0 fold 
2222 286 8000 100 fold 
total pot: 3261 
/inquire 
send inquire msg to player 1111 
inquire/ 
2222 286 8000 100 fold 
4444 1417 6000 583 check 
7777 1106 6050 246 fold 
8888 833 8000 583 check 
3333 8178 4078 583 check 
6666 1619 6082 583 check 
5555 8685 8000 583 check 
1111 404 8000 0 fold 
total pot: 3261 
/inquire 
send inquire msg to player 5555 
inquire/ 
1111 404 8000 0 fold 
2222 286 8000 100 fold 
4444 1417 6000 583 check 
7777 1106 6050 246 fold 
8888 833 8000 583 check 
3333 8178 4078 583 check 
6666 1619 6082 583 check 
5555 8685 8000 583 check 
total pot: 3261 
/inquire 
recv from player 5555: raise 0
send inquire msg to player 6666 
inquire/ 
5555 8585 8000 683 raise 
1111 404 8000 0 fold 
2222 286 8000 100 fold 
4444 1417 6000 583 check 
7777 1106 6050 246 fold 
8888 833 8000 583 check 
3333 8178 4078 583 check 
6666 1619 6082 583 check 
total pot: 3361 
/inquire 
recv from player 6666: check
send inquire msg to player 3333 
inquire/ 
6666 1519 6082 683 call 
5555 8585 8000 683 raise 
1111 404 8000 0 fold 
2222 286 8000 100 fold 
4444 1417 6000 583 check 
7777 1106 6050 246 fold 
8888 833 8000 583 check 
3333 8178 4078 583 check 
total pot: 3461 
/inquire 
recv from player 3333: check
send inquire msg to player 8888 
inquire/ 
3333 8078 4078 683 call 
6666 1519 6082 683 call 
5555 8585 8000 683 raise 
1111 404 8000 0 fold 
2222 286 8000 100 fold 
4444 1417 6000 583 check 
7777 1106 6050 246 fold 
8888 833 8000 583 check 
total pot: 3561 
/inquire 
recv from player 8888: check
send inquire msg to player 7777 
inquire/ 
8888 733 8000 683 call 
3333 8078 4078 683 call 
6666 1519 6082 683 call 
5555 8585 8000 683 raise 
1111 404 8000 0 fold 
2222 286 8000 100 fold 
4444 1417 6000 583 check 
7777 1106 6050 246 fold 
total pot: 3661 
/inquire 
send inquire msg to player 4444 
inquire/ 
7777 1106 6050 246 fold 
8888 733 8000 683 call 
3333 8078 4078 683 call 
6666 1519 6082 683 call 
5555 8585 8000 683 raise 
1111 404 8000 0 fold 
2222 286 8000 100 fold 
4444 1417 6000 583 check 
total pot: 3661 
/inquire 
recv from player 4444: check
river/ 
CLUBS 6 
/river 

---river round bet---
valid player: 8, all in player: 0, fold player: 3
send inquire msg to player 4444 
inquire/ 
7777 1106 6050 246 fold 
8888 733 8000 683 call 
3333 8078 4078 683 call 
6666 1519 6082 683 call 
5555 8585 8000 683 raise 
1111 404 8000 0 fold 
2222 286 8000 100 fold 
4444 1317 6000 683 call 
total pot: 3761 
/inquire 
recv from player 4444: check
send inquire msg to player 2222 
inquire/ 
4444 1317 6000 683 check 
7777 1106 6050 246 fold 
8888 733 8000 683 call 
3333 8078 4078 683 call 
6666 1519 6082 683 call 
5555 8585 8000 683 raise 
1111 404 8000 0 fold 
2222 286 8000 100 fold 
total pot: 3761 
/inquire 
send inquire msg to player 1111 
inquire/ 
2222 286 8000 100 fold 
4444 1317 6000 683 check 
7777 1106 6050 246 fold 
8888 733 8000 683 call 
3333 8078 4078 683 call 
6666 1519 6082 683 call 
5555 8585 8000 683 raise 
1111 404 8000 0 fold 
total pot: 3761 
/inquire 
send inquire msg to player 5555 
inquire/ 
1111 404 8000 0 fold 
2222 286 8000 100 fold 
4444 1317 6000 683 check 
7777 1106 6050 246 fold 
8888 733 8000 683 call 
3333 8078 4078 683 call 
6666 1519 6082 683 call 
5555 8585 8000 683 raise 
total pot: 3761 
/inquire 
recv from player 5555: raise 0
send inquire msg to player 6666 
inquire/ 
5555 8485 8000 783 raise 
1111 404 8000 0 fold 
2222 286 8000 100 fold 
4444 1317 6000 683 check 
7777 1106 6050 246 fold 
8888 733 8000 683 call 
3333 8078 4078 683 call 
6666 1519 6082 683 call 
total pot: 3861 
/inquire 
recv from player 6666: check
send inquire msg to player 3333 
inquire/ 
6666 1419 6082 783 call 
5555 8485 8000 783 raise 
1111 404 8000 0 fold 
2222 286 8000 100 fold 
4444 1317 6000 683 check 
7777 1106 6050 246 fold 
8888 733 8000 683 call 
3333 8078 4078 683 call 
total pot: 3961 
/inquire 
recv from player 3333: check
send inquire msg to player 8888 
inquire/ 
3333 7978 4078 783 call 
6666 1419 6082 783 call 
5555 8485 8000 783 raise 
1111 404 8000 0 fold 
2222 286 8000 100 fold 
4444 1317 6000 683 check 
7777 1106 6050 246 fold 
8888 733 8000 683 call 
total pot: 4061 
/inquire 
recv from player 8888: check
send inquire msg to player 7777 
inquire/ 
8888 633 8000 783 call 
3333 7978 4078 783 call 
6666 1419 6082 783 call 
5555 8485 8000 783 raise 
1111 404 8000 0 fold 
2222 286 8000 100 fold 
4444 1317 6000 683 check 
7777 1106 6050 246 fold 
total pot: 4161 
/inquire 
send inquire msg to player 4444 
inquire/ 
7777 1106 6050 246 fold 
8888 633 8000 783 call 
3333 7978 4078 783 call 
6666 1419 6082 783 call 
5555 8485 8000 783 raise 
1111 404 8000 0 fold 
2222 286 8000 100 fold 
4444 1317 6000 683 check 
total pot: 4161 
/inquire 
recv from player 4444: check

---show down---
showdown/ 
common/ 
SPADES 2 
SPADES 7 
DIAMONDS 4 
CLUBS 9 
CLUBS 6 
/common 
2: 4444 DIAMONDS Q SPADES Q ONE_PAIR 
4: 5555 CLUBS A CLUBS 8 HIGH_CARD 
3: 6666 DIAMONDS 7 DIAMONDS 5 ONE_PAIR 
1: 3333 DIAMONDS 10 HEARTS 8 STRAIGHT 
5: 8888 CLUBS K SPADES 10 HIGH_CARD 
/showdown 

---Allocate pot---
pot-win/ 
3333: 4261 
/pot-win 
it is player 4444's turn to be button

-----29 Hand-----

----- clean player data in socket -----
seat/ 
button: 4444 1217 6000 
small blind: 2222 286 8000 
big blind: 1111 404 8000 
5555 8485 8000 
6666 1419 6082 
3333 12239 4078 
8888 633 8000 
7777 1106 6050 
/seat 
blind/ 
2222: 50 
1111: 100 
/blind 
player 2222:hold/ 
CLUBS 4 
SPADES 2 
/hold 
player 1111:hold/ 
DIAMONDS J 
CLUBS 10 
/hold 
player 5555:hold/ 
DIAMONDS K 
CLUBS 8 
/hold 
player 6666:hold/ 
DIAMONDS 5 
CLUBS 9 
/hold 
player 3333:hold/ 
CLUBS 6 
HEARTS 2 
/hold 
player 8888:hold/ 
CLUBS 7 
SPADES 9 
/hold 
player 7777:hold/ 
HEARTS 5 
DIAMONDS 3 
/hold 
player 4444:hold/ 
SPADES 10 
CLUBS J 
/hold 

---pre flop round bet---
valid player: 8, all in player: 0, fold player: 0
send inquire msg to player 5555 
inquire/ 
1111 304 8000 100 blind 
2222 236 8000 50 blind 
total pot: 150 
/inquire 
recv from player 5555: check
send inquire msg to player 6666 
inquire/ 
5555 8385 8000 100 call 
1111 304 8000 100 blind 
2222 236 8000 50 blind 
total pot: 250 
/inquire 
recv from player 6666: check
send inquire msg to player 3333 
inquire/ 
6666 1319 6082 100 call 
5555 8385 8000 100 call 
1111 304 8000 100 blind 
2222 236 8000 50 blind 
total pot: 350 
/inquire 
recv from player 3333: check
send inquire msg to player 8888 
inquire/ 
3333 12139 4078 100 call 
6666 1319 6082 100 call 
5555 8385 8000 100 call 
1111 304 8000 100 blind 
2222 236 8000 50 blind 
total pot: 450 
/inquire 
recv from player 8888: check
send inquire msg to player 7777 
inquire/ 
8888 533 8000 100 call 
3333 12139 4078 100 call 
6666 1319 6082 100 call 
5555 8385 8000 100 call 
1111 304 8000 100 blind 
2222 236 8000 50 blind 
total pot: 550 
/inquire 
recv from player 7777: check
send inquire msg to player 4444 
inquire/ 
7777 1006 6050 100 call 
8888 533 8000 100 call 
3333 12139 4078 100 call 
6666 1319 6082 100 call 
5555 8385 8000 100 call 
1111 304 8000 100 blind 
2222 236 8000 50 blind 
total pot: 650 
/inquire 
recv from player 4444: raise 109
send inquire msg to player 2222 
inquire/ 
4444 1008 6000 209 raise 
7777 1006 6050 100 call 
8888 533 8000 100 call 
3333 12139 4078 100 call 
6666 1319 6082 100 call 
5555 8385 8000 100 call 
1111 304 8000 100 blind 
2222 236 8000 50 blind 
total pot: 859 
/inquire 
recv from player 2222: check
send inquire msg to player 1111 
inquire/ 
2222 77 8000 209 call 
4444 1008 6000 209 raise 
7777 1006 6050 100 call 
8888 533 8000 100 call 
3333 12139 4078 100 call 
6666 1319 6082 100 call 
5555 8385 8000 100 call 
1111 304 8000 100 blind 
total pot: 1018 
/inquire 
recv from player 1111: check
send inquire msg to player 5555 
inquire/ 
1111 195 8000 209 call 
2222 77 8000 209 call 
4444 1008 6000 209 raise 
7777 1006 6050 100 call 
8888 533 8000 100 call 
3333 12139 4078 100 call 
6666 1319 6082 100 call 
5555 8385 8000 100 call 
total pot: 1127 
/inquire 
recv from player 5555: raise 0
send inquire msg to player 6666 
inquire/ 
5555 8167 8000 318 raise 
1111 195 8000 209 call 
2222 77 8000 209 call 
4444 1008 6000 209 raise 
7777 1006 6050 100 call 
8888 533 8000 100 call 
3333 12139 4078 100 call 
6666 1319 6082 100 call 
total pot: 1345 
/inquire 
recv from player 6666: check
send inquire msg to player 3333 
inquire/ 
6666 1101 6082 318 call 
5555 8167 8000 318 raise 
1111 195 8000 209 call 
2222 77 8000 209 call 
4444 1008 6000 209 raise 
7777 1006 6050 100 call 
8888 533 8000 100 call 
3333 12139 4078 100 call 
total pot: 1563 
/inquire 
recv from player 3333: check
send inquire msg to player 8888 
inquire/ 
3333 11921 4078 318 call 
6666 1101 6082 318 call 
5555 8167 8000 318 raise 
1111 195 8000 209 call 
2222 77 8000 209 call 
4444 1008 6000 209 raise 
7777 1006 6050 100 call 
8888 533 8000 100 call 
total pot: 1781 
/inquire 
recv from player 8888: check
send inquire msg to player 7777 
inquire/ 
8888 315 8000 318 call 
3333 11921 4078 318 call 
6666 1101 6082 318 call 
5555 8167 8000 318 raise 
1111 195 8000 209 call 
2222 77 8000 209 call 
4444 1008 6000 209 raise 
7777 1006 6050 100 call 
total pot: 1999 
/inquire 
recv from player 7777: fold
send inquire msg to player 4444 
inquire/ 
7777 1006 6050 100 fold 
8888 315 8000 318 call 
3333 11921 4078 318 call 
6666 1101 6082 318 call 
5555 8167 8000 318 raise 
1111 195 8000 209 call 
2222 77 8000 209 call 
4444 1008 6000 209 raise 
total pot: 1999 
/inquire 
recv from player 4444: check
send inquire msg to player 2222 
inquire/ 
4444 899 6000 318 call 
7777 1006 6050 100 fold 
8888 315 8000 318 call 
3333 11921 4078 318 call 
6666 1101 6082 318 call 
5555 8167 8000 318 raise 
1111 195 8000 209 call 
2222 77 8000 209 call 
total pot: 2108 
/inquire 
recv from player 2222: fold
send inquire msg to player 1111 
inquire/ 
2222 77 8000 209 fold 
4444 899 6000 318 call 
7777 1006 6050 100 fold 
8888 315 8000 318 call 
3333 11921 4078 318 call 
6666 1101 6082 318 call 
5555 8167 8000 318 raise 
1111 195 8000 209 call 
total pot: 2108 
/inquire 
recv from player 1111: fold
flop/ 
DIAMONDS 4 
SPADES 8 
CLUBS A 
/flop 

---flop round bet---
valid player: 8, all in player: 0, fold player: 3
send inquire msg to player 2222 
inquire/ 
4444 899 6000 318 call 
7777 1006 6050 100 fold 
8888 315 8000 318 call 
3333 11921 4078 318 call 
6666 1101 6082 318 call 
5555 8167 8000 318 raise 
1111 195 8000 209 fold 
2222 77 8000 209 fold 
total pot: 2108 
/inquire 
send inquire msg to player 1111 
inquire/ 
2222 77 8000 209 fold 
4444 899 6000 318 call 
7777 1006 6050 100 fold 
8888 315 8000 318 call 
3333 11921 4078 318 call 
6666 1101 6082 318 call 
5555 8167 8000 318 raise 
1111 195 8000 209 fold 
total pot: 2108 
/inquire 
send inquire msg to player 5555 
inquire/ 
1111 195 8000 209 fold 
2222 77 8000 209 fold 
4444 899 6000 318 call 
7777 1006 6050 100 fold 
8888 315 8000 318 call 
3333 11921 4078 318 call 
6666 1101 6082 318 call 
5555 8167 8000 318 raise 
total pot: 2108 
/inquire 
recv from player 5555: raise 0
send inquire msg to player 6666 
inquire/ 
5555 8067 8000 418 raise 
1111 195 8000 209 fold 
2222 77 8000 209 fold 
4444 899 6000 318 call 
7777 1006 6050 100 fold 
8888 315 8000 318 call 
3333 11921 4078 318 call 
6666 1101 6082 318 call 
total pot: 2208 
/inquire 
recv from player 6666: check
send inquire msg to player 3333 
inquire/ 
6666 1001 6082 418 call 
5555 8067 8000 418 raise 
1111 195 8000 209 fold 
2222 77 8000 209 fold 
4444 899 6000 318 call 
7777 1006 6050 100 fold 
8888 315 8000 318 call 
3333 11921 4078 318 call 
total pot: 2308 
/inquire 
recv from player 3333: check
send inquire msg to player 8888 
inquire/ 
3333 11821 4078 418 call 
6666 1001 6082 418 call 
5555 8067 8000 418 raise 
1111 195 8000 209 fold 
2222 77 8000 209 fold 
4444 899 6000 318 call 
7777 1006 6050 100 fold 
8888 315 8000 318 call 
total pot: 2408 
/inquire 
recv from player 8888: check
send inquire msg to player 7777 
inquire/ 
8888 215 8000 418 call 
3333 11821 4078 418 call 
6666 1001 6082 418 call 
5555 8067 8000 418 raise 
1111 195 8000 209 fold 
2222 77 8000 209 fold 
4444 899 6000 318 call 
7777 1006 6050 100 fold 
total pot: 2508 
/inquire 
send inquire msg to player 4444 
inquire/ 
7777 1006 6050 100 fold 
8888 215 8000 418 call 
3333 11821 4078 418 call 
6666 1001 6082 418 call 
5555 8067 8000 418 raise 
1111 195 8000 209 fold 
2222 77 8000 209 fold 
4444 899 6000 318 call 
total pot: 2508 
/inquire 
recv from player 4444: check
turn/ 
HEARTS A 
/turn 

---turn round bet---
valid player: 8, all in player: 0, fold player: 3
send inquire msg to player 2222 
inquire/ 
4444 799 6000 418 call 
7777 1006 6050 100 fold 
8888 215 8000 418 call 
3333 11821 4078 418 call 
6666 1001 6082 418 call 
5555 8067 8000 418 raise 
1111 195 8000 209 fold 
2222 77 8000 209 fold 
total pot: 2608 
/inquire 
send inquire msg to player 1111 
inquire/ 
2222 77 8000 209 fold 
4444 799 6000 418 call 
7777 1006 6050 100 fold 
8888 215 8000 418 call 
3333 11821 4078 418 call 
6666 1001 6082 418 call 
5555 8067 8000 418 raise 
1111 195 8000 209 fold 
total pot: 2608 
/inquire 
send inquire msg to player 5555 
inquire/ 
1111 195 8000 209 fold 
2222 77 8000 209 fold 
4444 799 6000 418 call 
7777 1006 6050 100 fold 
8888 215 8000 418 call 
3333 11821 4078 418 call 
6666 1001 6082 418 call 
5555 8067 8000 418 raise 
total pot: 2608 
/inquire 
recv from player 5555: check
send inquire msg to player 6666 
inquire/ 
5555 8067 8000 418 check 
1111 195 8000 209 fold 
2222 77 8000 209 fold 
4444 799 6000 418 call 
7777 1006 6050 100 fold 
8888 215 8000 418 call 
3333 11821 4078 418 call 
6666 1001 6082 418 call 
total pot: 2608 
/inquire 
recv from player 6666: check
send inquire msg to player 3333 
inquire/ 
6666 1001 6082 418 check 
5555 8067 8000 418 check 
1111 195 8000 209 fold 
2222 77 8000 209 fold 
4444 799 6000 418 call 
7777 1006 6050 100 fold 
8888 215 8000 418 call 
3333 11821 4078 418 call 
total pot: 2608 
/inquire 
recv from player 3333: check
send inquire msg to player 8888 
inquire/ 
3333 11821 4078 418 check 
6666 1001 6082 418 check 
5555 8067 8000 418 check 
1111 195 8000 209 fold 
2222 77 8000 209 fold 
4444 799 6000 418 call 
7777 1006 6050 100 fold 
8888 215 8000 418 call 
total pot: 2608 
/inquire 
recv from player 8888: check
send inquire msg to player 7777 
inquire/ 
8888 215 8000 418 check 
3333 11821 4078 418 check 
6666 1001 6082 418 check 
5555 8067 8000 418 check 
1111 195 8000 209 fold 
2222 77 8000 209 fold 
4444 799 6000 418 call 
7777 1006 6050 100 fold 
total pot: 2608 
/inquire 
send inquire msg to player 4444 
inquire/ 
7777 1006 6050 100 fold 
8888 215 8000 418 check 
3333 11821 4078 418 check 
6666 1001 6082 418 check 
5555 8067 8000 418 check 
1111 195 8000 209 fold 
2222 77 8000 209 fold 
4444 799 6000 418 call 
total pot: 2608 
/inquire 
recv from player 4444: check
river/ 
HEARTS Q 
/river 

---river round bet---
valid player: 8, all in player: 0, fold player: 3
send inquire msg to player 2222 
inquire/ 
4444 799 6000 418 check 
7777 1006 6050 100 fold 
8888 215 8000 418 check 
3333 11821 4078 418 check 
6666 1001 6082 418 check 
5555 8067 8000 418 check 
1111 195 8000 209 fold 
2222 77 8000 209 fold 
total pot: 2608 
/inquire 
send inquire msg to player 1111 
inquire/ 
2222 77 8000 209 fold 
4444 799 6000 418 check 
7777 1006 6050 100 fold 
8888 215 8000 418 check 
3333 11821 4078 418 check 
6666 1001 6082 418 check 
5555 8067 8000 418 check 
1111 195 8000 209 fold 
total pot: 2608 
/inquire 
send inquire msg to player 5555 
inquire/ 
1111 195 8000 209 fold 
2222 77 8000 209 fold 
4444 799 6000 418 check 
7777 1006 6050 100 fold 
8888 215 8000 418 check 
3333 11821 4078 418 check 
6666 1001 6082 418 check 
5555 8067 8000 418 check 
total pot: 2608 
/inquire 
recv from player 5555: check
send inquire msg to player 6666 
inquire/ 
5555 8067 8000 418 check 
1111 195 8000 209 fold 
2222 77 8000 209 fold 
4444 799 6000 418 check 
7777 1006 6050 100 fold 
8888 215 8000 418 check 
3333 11821 4078 418 check 
6666 1001 6082 418 check 
total pot: 2608 
/inquire 
recv from player 6666: check
send inquire msg to player 3333 
inquire/ 
6666 1001 6082 418 check 
5555 8067 8000 418 check 
1111 195 8000 209 fold 
2222 77 8000 209 fold 
4444 799 6000 418 check 
7777 1006 6050 100 fold 
8888 215 8000 418 check 
3333 11821 4078 418 check 
total pot: 2608 
/inquire 
recv from player 3333: check
send inquire msg to player 8888 
inquire/ 
3333 11821 4078 418 check 
6666 1001 6082 418 check 
5555 8067 8000 418 check 
1111 195 8000 209 fold 
2222 77 8000 209 fold 
4444 799 6000 418 check 
7777 1006 6050 100 fold 
8888 215 8000 418 check 
total pot: 2608 
/inquire 
recv from player 8888: check
send inquire msg to player 7777 
inquire/ 
8888 215 8000 418 check 
3333 11821 4078 418 check 
6666 1001 6082 418 check 
5555 8067 8000 418 check 
1111 195 8000 209 fold 
2222 77 8000 209 fold 
4444 799 6000 418 check 
7777 1006 6050 100 fold 
total pot: 2608 
/inquire 
send inquire msg to player 4444 
inquire/ 
7777 1006 6050 100 fold 
8888 215 8000 418 check 
3333 11821 4078 418 check 
6666 1001 6082 418 check 
5555 8067 8000 418 check 
1111 195 8000 209 fold 
2222 77 8000 209 fold 
4444 799 6000 418 check 
total pot: 2608 
/inquire 
recv from player 4444: check

---show down---
showdown/ 
common/ 
DIAMONDS 4 
SPADES 8 
CLUBS A 
HEARTS A 
HEARTS Q 
/common 
1: 5555 DIAMONDS K CLUBS 8 TWO_PAIR 
3: 6666 DIAMONDS 5 CLUBS 9 ONE_PAIR 
4: 3333 CLUBS 6 HEARTS 2 ONE_PAIR 
3: 8888 CLUBS 7 SPADES 9 ONE_PAIR 
2: 4444 SPADES 10 CLUBS J ONE_PAIR 
/showdown 

---Allocate pot---
pot-win/ 
5555: 2608 
/pot-win 
it is player 2222's turn to be button

-----30 Hand-----

----- clean player data in socket -----
seat/ 
button: 2222 2000 6077 
small blind: 1111 195 8000 
big blind: 5555 10675 8000 
6666 1001 6082 
3333 11821 4078 
8888 215 8000 
7777 1006 6050 
4444 799 6000 
/seat 
blind/ 
1111: 50 
5555: 100 
/blind 
player 1111:hold/ 
DIAMONDS J 
CLUBS 9 
/hold 
player 5555:hold/ 
HEARTS 6 
HEARTS A 
/hold 
player 6666:hold/ 
HEARTS 2 
SPADES 5 
/hold 
player 3333:hold/ 
CLUBS Q 
HEARTS 8 
/hold 
player 8888:hold/ 
HEARTS 7 
CLUBS 5 
/hold 
player 7777:hold/ 
DIAMONDS 10 
SPADES J 
/hold 
player 4444:hold/ 
SPADES 9 
DIAMONDS 2 
/hold 
player 2222:hold/ 
SPADES 8 
DIAMONDS 6 
/hold 

---pre flop round bet---
valid player: 8, all in player: 0, fold player: 0
send inquire msg to player 6666 
inquire/ 
5555 10575 8000 100 blind 
1111 145 8000 50 blind 
total pot: 150 
/inquire 
recv from player 6666: fold
send inquire msg to player 3333 
inquire/ 
6666 1001 6082 0 fold 
5555 10575 8000 100 blind 
1111 145 8000 50 blind 
total pot: 150 
/inquire 
recv from player 3333: check
send inquire msg to player 8888 
inquire/ 
3333 11721 4078 100 call 
6666 1001 6082 0 fold 
5555 10575 8000 100 blind 
1111 145 8000 50 blind 
total pot: 250 
/inquire 
recv from player 8888: check
send inquire msg to player 7777 
inquire/ 
8888 115 8000 100 call 
3333 11721 4078 100 call 
6666 1001 6082 0 fold 
5555 10575 8000 100 blind 
1111 145 8000 50 blind 
total pot: 350 
/inquire 
recv from player 7777: check
send inquire msg to player 4444 
inquire/ 
7777 906 6050 100 call 
8888 115 8000 100 call 
3333 11721 4078 100 call 
6666 1001 6082 0 fold 
5555 10575 8000 100 blind 
1111 145 8000 50 blind 
total pot: 450 
/inquire 
recv from player 4444: fold
send inquire msg to player 2222 
inquire/ 
4444 799 6000 0 fold 
7777 906 6050 100 call 
8888 115 8000 100 call 
3333 11721 4078 100 call 
6666 1001 6082 0 fold 
5555 10575 8000 100 blind 
1111 145 8000 50 blind 
total pot: 450 
/inquire 
recv from player 2222: fold
send inquire msg to player 1111 
inquire/ 
2222 2000 6077 0 fold 
4444 799 6000 0 fold 
7777 906 6050 100 call 
8888 115 8000 100 call 
3333 11721 4078 100 call 
6666 1001 6082 0 fold 
5555 10575 8000 100 blind 
1111 145 8000 50 blind 
total pot: 450 
/inquire 
recv from player 1111: check
send inquire msg to player 5555 
inquire/ 
1111 95 8000 100 call 
2222 2000 6077 0 fold 
4444 799 6000 0 fold 
7777 906 6050 100 call 
8888 115 8000 100 call 
3333 11721 4078 100 call 
6666 1001 6082 0 fold 
5555 10575 8000 100 blind 
total pot: 500 
/inquire 
recv from player 5555: check
flop/ 
CLUBS 3 
DIAMONDS 5 
SPADES A 
/flop 

---flop round bet---
valid player: 8, all in player: 0, fold player: 3
send inquire msg to player 1111 
inquire/ 
2222 2000 6077 0 fold 
4444 799 6000 0 fold 
7777 906 6050 100 call 
8888 115 8000 100 call 
3333 11721 4078 100 call 
6666 1001 6082 0 fold 
5555 10575 8000 100 check 
1111 95 8000 100 call 
total pot: 500 
/inquire 
recv from player 1111: fold
send inquire msg to player 5555 
inquire/ 
1111 95 8000 100 fold 
2222 2000 6077 0 fold 
4444 799 6000 0 fold 
7777 906 6050 100 call 
8888 115 8000 100 call 
3333 11721 4078 100 call 
6666 1001 6082 0 fold 
5555 10575 8000 100 check 
total pot: 500 
/inquire 
recv from player 5555: check
send inquire msg to player 6666 
inquire/ 
5555 10575 8000 100 check 
1111 95 8000 100 fold 
2222 2000 6077 0 fold 
4444 799 6000 0 fold 
7777 906 6050 100 call 
8888 115 8000 100 call 
3333 11721 4078 100 call 
6666 1001 6082 0 fold 
total pot: 500 
/inquire 
send inquire msg to player 3333 
inquire/ 
6666 1001 6082 0 fold 
5555 10575 8000 100 check 
1111 95 8000 100 fold 
2222 2000 6077 0 fold 
4444 799 6000 0 fold 
7777 906 6050 100 call 
8888 115 8000 100 call 
3333 11721 4078 100 call 
total pot: 500 
/inquire 
recv from player 3333: check
send inquire msg to player 8888 
inquire/ 
3333 11721 4078 100 check 
6666 1001 6082 0 fold 
5555 10575 8000 100 check 
1111 95 8000 100 fold 
2222 2000 6077 0 fold 
4444 799 6000 0 fold 
7777 906 6050 100 call 
8888 115 8000 100 call 
total pot: 500 
/inquire 
recv from player 8888: check
send inquire msg to player 7777 
inquire/ 
8888 115 8000 100 check 
3333 11721 4078 100 check 
6666 1001 6082 0 fold 
5555 10575 8000 100 check 
1111 95 8000 100 fold 
2222 2000 6077 0 fold 
4444 799 6000 0 fold 
7777 906 6050 100 call 
total pot: 500 
/inquire 
recv from player 7777: check
turn/ 
HEARTS 5 
/turn 

---turn round bet---
valid player: 8, all in player: 0, fold player: 4
send inquire msg to player 1111 
inquire/ 
2222 2000 6077 0 fold 
4444 799 6000 0 fold 
7777 906 6050 100 check 
8888 115 8000 100 check 
3333 11721 4078 100 check 
6666 1001 6082 0 fold 
5555 10575 8000 100 check 
1111 95 8000 100 fold 
total pot: 500 
/inquire 
send inquire msg to player 5555 
inquire/ 
1111 95 8000 100 fold 
2222 2000 6077 0 fold 
4444 799 6000 0 fold 
7777 906 6050 100 check 
8888 115 8000 100 check 
3333 11721 4078 100 check 
6666 1001 6082 0 fold 
5555 10575 8000 100 check 
total pot: 500 
/inquire 
recv from player 5555: raise 0
send inquire msg to player 6666 
inquire/ 
5555 10475 8000 200 raise 
1111 95 8000 100 fold 
2222 2000 6077 0 fold 
4444 799 6000 0 fold 
7777 906 6050 100 check 
8888 115 8000 100 check 
3333 11721 4078 100 check 
6666 1001 6082 0 fold 
total pot: 600 
/inquire 
send inquire msg to player 3333 
inquire/ 
6666 1001 6082 0 fold 
5555 10475 8000 200 raise 
1111 95 8000 100 fold 
2222 2000 6077 0 fold 
4444 799 6000 0 fold 
7777 906 6050 100 check 
8888 115 8000 100 check 
3333 11721 4078 100 check 
total pot: 600 
/inquire 
recv from player 3333: check
send inquire msg to player 8888 
inquire/ 
3333 11621 4078 200 call 
6666 1001 6082 0 fold 
5555 10475 8000 200 raise 
1111 95 8000 100 fold 
2222 2000 6077 0 fold 
4444 799 6000 0 fold 
7777 906 6050 100 check 
8888 115 8000 100 check 
total pot: 700 
/inquire 
recv from player 8888: check
send inquire msg to player 7777 
inquire/ 
8888 15 8000 200 call 
3333 11621 4078 200 call 
6666 1001 6082 0 fold 
5555 10475 8000 200 raise 
1111 95 8000 100 fold 
2222 2000 6077 0 fold 
4444 799 6000 0 fold 
7777 906 6050 100 check 
total pot: 800 
/inquire 
recv from player 7777: fold
river/ 
DIAMONDS Q 
/river 

---river round bet---
valid player: 8, all in player: 0, fold player: 5
send inquire msg to player 1111 
inquire/ 
2222 2000 6077 0 fold 
4444 799 6000 0 fold 
7777 906 6050 100 fold 
8888 15 8000 200 call 
3333 11621 4078 200 call 
6666 1001 6082 0 fold 
5555 10475 8000 200 raise 
1111 95 8000 100 fold 
total pot: 800 
/inquire 
send inquire msg to player 5555 
inquire/ 
1111 95 8000 100 fold 
2222 2000 6077 0 fold 
4444 799 6000 0 fold 
7777 906 6050 100 fold 
8888 15 8000 200 call 
3333 11621 4078 200 call 
6666 1001 6082 0 fold 
5555 10475 8000 200 raise 
total pot: 800 
/inquire 
recv from player 5555: check
send inquire msg to player 6666 
inquire/ 
5555 10475 8000 200 check 
1111 95 8000 100 fold 
2222 2000 6077 0 fold 
4444 799 6000 0 fold 
7777 906 6050 100 fold 
8888 15 8000 200 call 
3333 11621 4078 200 call 
6666 1001 6082 0 fold 
total pot: 800 
/inquire 
send inquire msg to player 3333 
inquire/ 
6666 1001 6082 0 fold 
5555 10475 8000 200 check 
1111 95 8000 100 fold 
2222 2000 6077 0 fold 
4444 799 6000 0 fold 
7777 906 6050 100 fold 
8888 15 8000 200 call 
3333 11621 4078 200 call 
total pot: 800 
/inquire 
recv from player 3333: check
send inquire msg to player 8888 
inquire/ 
3333 11621 4078 200 check 
6666 1001 6082 0 fold 
5555 10475 8000 200 check 
1111 95 8000 100 fold 
2222 2000 6077 0 fold 
4444 799 6000 0 fold 
7777 906 6050 100 fold 
8888 15 8000 200 call 
total pot: 800 
/inquire 
recv from player 8888: check

---show down---
showdown/ 
common/ 
CLUBS 3 
DIAMONDS 5 
SPADES A 
HEARTS 5 
DIAMONDS Q 
/common 
2: 5555 HEARTS 6 HEARTS A TWO_PAIR 
3: 3333 CLUBS Q HEARTS 8 TWO_PAIR 
1: 8888 HEARTS 7 CLUBS 5 THREE_OF_A_KIND 
/showdown 

---Allocate pot---
pot-win/ 
8888: 800 
/pot-win 
it is player 1111's turn to be button

-----31 Hand-----

----- clean player data in socket -----
seat/ 
button: 1111 2000 6095 
small blind: 5555 10475 8000 
big blind: 6666 1001 6082 
3333 11621 4078 
8888 815 8000 
7777 906 6050 
4444 799 6000 
2222 2000 6077 
/seat 
blind/ 
5555: 50 
6666: 100 
/blind 
player 5555:hold/ 
CLUBS 5 
DIAMONDS 6 
/hold 
player 6666:hold/ 
HEARTS 2 
CLUBS 2 
/hold 
player 3333:hold/ 
HEARTS 10 
DIAMONDS 8 
/hold 
player 8888:hold/ 
HEARTS 3 
DIAMONDS 9 
/hold 
player 7777:hold/ 
SPADES 2 
CLUBS 7 
/hold 
player 4444:hold/ 
HEARTS K 
CLUBS 6 
/hold 
player 2222:hold/ 
SPADES 4 
CLUBS Q 
/hold 
player 1111:hold/ 
DIAMONDS 10 
CLUBS 9 
/hold 

---pre flop round bet---
valid player: 8, all in player: 0, fold player: 0
send inquire msg to player 3333 
inquire/ 
6666 901 6082 100 blind 
5555 10425 8000 50 blind 
total pot: 150 
/inquire 
recv from player 3333: check
send inquire msg to player 8888 
inquire/ 
3333 11521 4078 100 call 
6666 901 6082 100 blind 
5555 10425 8000 50 blind 
total pot: 250 
/inquire 
recv from player 8888: check
send inquire msg to player 7777 
inquire/ 
8888 715 8000 100 call 
3333 11521 4078 100 call 
6666 901 6082 100 blind 
5555 10425 8000 50 blind 
total pot: 350 
/inquire 
recv from player 7777: check
send inquire msg to player 4444 
inquire/ 
7777 806 6050 100 call 
8888 715 8000 100 call 
3333 11521 4078 100 call 
6666 901 6082 100 blind 
5555 10425 8000 50 blind 
total pot: 450 
/inquire 
recv from player 4444: check
send inquire msg to player 2222 
inquire/ 
4444 699 6000 100 call 
7777 806 6050 100 call 
8888 715 8000 100 call 
3333 11521 4078 100 call 
6666 901 6082 100 blind 
5555 10425 8000 50 blind 
total pot: 550 
/inquire 
recv from player 2222: check
send inquire msg to player 1111 
inquire/ 
2222 1900 6077 100 call 
4444 699 6000 100 call 
7777 806 6050 100 call 
8888 715 8000 100 call 
3333 11521 4078 100 call 
6666 901 6082 100 blind 
5555 10425 8000 50 blind 
total pot: 650 
/inquire 
recv from player 1111: fold
send inquire msg to player 5555 
inquire/ 
1111 2000 6095 0 fold 
2222 1900 6077 100 call 
4444 699 6000 100 call 
7777 806 6050 100 call 
8888 715 8000 100 call 
3333 11521 4078 100 call 
6666 901 6082 100 blind 
5555 10425 8000 50 blind 
total pot: 650 
/inquire 
recv from player 5555: raise 0
send inquire msg to player 6666 
inquire/ 
5555 10275 8000 200 raise 
1111 2000 6095 0 fold 
2222 1900 6077 100 call 
4444 699 6000 100 call 
7777 806 6050 100 call 
8888 715 8000 100 call 
3333 11521 4078 100 call 
6666 901 6082 100 blind 
total pot: 800 
/inquire 
recv from player 6666: check
send inquire msg to player 3333 
inquire/ 
6666 801 6082 200 call 
5555 10275 8000 200 raise 
1111 2000 6095 0 fold 
2222 1900 6077 100 call 
4444 699 6000 100 call 
7777 806 6050 100 call 
8888 715 8000 100 call 
3333 11521 4078 100 call 
total pot: 900 
/inquire 
recv from player 3333: check
send inquire msg to player 8888 
inquire/ 
3333 11421 4078 200 call 
6666 801 6082 200 call 
5555 10275 8000 200 raise 
1111 2000 6095 0 fold 
2222 1900 6077 100 call 
4444 699 6000 100 call 
7777 806 6050 100 call 
8888 715 8000 100 call 
total pot: 1000 
/inquire 
recv from player 8888: check
send inquire msg to player 7777 
inquire/ 
8888 615 8000 200 call 
3333 11421 4078 200 call 
6666 801 6082 200 call 
5555 10275 8000 200 raise 
1111 2000 6095 0 fold 
2222 1900 6077 100 call 
4444 699 6000 100 call 
7777 806 6050 100 call 
total pot: 1100 
/inquire 
recv from player 7777: fold
send inquire msg to player 4444 
inquire/ 
7777 806 6050 100 fold 
8888 615 8000 200 call 
3333 11421 4078 200 call 
6666 801 6082 200 call 
5555 10275 8000 200 raise 
1111 2000 6095 0 fold 
2222 1900 6077 100 call 
4444 699 6000 100 call 
total pot: 1100 
/inquire 
recv from player 4444: check
send inquire msg to player 2222 
inquire/ 
4444 599 6000 200 call 
7777 806 6050 100 fold 
8888 615 8000 200 call 
3333 11421 4078 200 call 
6666 801 6082 200 call 
5555 10275 8000 200 raise 
1111 2000 6095 0 fold 
2222 1900 6077 100 call 
total pot: 1200 
/inquire 
recv from player 2222: check
flop/ 
CLUBS J 
HEARTS 4 
HEARTS 6 
/flop 

---flop round bet---
valid player: 8, all in player: 0, fold player: 2
send inquire msg to player 5555 
inquire/ 
1111 2000 6095 0 fold 
2222 1800 6077 200 call 
4444 599 6000 200 call 
7777 806 6050 100 fold 
8888 615 8000 200 call 
3333 11421 4078 200 call 
6666 801 6082 200 call 
5555 10275 8000 200 raise 
total pot: 1300 
/inquire 
recv from player 5555: raise 0
send inquire msg to player 6666 
inquire/ 
5555 10175 8000 300 raise 
1111 2000 6095 0 fold 
2222 1800 6077 200 call 
4444 599 6000 200 call 
7777 806 6050 100 fold 
8888 615 8000 200 call 
3333 11421 4078 200 call 
6666 801 6082 200 call 
total pot: 1400 
/inquire 
recv from player 6666: check
send inquire msg to player 3333 
inquire/ 
6666 701 6082 300 call 
5555 10175 8000 300 raise 
1111 2000 6095 0 fold 
2222 1800 6077 200 call 
4444 599 6000 200 call 
7777 806 6050 100 fold 
8888 615 8000 200 call 
3333 11421 4078 200 call 
total pot: 1500 
/inquire 
recv from player 3333: check
send inquire msg to player 8888 
inquire/ 
3333 11321 4078 300 call 
6666 701 6082 300 call 
5555 10175 8000 300 raise 
1111 2000 6095 0 fold 
2222 1800 6077 200 call 
4444 599 6000 200 call 
7777 806 6050 100 fold 
8888 615 8000 200 call 
total pot: 1600 
/inquire 
recv from player 8888: check
send inquire msg to player 7777 
inquire/ 
8888 515 8000 300 call 
3333 11321 4078 300 call 
6666 701 6082 300 call 
5555 10175 8000 300 raise 
1111 2000 6095 0 fold 
2222 1800 6077 200 call 
4444 599 6000 200 call 
7777 806 6050 100 fold 
total pot: 1700 
/inquire 
send inquire msg to player 4444 
inquire/ 
7777 806 6050 100 fold 
8888 515 8000 300 call 
3333 11321 4078 300 call 
6666 701 6082 300 call 
5555 10175 8000 300 raise 
1111 2000 6095 0 fold 
2222 1800 6077 200 call 
4444 599 6000 200 call 
total pot: 1700 
/inquire 
recv from player 4444: check
send inquire msg to player 2222 
inquire/ 
4444 499 6000 300 call 
7777 806 6050 100 fold 
8888 515 8000 300 call 
3333 11321 4078 300 call 
6666 701 6082 300 call 
5555 10175 8000 300 raise 
1111 2000 6095 0 fold 
2222 1800 6077 200 call 
total pot: 1800 
/inquire 
recv from player 2222: check
turn/ 
SPADES K 
/turn 

---turn round bet---
valid player: 8, all in player: 0, fold player: 2
send inquire msg to player 5555 
inquire/ 
1111 2000 6095 0 fold 
2222 1700 6077 300 call 
4444 499 6000 300 call 
7777 806 6050 100 fold 
8888 515 8000 300 call 
3333 11321 4078 300 call 
6666 701 6082 300 call 
5555 10175 8000 300 raise 
total pot: 1900 
/inquire 
recv from player 5555: check
send inquire msg to player 6666 
inquire/ 
5555 10175 8000 300 check 
1111 2000 6095 0 fold 
2222 1700 6077 300 call 
4444 499 6000 300 call 
7777 806 6050 100 fold 
8888 515 8000 300 call 
3333 11321 4078 300 call 
6666 701 6082 300 call 
total pot: 1900 
/inquire 
recv from player 6666: check
send inquire msg to player 3333 
inquire/ 
6666 701 6082 300 check 
5555 10175 8000 300 check 
1111 2000 6095 0 fold 
2222 1700 6077 300 call 
4444 499 6000 300 call 
7777 806 6050 100 fold 
8888 515 8000 300 call 
3333 11321 4078 300 call 
total pot: 1900 
/inquire 
recv from player 3333: check
send inquire msg to player 8888 
inquire/ 
3333 11321 4078 300 check 
6666 701 6082 300 check 
5555 10175 8000 300 check 
1111 2000 6095 0 fold 
2222 1700 6077 300 call 
4444 499 6000 300 call 
7777 806 6050 100 fold 
8888 515 8000 300 call 
total pot: 1900 
/inquire 
recv from player 8888: check
send inquire msg to player 7777 
inquire/ 
8888 515 8000 300 check 
3333 11321 4078 300 check 
6666 701 6082 300 check 
5555 10175 8000 300 check 
1111 2000 6095 0 fold 
2222 1700 6077 300 call 
4444 499 6000 300 call 
7777 806 6050 100 fold 
total pot: 1900 
/inquire 
send inquire msg to player 4444 
inquire/ 
7777 806 6050 100 fold 
8888 515 8000 300 check 
3333 11321 4078 300 check 
6666 701 6082 300 check 
5555 10175 8000 300 check 
1111 2000 6095 0 fold 
2222 1700 6077 300 call 
4444 499 6000 300 call 
total pot: 1900 
/inquire 
recv from player 4444: check
send inquire msg to player 2222 
inquire/ 
4444 499 6000 300 check 
7777 806 6050 100 fold 
8888 515 8000 300 check 
3333 11321 4078 300 check 
6666 701 6082 300 check 
5555 10175 8000 300 check 
1111 2000 6095 0 fold 
2222 1700 6077 300 call 
total pot: 1900 
/inquire 
recv from player 2222: check
river/ 
DIAMONDS 3 
/river 

---river round bet---
valid player: 8, all in player: 0, fold player: 2
send inquire msg to player 5555 
inquire/ 
1111 2000 6095 0 fold 
2222 1700 6077 300 check 
4444 499 6000 300 check 
7777 806 6050 100 fold 
8888 515 8000 300 check 
3333 11321 4078 300 check 
6666 701 6082 300 check 
5555 10175 8000 300 check 
total pot: 1900 
/inquire 
recv from player 5555: check
send inquire msg to player 6666 
inquire/ 
5555 10175 8000 300 check 
1111 2000 6095 0 fold 
2222 1700 6077 300 check 
4444 499 6000 300 check 
7777 806 6050 100 fold 
8888 515 8000 300 check 
3333 11321 4078 300 check 
6666 701 6082 300 check 
total pot: 1900 
/inquire 
recv from player 6666: check
send inquire msg to player 3333 
inquire/ 
6666 701 6082 300 check 
5555 10175 8000 300 check 
1111 2000 6095 0 fold 
2222 1700 6077 300 check 
4444 499 6000 300 check 
7777 806 6050 100 fold 
8888 515 8000 300 check 
3333 11321 4078 300 check 
total pot: 1900 
/inquire 
recv from player 3333: check
send inquire msg to player 8888 
inquire/ 
3333 11321 4078 300 check 
6666 701 6082 300 check 
5555 10175 8000 300 check 
1111 2000 6095 0 fold 
2222 1700 6077 300 check 
4444 499 6000 300 check 
7777 806 6050 100 fold 
8888 515 8000 300 check 
total pot: 1900 
/inquire 
recv from player 8888: check
send inquire msg to player 7777 
inquire/ 
8888 515 8000 300 check 
3333 11321 4078 300 check 
6666 701 6082 300 check 
5555 10175 8000 300 check 
1111 2000 6095 0 fold 
2222 1700 6077 300 check 
4444 499 6000 300 check 
7777 806 6050 100 fold 
total pot: 1900 
/inquire 
send inquire msg to player 4444 
inquire/ 
7777 806 6050 100 fold 
8888 515 8000 300 check 
3333 11321 4078 300 check 
6666 701 6082 300 check 
5555 10175 8000 300 check 
1111 2000 6095 0 fold 
2222 1700 6077 300 check 
4444 499 6000 300 check 
total pot: 1900 
/inquire 
recv from player 4444: check
send inquire msg to player 2222 
inquire/ 
4444 499 6000 300 check 
7777 806 6050 100 fold 
8888 515 8000 300 check 
3333 11321 4078 300 check 
6666 701 6082 300 check 
5555 10175 8000 300 check 
1111 2000 6095 0 fold 
2222 1700 6077 300 check 
total pot: 1900 
/inquire 
recv from player 2222: check

---show down---
showdown/ 
common/ 
CLUBS J 
HEARTS 4 
HEARTS 6 
SPADES K 
DIAMONDS 3 
/common 
2: 5555 CLUBS 5 DIAMONDS 6 ONE_PAIR 
5: 6666 HEARTS 2 CLUBS 2 ONE_PAIR 
6: 3333 HEARTS 10 DIAMONDS 8 HIGH_CARD 
4: 8888 HEARTS 3 DIAMONDS 9 ONE_PAIR 
1: 4444 HEARTS K CLUBS 6 TWO_PAIR 
3: 2222 SPADES 4 CLUBS Q ONE_PAIR 
/showdown 

---Allocate pot---
pot-win/ 
4444: 1900 
/pot-win 
it is player 5555's turn to be button

-----32 Hand-----

----- clean player data in socket -----
seat/ 
button: 5555 10175 8000 
small blind: 6666 701 6082 
big blind: 3333 11321 4078 
8888 515 8000 
7777 806 6050 
4444 2399 6000 
2222 1700 6077 
1111 2000 6095 
/seat 
blind/ 
6666: 50 
3333: 100 
/blind 
player 6666:hold/ 
CLUBS A 
CLUBS 6 
/hold 
player 3333:hold/ 
HEARTS 6 
DIAMONDS 2 
/hold 
player 8888:hold/ 
DIAMONDS 8 
DIAMONDS K 
/hold 
player 7777:hold/ 
CLUBS 2 
CLUBS 5 
/hold 
player 4444:hold/ 
HEARTS Q 
CLUBS 8 
/hold 
player 2222:hold/ 
DIAMONDS 4 
HEARTS 4 
/hold 
player 1111:hold/ 
SPADES 3 
HEARTS 10 
/hold 
player 5555:hold/ 
DIAMONDS 9 
HEARTS K 
/hold 

---pre flop round bet---
valid player: 8, all in player: 0, fold player: 0
send inquire msg to player 8888 
inquire/ 
3333 11221 4078 100 blind 
6666 651 6082 50 blind 
total pot: 150 
/inquire 
recv from player 8888: check
send inquire msg to player 7777 
inquire/ 
8888 415 8000 100 call 
3333 11221 4078 100 blind 
6666 651 6082 50 blind 
total pot: 250 
/inquire 
recv from player 7777: check
send inquire msg to player 4444 
inquire/ 
7777 706 6050 100 call 
8888 415 8000 100 call 
3333 11221 4078 100 blind 
6666 651 6082 50 blind 
total pot: 350 
/inquire 
recv from player 4444: raise 136
send inquire msg to player 2222 
inquire/ 
4444 2163 6000 236 raise 
7777 706 6050 100 call 
8888 415 8000 100 call 
3333 11221 4078 100 blind 
6666 651 6082 50 blind 
total pot: 586 
/inquire 
recv from player 2222: fold
send inquire msg to player 1111 
inquire/ 
2222 1700 6077 0 fold 
4444 2163 6000 236 raise 
7777 706 6050 100 call 
8888 415 8000 100 call 
3333 11221 4078 100 blind 
6666 651 6082 50 blind 
total pot: 586 
/inquire 
recv from player 1111: fold
send inquire msg to player 5555 
inquire/ 
1111 2000 6095 0 fold 
2222 1700 6077 0 fold 
4444 2163 6000 236 raise 
7777 706 6050 100 call 
8888 415 8000 100 call 
3333 11221 4078 100 blind 
6666 651 6082 50 blind 
total pot: 586 
/inquire 
recv from player 5555: raise 0
send inquire msg to player 6666 
inquire/ 
5555 9803 8000 372 raise 
1111 2000 6095 0 fold 
2222 1700 6077 0 fold 
4444 2163 6000 236 raise 
7777 706 6050 100 call 
8888 415 8000 100 call 
3333 11221 4078 100 blind 
6666 651 6082 50 blind 
total pot: 958 
/inquire 
recv from player 6666: fold
send inquire msg to player 3333 
inquire/ 
6666 651 6082 50 fold 
5555 9803 8000 372 raise 
1111 2000 6095 0 fold 
2222 1700 6077 0 fold 
4444 2163 6000 236 raise 
7777 706 6050 100 call 
8888 415 8000 100 call 
3333 11221 4078 100 blind 
total pot: 958 
/inquire 
recv from player 3333: check
send inquire msg to player 8888 
inquire/ 
3333 10949 4078 372 call 
6666 651 6082 50 fold 
5555 9803 8000 372 raise 
1111 2000 6095 0 fold 
2222 1700 6077 0 fold 
4444 2163 6000 236 raise 
7777 706 6050 100 call 
8888 415 8000 100 call 
total pot: 1230 
/inquire 
recv from player 8888: check
send inquire msg to player 7777 
inquire/ 
8888 143 8000 372 call 
3333 10949 4078 372 call 
6666 651 6082 50 fold 
5555 9803 8000 372 raise 
1111 2000 6095 0 fold 
2222 1700 6077 0 fold 
4444 2163 6000 236 raise 
7777 706 6050 100 call 
total pot: 1502 
/inquire 
recv from player 7777: fold
send inquire msg to player 4444 
inquire/ 
7777 706 6050 100 fold 
8888 143 8000 372 call 
3333 10949 4078 372 call 
6666 651 6082 50 fold 
5555 9803 8000 372 raise 
1111 2000 6095 0 fold 
2222 1700 6077 0 fold 
4444 2163 6000 236 raise 
total pot: 1502 
/inquire 
recv from player 4444: check
flop/ 
DIAMONDS 6 
SPADES J 
SPADES 8 
/flop 

---flop round bet---
valid player: 8, all in player: 0, fold player: 4
send inquire msg to player 6666 
inquire/ 
5555 9803 8000 372 raise 
1111 2000 6095 0 fold 
2222 1700 6077 0 fold 
4444 2027 6000 372 call 
7777 706 6050 100 fold 
8888 143 8000 372 call 
3333 10949 4078 372 call 
6666 651 6082 50 fold 
total pot: 1638 
/inquire 
send inquire msg to player 3333 
inquire/ 
6666 651 6082 50 fold 
5555 9803 8000 372 raise 
1111 2000 6095 0 fold 
2222 1700 6077 0 fold 
4444 2027 6000 372 call 
7777 706 6050 100 fold 
8888 143 8000 372 call 
3333 10949 4078 372 call 
total pot: 1638 
/inquire 
recv from player 3333: check
send inquire msg to player 8888 
inquire/ 
3333 10949 4078 372 check 
6666 651 6082 50 fold 
5555 9803 8000 372 raise 
1111 2000 6095 0 fold 
2222 1700 6077 0 fold 
4444 2027 6000 372 call 
7777 706 6050 100 fold 
8888 143 8000 372 call 
total pot: 1638 
/inquire 
recv from player 8888: check
send inquire msg to player 7777 
inquire/ 
8888 143 8000 372 check 
3333 10949 4078 372 check 
6666 651 6082 50 fold 
5555 9803 8000 372 raise 
1111 2000 6095 0 fold 
2222 1700 6077 0 fold 
4444 2027 6000 372 call 
7777 706 6050 100 fold 
total pot: 1638 
/inquire 
send inquire msg to player 4444 
inquire/ 
7777 706 6050 100 fold 
8888 143 8000 372 check 
3333 10949 4078 372 check 
6666 651 6082 50 fold 
5555 9803 8000 372 raise 
1111 2000 6095 0 fold 
2222 1700 6077 0 fold 
4444 2027 6000 372 call 
total pot: 1638 
/inquire 
recv from player 4444: check
send inquire msg to player 2222 
inquire/ 
4444 2027 6000 372 check 
7777 706 6050 100 fold 
8888 143 8000 372 check 
3333 10949 4078 372 check 
6666 651 6082 50 fold 
5555 9803 8000 372 raise 
1111 2000 6095 0 fold 
2222 1700 6077 0 fold 
total pot: 1638 
/inquire 
send inquire msg to player 1111 
inquire/ 
2222 1700 6077 0 fold 
4444 2027 6000 372 check 
7777 706 6050 100 fold 
8888 143 8000 372 check 
3333 10949 4078 372 check 
6666 651 6082 50 fold 
5555 9803 8000 372 raise 
1111 2000 6095 0 fold 
total pot: 1638 
/inquire 
send inquire msg to player 5555 
inquire/ 
1111 2000 6095 0 fold 
2222 1700 6077 0 fold 
4444 2027 6000 372 check 
7777 706 6050 100 fold 
8888 143 8000 372 check 
3333 10949 4078 372 check 
6666 651 6082 50 fold 
5555 9803 8000 372 raise 
total pot: 1638 
/inquire 
recv from player 5555: check
turn/ 
SPADES 10 
/turn 

---turn round bet---
valid player: 8, all in player: 0, fold player: 4
send inquire msg to player 6666 
inquire/ 
5555 9803 8000 372 check 
1111 2000 6095 0 fold 
2222 1700 6077 0 fold 
4444 2027 6000 372 check 
7777 706 6050 100 fold 
8888 143 8000 372 check 
3333 10949 4078 372 check 
6666 651 6082 50 fold 
total pot: 1638 
/inquire 
send inquire msg to player 3333 
inquire/ 
6666 651 6082 50 fold 
5555 9803 8000 372 check 
1111 2000 6095 0 fold 
2222 1700 6077 0 fold 
4444 2027 6000 372 check 
7777 706 6050 100 fold 
8888 143 8000 372 check 
3333 10949 4078 372 check 
total pot: 1638 
/inquire 
recv from player 3333: check
send inquire msg to player 8888 
inquire/ 
3333 10949 4078 372 check 
6666 651 6082 50 fold 
5555 9803 8000 372 check 
1111 2000 6095 0 fold 
2222 1700 6077 0 fold 
4444 2027 6000 372 check 
7777 706 6050 100 fold 
8888 143 8000 372 check 
total pot: 1638 
/inquire 
recv from player 8888: check
send inquire msg to player 7777 
inquire/ 
8888 143 8000 372 check 
3333 10949 4078 372 check 
6666 651 6082 50 fold 
5555 9803 8000 372 check 
1111 2000 6095 0 fold 
2222 1700 6077 0 fold 
4444 2027 6000 372 check 
7777 706 6050 100 fold 
total pot: 1638 
/inquire 
send inquire msg to player 4444 
inquire/ 
7777 706 6050 100 fold 
8888 143 8000 372 check 
3333 10949 4078 372 check 
6666 651 6082 50 fold 
5555 9803 8000 372 check 
1111 2000 6095 0 fold 
2222 1700 6077 0 fold 
4444 2027 6000 372 check 
total pot: 1638 
/inquire 
recv from player 4444: check
send inquire msg to player 2222 
inquire/ 
4444 2027 6000 372 check 
7777 706 6050 100 fold 
8888 143 8000 372 check 
3333 10949 4078 372 check 
6666 651 6082 50 fold 
5555 9803 8000 372 check 
1111 2000 6095 0 fold 
2222 1700 6077 0 fold 
total pot: 1638 
/inquire 
send inquire msg to player 1111 
inquire/ 
2222 1700 6077 0 fold 
4444 2027 6000 372 check 
7777 706 6050 100 fold 
8888 143 8000 372 check 
3333 10949 4078 372 check 
6666 651 6082 50 fold 
5555 9803 8000 372 check 
1111 2000 6095 0 fold 
total pot: 1638 
/inquire 
send inquire msg to player 5555 
inquire/ 
1111 2000 6095 0 fold 
2222 1700 6077 0 fold 
4444 2027 6000 372 check 
7777 706 6050 100 fold 
8888 143 8000 372 check 
3333 10949 4078 372 check 
6666 651 6082 50 fold 
5555 9803 8000 372 check 
total pot: 1638 
/inquire 
recv from player 5555: check
river/ 
CLUBS 7 
/river 

---river round bet---
valid player: 8, all in player: 0, fold player: 4
send inquire msg to player 6666 
inquire/ 
5555 9803 8000 372 check 
1111 2000 6095 0 fold 
2222 1700 6077 0 fold 
4444 2027 6000 372 check 
7777 706 6050 100 fold 
8888 143 8000 372 check 
3333 10949 4078 372 check 
6666 651 6082 50 fold 
total pot: 1638 
/inquire 
send inquire msg to player 3333 
inquire/ 
6666 651 6082 50 fold 
5555 9803 8000 372 check 
1111 2000 6095 0 fold 
2222 1700 6077 0 fold 
4444 2027 6000 372 check 
7777 706 6050 100 fold 
8888 143 8000 372 check 
3333 10949 4078 372 check 
total pot: 1638 
/inquire 
recv from player 3333: check
send inquire msg to player 8888 
inquire/ 
3333 10949 4078 372 check 
6666 651 6082 50 fold 
5555 9803 8000 372 check 
1111 2000 6095 0 fold 
2222 1700 6077 0 fold 
4444 2027 6000 372 check 
7777 706 6050 100 fold 
8888 143 8000 372 check 
total pot: 1638 
/inquire 
recv from player 8888: check
send inquire msg to player 7777 
inquire/ 
8888 143 8000 372 check 
3333 10949 4078 372 check 
6666 651 6082 50 fold 
5555 9803 8000 372 check 
1111 2000 6095 0 fold 
2222 1700 6077 0 fold 
4444 2027 6000 372 check 
7777 706 6050 100 fold 
total pot: 1638 
/inquire 
send inquire msg to player 4444 
inquire/ 
7777 706 6050 100 fold 
8888 143 8000 372 check 
3333 10949 4078 372 check 
6666 651 6082 50 fold 
5555 9803 8000 372 check 
1111 2000 6095 0 fold 
2222 1700 6077 0 fold 
4444 2027 6000 372 check 
total pot: 1638 
/inquire 
recv from player 4444: check
send inquire msg to player 2222 
inquire/ 
4444 2027 6000 372 check 
7777 706 6050 100 fold 
8888 143 8000 372 check 
3333 10949 4078 372 check 
6666 651 6082 50 fold 
5555 9803 8000 372 check 
1111 2000 6095 0 fold 
2222 1700 6077 0 fold 
total pot: 1638 
/inquire 
send inquire msg to player 1111 
inquire/ 
2222 1700 6077 0 fold 
4444 2027 6000 372 check 
7777 706 6050 100 fold 
8888 143 8000 372 check 
3333 10949 4078 372 check 
6666 651 6082 50 fold 
5555 9803 8000 372 check 
1111 2000 6095 0 fold 
total pot: 1638 
/inquire 
send inquire msg to player 5555 
inquire/ 
1111 2000 6095 0 fold 
2222 1700 6077 0 fold 
4444 2027 6000 372 check 
7777 706 6050 100 fold 
8888 143 8000 372 check 
3333 10949 4078 372 check 
6666 651 6082 50 fold 
5555 9803 8000 372 check 
total pot: 1638 
/inquire 
recv from player 5555: raise 0
send inquire msg to player 6666 
inquire/ 
5555 9703 8000 472 raise 
1111 2000 6095 0 fold 
2222 1700 6077 0 fold 
4444 2027 6000 372 check 
7777 706 6050 100 fold 
8888 143 8000 372 check 
3333 10949 4078 372 check 
6666 651 6082 50 fold 
total pot: 1738 
/inquire 
send inquire msg to player 3333 
inquire/ 
6666 651 6082 50 fold 
5555 9703 8000 472 raise 
1111 2000 6095 0 fold 
2222 1700 6077 0 fold 
4444 2027 6000 372 check 
7777 706 6050 100 fold 
8888 143 8000 372 check 
3333 10949 4078 372 check 
total pot: 1738 
/inquire 
recv from player 3333: check
send inquire msg to player 8888 
inquire/ 
3333 10849 4078 472 call 
6666 651 6082 50 fold 
5555 9703 8000 472 raise 
1111 2000 6095 0 fold 
2222 1700 6077 0 fold 
4444 2027 6000 372 check 
7777 706 6050 100 fold 
8888 143 8000 372 check 
total pot: 1838 
/inquire 
recv from player 8888: check
send inquire msg to player 7777 
inquire/ 
8888 43 8000 472 call 
3333 10849 4078 472 call 
6666 651 6082 50 fold 
5555 9703 8000 472 raise 
1111 2000 6095 0 fold 
2222 1700 6077 0 fold 
4444 2027 6000 372 check 
7777 706 6050 100 fold 
total pot: 1938 
/inquire 
send inquire msg to player 4444 
inquire/ 
7777 706 6050 100 fold 
8888 43 8000 472 call 
3333 10849 4078 472 call 
6666 651 6082 50 fold 
5555 9703 8000 472 raise 
1111 2000 6095 0 fold 
2222 1700 6077 0 fold 
4444 2027 6000 372 check 
total pot: 1938 
/inquire 
recv from player 4444: check

---show down---
showdown/ 
common/ 
DIAMONDS 6 
SPADES J 
SPADES 8 
SPADES 10 
CLUBS 7 
/common 
4: 3333 HEARTS 6 DIAMONDS 2 ONE_PAIR 
2: 8888 DIAMONDS 8 DIAMONDS K ONE_PAIR 
3: 4444 HEARTS Q CLUBS 8 ONE_PAIR 
1: 5555 DIAMONDS 9 HEARTS K STRAIGHT 
/showdown 

---Allocate pot---
pot-win/ 
5555: 2038 
/pot-win 
it is player 6666's turn to be button

-----33 Hand-----

----- clean player data in socket -----
seat/ 
button: 6666 651 6082 
small blind: 3333 10849 4078 
big blind: 8888 2000 6043 
7777 706 6050 
4444 1927 6000 
2222 1700 6077 
1111 2000 6095 
5555 11741 8000 
/seat 
blind/ 
3333: 50 
8888: 100 
/blind 
player 3333:hold/ 
SPADES J 
DIAMONDS 5 
/hold 
player 8888:hold/ 
HEARTS 4 
DIAMONDS Q 
/hold 
player 7777:hold/ 
HEARTS A 
HEARTS 5 
/hold 
player 4444:hold/ 
CLUBS 3 
CLUBS 7 
/hold 
player 2222:hold/ 
HEARTS 8 
DIAMONDS A 
/hold 
player 1111:hold/ 
SPADES 5 
DIAMONDS 6 
/hold 
player 5555:hold/ 
HEARTS K 
SPADES 6 
/hold 
player 6666:hold/ 
DIAMONDS 10 
SPADES 2 
/hold 

---pre flop round bet---
valid player: 8, all in player: 0, fold player: 0
send inquire msg to player 7777 
inquire/ 
8888 1900 6043 100 blind 
3333 10799 4078 50 blind 
total pot: 150 
/inquire 
recv from player 7777: check
send inquire msg to player 4444 
inquire/ 
7777 606 6050 100 call 
8888 1900 6043 100 blind 
3333 10799 4078 50 blind 
total pot: 250 
/inquire 
recv from player 4444: raise 111
send inquire msg to player 2222 
inquire/ 
4444 1716 6000 211 raise 
7777 606 6050 100 call 
8888 1900 6043 100 blind 
3333 10799 4078 50 blind 
total pot: 461 
/inquire 
recv from player 2222: fold
send inquire msg to player 1111 
inquire/ 
2222 1700 6077 0 fold 
4444 1716 6000 211 raise 
7777 606 6050 100 call 
8888 1900 6043 100 blind 
3333 10799 4078 50 blind 
total pot: 461 
/inquire 
recv from player 1111: fold
send inquire msg to player 5555 
inquire/ 
1111 2000 6095 0 fold 
2222 1700 6077 0 fold 
4444 1716 6000 211 raise 
7777 606 6050 100 call 
8888 1900 6043 100 blind 
3333 10799 4078 50 blind 
total pot: 461 
/inquire 
recv from player 5555: check
send inquire msg to player 6666 
inquire/ 
5555 11530 8000 211 call 
1111 2000 6095 0 fold 
2222 1700 6077 0 fold 
4444 1716 6000 211 raise 
7777 606 6050 100 call 
8888 1900 6043 100 blind 
3333 10799 4078 50 blind 
total pot: 672 
/inquire 
recv from player 6666: fold
send inquire msg to player 3333 
inquire/ 
6666 651 6082 0 fold 
5555 11530 8000 211 call 
1111 2000 6095 0 fold 
2222 1700 6077 0 fold 
4444 1716 6000 211 raise 
7777 606 6050 100 call 
8888 1900 6043 100 blind 
3333 10799 4078 50 blind 
total pot: 672 
/inquire 
recv from player 3333: check
send inquire msg to player 8888 
inquire/ 
3333 10638 4078 211 call 
6666 651 6082 0 fold 
5555 11530 8000 211 call 
1111 2000 6095 0 fold 
2222 1700 6077 0 fold 
4444 1716 6000 211 raise 
7777 606 6050 100 call 
8888 1900 6043 100 blind 
total pot: 833 
/inquire 
recv from player 8888: check
send inquire msg to player 7777 
inquire/ 
8888 1789 6043 211 call 
3333 10638 4078 211 call 
6666 651 6082 0 fold 
5555 11530 8000 211 call 
1111 2000 6095 0 fold 
2222 1700 6077 0 fold 
4444 1716 6000 211 raise 
7777 606 6050 100 call 
total pot: 944 
/inquire 
recv from player 7777: fold
flop/ 
SPADES A 
HEARTS 6 
SPADES 9 
/flop 

---flop round bet---
valid player: 8, all in player: 0, fold player: 4
send inquire msg to player 3333 
inquire/ 
6666 651 6082 0 fold 
5555 11530 8000 211 call 
1111 2000 6095 0 fold 
2222 1700 6077 0 fold 
4444 1716 6000 211 raise 
7777 606 6050 100 fold 
8888 1789 6043 211 call 
3333 10638 4078 211 call 
total pot: 944 
/inquire 
recv from player 3333: check
send inquire msg to player 8888 
inquire/ 
3333 10638 4078 211 check 
6666 651 6082 0 fold 
5555 11530 8000 211 call 
1111 2000 6095 0 fold 
2222 1700 6077 0 fold 
4444 1716 6000 211 raise 
7777 606 6050 100 fold 
8888 1789 6043 211 call 
total pot: 944 
/inquire 
recv from player 8888: check
send inquire msg to player 7777 
inquire/ 
8888 1789 6043 211 check 
3333 10638 4078 211 check 
6666 651 6082 0 fold 
5555 11530 8000 211 call 
1111 2000 6095 0 fold 
2222 1700 6077 0 fold 
4444 1716 6000 211 raise 
7777 606 6050 100 fold 
total pot: 944 
/inquire 
send inquire msg to player 4444 
inquire/ 
7777 606 6050 100 fold 
8888 1789 6043 211 check 
3333 10638 4078 211 check 
6666 651 6082 0 fold 
5555 11530 8000 211 call 
1111 2000 6095 0 fold 
2222 1700 6077 0 fold 
4444 1716 6000 211 raise 
total pot: 944 
/inquire 
recv from player 4444: check
send inquire msg to player 2222 
inquire/ 
4444 1716 6000 211 check 
7777 606 6050 100 fold 
8888 1789 6043 211 check 
3333 10638 4078 211 check 
6666 651 6082 0 fold 
5555 11530 8000 211 call 
1111 2000 6095 0 fold 
2222 1700 6077 0 fold 
total pot: 944 
/inquire 
send inquire msg to player 1111 
inquire/ 
2222 1700 6077 0 fold 
4444 1716 6000 211 check 
7777 606 6050 100 fold 
8888 1789 6043 211 check 
3333 10638 4078 211 check 
6666 651 6082 0 fold 
5555 11530 8000 211 call 
1111 2000 6095 0 fold 
total pot: 944 
/inquire 
send inquire msg to player 5555 
inquire/ 
1111 2000 6095 0 fold 
2222 1700 6077 0 fold 
4444 1716 6000 211 check 
7777 606 6050 100 fold 
8888 1789 6043 211 check 
3333 10638 4078 211 check 
6666 651 6082 0 fold 
5555 11530 8000 211 call 
total pot: 944 
/inquire 
recv from player 5555: check
turn/ 
HEARTS 2 
/turn 

---turn round bet---
valid player: 8, all in player: 0, fold player: 4
send inquire msg to player 3333 
inquire/ 
6666 651 6082 0 fold 
5555 11530 8000 211 check 
1111 2000 6095 0 fold 
2222 1700 6077 0 fold 
4444 1716 6000 211 check 
7777 606 6050 100 fold 
8888 1789 6043 211 check 
3333 10638 4078 211 check 
total pot: 944 
/inquire 
recv from player 3333: check
send inquire msg to player 8888 
inquire/ 
3333 10638 4078 211 check 
6666 651 6082 0 fold 
5555 11530 8000 211 check 
1111 2000 6095 0 fold 
2222 1700 6077 0 fold 
4444 1716 6000 211 check 
7777 606 6050 100 fold 
8888 1789 6043 211 check 
total pot: 944 
/inquire 
recv from player 8888: check
send inquire msg to player 7777 
inquire/ 
8888 1789 6043 211 check 
3333 10638 4078 211 check 
6666 651 6082 0 fold 
5555 11530 8000 211 check 
1111 2000 6095 0 fold 
2222 1700 6077 0 fold 
4444 1716 6000 211 check 
7777 606 6050 100 fold 
total pot: 944 
/inquire 
send inquire msg to player 4444 
inquire/ 
7777 606 6050 100 fold 
8888 1789 6043 211 check 
3333 10638 4078 211 check 
6666 651 6082 0 fold 
5555 11530 8000 211 check 
1111 2000 6095 0 fold 
2222 1700 6077 0 fold 
4444 1716 6000 211 check 
total pot: 944 
/inquire 
recv from player 4444: check
send inquire msg to player 2222 
inquire/ 
4444 1716 6000 211 check 
7777 606 6050 100 fold 
8888 1789 6043 211 check 
3333 10638 4078 211 check 
6666 651 6082 0 fold 
5555 11530 8000 211 check 
1111 2000 6095 0 fold 
2222 1700 6077 0 fold 
total pot: 944 
/inquire 
send inquire msg to player 1111 
inquire/ 
2222 1700 6077 0 fold 
4444 1716 6000 211 check 
7777 606 6050 100 fold 
8888 1789 6043 211 check 
3333 10638 4078 211 check 
6666 651 6082 0 fold 
5555 11530 8000 211 check 
1111 2000 6095 0 fold 
total pot: 944 
/inquire 
send inquire msg to player 5555 
inquire/ 
1111 2000 6095 0 fold 
2222 1700 6077 0 fold 
4444 1716 6000 211 check 
7777 606 6050 100 fold 
8888 1789 6043 211 check 
3333 10638 4078 211 check 
6666 651 6082 0 fold 
5555 11530 8000 211 check 
total pot: 944 
/inquire 
recv from player 5555: check
river/ 
HEARTS J 
/river 

---river round bet---
valid player: 8, all in player: 0, fold player: 4
send inquire msg to player 3333 
inquire/ 
6666 651 6082 0 fold 
5555 11530 8000 211 check 
1111 2000 6095 0 fold 
2222 1700 6077 0 fold 
4444 1716 6000 211 check 
7777 606 6050 100 fold 
8888 1789 6043 211 check 
3333 10638 4078 211 check 
total pot: 944 
/inquire 
recv from player 3333: check
send inquire msg to player 8888 
inquire/ 
3333 10638 4078 211 check 
6666 651 6082 0 fold 
5555 11530 8000 211 check 
1111 2000 6095 0 fold 
2222 1700 6077 0 fold 
4444 1716 6000 211 check 
7777 606 6050 100 fold 
8888 1789 6043 211 check 
total pot: 944 
/inquire 
recv from player 8888: check
send inquire msg to player 7777 
inquire/ 
8888 1789 6043 211 check 
3333 10638 4078 211 check 
6666 651 6082 0 fold 
5555 11530 8000 211 check 
1111 2000 6095 0 fold 
2222 1700 6077 0 fold 
4444 1716 6000 211 check 
7777 606 6050 100 fold 
total pot: 944 
/inquire 
send inquire msg to player 4444 
inquire/ 
7777 606 6050 100 fold 
8888 1789 6043 211 check 
3333 10638 4078 211 check 
6666 651 6082 0 fold 
5555 11530 8000 211 check 
1111 2000 6095 0 fold 
2222 1700 6077 0 fold 
4444 1716 6000 211 check 
total pot: 944 
/inquire 
recv from player 4444: check
send inquire msg to player 2222 
inquire/ 
4444 1716 6000 211 check 
7777 606 6050 100 fold 
8888 1789 6043 211 check 
3333 10638 4078 211 check 
6666 651 6082 0 fold 
5555 11530 8000 211 check 
1111 2000 6095 0 fold 
2222 1700 6077 0 fold 
total pot: 944 
/inquire 
send inquire msg to player 1111 
inquire/ 
2222 1700 6077 0 fold 
4444 1716 6000 211 check 
7777 606 6050 100 fold 
8888 1789 6043 211 check 
3333 10638 4078 211 check 
6666 651 6082 0 fold 
5555 11530 8000 211 check 
1111 2000 6095 0 fold 
total pot: 944 
/inquire 
send inquire msg to player 5555 
inquire/ 
1111 2000 6095 0 fold 
2222 1700 6077 0 fold 
4444 1716 6000 211 check 
7777 606 6050 100 fold 
8888 1789 6043 211 check 
3333 10638 4078 211 check 
6666 651 6082 0 fold 
5555 11530 8000 211 check 
total pot: 944 
/inquire 
recv from player 5555: check

---show down---
showdown/ 
common/ 
SPADES A 
HEARTS 6 
SPADES 9 
HEARTS 2 
HEARTS J 
/common 
1: 3333 SPADES J DIAMONDS 5 ONE_PAIR 
3: 8888 HEARTS 4 DIAMONDS Q HIGH_CARD 
4: 4444 CLUBS 3 CLUBS 7 HIGH_CARD 
2: 5555 HEARTS K SPADES 6 ONE_PAIR 
/showdown 

---Allocate pot---
pot-win/ 
3333: 944 
/pot-win 
it is player 3333's turn to be button

-----34 Hand-----

----- clean player data in socket -----
seat/ 
button: 3333 11582 4078 
small blind: 8888 1789 6043 
big blind: 7777 606 6050 
4444 1716 6000 
2222 1700 6077 
1111 2000 6095 
5555 11530 8000 
6666 651 6082 
/seat 
blind/ 
8888: 50 
7777: 100 
/blind 
player 8888:hold/ 
CLUBS 7 
HEARTS 9 
/hold 
player 7777:hold/ 
DIAMONDS 8 
HEARTS 4 
/hold 
player 4444:hold/ 
DIAMONDS Q 
CLUBS K 
/hold 
player 2222:hold/ 
DIAMONDS K 
DIAMONDS 6 
/hold 
player 1111:hold/ 
SPADES 10 
SPADES 7 
/hold 
player 5555:hold/ 
SPADES A 
DIAMONDS A 
/hold 
player 6666:hold/ 
SPADES 6 
CLUBS 6 
/hold 
player 3333:hold/ 
HEARTS 8 
DIAMONDS 7 
/hold 

---pre flop round bet---
valid player: 8, all in player: 0, fold player: 0
send inquire msg to player 4444 
inquire/ 
7777 506 6050 100 blind 
8888 1739 6043 50 blind 
total pot: 150 
/inquire 
recv from player 4444: raise 190
send inquire msg to player 2222 
inquire/ 
4444 1426 6000 290 raise 
7777 506 6050 100 blind 
8888 1739 6043 50 blind 
total pot: 440 
/inquire 
recv from player 2222: fold
send inquire msg to player 1111 
inquire/ 
2222 1700 6077 0 fold 
4444 1426 6000 290 raise 
7777 506 6050 100 blind 
8888 1739 6043 50 blind 
total pot: 440 
/inquire 
recv from player 1111: fold
send inquire msg to player 5555 
inquire/ 
1111 2000 6095 0 fold 
2222 1700 6077 0 fold 
4444 1426 6000 290 raise 
7777 506 6050 100 blind 
8888 1739 6043 50 blind 
total pot: 440 
/inquire 
recv from player 5555: check
send inquire msg to player 6666 
inquire/ 
5555 11240 8000 290 call 
1111 2000 6095 0 fold 
2222 1700 6077 0 fold 
4444 1426 6000 290 raise 
7777 506 6050 100 blind 
8888 1739 6043 50 blind 
total pot: 730 
/inquire 
recv from player 6666: fold
send inquire msg to player 3333 
inquire/ 
6666 651 6082 0 fold 
5555 11240 8000 290 call 
1111 2000 6095 0 fold 
2222 1700 6077 0 fold 
4444 1426 6000 290 raise 
7777 506 6050 100 blind 
8888 1739 6043 50 blind 
total pot: 730 
/inquire 
recv from player 3333: check
send inquire msg to player 8888 
inquire/ 
3333 11292 4078 290 call 
6666 651 6082 0 fold 
5555 11240 8000 290 call 
1111 2000 6095 0 fold 
2222 1700 6077 0 fold 
4444 1426 6000 290 raise 
7777 506 6050 100 blind 
8888 1739 6043 50 blind 
total pot: 1020 
/inquire 
recv from player 8888: check
send inquire msg to player 7777 
inquire/ 
8888 1499 6043 290 call 
3333 11292 4078 290 call 
6666 651 6082 0 fold 
5555 11240 8000 290 call 
1111 2000 6095 0 fold 
2222 1700 6077 0 fold 
4444 1426 6000 290 raise 
7777 506 6050 100 blind 
total pot: 1260 
/inquire 
recv from player 7777: fold
flop/ 
SPADES K 
DIAMONDS 9 
DIAMONDS J 
/flop 

---flop round bet---
valid player: 8, all in player: 0, fold player: 4
send inquire msg to player 8888 
inquire/ 
3333 11292 4078 290 call 
6666 651 6082 0 fold 
5555 11240 8000 290 call 
1111 2000 6095 0 fold 
2222 1700 6077 0 fold 
4444 1426 6000 290 raise 
7777 506 6050 100 fold 
8888 1499 6043 290 call 
total pot: 1260 
/inquire 
recv from player 8888: check
send inquire msg to player 7777 
inquire/ 
8888 1499 6043 290 check 
3333 11292 4078 290 call 
6666 651 6082 0 fold 
5555 11240 8000 290 call 
1111 2000 6095 0 fold 
2222 1700 6077 0 fold 
4444 1426 6000 290 raise 
7777 506 6050 100 fold 
total pot: 1260 
/inquire 
send inquire msg to player 4444 
inquire/ 
7777 506 6050 100 fold 
8888 1499 6043 290 check 
3333 11292 4078 290 call 
6666 651 6082 0 fold 
5555 11240 8000 290 call 
1111 2000 6095 0 fold 
2222 1700 6077 0 fold 
4444 1426 6000 290 raise 
total pot: 1260 
/inquire 
recv from player 4444: raise 143
send inquire msg to player 2222 
inquire/ 
4444 1283 6000 433 raise 
7777 506 6050 100 fold 
8888 1499 6043 290 check 
3333 11292 4078 290 call 
6666 651 6082 0 fold 
5555 11240 8000 290 call 
1111 2000 6095 0 fold 
2222 1700 6077 0 fold 
total pot: 1403 
/inquire 
send inquire msg to player 1111 
inquire/ 
2222 1700 6077 0 fold 
4444 1283 6000 433 raise 
7777 506 6050 100 fold 
8888 1499 6043 290 check 
3333 11292 4078 290 call 
6666 651 6082 0 fold 
5555 11240 8000 290 call 
1111 2000 6095 0 fold 
total pot: 1403 
/inquire 
send inquire msg to player 5555 
inquire/ 
1111 2000 6095 0 fold 
2222 1700 6077 0 fold 
4444 1283 6000 433 raise 
7777 506 6050 100 fold 
8888 1499 6043 290 check 
3333 11292 4078 290 call 
6666 651 6082 0 fold 
5555 11240 8000 290 call 
total pot: 1403 
/inquire 
recv from player 5555: raise 0
send inquire msg to player 6666 
inquire/ 
5555 10954 8000 576 raise 
1111 2000 6095 0 fold 
2222 1700 6077 0 fold 
4444 1283 6000 433 raise 
7777 506 6050 100 fold 
8888 1499 6043 290 check 
3333 11292 4078 290 call 
6666 651 6082 0 fold 
total pot: 1689 
/inquire 
send inquire msg to player 3333 
inquire/ 
6666 651 6082 0 fold 
5555 10954 8000 576 raise 
1111 2000 6095 0 fold 
2222 1700 6077 0 fold 
4444 1283 6000 433 raise 
7777 506 6050 100 fold 
8888 1499 6043 290 check 
3333 11292 4078 290 call 
total pot: 1689 
/inquire 
recv from player 3333: check
send inquire msg to player 8888 
inquire/ 
3333 11006 4078 576 call 
6666 651 6082 0 fold 
5555 10954 8000 576 raise 
1111 2000 6095 0 fold 
2222 1700 6077 0 fold 
4444 1283 6000 433 raise 
7777 506 6050 100 fold 
8888 1499 6043 290 check 
total pot: 1975 
/inquire 
recv from player 8888: check
send inquire msg to player 7777 
inquire/ 
8888 1213 6043 576 call 
3333 11006 4078 576 call 
6666 651 6082 0 fold 
5555 10954 8000 576 raise 
1111 2000 6095 0 fold 
2222 1700 6077 0 fold 
4444 1283 6000 433 raise 
7777 506 6050 100 fold 
total pot: 2261 
/inquire 
send inquire msg to player 4444 
inquire/ 
7777 506 6050 100 fold 
8888 1213 6043 576 call 
3333 11006 4078 576 call 
6666 651 6082 0 fold 
5555 10954 8000 576 raise 
1111 2000 6095 0 fold 
2222 1700 6077 0 fold 
4444 1283 6000 433 raise 
total pot: 2261 
/inquire 
recv from player 4444: check
turn/ 
HEARTS 3 
/turn 

---turn round bet---
valid player: 8, all in player: 0, fold player: 4
send inquire msg to player 8888 
inquire/ 
3333 11006 4078 576 call 
6666 651 6082 0 fold 
5555 10954 8000 576 raise 
1111 2000 6095 0 fold 
2222 1700 6077 0 fold 
4444 1140 6000 576 call 
7777 506 6050 100 fold 
8888 1213 6043 576 call 
total pot: 2404 
/inquire 
recv from player 8888: check
send inquire msg to player 7777 
inquire/ 
8888 1213 6043 576 check 
3333 11006 4078 576 call 
6666 651 6082 0 fold 
5555 10954 8000 576 raise 
1111 2000 6095 0 fold 
2222 1700 6077 0 fold 
4444 1140 6000 576 call 
7777 506 6050 100 fold 
total pot: 2404 
/inquire 
send inquire msg to player 4444 
inquire/ 
7777 506 6050 100 fold 
8888 1213 6043 576 check 
3333 11006 4078 576 call 
6666 651 6082 0 fold 
5555 10954 8000 576 raise 
1111 2000 6095 0 fold 
2222 1700 6077 0 fold 
4444 1140 6000 576 call 
total pot: 2404 
/inquire 
recv from player 4444: check
send inquire msg to player 2222 
inquire/ 
4444 1140 6000 576 check 
7777 506 6050 100 fold 
8888 1213 6043 576 check 
3333 11006 4078 576 call 
6666 651 6082 0 fold 
5555 10954 8000 576 raise 
1111 2000 6095 0 fold 
2222 1700 6077 0 fold 
total pot: 2404 
/inquire 
send inquire msg to player 1111 
inquire/ 
2222 1700 6077 0 fold 
4444 1140 6000 576 check 
7777 506 6050 100 fold 
8888 1213 6043 576 check 
3333 11006 4078 576 call 
6666 651 6082 0 fold 
5555 10954 8000 576 raise 
1111 2000 6095 0 fold 
total pot: 2404 
/inquire 
send inquire msg to player 5555 
inquire/ 
1111 2000 6095 0 fold 
2222 1700 6077 0 fold 
4444 1140 6000 576 check 
7777 506 6050 100 fold 
8888 1213 6043 576 check 
3333 11006 4078 576 call 
6666 651 6082 0 fold 
5555 10954 8000 576 raise 
total pot: 2404 
/inquire 
recv from player 5555: raise 0
send inquire msg to player 6666 
inquire/ 
5555 10854 8000 676 raise 
1111 2000 6095 0 fold 
2222 1700 6077 0 fold 
4444 1140 6000 576 check 
7777 506 6050 100 fold 
8888 1213 6043 576 check 
3333 11006 4078 576 call 
6666 651 6082 0 fold 
total pot: 2504 
/inquire 
send inquire msg to player 3333 
inquire/ 
6666 651 6082 0 fold 
5555 10854 8000 676 raise 
1111 2000 6095 0 fold 
2222 1700 6077 0 fold 
4444 1140 6000 576 check 
7777 506 6050 100 fold 
8888 1213 6043 576 check 
3333 11006 4078 576 call 
total pot: 2504 
/inquire 
recv from player 3333: check
send inquire msg to player 8888 
inquire/ 
3333 10906 4078 676 call 
6666 651 6082 0 fold 
5555 10854 8000 676 raise 
1111 2000 6095 0 fold 
2222 1700 6077 0 fold 
4444 1140 6000 576 check 
7777 506 6050 100 fold 
8888 1213 6043 576 check 
total pot: 2604 
/inquire 
recv from player 8888: check
send inquire msg to player 7777 
inquire/ 
8888 1113 6043 676 call 
3333 10906 4078 676 call 
6666 651 6082 0 fold 
5555 10854 8000 676 raise 
1111 2000 6095 0 fold 
2222 1700 6077 0 fold 
4444 1140 6000 576 check 
7777 506 6050 100 fold 
total pot: 2704 
/inquire 
send inquire msg to player 4444 
inquire/ 
7777 506 6050 100 fold 
8888 1113 6043 676 call 
3333 10906 4078 676 call 
6666 651 6082 0 fold 
5555 10854 8000 676 raise 
1111 2000 6095 0 fold 
2222 1700 6077 0 fold 
4444 1140 6000 576 check 
total pot: 2704 
/inquire 
recv from player 4444: check
river/ 
CLUBS 10 
/river 

---river round bet---
valid player: 8, all in player: 0, fold player: 4
send inquire msg to player 8888 
inquire/ 
3333 10906 4078 676 call 
6666 651 6082 0 fold 
5555 10854 8000 676 raise 
1111 2000 6095 0 fold 
2222 1700 6077 0 fold 
4444 1040 6000 676 call 
7777 506 6050 100 fold 
8888 1113 6043 676 call 
total pot: 2804 
/inquire 
recv from player 8888: check
send inquire msg to player 7777 
inquire/ 
8888 1113 6043 676 check 
3333 10906 4078 676 call 
6666 651 6082 0 fold 
5555 10854 8000 676 raise 
1111 2000 6095 0 fold 
2222 1700 6077 0 fold 
4444 1040 6000 676 call 
7777 506 6050 100 fold 
total pot: 2804 
/inquire 
send inquire msg to player 4444 
inquire/ 
7777 506 6050 100 fold 
8888 1113 6043 676 check 
3333 10906 4078 676 call 
6666 651 6082 0 fold 
5555 10854 8000 676 raise 
1111 2000 6095 0 fold 
2222 1700 6077 0 fold 
4444 1040 6000 676 call 
total pot: 2804 
/inquire 
recv from player 4444: check
send inquire msg to player 2222 
inquire/ 
4444 1040 6000 676 check 
7777 506 6050 100 fold 
8888 1113 6043 676 check 
3333 10906 4078 676 call 
6666 651 6082 0 fold 
5555 10854 8000 676 raise 
1111 2000 6095 0 fold 
2222 1700 6077 0 fold 
total pot: 2804 
/inquire 
send inquire msg to player 1111 
inquire/ 
2222 1700 6077 0 fold 
4444 1040 6000 676 check 
7777 506 6050 100 fold 
8888 1113 6043 676 check 
3333 10906 4078 676 call 
6666 651 6082 0 fold 
5555 10854 8000 676 raise 
1111 2000 6095 0 fold 
total pot: 2804 
/inquire 
send inquire msg to player 5555 
inquire/ 
1111 2000 6095 0 fold 
2222 1700 6077 0 fold 
4444 1040 6000 676 check 
7777 506 6050 100 fold 
8888 1113 6043 676 check 
3333 10906 4078 676 call 
6666 651 6082 0 fold 
5555 10854 8000 676 raise 
total pot: 2804 
/inquire 
recv from player 5555: raise 0
send inquire msg to player 6666 
inquire/ 
5555 10754 8000 776 raise 
1111 2000 6095 0 fold 
2222 1700 6077 0 fold 
4444 1040 6000 676 check 
7777 506 6050 100 fold 
8888 1113 6043 676 check 
3333 10906 4078 676 call 
6666 651 6082 0 fold 
total pot: 2904 
/inquire 
send inquire msg to player 3333 
inquire/ 
6666 651 6082 0 fold 
5555 10754 8000 776 raise 
1111 2000 6095 0 fold 
2222 1700 6077 0 fold 
4444 1040 6000 676 check 
7777 506 6050 100 fold 
8888 1113 6043 676 check 
3333 10906 4078 676 call 
total pot: 2904 
/inquire 
recv from player 3333: check
send inquire msg to player 8888 
inquire/ 
3333 10806 4078 776 call 
6666 651 6082 0 fold 
5555 10754 8000 776 raise 
1111 2000 6095 0 fold 
2222 1700 6077 0 fold 
4444 1040 6000 676 check 
7777 506 6050 100 fold 
8888 1113 6043 676 check 
total pot: 3004 
/inquire 
recv from player 8888: check
send inquire msg to player 7777 
inquire/ 
8888 1013 6043 776 call 
3333 10806 4078 776 call 
6666 651 6082 0 fold 
5555 10754 8000 776 raise 
1111 2000 6095 0 fold 
2222 1700 6077 0 fold 
4444 1040 6000 676 check 
7777 506 6050 100 fold 
total pot: 3104 
/inquire 
send inquire msg to player 4444 
inquire/ 
7777 506 6050 100 fold 
8888 1013 6043 776 call 
3333 10806 4078 776 call 
6666 651 6082 0 fold 
5555 10754 8000 776 raise 
1111 2000 6095 0 fold 
2222 1700 6077 0 fold 
4444 1040 6000 676 check 
total pot: 3104 
/inquire 
recv from player 4444: check

---show down---
showdown/ 
common/ 
SPADES K 
DIAMONDS 9 
DIAMONDS J 
HEARTS 3 
CLUBS 10 
/common 
4: 8888 CLUBS 7 HEARTS 9 ONE_PAIR 
1: 4444 DIAMONDS Q CLUBS K STRAIGHT 
3: 5555 SPADES A DIAMONDS A ONE_PAIR 
2: 3333 HEARTS 8 DIAMONDS 7 STRAIGHT 
/showdown 

---Allocate pot---
pot-win/ 
4444: 3204 
/pot-win 
it is player 8888's turn to be button

-----35 Hand-----

----- clean player data in socket -----
seat/ 
button: 8888 1013 6043 
small blind: 7777 506 6050 
big blind: 4444 4144 6000 
2222 1700 6077 
1111 2000 6095 
5555 10754 8000 
6666 651 6082 
3333 10806 4078 
/seat 
blind/ 
7777: 50 
4444: 100 
/blind 
player 7777:hold/ 
CLUBS 7 
HEARTS 7 
/hold 
player 4444:hold/ 
CLUBS J 
SPADES Q 
/hold 
player 2222:hold/ 
CLUBS 8 
HEARTS 4 
/hold 
player 1111:hold/ 
SPADES K 
SPADES J 
/hold 
player 5555:hold/ 
SPADES A 
DIAMONDS J 
/hold 
player 6666:hold/ 
DIAMONDS 2 
SPADES 4 
/hold 
player 3333:hold/ 
SPADES 8 
CLUBS 3 
/hold 
player 8888:hold/ 
HEARTS K 
HEARTS J 
/hold 

---pre flop round bet---
valid player: 8, all in player: 0, fold player: 0
send inquire msg to player 2222 
inquire/ 
4444 4044 6000 100 blind 
7777 456 6050 50 blind 
total pot: 150 
/inquire 
recv from player 2222: fold
send inquire msg to player 1111 
inquire/ 
2222 1700 6077 0 fold 
4444 4044 6000 100 blind 
7777 456 6050 50 blind 
total pot: 150 
/inquire 
recv from player 1111: fold
send inquire msg to player 5555 
inquire/ 
1111 2000 6095 0 fold 
2222 1700 6077 0 fold 
4444 4044 6000 100 blind 
7777 456 6050 50 blind 
total pot: 150 
/inquire 
recv from player 5555: check
send inquire msg to player 6666 
inquire/ 
5555 10654 8000 100 call 
1111 2000 6095 0 fold 
2222 1700 6077 0 fold 
4444 4044 6000 100 blind 
7777 456 6050 50 blind 
total pot: 250 
/inquire 
recv from player 6666: fold
send inquire msg to player 3333 
inquire/ 
6666 651 6082 0 fold 
5555 10654 8000 100 call 
1111 2000 6095 0 fold 
2222 1700 6077 0 fold 
4444 4044 6000 100 blind 
7777 456 6050 50 blind 
total pot: 250 
/inquire 
recv from player 3333: check
send inquire msg to player 8888 
inquire/ 
3333 10706 4078 100 call 
6666 651 6082 0 fold 
5555 10654 8000 100 call 
1111 2000 6095 0 fold 
2222 1700 6077 0 fold 
4444 4044 6000 100 blind 
7777 456 6050 50 blind 
total pot: 350 
/inquire 
recv from player 8888: check
send inquire msg to player 7777 
inquire/ 
8888 913 6043 100 call 
3333 10706 4078 100 call 
6666 651 6082 0 fold 
5555 10654 8000 100 call 
1111 2000 6095 0 fold 
2222 1700 6077 0 fold 
4444 4044 6000 100 blind 
7777 456 6050 50 blind 
total pot: 450 
/inquire 
recv from player 7777: check
send inquire msg to player 4444 
inquire/ 
7777 406 6050 100 call 
8888 913 6043 100 call 
3333 10706 4078 100 call 
6666 651 6082 0 fold 
5555 10654 8000 100 call 
1111 2000 6095 0 fold 
2222 1700 6077 0 fold 
4444 4044 6000 100 blind 
total pot: 500 
/inquire 
recv from player 4444: raise 297
send inquire msg to player 2222 
inquire/ 
4444 3747 6000 397 raise 
7777 406 6050 100 call 
8888 913 6043 100 call 
3333 10706 4078 100 call 
6666 651 6082 0 fold 
5555 10654 8000 100 call 
1111 2000 6095 0 fold 
2222 1700 6077 0 fold 
total pot: 797 
/inquire 
send inquire msg to player 1111 
inquire/ 
2222 1700 6077 0 fold 
4444 3747 6000 397 raise 
7777 406 6050 100 call 
8888 913 6043 100 call 
3333 10706 4078 100 call 
6666 651 6082 0 fold 
5555 10654 8000 100 call 
1111 2000 6095 0 fold 
total pot: 797 
/inquire 
send inquire msg to player 5555 
inquire/ 
1111 2000 6095 0 fold 
2222 1700 6077 0 fold 
4444 3747 6000 397 raise 
7777 406 6050 100 call 
8888 913 6043 100 call 
3333 10706 4078 100 call 
6666 651 6082 0 fold 
5555 10654 8000 100 call 
total pot: 797 
/inquire 
recv from player 5555: raise 0
send inquire msg to player 6666 
inquire/ 
5555 10060 8000 694 raise 
1111 2000 6095 0 fold 
2222 1700 6077 0 fold 
4444 3747 6000 397 raise 
7777 406 6050 100 call 
8888 913 6043 100 call 
3333 10706 4078 100 call 
6666 651 6082 0 fold 
total pot: 1391 
/inquire 
send inquire msg to player 3333 
inquire/ 
6666 651 6082 0 fold 
5555 10060 8000 694 raise 
1111 2000 6095 0 fold 
2222 1700 6077 0 fold 
4444 3747 6000 397 raise 
7777 406 6050 100 call 
8888 913 6043 100 call 
3333 10706 4078 100 call 
total pot: 1391 
/inquire 
recv from player 3333: check
send inquire msg to player 8888 
inquire/ 
3333 10112 4078 694 call 
6666 651 6082 0 fold 
5555 10060 8000 694 raise 
1111 2000 6095 0 fold 
2222 1700 6077 0 fold 
4444 3747 6000 397 raise 
7777 406 6050 100 call 
8888 913 6043 100 call 
total pot: 1985 
/inquire 
recv from player 8888: check
send inquire msg to player 7777 
inquire/ 
8888 319 6043 694 call 
3333 10112 4078 694 call 
6666 651 6082 0 fold 
5555 10060 8000 694 raise 
1111 2000 6095 0 fold 
2222 1700 6077 0 fold 
4444 3747 6000 397 raise 
7777 406 6050 100 call 
total pot: 2579 
/inquire 
recv from player 7777: check
send inquire msg to player 4444 
inquire/ 
7777 0 6050 506 all_in 
8888 319 6043 694 call 
3333 10112 4078 694 call 
6666 651 6082 0 fold 
5555 10060 8000 694 raise 
1111 2000 6095 0 fold 
2222 1700 6077 0 fold 
4444 3747 6000 397 raise 
total pot: 2985 
/inquire 
recv from player 4444: check
flop/ 
CLUBS 6 
DIAMONDS 9 
HEARTS 3 
/flop 

---flop round bet---
valid player: 8, all in player: 1, fold player: 3
send inquire msg to player 7777 
inquire/ 
8888 319 6043 694 call 
3333 10112 4078 694 call 
6666 651 6082 0 fold 
5555 10060 8000 694 raise 
1111 2000 6095 0 fold 
2222 1700 6077 0 fold 
4444 3450 6000 694 call 
7777 0 6050 506 all_in 
total pot: 3282 
/inquire 
send inquire msg to player 4444 
inquire/ 
7777 0 6050 506 all_in 
8888 319 6043 694 call 
3333 10112 4078 694 call 
6666 651 6082 0 fold 
5555 10060 8000 694 raise 
1111 2000 6095 0 fold 
2222 1700 6077 0 fold 
4444 3450 6000 694 call 
total pot: 3282 
/inquire 
recv from player 4444: check
send inquire msg to player 2222 
inquire/ 
4444 3450 6000 694 check 
7777 0 6050 506 all_in 
8888 319 6043 694 call 
3333 10112 4078 694 call 
6666 651 6082 0 fold 
5555 10060 8000 694 raise 
1111 2000 6095 0 fold 
2222 1700 6077 0 fold 
total pot: 3282 
/inquire 
send inquire msg to player 1111 
inquire/ 
2222 1700 6077 0 fold 
4444 3450 6000 694 check 
7777 0 6050 506 all_in 
8888 319 6043 694 call 
3333 10112 4078 694 call 
6666 651 6082 0 fold 
5555 10060 8000 694 raise 
1111 2000 6095 0 fold 
total pot: 3282 
/inquire 
send inquire msg to player 5555 
inquire/ 
1111 2000 6095 0 fold 
2222 1700 6077 0 fold 
4444 3450 6000 694 check 
7777 0 6050 506 all_in 
8888 319 6043 694 call 
3333 10112 4078 694 call 
6666 651 6082 0 fold 
5555 10060 8000 694 raise 
total pot: 3282 
/inquire 
recv from player 5555: check
send inquire msg to player 6666 
inquire/ 
5555 10060 8000 694 check 
1111 2000 6095 0 fold 
2222 1700 6077 0 fold 
4444 3450 6000 694 check 
7777 0 6050 506 all_in 
8888 319 6043 694 call 
3333 10112 4078 694 call 
6666 651 6082 0 fold 
total pot: 3282 
/inquire 
send inquire msg to player 3333 
inquire/ 
6666 651 6082 0 fold 
5555 10060 8000 694 check 
1111 2000 6095 0 fold 
2222 1700 6077 0 fold 
4444 3450 6000 694 check 
7777 0 6050 506 all_in 
8888 319 6043 694 call 
3333 10112 4078 694 call 
total pot: 3282 
/inquire 
recv from player 3333: check
send inquire msg to player 8888 
inquire/ 
3333 10112 4078 694 check 
6666 651 6082 0 fold 
5555 10060 8000 694 check 
1111 2000 6095 0 fold 
2222 1700 6077 0 fold 
4444 3450 6000 694 check 
7777 0 6050 506 all_in 
8888 319 6043 694 call 
total pot: 3282 
/inquire 
recv from player 8888: check
turn/ 
SPADES 7 
/turn 

---turn round bet---
valid player: 8, all in player: 1, fold player: 3
send inquire msg to player 7777 
inquire/ 
8888 319 6043 694 check 
3333 10112 4078 694 check 
6666 651 6082 0 fold 
5555 10060 8000 694 check 
1111 2000 6095 0 fold 
2222 1700 6077 0 fold 
4444 3450 6000 694 check 
7777 0 6050 506 all_in 
total pot: 3282 
/inquire 
send inquire msg to player 4444 
inquire/ 
7777 0 6050 506 all_in 
8888 319 6043 694 check 
3333 10112 4078 694 check 
6666 651 6082 0 fold 
5555 10060 8000 694 check 
1111 2000 6095 0 fold 
2222 1700 6077 0 fold 
4444 3450 6000 694 check 
total pot: 3282 
/inquire 
recv from player 4444: check
send inquire msg to player 2222 
inquire/ 
4444 3450 6000 694 check 
7777 0 6050 506 all_in 
8888 319 6043 694 check 
3333 10112 4078 694 check 
6666 651 6082 0 fold 
5555 10060 8000 694 check 
1111 2000 6095 0 fold 
2222 1700 6077 0 fold 
total pot: 3282 
/inquire 
send inquire msg to player 1111 
inquire/ 
2222 1700 6077 0 fold 
4444 3450 6000 694 check 
7777 0 6050 506 all_in 
8888 319 6043 694 check 
3333 10112 4078 694 check 
6666 651 6082 0 fold 
5555 10060 8000 694 check 
1111 2000 6095 0 fold 
total pot: 3282 
/inquire 
send inquire msg to player 5555 
inquire/ 
1111 2000 6095 0 fold 
2222 1700 6077 0 fold 
4444 3450 6000 694 check 
7777 0 6050 506 all_in 
8888 319 6043 694 check 
3333 10112 4078 694 check 
6666 651 6082 0 fold 
5555 10060 8000 694 check 
total pot: 3282 
/inquire 
recv from player 5555: raise 0
send inquire msg to player 6666 
inquire/ 
5555 9960 8000 794 raise 
1111 2000 6095 0 fold 
2222 1700 6077 0 fold 
4444 3450 6000 694 check 
7777 0 6050 506 all_in 
8888 319 6043 694 check 
3333 10112 4078 694 check 
6666 651 6082 0 fold 
total pot: 3382 
/inquire 
send inquire msg to player 3333 
inquire/ 
6666 651 6082 0 fold 
5555 9960 8000 794 raise 
1111 2000 6095 0 fold 
2222 1700 6077 0 fold 
4444 3450 6000 694 check 
7777 0 6050 506 all_in 
8888 319 6043 694 check 
3333 10112 4078 694 check 
total pot: 3382 
/inquire 
recv from player 3333: check
send inquire msg to player 8888 
inquire/ 
3333 10012 4078 794 call 
6666 651 6082 0 fold 
5555 9960 8000 794 raise 
1111 2000 6095 0 fold 
2222 1700 6077 0 fold 
4444 3450 6000 694 check 
7777 0 6050 506 all_in 
8888 319 6043 694 check 
total pot: 3482 
/inquire 
recv from player 8888: check
send inquire msg to player 7777 
inquire/ 
8888 219 6043 794 call 
3333 10012 4078 794 call 
6666 651 6082 0 fold 
5555 9960 8000 794 raise 
1111 2000 6095 0 fold 
2222 1700 6077 0 fold 
4444 3450 6000 694 check 
7777 0 6050 506 all_in 
total pot: 3582 
/inquire 
send inquire msg to player 4444 
inquire/ 
7777 0 6050 506 all_in 
8888 219 6043 794 call 
3333 10012 4078 794 call 
6666 651 6082 0 fold 
5555 9960 8000 794 raise 
1111 2000 6095 0 fold 
2222 1700 6077 0 fold 
4444 3450 6000 694 check 
total pot: 3582 
/inquire 
recv from player 4444: check
river/ 
DIAMONDS 5 
/river 

---river round bet---
valid player: 8, all in player: 1, fold player: 3
send inquire msg to player 7777 
inquire/ 
8888 219 6043 794 call 
3333 10012 4078 794 call 
6666 651 6082 0 fold 
5555 9960 8000 794 raise 
1111 2000 6095 0 fold 
2222 1700 6077 0 fold 
4444 3350 6000 794 call 
7777 0 6050 506 all_in 
total pot: 3682 
/inquire 
send inquire msg to player 4444 
inquire/ 
7777 0 6050 506 all_in 
8888 219 6043 794 call 
3333 10012 4078 794 call 
6666 651 6082 0 fold 
5555 9960 8000 794 raise 
1111 2000 6095 0 fold 
2222 1700 6077 0 fold 
4444 3350 6000 794 call 
total pot: 3682 
/inquire 
recv from player 4444: check
send inquire msg to player 2222 
inquire/ 
4444 3350 6000 794 check 
7777 0 6050 506 all_in 
8888 219 6043 794 call 
3333 10012 4078 794 call 
6666 651 6082 0 fold 
5555 9960 8000 794 raise 
1111 2000 6095 0 fold 
2222 1700 6077 0 fold 
total pot: 3682 
/inquire 
send inquire msg to player 1111 
inquire/ 
2222 1700 6077 0 fold 
4444 3350 6000 794 check 
7777 0 6050 506 all_in 
8888 219 6043 794 call 
3333 10012 4078 794 call 
6666 651 6082 0 fold 
5555 9960 8000 794 raise 
1111 2000 6095 0 fold 
total pot: 3682 
/inquire 
send inquire msg to player 5555 
inquire/ 
1111 2000 6095 0 fold 
2222 1700 6077 0 fold 
4444 3350 6000 794 check 
7777 0 6050 506 all_in 
8888 219 6043 794 call 
3333 10012 4078 794 call 
6666 651 6082 0 fold 
5555 9960 8000 794 raise 
total pot: 3682 
/inquire 
recv from player 5555: raise 0
send inquire msg to player 6666 
inquire/ 
5555 9860 8000 894 raise 
1111 2000 6095 0 fold 
2222 1700 6077 0 fold 
4444 3350 6000 794 check 
7777 0 6050 506 all_in 
8888 219 6043 794 call 
3333 10012 4078 794 call 
6666 651 6082 0 fold 
total pot: 3782 
/inquire 
send inquire msg to player 3333 
inquire/ 
6666 651 6082 0 fold 
5555 9860 8000 894 raise 
1111 2000 6095 0 fold 
2222 1700 6077 0 fold 
4444 3350 6000 794 check 
7777 0 6050 506 all_in 
8888 219 6043 794 call 
3333 10012 4078 794 call 
total pot: 3782 
/inquire 
recv from player 3333: check
send inquire msg to player 8888 
inquire/ 
3333 9912 4078 894 call 
6666 651 6082 0 fold 
5555 9860 8000 894 raise 
1111 2000 6095 0 fold 
2222 1700 6077 0 fold 
4444 3350 6000 794 check 
7777 0 6050 506 all_in 
8888 219 6043 794 call 
total pot: 3882 
/inquire 
recv from player 8888: check
send inquire msg to player 7777 
inquire/ 
8888 119 6043 894 call 
3333 9912 4078 894 call 
6666 651 6082 0 fold 
5555 9860 8000 894 raise 
1111 2000 6095 0 fold 
2222 1700 6077 0 fold 
4444 3350 6000 794 check 
7777 0 6050 506 all_in 
total pot: 3982 
/inquire 
send inquire msg to player 4444 
inquire/ 
7777 0 6050 506 all_in 
8888 119 6043 894 call 
3333 9912 4078 894 call 
6666 651 6082 0 fold 
5555 9860 8000 894 raise 
1111 2000 6095 0 fold 
2222 1700 6077 0 fold 
4444 3350 6000 794 check 
total pot: 3982 
/inquire 
recv from player 4444: check

---show down---
showdown/ 
common/ 
CLUBS 6 
DIAMONDS 9 
HEARTS 3 
SPADES 7 
DIAMONDS 5 
/common 
2: 7777 CLUBS 7 HEARTS 7 THREE_OF_A_KIND 
5: 4444 CLUBS J SPADES Q HIGH_CARD 
3: 5555 SPADES A DIAMONDS J HIGH_CARD 
1: 3333 SPADES 8 CLUBS 3 STRAIGHT 
4: 8888 HEARTS K HEARTS J HIGH_CARD 
/showdown 

---Allocate pot---
pot-win/ 
3333: 4082 
/pot-win 
it is player 7777's turn to be button

-----36 Hand-----

----- clean player data in socket -----
seat/ 
button: 7777 2000 4050 
small blind: 4444 3250 6000 
big blind: 2222 1700 6077 
1111 2000 6095 
5555 9860 8000 
6666 651 6082 
3333 13994 4078 
8888 119 6043 
/seat 
blind/ 
4444: 50 
2222: 100 
/blind 
player 4444:hold/ 
SPADES 3 
SPADES J 
/hold 
player 2222:hold/ 
CLUBS 6 
DIAMONDS 5 
/hold 
player 1111:hold/ 
DIAMONDS 2 
DIAMONDS 6 
/hold 
player 5555:hold/ 
SPADES 2 
CLUBS K 
/hold 
player 6666:hold/ 
CLUBS 2 
HEARTS 6 
/hold 
player 3333:hold/ 
HEARTS 10 
SPADES Q 
/hold 
player 8888:hold/ 
SPADES 7 
DIAMONDS A 
/hold 
player 7777:hold/ 
CLUBS 9 
CLUBS Q 
/hold 

---pre flop round bet---
valid player: 8, all in player: 0, fold player: 0
send inquire msg to player 1111 
inquire/ 
2222 1600 6077 100 blind 
4444 3200 6000 50 blind 
total pot: 150 
/inquire 
recv from player 1111: fold
send inquire msg to player 5555 
inquire/ 
1111 2000 6095 0 fold 
2222 1600 6077 100 blind 
4444 3200 6000 50 blind 
total pot: 150 
/inquire 
recv from player 5555: check
send inquire msg to player 6666 
inquire/ 
5555 9760 8000 100 call 
1111 2000 6095 0 fold 
2222 1600 6077 100 blind 
4444 3200 6000 50 blind 
total pot: 250 
/inquire 
recv from player 6666: fold
send inquire msg to player 3333 
inquire/ 
6666 651 6082 0 fold 
5555 9760 8000 100 call 
1111 2000 6095 0 fold 
2222 1600 6077 100 blind 
4444 3200 6000 50 blind 
total pot: 250 
/inquire 
recv from player 3333: check
send inquire msg to player 8888 
inquire/ 
3333 13894 4078 100 call 
6666 651 6082 0 fold 
5555 9760 8000 100 call 
1111 2000 6095 0 fold 
2222 1600 6077 100 blind 
4444 3200 6000 50 blind 
total pot: 350 
/inquire 
recv from player 8888: check
send inquire msg to player 7777 
inquire/ 
8888 19 6043 100 call 
3333 13894 4078 100 call 
6666 651 6082 0 fold 
5555 9760 8000 100 call 
1111 2000 6095 0 fold 
2222 1600 6077 100 blind 
4444 3200 6000 50 blind 
total pot: 450 
/inquire 
recv from player 7777: check
send inquire msg to player 4444 
inquire/ 
7777 1900 4050 100 call 
8888 19 6043 100 call 
3333 13894 4078 100 call 
6666 651 6082 0 fold 
5555 9760 8000 100 call 
1111 2000 6095 0 fold 
2222 1600 6077 100 blind 
4444 3200 6000 50 blind 
total pot: 550 
/inquire 
recv from player 4444: check
send inquire msg to player 2222 
inquire/ 
4444 3150 6000 100 call 
7777 1900 4050 100 call 
8888 19 6043 100 call 
3333 13894 4078 100 call 
6666 651 6082 0 fold 
5555 9760 8000 100 call 
1111 2000 6095 0 fold 
2222 1600 6077 100 blind 
total pot: 600 
/inquire 
recv from player 2222: check
flop/ 
HEARTS Q 
CLUBS 5 
CLUBS J 
/flop 

---flop round bet---
valid player: 8, all in player: 0, fold player: 2
send inquire msg to player 4444 
inquire/ 
7777 1900 4050 100 call 
8888 19 6043 100 call 
3333 13894 4078 100 call 
6666 651 6082 0 fold 
5555 9760 8000 100 call 
1111 2000 6095 0 fold 
2222 1600 6077 100 check 
4444 3150 6000 100 call 
total pot: 600 
/inquire 
recv from player 4444: raise 32
send inquire msg to player 2222 
inquire/ 
4444 3050 6000 200 raise 
7777 1900 4050 100 call 
8888 19 6043 100 call 
3333 13894 4078 100 call 
6666 651 6082 0 fold 
5555 9760 8000 100 call 
1111 2000 6095 0 fold 
2222 1600 6077 100 check 
total pot: 700 
/inquire 
recv from player 2222: fold
send inquire msg to player 1111 
inquire/ 
2222 1600 6077 100 fold 
4444 3050 6000 200 raise 
7777 1900 4050 100 call 
8888 19 6043 100 call 
3333 13894 4078 100 call 
6666 651 6082 0 fold 
5555 9760 8000 100 call 
1111 2000 6095 0 fold 
total pot: 700 
/inquire 
send inquire msg to player 5555 
inquire/ 
1111 2000 6095 0 fold 
2222 1600 6077 100 fold 
4444 3050 6000 200 raise 
7777 1900 4050 100 call 
8888 19 6043 100 call 
3333 13894 4078 100 call 
6666 651 6082 0 fold 
5555 9760 8000 100 call 
total pot: 700 
/inquire 
recv from player 5555: raise 0
send inquire msg to player 6666 
inquire/ 
5555 9560 8000 300 raise 
1111 2000 6095 0 fold 
2222 1600 6077 100 fold 
4444 3050 6000 200 raise 
7777 1900 4050 100 call 
8888 19 6043 100 call 
3333 13894 4078 100 call 
6666 651 6082 0 fold 
total pot: 900 
/inquire 
send inquire msg to player 3333 
inquire/ 
6666 651 6082 0 fold 
5555 9560 8000 300 raise 
1111 2000 6095 0 fold 
2222 1600 6077 100 fold 
4444 3050 6000 200 raise 
7777 1900 4050 100 call 
8888 19 6043 100 call 
3333 13894 4078 100 call 
total pot: 900 
/inquire 
recv from player 3333: check
send inquire msg to player 8888 
inquire/ 
3333 13694 4078 300 call 
6666 651 6082 0 fold 
5555 9560 8000 300 raise 
1111 2000 6095 0 fold 
2222 1600 6077 100 fold 
4444 3050 6000 200 raise 
7777 1900 4050 100 call 
8888 19 6043 100 call 
total pot: 1100 
/inquire 
recv from player 8888: check
send inquire msg to player 7777 
inquire/ 
8888 0 6043 119 all_in 
3333 13694 4078 300 call 
6666 651 6082 0 fold 
5555 9560 8000 300 raise 
1111 2000 6095 0 fold 
2222 1600 6077 100 fold 
4444 3050 6000 200 raise 
7777 1900 4050 100 call 
total pot: 1119 
/inquire 
recv from player 7777: check
send inquire msg to player 4444 
inquire/ 
7777 1700 4050 300 call 
8888 0 6043 119 all_in 
3333 13694 4078 300 call 
6666 651 6082 0 fold 
5555 9560 8000 300 raise 
1111 2000 6095 0 fold 
2222 1600 6077 100 fold 
4444 3050 6000 200 raise 
total pot: 1319 
/inquire 
recv from player 4444: check
turn/ 
DIAMONDS 9 
/turn 

---turn round bet---
valid player: 8, all in player: 1, fold player: 3
send inquire msg to player 4444 
inquire/ 
7777 1700 4050 300 call 
8888 0 6043 119 all_in 
3333 13694 4078 300 call 
6666 651 6082 0 fold 
5555 9560 8000 300 raise 
1111 2000 6095 0 fold 
2222 1600 6077 100 fold 
4444 2950 6000 300 call 
total pot: 1419 
/inquire 
recv from player 4444: check
send inquire msg to player 2222 
inquire/ 
4444 2950 6000 300 check 
7777 1700 4050 300 call 
8888 0 6043 119 all_in 
3333 13694 4078 300 call 
6666 651 6082 0 fold 
5555 9560 8000 300 raise 
1111 2000 6095 0 fold 
2222 1600 6077 100 fold 
total pot: 1419 
/inquire 
send inquire msg to player 1111 
inquire/ 
2222 1600 6077 100 fold 
4444 2950 6000 300 check 
7777 1700 4050 300 call 
8888 0 6043 119 all_in 
3333 13694 4078 300 call 
6666 651 6082 0 fold 
5555 9560 8000 300 raise 
1111 2000 6095 0 fold 
total pot: 1419 
/inquire 
send inquire msg to player 5555 
inquire/ 
1111 2000 6095 0 fold 
2222 1600 6077 100 fold 
4444 2950 6000 300 check 
7777 1700 4050 300 call 
8888 0 6043 119 all_in 
3333 13694 4078 300 call 
6666 651 6082 0 fold 
5555 9560 8000 300 raise 
total pot: 1419 
/inquire 
recv from player 5555: raise 0
send inquire msg to player 6666 
inquire/ 
5555 9460 8000 400 raise 
1111 2000 6095 0 fold 
2222 1600 6077 100 fold 
4444 2950 6000 300 check 
7777 1700 4050 300 call 
8888 0 6043 119 all_in 
3333 13694 4078 300 call 
6666 651 6082 0 fold 
total pot: 1519 
/inquire 
send inquire msg to player 3333 
inquire/ 
6666 651 6082 0 fold 
5555 9460 8000 400 raise 
1111 2000 6095 0 fold 
2222 1600 6077 100 fold 
4444 2950 6000 300 check 
7777 1700 4050 300 call 
8888 0 6043 119 all_in 
3333 13694 4078 300 call 
total pot: 1519 
/inquire 
recv from player 3333: check
send inquire msg to player 8888 
inquire/ 
3333 13594 4078 400 call 
6666 651 6082 0 fold 
5555 9460 8000 400 raise 
1111 2000 6095 0 fold 
2222 1600 6077 100 fold 
4444 2950 6000 300 check 
7777 1700 4050 300 call 
8888 0 6043 119 all_in 
total pot: 1619 
/inquire 
send inquire msg to player 7777 
inquire/ 
8888 0 6043 119 all_in 
3333 13594 4078 400 call 
6666 651 6082 0 fold 
5555 9460 8000 400 raise 
1111 2000 6095 0 fold 
2222 1600 6077 100 fold 
4444 2950 6000 300 check 
7777 1700 4050 300 call 
total pot: 1619 
/inquire 
recv from player 7777: check
send inquire msg to player 4444 
inquire/ 
7777 1600 4050 400 call 
8888 0 6043 119 all_in 
3333 13594 4078 400 call 
6666 651 6082 0 fold 
5555 9460 8000 400 raise 
1111 2000 6095 0 fold 
2222 1600 6077 100 fold 
4444 2950 6000 300 check 
total pot: 1719 
/inquire 
recv from player 4444: check
river/ 
SPADES 8 
/river 

---river round bet---
valid player: 8, all in player: 1, fold player: 3
send inquire msg to player 4444 
inquire/ 
7777 1600 4050 400 call 
8888 0 6043 119 all_in 
3333 13594 4078 400 call 
6666 651 6082 0 fold 
5555 9460 8000 400 raise 
1111 2000 6095 0 fold 
2222 1600 6077 100 fold 
4444 2850 6000 400 call 
total pot: 1819 
/inquire 
recv from player 4444: check
send inquire msg to player 2222 
inquire/ 
4444 2850 6000 400 check 
7777 1600 4050 400 call 
8888 0 6043 119 all_in 
3333 13594 4078 400 call 
6666 651 6082 0 fold 
5555 9460 8000 400 raise 
1111 2000 6095 0 fold 
2222 1600 6077 100 fold 
total pot: 1819 
/inquire 
send inquire msg to player 1111 
inquire/ 
2222 1600 6077 100 fold 
4444 2850 6000 400 check 
7777 1600 4050 400 call 
8888 0 6043 119 all_in 
3333 13594 4078 400 call 
6666 651 6082 0 fold 
5555 9460 8000 400 raise 
1111 2000 6095 0 fold 
total pot: 1819 
/inquire 
send inquire msg to player 5555 
inquire/ 
1111 2000 6095 0 fold 
2222 1600 6077 100 fold 
4444 2850 6000 400 check 
7777 1600 4050 400 call 
8888 0 6043 119 all_in 
3333 13594 4078 400 call 
6666 651 6082 0 fold 
5555 9460 8000 400 raise 
total pot: 1819 
/inquire 
recv from player 5555: check
send inquire msg to player 6666 
inquire/ 
5555 9460 8000 400 check 
1111 2000 6095 0 fold 
2222 1600 6077 100 fold 
4444 2850 6000 400 check 
7777 1600 4050 400 call 
8888 0 6043 119 all_in 
3333 13594 4078 400 call 
6666 651 6082 0 fold 
total pot: 1819 
/inquire 
send inquire msg to player 3333 
inquire/ 
6666 651 6082 0 fold 
5555 9460 8000 400 check 
1111 2000 6095 0 fold 
2222 1600 6077 100 fold 
4444 2850 6000 400 check 
7777 1600 4050 400 call 
8888 0 6043 119 all_in 
3333 13594 4078 400 call 
total pot: 1819 
/inquire 
recv from player 3333: check
send inquire msg to player 8888 
inquire/ 
3333 13594 4078 400 check 
6666 651 6082 0 fold 
5555 9460 8000 400 check 
1111 2000 6095 0 fold 
2222 1600 6077 100 fold 
4444 2850 6000 400 check 
7777 1600 4050 400 call 
8888 0 6043 119 all_in 
total pot: 1819 
/inquire 
send inquire msg to player 7777 
inquire/ 
8888 0 6043 119 all_in 
3333 13594 4078 400 check 
6666 651 6082 0 fold 
5555 9460 8000 400 check 
1111 2000 6095 0 fold 
2222 1600 6077 100 fold 
4444 2850 6000 400 check 
7777 1600 4050 400 call 
total pot: 1819 
/inquire 
recv from player 7777: check

---show down---
showdown/ 
common/ 
HEARTS Q 
CLUBS 5 
CLUBS J 
DIAMONDS 9 
SPADES 8 
/common 
3: 4444 SPADES 3 SPADES J ONE_PAIR 
5: 5555 SPADES 2 CLUBS K HIGH_CARD 
1: 3333 HEARTS 10 SPADES Q STRAIGHT 
4: 8888 SPADES 7 DIAMONDS A HIGH_CARD 
2: 7777 CLUBS 9 CLUBS Q TWO_PAIR 
/showdown 

---Allocate pot---
pot-win/ 
3333: 1819 
/pot-win 
it is player 4444's turn to be button

-----37 Hand-----

----- clean player data in socket -----
seat/ 
button: 4444 2850 6000 
small blind: 2222 1600 6077 
big blind: 1111 2000 6095 
5555 9460 8000 
6666 651 6082 
3333 15413 4078 
8888 2000 4043 
7777 1600 4050 
/seat 
blind/ 
2222: 50 
1111: 100 
/blind 
player 2222:hold/ 
HEARTS 7 
SPADES 8 
/hold 
player 1111:hold/ 
CLUBS 6 
SPADES J 
/hold 
player 5555:hold/ 
CLUBS 7 
CLUBS J 
/hold 
player 6666:hold/ 
CLUBS K 
HEARTS 5 
/hold 
player 3333:hold/ 
HEARTS 10 
DIAMONDS 10 
/hold 
player 8888:hold/ 
CLUBS Q 
SPADES K 
/hold 
player 7777:hold/ 
DIAMONDS 7 
HEARTS 6 
/hold 
player 4444:hold/ 
DIAMONDS J 
DIAMONDS A 
/hold 

---pre flop round bet---
valid player: 8, all in player: 0, fold player: 0
send inquire msg to player 5555 
inquire/ 
1111 1900 6095 100 blind 
2222 1550 6077 50 blind 
total pot: 150 
/inquire 
recv from player 5555: raise 0
send inquire msg to player 6666 
inquire/ 
5555 9260 8000 200 raise 
1111 1900 6095 100 blind 
2222 1550 6077 50 blind 
total pot: 350 
/inquire 
recv from player 6666: fold
send inquire msg to player 3333 
inquire/ 
6666 651 6082 0 fold 
5555 9260 8000 200 raise 
1111 1900 6095 100 blind 
2222 1550 6077 50 blind 
total pot: 350 
/inquire 
recv from player 3333: check
send inquire msg to player 8888 
inquire/ 
3333 15213 4078 200 call 
6666 651 6082 0 fold 
5555 9260 8000 200 raise 
1111 1900 6095 100 blind 
2222 1550 6077 50 blind 
total pot: 550 
/inquire 
recv from player 8888: check
send inquire msg to player 7777 
inquire/ 
8888 1800 4043 200 call 
3333 15213 4078 200 call 
6666 651 6082 0 fold 
5555 9260 8000 200 raise 
1111 1900 6095 100 blind 
2222 1550 6077 50 blind 
total pot: 750 
/inquire 
recv from player 7777: fold
send inquire msg to player 4444 
inquire/ 
7777 1600 4050 0 fold 
8888 1800 4043 200 call 
3333 15213 4078 200 call 
6666 651 6082 0 fold 
5555 9260 8000 200 raise 
1111 1900 6095 100 blind 
2222 1550 6077 50 blind 
total pot: 750 
/inquire 
recv from player 4444: raise 401
send inquire msg to player 2222 
inquire/ 
4444 2249 6000 601 raise 
7777 1600 4050 0 fold 
8888 1800 4043 200 call 
3333 15213 4078 200 call 
6666 651 6082 0 fold 
5555 9260 8000 200 raise 
1111 1900 6095 100 blind 
2222 1550 6077 50 blind 
total pot: 1351 
/inquire 
recv from player 2222: fold
send inquire msg to player 1111 
inquire/ 
2222 1550 6077 50 fold 
4444 2249 6000 601 raise 
7777 1600 4050 0 fold 
8888 1800 4043 200 call 
3333 15213 4078 200 call 
6666 651 6082 0 fold 
5555 9260 8000 200 raise 
1111 1900 6095 100 blind 
total pot: 1351 
/inquire 
recv from player 1111: fold
send inquire msg to player 5555 
inquire/ 
1111 1900 6095 100 fold 
2222 1550 6077 50 fold 
4444 2249 6000 601 raise 
7777 1600 4050 0 fold 
8888 1800 4043 200 call 
3333 15213 4078 200 call 
6666 651 6082 0 fold 
5555 9260 8000 200 raise 
total pot: 1351 
/inquire 
recv from player 5555: check
send inquire msg to player 6666 
inquire/ 
5555 8859 8000 601 call 
1111 1900 6095 100 fold 
2222 1550 6077 50 fold 
4444 2249 6000 601 raise 
7777 1600 4050 0 fold 
8888 1800 4043 200 call 
3333 15213 4078 200 call 
6666 651 6082 0 fold 
total pot: 1752 
/inquire 
send inquire msg to player 3333 
inquire/ 
6666 651 6082 0 fold 
5555 8859 8000 601 call 
1111 1900 6095 100 fold 
2222 1550 6077 50 fold 
4444 2249 6000 601 raise 
7777 1600 4050 0 fold 
8888 1800 4043 200 call 
3333 15213 4078 200 call 
total pot: 1752 
/inquire 
recv from player 3333: check
send inquire msg to player 8888 
inquire/ 
3333 14812 4078 601 call 
6666 651 6082 0 fold 
5555 8859 8000 601 call 
1111 1900 6095 100 fold 
2222 1550 6077 50 fold 
4444 2249 6000 601 raise 
7777 1600 4050 0 fold 
8888 1800 4043 200 call 
total pot: 2153 
/inquire 
recv from player 8888: check
flop/ 
CLUBS 8 
SPADES 7 
CLUBS 9 
/flop 

---flop round bet---
valid player: 8, all in player: 0, fold player: 4
send inquire msg to player 2222 
inquire/ 
4444 2249 6000 601 raise 
7777 1600 4050 0 fold 
8888 1399 4043 601 call 
3333 14812 4078 601 call 
6666 651 6082 0 fold 
5555 8859 8000 601 call 
1111 1900 6095 100 fold 
2222 1550 6077 50 fold 
total pot: 2554 
/inquire 
send inquire msg to player 1111 
inquire/ 
2222 1550 6077 50 fold 
4444 2249 6000 601 raise 
7777 1600 4050 0 fold 
8888 1399 4043 601 call 
3333 14812 4078 601 call 
6666 651 6082 0 fold 
5555 8859 8000 601 call 
1111 1900 6095 100 fold 
total pot: 2554 
/inquire 
send inquire msg to player 5555 
inquire/ 
1111 1900 6095 100 fold 
2222 1550 6077 50 fold 
4444 2249 6000 601 raise 
7777 1600 4050 0 fold 
8888 1399 4043 601 call 
3333 14812 4078 601 call 
6666 651 6082 0 fold 
5555 8859 8000 601 call 
total pot: 2554 
/inquire 
recv from player 5555: raise 0
send inquire msg to player 6666 
inquire/ 
5555 8759 8000 701 raise 
1111 1900 6095 100 fold 
2222 1550 6077 50 fold 
4444 2249 6000 601 raise 
7777 1600 4050 0 fold 
8888 1399 4043 601 call 
3333 14812 4078 601 call 
6666 651 6082 0 fold 
total pot: 2654 
/inquire 
send inquire msg to player 3333 
inquire/ 
6666 651 6082 0 fold 
5555 8759 8000 701 raise 
1111 1900 6095 100 fold 
2222 1550 6077 50 fold 
4444 2249 6000 601 raise 
7777 1600 4050 0 fold 
8888 1399 4043 601 call 
3333 14812 4078 601 call 
total pot: 2654 
/inquire 
recv from player 3333: check
send inquire msg to player 8888 
inquire/ 
3333 14712 4078 701 call 
6666 651 6082 0 fold 
5555 8759 8000 701 raise 
1111 1900 6095 100 fold 
2222 1550 6077 50 fold 
4444 2249 6000 601 raise 
7777 1600 4050 0 fold 
8888 1399 4043 601 call 
total pot: 2754 
/inquire 
recv from player 8888: check
send inquire msg to player 7777 
inquire/ 
8888 1299 4043 701 call 
3333 14712 4078 701 call 
6666 651 6082 0 fold 
5555 8759 8000 701 raise 
1111 1900 6095 100 fold 
2222 1550 6077 50 fold 
4444 2249 6000 601 raise 
7777 1600 4050 0 fold 
total pot: 2854 
/inquire 
send inquire msg to player 4444 
inquire/ 
7777 1600 4050 0 fold 
8888 1299 4043 701 call 
3333 14712 4078 701 call 
6666 651 6082 0 fold 
5555 8759 8000 701 raise 
1111 1900 6095 100 fold 
2222 1550 6077 50 fold 
4444 2249 6000 601 raise 
total pot: 2854 
/inquire 
recv from player 4444: check
turn/ 
SPADES A 
/turn 

---turn round bet---
valid player: 8, all in player: 0, fold player: 4
send inquire msg to player 2222 
inquire/ 
4444 2149 6000 701 call 
7777 1600 4050 0 fold 
8888 1299 4043 701 call 
3333 14712 4078 701 call 
6666 651 6082 0 fold 
5555 8759 8000 701 raise 
1111 1900 6095 100 fold 
2222 1550 6077 50 fold 
total pot: 2954 
/inquire 
send inquire msg to player 1111 
inquire/ 
2222 1550 6077 50 fold 
4444 2149 6000 701 call 
7777 1600 4050 0 fold 
8888 1299 4043 701 call 
3333 14712 4078 701 call 
6666 651 6082 0 fold 
5555 8759 8000 701 raise 
1111 1900 6095 100 fold 
total pot: 2954 
/inquire 
send inquire msg to player 5555 
inquire/ 
1111 1900 6095 100 fold 
2222 1550 6077 50 fold 
4444 2149 6000 701 call 
7777 1600 4050 0 fold 
8888 1299 4043 701 call 
3333 14712 4078 701 call 
6666 651 6082 0 fold 
5555 8759 8000 701 raise 
total pot: 2954 
/inquire 
recv from player 5555: check
send inquire msg to player 6666 
inquire/ 
5555 8759 8000 701 check 
1111 1900 6095 100 fold 
2222 1550 6077 50 fold 
4444 2149 6000 701 call 
7777 1600 4050 0 fold 
8888 1299 4043 701 call 
3333 14712 4078 701 call 
6666 651 6082 0 fold 
total pot: 2954 
/inquire 
send inquire msg to player 3333 
inquire/ 
6666 651 6082 0 fold 
5555 8759 8000 701 check 
1111 1900 6095 100 fold 
2222 1550 6077 50 fold 
4444 2149 6000 701 call 
7777 1600 4050 0 fold 
8888 1299 4043 701 call 
3333 14712 4078 701 call 
total pot: 2954 
/inquire 
recv from player 3333: check
send inquire msg to player 8888 
inquire/ 
3333 14712 4078 701 check 
6666 651 6082 0 fold 
5555 8759 8000 701 check 
1111 1900 6095 100 fold 
2222 1550 6077 50 fold 
4444 2149 6000 701 call 
7777 1600 4050 0 fold 
8888 1299 4043 701 call 
total pot: 2954 
/inquire 
recv from player 8888: check
send inquire msg to player 7777 
inquire/ 
8888 1299 4043 701 check 
3333 14712 4078 701 check 
6666 651 6082 0 fold 
5555 8759 8000 701 check 
1111 1900 6095 100 fold 
2222 1550 6077 50 fold 
4444 2149 6000 701 call 
7777 1600 4050 0 fold 
total pot: 2954 
/inquire 
send inquire msg to player 4444 
inquire/ 
7777 1600 4050 0 fold 
8888 1299 4043 701 check 
3333 14712 4078 701 check 
6666 651 6082 0 fold 
5555 8759 8000 701 check 
1111 1900 6095 100 fold 
2222 1550 6077 50 fold 
4444 2149 6000 701 call 
total pot: 2954 
/inquire 
recv from player 4444: check
river/ 
SPADES 2 
/river 

---river round bet---
valid player: 8, all in player: 0, fold player: 4
send inquire msg to player 2222 
inquire/ 
4444 2149 6000 701 check 
7777 1600 4050 0 fold 
8888 1299 4043 701 check 
3333 14712 4078 701 check 
6666 651 6082 0 fold 
5555 8759 8000 701 check 
1111 1900 6095 100 fold 
2222 1550 6077 50 fold 
total pot: 2954 
/inquire 
send inquire msg to player 1111 
inquire/ 
2222 1550 6077 50 fold 
4444 2149 6000 701 check 
7777 1600 4050 0 fold 
8888 1299 4043 701 check 
3333 14712 4078 701 check 
6666 651 6082 0 fold 
5555 8759 8000 701 check 
1111 1900 6095 100 fold 
total pot: 2954 
/inquire 
send inquire msg to player 5555 
inquire/ 
1111 1900 6095 100 fold 
2222 1550 6077 50 fold 
4444 2149 6000 701 check 
7777 1600 4050 0 fold 
8888 1299 4043 701 check 
3333 14712 4078 701 check 
6666 651 6082 0 fold 
5555 8759 8000 701 check 
total pot: 2954 
/inquire 
recv from player 5555: raise 0
send inquire msg to player 6666 
inquire/ 
5555 8659 8000 801 raise 
1111 1900 6095 100 fold 
2222 1550 6077 50 fold 
4444 2149 6000 701 check 
7777 1600 4050 0 fold 
8888 1299 4043 701 check 
3333 14712 4078 701 check 
6666 651 6082 0 fold 
total pot: 3054 
/inquire 
send inquire msg to player 3333 
inquire/ 
6666 651 6082 0 fold 
5555 8659 8000 801 raise 
1111 1900 6095 100 fold 
2222 1550 6077 50 fold 
4444 2149 6000 701 check 
7777 1600 4050 0 fold 
8888 1299 4043 701 check 
3333 14712 4078 701 check 
total pot: 3054 
/inquire 
recv from player 3333: check
send inquire msg to player 8888 
inquire/ 
3333 14612 4078 801 call 
6666 651 6082 0 fold 
5555 8659 8000 801 raise 
1111 1900 6095 100 fold 
2222 1550 6077 50 fold 
4444 2149 6000 701 check 
7777 1600 4050 0 fold 
8888 1299 4043 701 check 
total pot: 3154 
/inquire 
recv from player 8888: check
send inquire msg to player 7777 
inquire/ 
8888 1199 4043 801 call 
3333 14612 4078 801 call 
6666 651 6082 0 fold 
5555 8659 8000 801 raise 
1111 1900 6095 100 fold 
2222 1550 6077 50 fold 
4444 2149 6000 701 check 
7777 1600 4050 0 fold 
total pot: 3254 
/inquire 
send inquire msg to player 4444 
inquire/ 
7777 1600 4050 0 fold 
8888 1199 4043 801 call 
3333 14612 4078 801 call 
6666 651 6082 0 fold 
5555 8659 8000 801 raise 
1111 1900 6095 100 fold 
2222 1550 6077 50 fold 
4444 2149 6000 701 check 
total pot: 3254 
/inquire 
recv from player 4444: check

---show down---
showdown/ 
common/ 
CLUBS 8 
SPADES 7 
CLUBS 9 
SPADES A 
SPADES 2 
/common 
3: 5555 CLUBS 7 CLUBS J ONE_PAIR 
2: 3333 HEARTS 10 DIAMONDS 10 ONE_PAIR 
4: 8888 CLUBS Q SPADES K HIGH_CARD 
1: 4444 DIAMONDS J DIAMONDS A ONE_PAIR 
/showdown 

---Allocate pot---
pot-win/ 
4444: 3354 
/pot-win 
it is player 2222's turn to be button

-----38 Hand-----

----- clean player data in socket -----
seat/ 
button: 2222 1550 6077 
small blind: 1111 1900 6095 
big blind: 5555 8659 8000 
6666 651 6082 
3333 14612 4078 
8888 1199 4043 
7777 1600 4050 
4444 5403 6000 
/seat 
blind/ 
1111: 50 
5555: 100 
/blind 
player 1111:hold/ 
HEARTS 4 
DIAMONDS 6 
/hold 
player 5555:hold/ 
DIAMONDS 8 
CLUBS J 
/hold 
player 6666:hold/ 
DIAMONDS 10 
HEARTS Q 
/hold 
player 3333:hold/ 
HEARTS J 
SPADES 6 
/hold 
player 8888:hold/ 
CLUBS K 
HEARTS 9 
/hold 
player 7777:hold/ 
HEARTS 5 
SPADES 7 
/hold 
player 4444:hold/ 
SPADES 5 
SPADES 8 
/hold 
player 2222:hold/ 
SPADES 3 
DIAMONDS 5 
/hold 

---pre flop round bet---
valid player: 8, all in player: 0, fold player: 0
send inquire msg to player 6666 
inquire/ 
5555 8559 8000 100 blind 
1111 1850 6095 50 blind 
total pot: 150 
/inquire 
recv from player 6666: check
send inquire msg to player 3333 
inquire/ 
6666 551 6082 100 call 
5555 8559 8000 100 blind 
1111 1850 6095 50 blind 
total pot: 250 
/inquire 
recv from player 3333: check
send inquire msg to player 8888 
inquire/ 
3333 14512 4078 100 call 
6666 551 6082 100 call 
5555 8559 8000 100 blind 
1111 1850 6095 50 blind 
total pot: 350 
/inquire 
recv from player 8888: check
send inquire msg to player 7777 
inquire/ 
8888 1099 4043 100 call 
3333 14512 4078 100 call 
6666 551 6082 